ARM GAS  /tmp/cc3XXQkZ.s 			page 1


   1              		.syntax unified
   2              		.cpu cortex-m3
   3              		.fpu softvfp
   4              		.eabi_attribute 20, 1
   5              		.eabi_attribute 21, 1
   6              		.eabi_attribute 23, 3
   7              		.eabi_attribute 24, 1
   8              		.eabi_attribute 25, 1
   9              		.eabi_attribute 26, 1
  10              		.eabi_attribute 30, 2
  11              		.eabi_attribute 34, 1
  12              		.eabi_attribute 18, 4
  13              		.thumb
  14              		.file	"adc.c"
  15              		.text
  16              	.Ltext0:
  17              		.cfi_sections	.debug_frame
  18              		.section	.text.adcInit,"ax",%progbits
  19              		.align	2
  20              		.p2align 4,,15
  21              		.global	adcInit
  22              		.thumb
  23              		.thumb_func
  24              		.type	adcInit, %function
  25              	adcInit:
  26              	.LFB207:
  27              		.file 1 "/home/maciek/ChibiOS_16.1.5/os/hal/src/adc.c"
  28              		.loc 1 56 0
  29              		.cfi_startproc
  30              		@ args = 0, pretend = 0, frame = 0
  31              		@ frame_needed = 0, uses_anonymous_args = 0
  32              		@ link register save eliminated.
  33              		.loc 1 58 0
  34 0000 FFF7FEBF 		b	adc_lld_init
  35              	.LVL0:
  36              		.cfi_endproc
  37              	.LFE207:
  38              		.size	adcInit, .-adcInit
  39              		.section	.text.adcObjectInit,"ax",%progbits
  40              		.align	2
  41              		.p2align 4,,15
  42              		.global	adcObjectInit
  43              		.thumb
  44              		.thumb_func
  45              		.type	adcObjectInit, %function
  46              	adcObjectInit:
  47              	.LFB208:
  48              		.loc 1 68 0
  49              		.cfi_startproc
  50              		@ args = 0, pretend = 0, frame = 0
  51              		@ frame_needed = 0, uses_anonymous_args = 0
  52              		@ link register save eliminated.
  53              	.LVL1:
  54              		.loc 1 71 0
  55 0000 0023     		movs	r3, #0
  56              		.loc 1 70 0
  57 0002 0122     		movs	r2, #1
ARM GAS  /tmp/cc3XXQkZ.s 			page 2


  58 0004 0270     		strb	r2, [r0]
  59              		.loc 1 71 0
  60 0006 4360     		str	r3, [r0, #4]
  61              		.loc 1 72 0
  62 0008 8360     		str	r3, [r0, #8]
  63              		.loc 1 73 0
  64 000a C360     		str	r3, [r0, #12]
  65              		.loc 1 74 0
  66 000c 0361     		str	r3, [r0, #16]
  67 000e 7047     		bx	lr
  68              		.cfi_endproc
  69              	.LFE208:
  70              		.size	adcObjectInit, .-adcObjectInit
  71              		.section	.text.adcStart,"ax",%progbits
  72              		.align	2
  73              		.p2align 4,,15
  74              		.global	adcStart
  75              		.thumb
  76              		.thumb_func
  77              		.type	adcStart, %function
  78              	adcStart:
  79              	.LFB209:
  80              		.loc 1 95 0
  81              		.cfi_startproc
  82              		@ args = 0, pretend = 0, frame = 0
  83              		@ frame_needed = 0, uses_anonymous_args = 0
  84              	.LVL2:
  85 0000 10B5     		push	{r4, lr}
  86              		.cfi_def_cfa_offset 8
  87              		.cfi_offset 4, -8
  88              		.cfi_offset 14, -4
  89              	.LBB78:
  90              	.LBB79:
  91              	.LBB80:
  92              	.LBB81:
  93              	.LBB82:
  94              		.file 2 "/home/maciek/ChibiOS_16.1.5/os/ext/CMSIS/include/core_cmFunc.h"
  95              		.loc 2 548 0
  96 0002 2023     		movs	r3, #32
  97              	.LBE82:
  98              	.LBE81:
  99              	.LBE80:
 100              	.LBE79:
 101              	.LBE78:
 102              		.loc 1 95 0
 103 0004 0446     		mov	r4, r0
 104              	.LBB87:
 105              	.LBB86:
 106              	.LBB85:
 107              	.LBB84:
 108              	.LBB83:
 109              		.loc 2 548 0
 110              	@ 548 "/home/maciek/ChibiOS_16.1.5/os/ext/CMSIS/include/core_cmFunc.h" 1
 111 0006 83F31188 		MSR basepri, r3
 112              	@ 0 "" 2
 113              		.thumb
 114              	.LBE83:
ARM GAS  /tmp/cc3XXQkZ.s 			page 3


 115              	.LBE84:
 116              	.LBE85:
 117              	.LBE86:
 118              	.LBE87:
 119              		.loc 1 102 0
 120 000a 4160     		str	r1, [r0, #4]
 121              		.loc 1 103 0
 122 000c FFF7FEFF 		bl	adc_lld_start
 123              	.LVL3:
 124              		.loc 1 104 0
 125 0010 0223     		movs	r3, #2
 126 0012 2370     		strb	r3, [r4]
 127              	.LVL4:
 128              	.LBB88:
 129              	.LBB89:
 130              	.LBB90:
 131              	.LBB91:
 132              	.LBB92:
 133              	.LBB93:
 134              		.loc 2 548 0
 135 0014 0023     		movs	r3, #0
 136              	@ 548 "/home/maciek/ChibiOS_16.1.5/os/ext/CMSIS/include/core_cmFunc.h" 1
 137 0016 83F31188 		MSR basepri, r3
 138              	@ 0 "" 2
 139              		.thumb
 140 001a 10BD     		pop	{r4, pc}
 141              	.LBE93:
 142              	.LBE92:
 143              	.LBE91:
 144              	.LBE90:
 145              	.LBE89:
 146              	.LBE88:
 147              		.cfi_endproc
 148              	.LFE209:
 149              		.size	adcStart, .-adcStart
 150              		.section	.text.adcStop,"ax",%progbits
 151              		.align	2
 152              		.p2align 4,,15
 153              		.global	adcStop
 154              		.thumb
 155              		.thumb_func
 156              		.type	adcStop, %function
 157              	adcStop:
 158              	.LFB210:
 159              		.loc 1 115 0
 160              		.cfi_startproc
 161              		@ args = 0, pretend = 0, frame = 0
 162              		@ frame_needed = 0, uses_anonymous_args = 0
 163              	.LVL5:
 164 0000 10B5     		push	{r4, lr}
 165              		.cfi_def_cfa_offset 8
 166              		.cfi_offset 4, -8
 167              		.cfi_offset 14, -4
 168              	.LBB94:
 169              	.LBB95:
 170              	.LBB96:
 171              	.LBB97:
ARM GAS  /tmp/cc3XXQkZ.s 			page 4


 172              	.LBB98:
 173              		.loc 2 548 0
 174 0002 2023     		movs	r3, #32
 175              	.LBE98:
 176              	.LBE97:
 177              	.LBE96:
 178              	.LBE95:
 179              	.LBE94:
 180              		.loc 1 115 0
 181 0004 0446     		mov	r4, r0
 182              	.LBB103:
 183              	.LBB102:
 184              	.LBB101:
 185              	.LBB100:
 186              	.LBB99:
 187              		.loc 2 548 0
 188              	@ 548 "/home/maciek/ChibiOS_16.1.5/os/ext/CMSIS/include/core_cmFunc.h" 1
 189 0006 83F31188 		MSR basepri, r3
 190              	@ 0 "" 2
 191              		.thumb
 192              	.LBE99:
 193              	.LBE100:
 194              	.LBE101:
 195              	.LBE102:
 196              	.LBE103:
 197              		.loc 1 122 0
 198 000a FFF7FEFF 		bl	adc_lld_stop
 199              	.LVL6:
 200              		.loc 1 123 0
 201 000e 0123     		movs	r3, #1
 202 0010 2370     		strb	r3, [r4]
 203              	.LVL7:
 204              	.LBB104:
 205              	.LBB105:
 206              	.LBB106:
 207              	.LBB107:
 208              	.LBB108:
 209              	.LBB109:
 210              		.loc 2 548 0
 211 0012 0023     		movs	r3, #0
 212              	@ 548 "/home/maciek/ChibiOS_16.1.5/os/ext/CMSIS/include/core_cmFunc.h" 1
 213 0014 83F31188 		MSR basepri, r3
 214              	@ 0 "" 2
 215              		.thumb
 216 0018 10BD     		pop	{r4, pc}
 217              	.LBE109:
 218              	.LBE108:
 219              	.LBE107:
 220              	.LBE106:
 221              	.LBE105:
 222              	.LBE104:
 223              		.cfi_endproc
 224              	.LFE210:
 225              		.size	adcStop, .-adcStop
 226 001a 00BF     		.section	.text.adcStartConversion,"ax",%progbits
 227              		.align	2
 228              		.p2align 4,,15
ARM GAS  /tmp/cc3XXQkZ.s 			page 5


 229              		.global	adcStartConversion
 230              		.thumb
 231              		.thumb_func
 232              		.type	adcStartConversion, %function
 233              	adcStartConversion:
 234              	.LFB211:
 235              		.loc 1 146 0
 236              		.cfi_startproc
 237              		@ args = 0, pretend = 0, frame = 0
 238              		@ frame_needed = 0, uses_anonymous_args = 0
 239              	.LVL8:
 240 0000 38B5     		push	{r3, r4, r5, lr}
 241              		.cfi_def_cfa_offset 16
 242              		.cfi_offset 3, -16
 243              		.cfi_offset 4, -12
 244              		.cfi_offset 5, -8
 245              		.cfi_offset 14, -4
 246              	.LBB110:
 247              	.LBB111:
 248              	.LBB112:
 249              	.LBB113:
 250              	.LBB114:
 251              		.loc 2 548 0
 252 0002 2025     		movs	r5, #32
 253              	@ 548 "/home/maciek/ChibiOS_16.1.5/os/ext/CMSIS/include/core_cmFunc.h" 1
 254 0004 85F31188 		MSR basepri, r5
 255              	@ 0 "" 2
 256              	.LVL9:
 257              		.thumb
 258              	.LBE114:
 259              	.LBE113:
 260              	.LBE112:
 261              	.LBE111:
 262              	.LBE110:
 263              	.LBB115:
 264              	.LBB116:
 265              		.loc 1 187 0
 266 0008 0325     		movs	r5, #3
 267              		.loc 1 185 0
 268 000a C360     		str	r3, [r0, #12]
 269              		.loc 1 184 0
 270 000c 8260     		str	r2, [r0, #8]
 271              		.loc 1 186 0
 272 000e 0161     		str	r1, [r0, #16]
 273              		.loc 1 187 0
 274 0010 0570     		strb	r5, [r0]
 275              		.loc 1 188 0
 276 0012 FFF7FEFF 		bl	adc_lld_start_conversion
 277              	.LVL10:
 278              	.LBE116:
 279              	.LBE115:
 280              	.LBB117:
 281              	.LBB118:
 282              	.LBB119:
 283              	.LBB120:
 284              	.LBB121:
 285              	.LBB122:
ARM GAS  /tmp/cc3XXQkZ.s 			page 6


 286              		.loc 2 548 0
 287 0016 0023     		movs	r3, #0
 288              	@ 548 "/home/maciek/ChibiOS_16.1.5/os/ext/CMSIS/include/core_cmFunc.h" 1
 289 0018 83F31188 		MSR basepri, r3
 290              	@ 0 "" 2
 291              		.thumb
 292 001c 38BD     		pop	{r3, r4, r5, pc}
 293              	.LBE122:
 294              	.LBE121:
 295              	.LBE120:
 296              	.LBE119:
 297              	.LBE118:
 298              	.LBE117:
 299              		.cfi_endproc
 300              	.LFE211:
 301              		.size	adcStartConversion, .-adcStartConversion
 302 001e 00BF     		.section	.text.adcStartConversionI,"ax",%progbits
 303              		.align	2
 304              		.p2align 4,,15
 305              		.global	adcStartConversionI
 306              		.thumb
 307              		.thumb_func
 308              		.type	adcStartConversionI, %function
 309              	adcStartConversionI:
 310              	.LFB212:
 311              		.loc 1 174 0
 312              		.cfi_startproc
 313              		@ args = 0, pretend = 0, frame = 0
 314              		@ frame_needed = 0, uses_anonymous_args = 0
 315              		@ link register save eliminated.
 316              	.LVL11:
 317 0000 30B4     		push	{r4, r5}
 318              		.cfi_def_cfa_offset 8
 319              		.cfi_offset 4, -8
 320              		.cfi_offset 5, -4
 321              		.loc 1 187 0
 322 0002 0325     		movs	r5, #3
 323 0004 0570     		strb	r5, [r0]
 324              		.loc 1 184 0
 325 0006 8260     		str	r2, [r0, #8]
 326              		.loc 1 185 0
 327 0008 C360     		str	r3, [r0, #12]
 328              		.loc 1 186 0
 329 000a 0161     		str	r1, [r0, #16]
 330              		.loc 1 189 0
 331 000c 30BC     		pop	{r4, r5}
 332              		.cfi_restore 5
 333              		.cfi_restore 4
 334              		.cfi_def_cfa_offset 0
 335              		.loc 1 188 0
 336 000e FFF7FEBF 		b	adc_lld_start_conversion
 337              	.LVL12:
 338              		.cfi_endproc
 339              	.LFE212:
 340              		.size	adcStartConversionI, .-adcStartConversionI
 341 0012 00BF     		.section	.text.adcStopConversion,"ax",%progbits
 342              		.align	2
ARM GAS  /tmp/cc3XXQkZ.s 			page 7


 343              		.p2align 4,,15
 344              		.global	adcStopConversion
 345              		.thumb
 346              		.thumb_func
 347              		.type	adcStopConversion, %function
 348              	adcStopConversion:
 349              	.LFB213:
 350              		.loc 1 201 0
 351              		.cfi_startproc
 352              		@ args = 0, pretend = 0, frame = 0
 353              		@ frame_needed = 0, uses_anonymous_args = 0
 354              	.LVL13:
 355              	.LBB123:
 356              	.LBB124:
 357              	.LBB125:
 358              	.LBB126:
 359              	.LBB127:
 360              		.loc 2 548 0
 361 0000 2022     		movs	r2, #32
 362              	@ 548 "/home/maciek/ChibiOS_16.1.5/os/ext/CMSIS/include/core_cmFunc.h" 1
 363 0002 82F31188 		MSR basepri, r2
 364              	@ 0 "" 2
 365              		.thumb
 366              	.LBE127:
 367              	.LBE126:
 368              	.LBE125:
 369              	.LBE124:
 370              	.LBE123:
 371              		.loc 1 208 0
 372 0006 0278     		ldrb	r2, [r0]	@ zero_extendqisi2
 373 0008 022A     		cmp	r2, #2
 374 000a 0BD0     		beq	.L17
 375              		.loc 1 201 0
 376 000c 10B5     		push	{r4, lr}
 377              		.cfi_def_cfa_offset 8
 378              		.cfi_offset 4, -8
 379              		.cfi_offset 14, -4
 380 000e 0446     		mov	r4, r0
 381              		.loc 1 209 0
 382 0010 FFF7FEFF 		bl	adc_lld_stop_conversion
 383              	.LVL14:
 384              		.loc 1 210 0
 385 0014 0022     		movs	r2, #0
 386              		.loc 1 211 0
 387 0016 0223     		movs	r3, #2
 388 0018 2370     		strb	r3, [r4]
 389              	.LVL15:
 390              		.loc 1 210 0
 391 001a 2261     		str	r2, [r4, #16]
 392              	.LBB128:
 393              	.LBB129:
 394              	.LBB130:
 395              	.LBB131:
 396              	.LBB132:
 397              	.LBB133:
 398              		.loc 2 548 0
 399 001c 0023     		movs	r3, #0
ARM GAS  /tmp/cc3XXQkZ.s 			page 8


 400              	@ 548 "/home/maciek/ChibiOS_16.1.5/os/ext/CMSIS/include/core_cmFunc.h" 1
 401 001e 83F31188 		MSR basepri, r3
 402              	@ 0 "" 2
 403              		.thumb
 404 0022 10BD     		pop	{r4, pc}
 405              	.LVL16:
 406              	.L17:
 407              		.cfi_def_cfa_offset 0
 408              		.cfi_restore 4
 409              		.cfi_restore 14
 410 0024 0023     		movs	r3, #0
 411              	@ 548 "/home/maciek/ChibiOS_16.1.5/os/ext/CMSIS/include/core_cmFunc.h" 1
 412 0026 83F31188 		MSR basepri, r3
 413              	@ 0 "" 2
 414              		.thumb
 415 002a 7047     		bx	lr
 416              	.LBE133:
 417              	.LBE132:
 418              	.LBE131:
 419              	.LBE130:
 420              	.LBE129:
 421              	.LBE128:
 422              		.cfi_endproc
 423              	.LFE213:
 424              		.size	adcStopConversion, .-adcStopConversion
 425              		.section	.text.adcStopConversionI,"ax",%progbits
 426              		.align	2
 427              		.p2align 4,,15
 428              		.global	adcStopConversionI
 429              		.thumb
 430              		.thumb_func
 431              		.type	adcStopConversionI, %function
 432              	adcStopConversionI:
 433              	.LFB214:
 434              		.loc 1 227 0
 435              		.cfi_startproc
 436              		@ args = 0, pretend = 0, frame = 0
 437              		@ frame_needed = 0, uses_anonymous_args = 0
 438              	.LVL17:
 439              		.loc 1 236 0
 440 0000 0278     		ldrb	r2, [r0]	@ zero_extendqisi2
 441 0002 022A     		cmp	r2, #2
 442 0004 08D0     		beq	.L25
 443              		.loc 1 227 0
 444 0006 10B5     		push	{r4, lr}
 445              		.cfi_def_cfa_offset 8
 446              		.cfi_offset 4, -8
 447              		.cfi_offset 14, -4
 448 0008 0446     		mov	r4, r0
 449              		.loc 1 237 0
 450 000a FFF7FEFF 		bl	adc_lld_stop_conversion
 451              	.LVL18:
 452              		.loc 1 238 0
 453 000e 0022     		movs	r2, #0
 454              		.loc 1 239 0
 455 0010 0223     		movs	r3, #2
 456              		.loc 1 238 0
ARM GAS  /tmp/cc3XXQkZ.s 			page 9


 457 0012 2261     		str	r2, [r4, #16]
 458              		.loc 1 239 0
 459 0014 2370     		strb	r3, [r4]
 460 0016 10BD     		pop	{r4, pc}
 461              	.LVL19:
 462              	.L25:
 463              		.cfi_def_cfa_offset 0
 464              		.cfi_restore 4
 465              		.cfi_restore 14
 466 0018 7047     		bx	lr
 467              		.cfi_endproc
 468              	.LFE214:
 469              		.size	adcStopConversionI, .-adcStopConversionI
 470              		.text
 471              	.Letext0:
 472              		.file 3 "/opt/stm32/gcc/gcc-arm-none-eabi-4_9-2015q2/lib/gcc/arm-none-eabi/4.9.3/include/stddef.h"
 473              		.file 4 "/opt/stm32/gcc/gcc-arm-none-eabi-4_9-2015q2/arm-none-eabi/include/machine/_default_types.
 474              		.file 5 "/opt/stm32/gcc/gcc-arm-none-eabi-4_9-2015q2/arm-none-eabi/include/sys/_stdint.h"
 475              		.file 6 "/home/maciek/ChibiOS_16.1.5/os/rt/ports/ARMCMx/compilers/GCC/chtypes.h"
 476              		.file 7 "/home/maciek/ChibiOS_16.1.5/os/rt/include/chsystypes.h"
 477              		.file 8 "/home/maciek/ChibiOS_16.1.5/os/rt/include/chschd.h"
 478              		.file 9 "/home/maciek/ChibiOS_16.1.5/os/ext/CMSIS/ST/STM32F1xx/stm32f103xe.h"
 479              		.file 10 "/home/maciek/ChibiOS_16.1.5/os/rt/ports/ARMCMx/chcore.h"
 480              		.file 11 "/home/maciek/ChibiOS_16.1.5/os/rt/ports/ARMCMx/chcore_v7m.h"
 481              		.file 12 "/home/maciek/ChibiOS_16.1.5/os/rt/include/chtm.h"
 482              		.file 13 "/home/maciek/ChibiOS_16.1.5/os/rt/include/chsem.h"
 483              		.file 14 "/home/maciek/ChibiOS_16.1.5/os/rt/include/chmtx.h"
 484              		.file 15 "/home/maciek/ChibiOS_16.1.5/os/hal/ports/STM32/LLD/DMAv1/stm32_dma.h"
 485              		.file 16 "/home/maciek/ChibiOS_16.1.5/os/hal/include/adc.h"
 486              		.file 17 "/home/maciek/ChibiOS_16.1.5/os/hal/ports/STM32/STM32F1xx/adc_lld.h"
 487              		.file 18 "/home/maciek/ChibiOS_16.1.5/os/rt/include/chsys.h"
 488              		.file 19 "/home/maciek/ChibiOS_16.1.5/os/hal/osal/rt/osal.h"
 489              		.file 20 "/home/maciek/ChibiOS_16.1.5/os/ext/CMSIS/include/core_cm3.h"
 490              		.section	.debug_info,"",%progbits
 491              	.Ldebug_info0:
 492 0000 82100000 		.4byte	0x1082
 493 0004 0400     		.2byte	0x4
 494 0006 00000000 		.4byte	.Ldebug_abbrev0
 495 000a 04       		.byte	0x4
 496 000b 01       		.uleb128 0x1
 497 000c 3B010000 		.4byte	.LASF183
 498 0010 01       		.byte	0x1
 499 0011 98020000 		.4byte	.LASF184
 500 0015 30000000 		.4byte	.Ldebug_ranges0+0x30
 501 0019 00000000 		.4byte	0
 502 001d 00000000 		.4byte	.Ldebug_line0
 503 0021 02       		.uleb128 0x2
 504 0022 04       		.byte	0x4
 505 0023 05       		.byte	0x5
 506 0024 696E7400 		.ascii	"int\000"
 507 0028 03       		.uleb128 0x3
 508 0029 0D000000 		.4byte	.LASF2
 509 002d 03       		.byte	0x3
 510 002e D4       		.byte	0xd4
 511 002f 33000000 		.4byte	0x33
 512 0033 04       		.uleb128 0x4
 513 0034 04       		.byte	0x4
ARM GAS  /tmp/cc3XXQkZ.s 			page 10


 514 0035 07       		.byte	0x7
 515 0036 84030000 		.4byte	.LASF0
 516 003a 04       		.uleb128 0x4
 517 003b 01       		.byte	0x1
 518 003c 06       		.byte	0x6
 519 003d 08010000 		.4byte	.LASF1
 520 0041 03       		.uleb128 0x3
 521 0042 26000000 		.4byte	.LASF3
 522 0046 04       		.byte	0x4
 523 0047 1D       		.byte	0x1d
 524 0048 4C000000 		.4byte	0x4c
 525 004c 04       		.uleb128 0x4
 526 004d 01       		.byte	0x1
 527 004e 08       		.byte	0x8
 528 004f D5050000 		.4byte	.LASF4
 529 0053 04       		.uleb128 0x4
 530 0054 02       		.byte	0x2
 531 0055 05       		.byte	0x5
 532 0056 5A040000 		.4byte	.LASF5
 533 005a 03       		.uleb128 0x3
 534 005b C8060000 		.4byte	.LASF6
 535 005f 04       		.byte	0x4
 536 0060 2B       		.byte	0x2b
 537 0061 65000000 		.4byte	0x65
 538 0065 04       		.uleb128 0x4
 539 0066 02       		.byte	0x2
 540 0067 07       		.byte	0x7
 541 0068 E2030000 		.4byte	.LASF7
 542 006c 03       		.uleb128 0x3
 543 006d 64040000 		.4byte	.LASF8
 544 0071 04       		.byte	0x4
 545 0072 3F       		.byte	0x3f
 546 0073 77000000 		.4byte	0x77
 547 0077 04       		.uleb128 0x4
 548 0078 04       		.byte	0x4
 549 0079 05       		.byte	0x5
 550 007a 47020000 		.4byte	.LASF9
 551 007e 03       		.uleb128 0x3
 552 007f 0B030000 		.4byte	.LASF10
 553 0083 04       		.byte	0x4
 554 0084 41       		.byte	0x41
 555 0085 89000000 		.4byte	0x89
 556 0089 04       		.uleb128 0x4
 557 008a 04       		.byte	0x4
 558 008b 07       		.byte	0x7
 559 008c 14010000 		.4byte	.LASF11
 560 0090 04       		.uleb128 0x4
 561 0091 08       		.byte	0x8
 562 0092 05       		.byte	0x5
 563 0093 FA000000 		.4byte	.LASF12
 564 0097 03       		.uleb128 0x3
 565 0098 5E050000 		.4byte	.LASF13
 566 009c 04       		.byte	0x4
 567 009d 5B       		.byte	0x5b
 568 009e A2000000 		.4byte	0xa2
 569 00a2 04       		.uleb128 0x4
 570 00a3 08       		.byte	0x8
ARM GAS  /tmp/cc3XXQkZ.s 			page 11


 571 00a4 07       		.byte	0x7
 572 00a5 7C000000 		.4byte	.LASF14
 573 00a9 03       		.uleb128 0x3
 574 00aa AC070000 		.4byte	.LASF15
 575 00ae 05       		.byte	0x5
 576 00af 14       		.byte	0x14
 577 00b0 41000000 		.4byte	0x41
 578 00b4 03       		.uleb128 0x3
 579 00b5 CF020000 		.4byte	.LASF16
 580 00b9 05       		.byte	0x5
 581 00ba 1A       		.byte	0x1a
 582 00bb 5A000000 		.4byte	0x5a
 583 00bf 03       		.uleb128 0x3
 584 00c0 CD050000 		.4byte	.LASF17
 585 00c4 05       		.byte	0x5
 586 00c5 1F       		.byte	0x1f
 587 00c6 6C000000 		.4byte	0x6c
 588 00ca 03       		.uleb128 0x3
 589 00cb 80060000 		.4byte	.LASF18
 590 00cf 05       		.byte	0x5
 591 00d0 20       		.byte	0x20
 592 00d1 7E000000 		.4byte	0x7e
 593 00d5 03       		.uleb128 0x3
 594 00d6 1E050000 		.4byte	.LASF19
 595 00da 05       		.byte	0x5
 596 00db 26       		.byte	0x26
 597 00dc 97000000 		.4byte	0x97
 598 00e0 03       		.uleb128 0x3
 599 00e1 54070000 		.4byte	.LASF20
 600 00e5 06       		.byte	0x6
 601 00e6 39       		.byte	0x39
 602 00e7 CA000000 		.4byte	0xca
 603 00eb 03       		.uleb128 0x3
 604 00ec 2B040000 		.4byte	.LASF21
 605 00f0 06       		.byte	0x6
 606 00f1 3C       		.byte	0x3c
 607 00f2 A9000000 		.4byte	0xa9
 608 00f6 03       		.uleb128 0x3
 609 00f7 8F020000 		.4byte	.LASF22
 610 00fb 06       		.byte	0x6
 611 00fc 3D       		.byte	0x3d
 612 00fd A9000000 		.4byte	0xa9
 613 0101 03       		.uleb128 0x3
 614 0102 7D050000 		.4byte	.LASF23
 615 0106 06       		.byte	0x6
 616 0107 3E       		.byte	0x3e
 617 0108 A9000000 		.4byte	0xa9
 618 010c 03       		.uleb128 0x3
 619 010d AF050000 		.4byte	.LASF24
 620 0111 06       		.byte	0x6
 621 0112 40       		.byte	0x40
 622 0113 CA000000 		.4byte	0xca
 623 0117 03       		.uleb128 0x3
 624 0118 0F040000 		.4byte	.LASF25
 625 011c 06       		.byte	0x6
 626 011d 41       		.byte	0x41
 627 011e BF000000 		.4byte	0xbf
ARM GAS  /tmp/cc3XXQkZ.s 			page 12


 628 0122 03       		.uleb128 0x3
 629 0123 4E040000 		.4byte	.LASF26
 630 0127 06       		.byte	0x6
 631 0128 43       		.byte	0x43
 632 0129 CA000000 		.4byte	0xca
 633 012d 03       		.uleb128 0x3
 634 012e 7E030000 		.4byte	.LASF27
 635 0132 06       		.byte	0x6
 636 0133 45       		.byte	0x45
 637 0134 BF000000 		.4byte	0xbf
 638 0138 03       		.uleb128 0x3
 639 0139 EB060000 		.4byte	.LASF28
 640 013d 07       		.byte	0x7
 641 013e 35       		.byte	0x35
 642 013f B4000000 		.4byte	0xb4
 643 0143 03       		.uleb128 0x3
 644 0144 D3060000 		.4byte	.LASF29
 645 0148 07       		.byte	0x7
 646 0149 3F       		.byte	0x3f
 647 014a 4E010000 		.4byte	0x14e
 648 014e 05       		.uleb128 0x5
 649 014f F5030000 		.4byte	.LASF46
 650 0153 38       		.byte	0x38
 651 0154 08       		.byte	0x8
 652 0155 C2       		.byte	0xc2
 653 0156 17020000 		.4byte	0x217
 654 015a 06       		.uleb128 0x6
 655 015b 24060000 		.4byte	.LASF30
 656 015f 08       		.byte	0x8
 657 0160 C3       		.byte	0xc3
 658 0161 22020000 		.4byte	0x222
 659 0165 00       		.byte	0
 660 0166 06       		.uleb128 0x6
 661 0167 95050000 		.4byte	.LASF31
 662 016b 08       		.byte	0x8
 663 016c C5       		.byte	0xc5
 664 016d 22020000 		.4byte	0x222
 665 0171 04       		.byte	0x4
 666 0172 06       		.uleb128 0x6
 667 0173 EE000000 		.4byte	.LASF32
 668 0177 08       		.byte	0x8
 669 0178 C7       		.byte	0xc7
 670 0179 0C010000 		.4byte	0x10c
 671 017d 08       		.byte	0x8
 672 017e 06       		.uleb128 0x6
 673 017f 4F080000 		.4byte	.LASF33
 674 0183 08       		.byte	0x8
 675 0184 C8       		.byte	0xc8
 676 0185 B9050000 		.4byte	0x5b9
 677 0189 0C       		.byte	0xc
 678 018a 06       		.uleb128 0x6
 679 018b 05060000 		.4byte	.LASF34
 680 018f 08       		.byte	0x8
 681 0190 DD       		.byte	0xdd
 682 0191 F6000000 		.4byte	0xf6
 683 0195 10       		.byte	0x10
 684 0196 06       		.uleb128 0x6
ARM GAS  /tmp/cc3XXQkZ.s 			page 13


 685 0197 2B060000 		.4byte	.LASF35
 686 019b 08       		.byte	0x8
 687 019c E1       		.byte	0xe1
 688 019d EB000000 		.4byte	0xeb
 689 01a1 11       		.byte	0x11
 690 01a2 06       		.uleb128 0x6
 691 01a3 93070000 		.4byte	.LASF36
 692 01a7 08       		.byte	0x8
 693 01a8 E6       		.byte	0xe6
 694 01a9 01010000 		.4byte	0x101
 695 01ad 12       		.byte	0x12
 696 01ae 07       		.uleb128 0x7
 697 01af 705F7500 		.ascii	"p_u\000"
 698 01b3 08       		.byte	0x8
 699 01b4 3101     		.2byte	0x131
 700 01b6 73060000 		.4byte	0x673
 701 01ba 14       		.byte	0x14
 702 01bb 08       		.uleb128 0x8
 703 01bc C1040000 		.4byte	.LASF37
 704 01c0 08       		.byte	0x8
 705 01c1 3601     		.2byte	0x136
 706 01c3 28020000 		.4byte	0x228
 707 01c7 18       		.byte	0x18
 708 01c8 08       		.uleb128 0x8
 709 01c9 B3030000 		.4byte	.LASF38
 710 01cd 08       		.byte	0x8
 711 01ce 3C01     		.2byte	0x13c
 712 01d0 4C020000 		.4byte	0x24c
 713 01d4 1C       		.byte	0x1c
 714 01d5 08       		.uleb128 0x8
 715 01d6 2A080000 		.4byte	.LASF39
 716 01da 08       		.byte	0x8
 717 01db 4001     		.2byte	0x140
 718 01dd 17010000 		.4byte	0x117
 719 01e1 24       		.byte	0x24
 720 01e2 08       		.uleb128 0x8
 721 01e3 75060000 		.4byte	.LASF40
 722 01e7 08       		.byte	0x8
 723 01e8 4601     		.2byte	0x146
 724 01ea 22010000 		.4byte	0x122
 725 01ee 28       		.byte	0x28
 726 01ef 08       		.uleb128 0x8
 727 01f0 E3050000 		.4byte	.LASF41
 728 01f4 08       		.byte	0x8
 729 01f5 4D01     		.2byte	0x14d
 730 01f7 32070000 		.4byte	0x732
 731 01fb 2C       		.byte	0x2c
 732 01fc 08       		.uleb128 0x8
 733 01fd F5060000 		.4byte	.LASF42
 734 0201 08       		.byte	0x8
 735 0202 5101     		.2byte	0x151
 736 0204 0C010000 		.4byte	0x10c
 737 0208 30       		.byte	0x30
 738 0209 08       		.uleb128 0x8
 739 020a 2B010000 		.4byte	.LASF43
 740 020e 08       		.byte	0x8
 741 020f 5801     		.2byte	0x158
ARM GAS  /tmp/cc3XXQkZ.s 			page 14


 742 0211 E5020000 		.4byte	0x2e5
 743 0215 34       		.byte	0x34
 744 0216 00       		.byte	0
 745 0217 03       		.uleb128 0x3
 746 0218 D4040000 		.4byte	.LASF44
 747 021c 07       		.byte	0x7
 748 021d 44       		.byte	0x44
 749 021e 22020000 		.4byte	0x222
 750 0222 09       		.uleb128 0x9
 751 0223 04       		.byte	0x4
 752 0224 43010000 		.4byte	0x143
 753 0228 03       		.uleb128 0x3
 754 0229 86040000 		.4byte	.LASF45
 755 022d 07       		.byte	0x7
 756 022e 49       		.byte	0x49
 757 022f 33020000 		.4byte	0x233
 758 0233 05       		.uleb128 0x5
 759 0234 A1060000 		.4byte	.LASF47
 760 0238 04       		.byte	0x4
 761 0239 08       		.byte	0x8
 762 023a B0       		.byte	0xb0
 763 023b 4C020000 		.4byte	0x24c
 764 023f 06       		.uleb128 0x6
 765 0240 24060000 		.4byte	.LASF30
 766 0244 08       		.byte	0x8
 767 0245 B1       		.byte	0xb1
 768 0246 22020000 		.4byte	0x222
 769 024a 00       		.byte	0
 770 024b 00       		.byte	0
 771 024c 03       		.uleb128 0x3
 772 024d 7A070000 		.4byte	.LASF48
 773 0251 07       		.byte	0x7
 774 0252 50       		.byte	0x50
 775 0253 57020000 		.4byte	0x257
 776 0257 05       		.uleb128 0x5
 777 0258 DD000000 		.4byte	.LASF49
 778 025c 08       		.byte	0x8
 779 025d 08       		.byte	0x8
 780 025e B7       		.byte	0xb7
 781 025f 7C020000 		.4byte	0x27c
 782 0263 06       		.uleb128 0x6
 783 0264 24060000 		.4byte	.LASF30
 784 0268 08       		.byte	0x8
 785 0269 B8       		.byte	0xb8
 786 026a 22020000 		.4byte	0x222
 787 026e 00       		.byte	0
 788 026f 06       		.uleb128 0x6
 789 0270 95050000 		.4byte	.LASF31
 790 0274 08       		.byte	0x8
 791 0275 B9       		.byte	0xb9
 792 0276 22020000 		.4byte	0x222
 793 027a 04       		.byte	0x4
 794 027b 00       		.byte	0
 795 027c 03       		.uleb128 0x3
 796 027d 00000000 		.4byte	.LASF50
 797 0281 07       		.byte	0x7
 798 0282 57       		.byte	0x57
ARM GAS  /tmp/cc3XXQkZ.s 			page 15


 799 0283 87020000 		.4byte	0x287
 800 0287 0A       		.uleb128 0xa
 801 0288 40040000 		.4byte	.LASF51
 802 028c 14       		.byte	0x14
 803 028d 08       		.byte	0x8
 804 028e 9001     		.2byte	0x190
 805 0290 C9020000 		.4byte	0x2c9
 806 0294 08       		.uleb128 0x8
 807 0295 90060000 		.4byte	.LASF52
 808 0299 08       		.byte	0x8
 809 029a 9101     		.2byte	0x191
 810 029c 4C020000 		.4byte	0x24c
 811 02a0 00       		.byte	0
 812 02a1 08       		.uleb128 0x8
 813 02a2 16060000 		.4byte	.LASF53
 814 02a6 08       		.byte	0x8
 815 02a7 9201     		.2byte	0x192
 816 02a9 0C010000 		.4byte	0x10c
 817 02ad 08       		.byte	0x8
 818 02ae 08       		.uleb128 0x8
 819 02af 2C050000 		.4byte	.LASF54
 820 02b3 08       		.byte	0x8
 821 02b4 9401     		.2byte	0x194
 822 02b6 B9050000 		.4byte	0x5b9
 823 02ba 0C       		.byte	0xc
 824 02bb 08       		.uleb128 0x8
 825 02bc 45050000 		.4byte	.LASF55
 826 02c0 08       		.byte	0x8
 827 02c1 9B01     		.2byte	0x19b
 828 02c3 22020000 		.4byte	0x222
 829 02c7 10       		.byte	0x10
 830 02c8 00       		.byte	0
 831 02c9 03       		.uleb128 0x3
 832 02ca 00070000 		.4byte	.LASF56
 833 02ce 07       		.byte	0x7
 834 02cf 5C       		.byte	0x5c
 835 02d0 D4020000 		.4byte	0x2d4
 836 02d4 09       		.uleb128 0x9
 837 02d5 04       		.byte	0x4
 838 02d6 DA020000 		.4byte	0x2da
 839 02da 0B       		.uleb128 0xb
 840 02db E5020000 		.4byte	0x2e5
 841 02df 0C       		.uleb128 0xc
 842 02e0 E5020000 		.4byte	0x2e5
 843 02e4 00       		.byte	0
 844 02e5 0D       		.uleb128 0xd
 845 02e6 04       		.byte	0x4
 846 02e7 03       		.uleb128 0x3
 847 02e8 85050000 		.4byte	.LASF57
 848 02ec 07       		.byte	0x7
 849 02ed 61       		.byte	0x61
 850 02ee F2020000 		.4byte	0x2f2
 851 02f2 0A       		.uleb128 0xa
 852 02f3 30070000 		.4byte	.LASF58
 853 02f7 14       		.byte	0x14
 854 02f8 08       		.byte	0x8
 855 02f9 6B01     		.2byte	0x16b
ARM GAS  /tmp/cc3XXQkZ.s 			page 16


 856 02fb 41030000 		.4byte	0x341
 857 02ff 08       		.uleb128 0x8
 858 0300 91030000 		.4byte	.LASF59
 859 0304 08       		.byte	0x8
 860 0305 6C01     		.2byte	0x16c
 861 0307 38070000 		.4byte	0x738
 862 030b 00       		.byte	0
 863 030c 08       		.uleb128 0x8
 864 030d 29030000 		.4byte	.LASF60
 865 0311 08       		.byte	0x8
 866 0312 6D01     		.2byte	0x16d
 867 0314 38070000 		.4byte	0x738
 868 0318 04       		.byte	0x4
 869 0319 08       		.uleb128 0x8
 870 031a 98060000 		.4byte	.LASF61
 871 031e 08       		.byte	0x8
 872 031f 6E01     		.2byte	0x16e
 873 0321 38010000 		.4byte	0x138
 874 0325 08       		.byte	0x8
 875 0326 08       		.uleb128 0x8
 876 0327 55080000 		.4byte	.LASF62
 877 032b 08       		.byte	0x8
 878 032c 6F01     		.2byte	0x16f
 879 032e C9020000 		.4byte	0x2c9
 880 0332 0C       		.byte	0xc
 881 0333 08       		.uleb128 0x8
 882 0334 6A070000 		.4byte	.LASF63
 883 0338 08       		.byte	0x8
 884 0339 7101     		.2byte	0x171
 885 033b E5020000 		.4byte	0x2e5
 886 033f 10       		.byte	0x10
 887 0340 00       		.byte	0
 888 0341 03       		.uleb128 0x3
 889 0342 BA000000 		.4byte	.LASF64
 890 0346 07       		.byte	0x7
 891 0347 66       		.byte	0x66
 892 0348 4C030000 		.4byte	0x34c
 893 034c 0A       		.uleb128 0xa
 894 034d E7040000 		.4byte	.LASF65
 895 0351 0C       		.byte	0xc
 896 0352 08       		.byte	0x8
 897 0353 7B01     		.2byte	0x17b
 898 0355 8E030000 		.4byte	0x38e
 899 0359 08       		.uleb128 0x8
 900 035a 91030000 		.4byte	.LASF59
 901 035e 08       		.byte	0x8
 902 035f 7C01     		.2byte	0x17c
 903 0361 38070000 		.4byte	0x738
 904 0365 00       		.byte	0
 905 0366 08       		.uleb128 0x8
 906 0367 29030000 		.4byte	.LASF60
 907 036b 08       		.byte	0x8
 908 036c 7E01     		.2byte	0x17e
 909 036e 38070000 		.4byte	0x738
 910 0372 04       		.byte	0x4
 911 0373 08       		.uleb128 0x8
 912 0374 98060000 		.4byte	.LASF61
ARM GAS  /tmp/cc3XXQkZ.s 			page 17


 913 0378 08       		.byte	0x8
 914 0379 8001     		.2byte	0x180
 915 037b 38010000 		.4byte	0x138
 916 037f 08       		.byte	0x8
 917 0380 08       		.uleb128 0x8
 918 0381 13080000 		.4byte	.LASF66
 919 0385 08       		.byte	0x8
 920 0386 8201     		.2byte	0x182
 921 0388 3E070000 		.4byte	0x73e
 922 038c 0A       		.byte	0xa
 923 038d 00       		.byte	0
 924 038e 03       		.uleb128 0x3
 925 038f 44000000 		.4byte	.LASF67
 926 0393 07       		.byte	0x7
 927 0394 6B       		.byte	0x6b
 928 0395 99030000 		.4byte	0x399
 929 0399 0A       		.uleb128 0xa
 930 039a B7050000 		.4byte	.LASF68
 931 039e 04       		.byte	0x4
 932 039f 08       		.byte	0x8
 933 03a0 A201     		.2byte	0x1a2
 934 03a2 B4030000 		.4byte	0x3b4
 935 03a6 08       		.uleb128 0x8
 936 03a7 17070000 		.4byte	.LASF69
 937 03ab 08       		.byte	0x8
 938 03ac AA01     		.2byte	0x1aa
 939 03ae 43070000 		.4byte	0x743
 940 03b2 00       		.byte	0
 941 03b3 00       		.byte	0
 942 03b4 03       		.uleb128 0x3
 943 03b5 1F040000 		.4byte	.LASF70
 944 03b9 07       		.byte	0x7
 945 03ba 70       		.byte	0x70
 946 03bb BF030000 		.4byte	0x3bf
 947 03bf 0E       		.uleb128 0xe
 948 03c0 C5020000 		.4byte	.LASF71
 949 03c4 3001     		.2byte	0x130
 950 03c6 08       		.byte	0x8
 951 03c7 C201     		.2byte	0x1c2
 952 03c9 1B040000 		.4byte	0x41b
 953 03cd 08       		.uleb128 0x8
 954 03ce A6070000 		.4byte	.LASF72
 955 03d2 08       		.byte	0x8
 956 03d3 C601     		.2byte	0x1c6
 957 03d5 7C020000 		.4byte	0x27c
 958 03d9 00       		.byte	0
 959 03da 08       		.uleb128 0x8
 960 03db 31030000 		.4byte	.LASF73
 961 03df 08       		.byte	0x8
 962 03e0 CA01     		.2byte	0x1ca
 963 03e2 41030000 		.4byte	0x341
 964 03e6 14       		.byte	0x14
 965 03e7 07       		.uleb128 0x7
 966 03e8 64626700 		.ascii	"dbg\000"
 967 03ec 08       		.byte	0x8
 968 03ed CE01     		.2byte	0x1ce
 969 03ef 8E030000 		.4byte	0x38e
ARM GAS  /tmp/cc3XXQkZ.s 			page 18


 970 03f3 20       		.byte	0x20
 971 03f4 08       		.uleb128 0x8
 972 03f5 AF000000 		.4byte	.LASF74
 973 03f9 08       		.byte	0x8
 974 03fa D201     		.2byte	0x1d2
 975 03fc 43010000 		.4byte	0x143
 976 0400 24       		.byte	0x24
 977 0401 07       		.uleb128 0x7
 978 0402 746D00   		.ascii	"tm\000"
 979 0405 08       		.byte	0x8
 980 0406 D701     		.2byte	0x1d7
 981 0408 68060000 		.4byte	0x668
 982 040c 5C       		.byte	0x5c
 983 040d 08       		.uleb128 0x8
 984 040e 63030000 		.4byte	.LASF75
 985 0412 08       		.byte	0x8
 986 0413 E301     		.2byte	0x1e3
 987 0415 5A070000 		.4byte	0x75a
 988 0419 60       		.byte	0x60
 989 041a 00       		.byte	0
 990 041b 04       		.uleb128 0x4
 991 041c 04       		.byte	0x4
 992 041d 07       		.byte	0x7
 993 041e CB040000 		.4byte	.LASF76
 994 0422 0F       		.uleb128 0xf
 995 0423 CA000000 		.4byte	0xca
 996 0427 10       		.uleb128 0x10
 997 0428 50       		.byte	0x50
 998 0429 09       		.byte	0x9
 999 042a B3       		.byte	0xb3
 1000 042b 1E050000 		.4byte	0x51e
 1001 042f 11       		.uleb128 0x11
 1002 0430 535200   		.ascii	"SR\000"
 1003 0433 09       		.byte	0x9
 1004 0434 B5       		.byte	0xb5
 1005 0435 22040000 		.4byte	0x422
 1006 0439 00       		.byte	0
 1007 043a 11       		.uleb128 0x11
 1008 043b 43523100 		.ascii	"CR1\000"
 1009 043f 09       		.byte	0x9
 1010 0440 B6       		.byte	0xb6
 1011 0441 22040000 		.4byte	0x422
 1012 0445 04       		.byte	0x4
 1013 0446 11       		.uleb128 0x11
 1014 0447 43523200 		.ascii	"CR2\000"
 1015 044b 09       		.byte	0x9
 1016 044c B7       		.byte	0xb7
 1017 044d 22040000 		.4byte	0x422
 1018 0451 08       		.byte	0x8
 1019 0452 06       		.uleb128 0x6
 1020 0453 32050000 		.4byte	.LASF77
 1021 0457 09       		.byte	0x9
 1022 0458 B8       		.byte	0xb8
 1023 0459 22040000 		.4byte	0x422
 1024 045d 0C       		.byte	0xc
 1025 045e 06       		.uleb128 0x6
 1026 045f 38050000 		.4byte	.LASF78
ARM GAS  /tmp/cc3XXQkZ.s 			page 19


 1027 0463 09       		.byte	0x9
 1028 0464 B9       		.byte	0xb9
 1029 0465 22040000 		.4byte	0x422
 1030 0469 10       		.byte	0x10
 1031 046a 06       		.uleb128 0x6
 1032 046b A0040000 		.4byte	.LASF79
 1033 046f 09       		.byte	0x9
 1034 0470 BA       		.byte	0xba
 1035 0471 22040000 		.4byte	0x422
 1036 0475 14       		.byte	0x14
 1037 0476 06       		.uleb128 0x6
 1038 0477 A6040000 		.4byte	.LASF80
 1039 047b 09       		.byte	0x9
 1040 047c BB       		.byte	0xbb
 1041 047d 22040000 		.4byte	0x422
 1042 0481 18       		.byte	0x18
 1043 0482 06       		.uleb128 0x6
 1044 0483 3C060000 		.4byte	.LASF81
 1045 0487 09       		.byte	0x9
 1046 0488 BC       		.byte	0xbc
 1047 0489 22040000 		.4byte	0x422
 1048 048d 1C       		.byte	0x1c
 1049 048e 06       		.uleb128 0x6
 1050 048f 4C060000 		.4byte	.LASF82
 1051 0493 09       		.byte	0x9
 1052 0494 BD       		.byte	0xbd
 1053 0495 22040000 		.4byte	0x422
 1054 0499 20       		.byte	0x20
 1055 049a 11       		.uleb128 0x11
 1056 049b 48545200 		.ascii	"HTR\000"
 1057 049f 09       		.byte	0x9
 1058 04a0 BE       		.byte	0xbe
 1059 04a1 22040000 		.4byte	0x422
 1060 04a5 24       		.byte	0x24
 1061 04a6 11       		.uleb128 0x11
 1062 04a7 4C545200 		.ascii	"LTR\000"
 1063 04ab 09       		.byte	0x9
 1064 04ac BF       		.byte	0xbf
 1065 04ad 22040000 		.4byte	0x422
 1066 04b1 28       		.byte	0x28
 1067 04b2 06       		.uleb128 0x6
 1068 04b3 4F050000 		.4byte	.LASF83
 1069 04b7 09       		.byte	0x9
 1070 04b8 C0       		.byte	0xc0
 1071 04b9 22040000 		.4byte	0x422
 1072 04bd 2C       		.byte	0x2c
 1073 04be 06       		.uleb128 0x6
 1074 04bf 54050000 		.4byte	.LASF84
 1075 04c3 09       		.byte	0x9
 1076 04c4 C1       		.byte	0xc1
 1077 04c5 22040000 		.4byte	0x422
 1078 04c9 30       		.byte	0x30
 1079 04ca 06       		.uleb128 0x6
 1080 04cb 59050000 		.4byte	.LASF85
 1081 04cf 09       		.byte	0x9
 1082 04d0 C2       		.byte	0xc2
 1083 04d1 22040000 		.4byte	0x422
ARM GAS  /tmp/cc3XXQkZ.s 			page 20


 1084 04d5 34       		.byte	0x34
 1085 04d6 06       		.uleb128 0x6
 1086 04d7 F5000000 		.4byte	.LASF86
 1087 04db 09       		.byte	0x9
 1088 04dc C3       		.byte	0xc3
 1089 04dd 22040000 		.4byte	0x422
 1090 04e1 38       		.byte	0x38
 1091 04e2 06       		.uleb128 0x6
 1092 04e3 DA070000 		.4byte	.LASF87
 1093 04e7 09       		.byte	0x9
 1094 04e8 C4       		.byte	0xc4
 1095 04e9 22040000 		.4byte	0x422
 1096 04ed 3C       		.byte	0x3c
 1097 04ee 06       		.uleb128 0x6
 1098 04ef 26010000 		.4byte	.LASF88
 1099 04f3 09       		.byte	0x9
 1100 04f4 C5       		.byte	0xc5
 1101 04f5 22040000 		.4byte	0x422
 1102 04f9 40       		.byte	0x40
 1103 04fa 06       		.uleb128 0x6
 1104 04fb DF070000 		.4byte	.LASF89
 1105 04ff 09       		.byte	0x9
 1106 0500 C6       		.byte	0xc6
 1107 0501 22040000 		.4byte	0x422
 1108 0505 44       		.byte	0x44
 1109 0506 06       		.uleb128 0x6
 1110 0507 27050000 		.4byte	.LASF90
 1111 050b 09       		.byte	0x9
 1112 050c C7       		.byte	0xc7
 1113 050d 22040000 		.4byte	0x422
 1114 0511 48       		.byte	0x48
 1115 0512 11       		.uleb128 0x11
 1116 0513 445200   		.ascii	"DR\000"
 1117 0516 09       		.byte	0x9
 1118 0517 C8       		.byte	0xc8
 1119 0518 22040000 		.4byte	0x422
 1120 051c 4C       		.byte	0x4c
 1121 051d 00       		.byte	0
 1122 051e 03       		.uleb128 0x3
 1123 051f D8020000 		.4byte	.LASF91
 1124 0523 09       		.byte	0x9
 1125 0524 C9       		.byte	0xc9
 1126 0525 27040000 		.4byte	0x427
 1127 0529 12       		.uleb128 0x12
 1128 052a 10       		.byte	0x10
 1129 052b 09       		.byte	0x9
 1130 052c 7201     		.2byte	0x172
 1131 052e 67050000 		.4byte	0x567
 1132 0532 07       		.uleb128 0x7
 1133 0533 43435200 		.ascii	"CCR\000"
 1134 0537 09       		.byte	0x9
 1135 0538 7401     		.2byte	0x174
 1136 053a 22040000 		.4byte	0x422
 1137 053e 00       		.byte	0
 1138 053f 08       		.uleb128 0x8
 1139 0540 9A070000 		.4byte	.LASF92
 1140 0544 09       		.byte	0x9
ARM GAS  /tmp/cc3XXQkZ.s 			page 21


 1141 0545 7501     		.2byte	0x175
 1142 0547 22040000 		.4byte	0x422
 1143 054b 04       		.byte	0x4
 1144 054c 08       		.uleb128 0x8
 1145 054d AE030000 		.4byte	.LASF93
 1146 0551 09       		.byte	0x9
 1147 0552 7601     		.2byte	0x176
 1148 0554 22040000 		.4byte	0x422
 1149 0558 08       		.byte	0x8
 1150 0559 08       		.uleb128 0x8
 1151 055a 76040000 		.4byte	.LASF94
 1152 055e 09       		.byte	0x9
 1153 055f 7701     		.2byte	0x177
 1154 0561 22040000 		.4byte	0x422
 1155 0565 0C       		.byte	0xc
 1156 0566 00       		.byte	0
 1157 0567 13       		.uleb128 0x13
 1158 0568 C8030000 		.4byte	.LASF95
 1159 056c 09       		.byte	0x9
 1160 056d 7801     		.2byte	0x178
 1161 056f 29050000 		.4byte	0x529
 1162 0573 12       		.uleb128 0x12
 1163 0574 08       		.byte	0x8
 1164 0575 09       		.byte	0x9
 1165 0576 7A01     		.2byte	0x17a
 1166 0578 97050000 		.4byte	0x597
 1167 057c 07       		.uleb128 0x7
 1168 057d 49535200 		.ascii	"ISR\000"
 1169 0581 09       		.byte	0x9
 1170 0582 7C01     		.2byte	0x17c
 1171 0584 22040000 		.4byte	0x422
 1172 0588 00       		.byte	0
 1173 0589 08       		.uleb128 0x8
 1174 058a B7060000 		.4byte	.LASF96
 1175 058e 09       		.byte	0x9
 1176 058f 7D01     		.2byte	0x17d
 1177 0591 22040000 		.4byte	0x422
 1178 0595 04       		.byte	0x4
 1179 0596 00       		.byte	0
 1180 0597 13       		.uleb128 0x13
 1181 0598 72030000 		.4byte	.LASF97
 1182 059c 09       		.byte	0x9
 1183 059d 7E01     		.2byte	0x17e
 1184 059f 73050000 		.4byte	0x573
 1185 05a3 03       		.uleb128 0x3
 1186 05a4 20030000 		.4byte	.LASF98
 1187 05a8 0A       		.byte	0xa
 1188 05a9 65       		.byte	0x65
 1189 05aa E5020000 		.4byte	0x2e5
 1190 05ae 03       		.uleb128 0x3
 1191 05af 7B040000 		.4byte	.LASF99
 1192 05b3 0A       		.byte	0xa
 1193 05b4 6D       		.byte	0x6d
 1194 05b5 D5000000 		.4byte	0xd5
 1195 05b9 05       		.uleb128 0x5
 1196 05ba 28070000 		.4byte	.LASF100
 1197 05be 04       		.byte	0x4
ARM GAS  /tmp/cc3XXQkZ.s 			page 22


 1198 05bf 0A       		.byte	0xa
 1199 05c0 89       		.byte	0x89
 1200 05c1 D2050000 		.4byte	0x5d2
 1201 05c5 11       		.uleb128 0x11
 1202 05c6 72313300 		.ascii	"r13\000"
 1203 05ca 0A       		.byte	0xa
 1204 05cb 8A       		.byte	0x8a
 1205 05cc 4D060000 		.4byte	0x64d
 1206 05d0 00       		.byte	0
 1207 05d1 00       		.byte	0
 1208 05d2 05       		.uleb128 0x5
 1209 05d3 38000000 		.4byte	.LASF101
 1210 05d7 24       		.byte	0x24
 1211 05d8 0B       		.byte	0xb
 1212 05d9 FD       		.byte	0xfd
 1213 05da 4D060000 		.4byte	0x64d
 1214 05de 07       		.uleb128 0x7
 1215 05df 723400   		.ascii	"r4\000"
 1216 05e2 0B       		.byte	0xb
 1217 05e3 1001     		.2byte	0x110
 1218 05e5 A3050000 		.4byte	0x5a3
 1219 05e9 00       		.byte	0
 1220 05ea 07       		.uleb128 0x7
 1221 05eb 723500   		.ascii	"r5\000"
 1222 05ee 0B       		.byte	0xb
 1223 05ef 1101     		.2byte	0x111
 1224 05f1 A3050000 		.4byte	0x5a3
 1225 05f5 04       		.byte	0x4
 1226 05f6 07       		.uleb128 0x7
 1227 05f7 723600   		.ascii	"r6\000"
 1228 05fa 0B       		.byte	0xb
 1229 05fb 1201     		.2byte	0x112
 1230 05fd A3050000 		.4byte	0x5a3
 1231 0601 08       		.byte	0x8
 1232 0602 07       		.uleb128 0x7
 1233 0603 723700   		.ascii	"r7\000"
 1234 0606 0B       		.byte	0xb
 1235 0607 1301     		.2byte	0x113
 1236 0609 A3050000 		.4byte	0x5a3
 1237 060d 0C       		.byte	0xc
 1238 060e 07       		.uleb128 0x7
 1239 060f 723800   		.ascii	"r8\000"
 1240 0612 0B       		.byte	0xb
 1241 0613 1401     		.2byte	0x114
 1242 0615 A3050000 		.4byte	0x5a3
 1243 0619 10       		.byte	0x10
 1244 061a 07       		.uleb128 0x7
 1245 061b 723900   		.ascii	"r9\000"
 1246 061e 0B       		.byte	0xb
 1247 061f 1501     		.2byte	0x115
 1248 0621 A3050000 		.4byte	0x5a3
 1249 0625 14       		.byte	0x14
 1250 0626 07       		.uleb128 0x7
 1251 0627 72313000 		.ascii	"r10\000"
 1252 062b 0B       		.byte	0xb
 1253 062c 1601     		.2byte	0x116
 1254 062e A3050000 		.4byte	0x5a3
ARM GAS  /tmp/cc3XXQkZ.s 			page 23


 1255 0632 18       		.byte	0x18
 1256 0633 07       		.uleb128 0x7
 1257 0634 72313100 		.ascii	"r11\000"
 1258 0638 0B       		.byte	0xb
 1259 0639 1701     		.2byte	0x117
 1260 063b A3050000 		.4byte	0x5a3
 1261 063f 1C       		.byte	0x1c
 1262 0640 07       		.uleb128 0x7
 1263 0641 6C7200   		.ascii	"lr\000"
 1264 0644 0B       		.byte	0xb
 1265 0645 1801     		.2byte	0x118
 1266 0647 A3050000 		.4byte	0x5a3
 1267 064b 20       		.byte	0x20
 1268 064c 00       		.byte	0
 1269 064d 09       		.uleb128 0x9
 1270 064e 04       		.byte	0x4
 1271 064f D2050000 		.4byte	0x5d2
 1272 0653 10       		.uleb128 0x10
 1273 0654 04       		.byte	0x4
 1274 0655 0C       		.byte	0xc
 1275 0656 38       		.byte	0x38
 1276 0657 68060000 		.4byte	0x668
 1277 065b 06       		.uleb128 0x6
 1278 065c 21070000 		.4byte	.LASF102
 1279 0660 0C       		.byte	0xc
 1280 0661 3C       		.byte	0x3c
 1281 0662 E0000000 		.4byte	0xe0
 1282 0666 00       		.byte	0
 1283 0667 00       		.byte	0
 1284 0668 03       		.uleb128 0x3
 1285 0669 04050000 		.4byte	.LASF103
 1286 066d 0C       		.byte	0xc
 1287 066e 3D       		.byte	0x3d
 1288 066f 53060000 		.4byte	0x653
 1289 0673 14       		.uleb128 0x14
 1290 0674 04       		.byte	0x4
 1291 0675 08       		.byte	0x8
 1292 0676 FA       		.byte	0xfa
 1293 0677 D0060000 		.4byte	0x6d0
 1294 067b 15       		.uleb128 0x15
 1295 067c 14000000 		.4byte	.LASF104
 1296 0680 08       		.byte	0x8
 1297 0681 0101     		.2byte	0x101
 1298 0683 17010000 		.4byte	0x117
 1299 0687 15       		.uleb128 0x15
 1300 0688 9B000000 		.4byte	.LASF105
 1301 068c 08       		.byte	0x8
 1302 068d 0801     		.2byte	0x108
 1303 068f 17010000 		.4byte	0x117
 1304 0693 15       		.uleb128 0x15
 1305 0694 EC070000 		.4byte	.LASF106
 1306 0698 08       		.byte	0x8
 1307 0699 0F01     		.2byte	0x10f
 1308 069b E5020000 		.4byte	0x2e5
 1309 069f 15       		.uleb128 0x15
 1310 06a0 FE040000 		.4byte	.LASF107
 1311 06a4 08       		.byte	0x8
ARM GAS  /tmp/cc3XXQkZ.s 			page 24


 1312 06a5 1601     		.2byte	0x116
 1313 06a7 D0060000 		.4byte	0x6d0
 1314 06ab 15       		.uleb128 0x15
 1315 06ac A7030000 		.4byte	.LASF108
 1316 06b0 08       		.byte	0x8
 1317 06b1 1E01     		.2byte	0x11e
 1318 06b3 FB060000 		.4byte	0x6fb
 1319 06b7 15       		.uleb128 0x15
 1320 06b8 89060000 		.4byte	.LASF109
 1321 06bc 08       		.byte	0x8
 1322 06bd 2701     		.2byte	0x127
 1323 06bf 32070000 		.4byte	0x732
 1324 06c3 15       		.uleb128 0x15
 1325 06c4 1D060000 		.4byte	.LASF110
 1326 06c8 08       		.byte	0x8
 1327 06c9 2F01     		.2byte	0x12f
 1328 06cb 22010000 		.4byte	0x122
 1329 06cf 00       		.byte	0
 1330 06d0 09       		.uleb128 0x9
 1331 06d1 04       		.byte	0x4
 1332 06d2 17020000 		.4byte	0x217
 1333 06d6 05       		.uleb128 0x5
 1334 06d7 68060000 		.4byte	.LASF111
 1335 06db 0C       		.byte	0xc
 1336 06dc 0D       		.byte	0xd
 1337 06dd 34       		.byte	0x34
 1338 06de FB060000 		.4byte	0x6fb
 1339 06e2 06       		.uleb128 0x6
 1340 06e3 93000000 		.4byte	.LASF112
 1341 06e7 0D       		.byte	0xd
 1342 06e8 35       		.byte	0x35
 1343 06e9 4C020000 		.4byte	0x24c
 1344 06ed 00       		.byte	0
 1345 06ee 06       		.uleb128 0x6
 1346 06ef DC030000 		.4byte	.LASF113
 1347 06f3 0D       		.byte	0xd
 1348 06f4 37       		.byte	0x37
 1349 06f5 2D010000 		.4byte	0x12d
 1350 06f9 08       		.byte	0x8
 1351 06fa 00       		.byte	0
 1352 06fb 09       		.uleb128 0x9
 1353 06fc 04       		.byte	0x4
 1354 06fd D6060000 		.4byte	0x6d6
 1355 0701 05       		.uleb128 0x5
 1356 0702 8A070000 		.4byte	.LASF114
 1357 0706 10       		.byte	0x10
 1358 0707 0E       		.byte	0xe
 1359 0708 39       		.byte	0x39
 1360 0709 32070000 		.4byte	0x732
 1361 070d 06       		.uleb128 0x6
 1362 070e 33010000 		.4byte	.LASF115
 1363 0712 0E       		.byte	0xe
 1364 0713 3A       		.byte	0x3a
 1365 0714 4C020000 		.4byte	0x24c
 1366 0718 00       		.byte	0
 1367 0719 06       		.uleb128 0x6
 1368 071a 47080000 		.4byte	.LASF116
ARM GAS  /tmp/cc3XXQkZ.s 			page 25


 1369 071e 0E       		.byte	0xe
 1370 071f 3C       		.byte	0x3c
 1371 0720 22020000 		.4byte	0x222
 1372 0724 08       		.byte	0x8
 1373 0725 06       		.uleb128 0x6
 1374 0726 3E050000 		.4byte	.LASF117
 1375 072a 0E       		.byte	0xe
 1376 072b 3E       		.byte	0x3e
 1377 072c 75070000 		.4byte	0x775
 1378 0730 0C       		.byte	0xc
 1379 0731 00       		.byte	0
 1380 0732 09       		.uleb128 0x9
 1381 0733 04       		.byte	0x4
 1382 0734 01070000 		.4byte	0x701
 1383 0738 09       		.uleb128 0x9
 1384 0739 04       		.byte	0x4
 1385 073a E7020000 		.4byte	0x2e7
 1386 073e 0F       		.uleb128 0xf
 1387 073f 38010000 		.4byte	0x138
 1388 0743 0F       		.uleb128 0xf
 1389 0744 48070000 		.4byte	0x748
 1390 0748 09       		.uleb128 0x9
 1391 0749 04       		.byte	0x4
 1392 074a 4E070000 		.4byte	0x74e
 1393 074e 16       		.uleb128 0x16
 1394 074f 53070000 		.4byte	0x753
 1395 0753 04       		.uleb128 0x4
 1396 0754 01       		.byte	0x1
 1397 0755 08       		.byte	0x8
 1398 0756 BC060000 		.4byte	.LASF118
 1399 075a 17       		.uleb128 0x17
 1400 075b AE050000 		.4byte	0x5ae
 1401 075f 6A070000 		.4byte	0x76a
 1402 0763 18       		.uleb128 0x18
 1403 0764 1B040000 		.4byte	0x41b
 1404 0768 19       		.byte	0x19
 1405 0769 00       		.byte	0
 1406 076a 03       		.uleb128 0x3
 1407 076b 4A030000 		.4byte	.LASF119
 1408 076f 0E       		.byte	0xe
 1409 0770 34       		.byte	0x34
 1410 0771 01070000 		.4byte	0x701
 1411 0775 09       		.uleb128 0x9
 1412 0776 04       		.byte	0x4
 1413 0777 6A070000 		.4byte	0x76a
 1414 077b 10       		.uleb128 0x10
 1415 077c 14       		.byte	0x14
 1416 077d 0F       		.byte	0xf
 1417 077e E4       		.byte	0xe4
 1418 077f D8070000 		.4byte	0x7d8
 1419 0783 11       		.uleb128 0x11
 1420 0784 646D6100 		.ascii	"dma\000"
 1421 0788 0F       		.byte	0xf
 1422 0789 E5       		.byte	0xe5
 1423 078a D8070000 		.4byte	0x7d8
 1424 078e 00       		.byte	0
 1425 078f 06       		.uleb128 0x6
ARM GAS  /tmp/cc3XXQkZ.s 			page 26


 1426 0790 60060000 		.4byte	.LASF120
 1427 0794 0F       		.byte	0xf
 1428 0795 E6       		.byte	0xe6
 1429 0796 DE070000 		.4byte	0x7de
 1430 079a 04       		.byte	0x4
 1431 079b 06       		.uleb128 0x6
 1432 079c 95040000 		.4byte	.LASF121
 1433 07a0 0F       		.byte	0xf
 1434 07a1 E7       		.byte	0xe7
 1435 07a2 CA000000 		.4byte	0xca
 1436 07a6 08       		.byte	0x8
 1437 07a7 06       		.uleb128 0x6
 1438 07a8 32020000 		.4byte	.LASF122
 1439 07ac 0F       		.byte	0xf
 1440 07ad E9       		.byte	0xe9
 1441 07ae E4070000 		.4byte	0x7e4
 1442 07b2 0C       		.byte	0xc
 1443 07b3 06       		.uleb128 0x6
 1444 07b4 E4020000 		.4byte	.LASF123
 1445 07b8 0F       		.byte	0xf
 1446 07b9 EA       		.byte	0xea
 1447 07ba A9000000 		.4byte	0xa9
 1448 07be 10       		.byte	0x10
 1449 07bf 06       		.uleb128 0x6
 1450 07c0 15040000 		.4byte	.LASF124
 1451 07c4 0F       		.byte	0xf
 1452 07c5 EC       		.byte	0xec
 1453 07c6 A9000000 		.4byte	0xa9
 1454 07ca 11       		.byte	0x11
 1455 07cb 06       		.uleb128 0x6
 1456 07cc 53000000 		.4byte	.LASF125
 1457 07d0 0F       		.byte	0xf
 1458 07d1 ED       		.byte	0xed
 1459 07d2 A9000000 		.4byte	0xa9
 1460 07d6 12       		.byte	0x12
 1461 07d7 00       		.byte	0
 1462 07d8 09       		.uleb128 0x9
 1463 07d9 04       		.byte	0x4
 1464 07da 97050000 		.4byte	0x597
 1465 07de 09       		.uleb128 0x9
 1466 07df 04       		.byte	0x4
 1467 07e0 67050000 		.4byte	0x567
 1468 07e4 09       		.uleb128 0x9
 1469 07e5 04       		.byte	0x4
 1470 07e6 22040000 		.4byte	0x422
 1471 07ea 03       		.uleb128 0x3
 1472 07eb 9C050000 		.4byte	.LASF126
 1473 07ef 0F       		.byte	0xf
 1474 07f0 EE       		.byte	0xee
 1475 07f1 7B070000 		.4byte	0x77b
 1476 07f5 04       		.uleb128 0x4
 1477 07f6 01       		.byte	0x1
 1478 07f7 02       		.byte	0x2
 1479 07f8 C7050000 		.4byte	.LASF127
 1480 07fc 19       		.uleb128 0x19
 1481 07fd 01       		.byte	0x1
 1482 07fe 10       		.byte	0x10
ARM GAS  /tmp/cc3XXQkZ.s 			page 27


 1483 07ff 46       		.byte	0x46
 1484 0800 29080000 		.4byte	0x829
 1485 0804 1A       		.uleb128 0x1a
 1486 0805 A4000000 		.4byte	.LASF128
 1487 0809 00       		.sleb128 0
 1488 080a 1A       		.uleb128 0x1a
 1489 080b 15050000 		.4byte	.LASF129
 1490 080f 01       		.sleb128 1
 1491 0810 1A       		.uleb128 0x1a
 1492 0811 FF030000 		.4byte	.LASF130
 1493 0815 02       		.sleb128 2
 1494 0816 1A       		.uleb128 0x1a
 1495 0817 58030000 		.4byte	.LASF131
 1496 081b 03       		.sleb128 3
 1497 081c 1A       		.uleb128 0x1a
 1498 081d F3070000 		.4byte	.LASF132
 1499 0821 04       		.sleb128 4
 1500 0822 1A       		.uleb128 0x1a
 1501 0823 28020000 		.4byte	.LASF133
 1502 0827 05       		.sleb128 5
 1503 0828 00       		.byte	0
 1504 0829 03       		.uleb128 0x3
 1505 082a 1B000000 		.4byte	.LASF134
 1506 082e 10       		.byte	0x10
 1507 082f 4D       		.byte	0x4d
 1508 0830 FC070000 		.4byte	0x7fc
 1509 0834 03       		.uleb128 0x3
 1510 0835 FF020000 		.4byte	.LASF135
 1511 0839 11       		.byte	0x11
 1512 083a 87       		.byte	0x87
 1513 083b B4000000 		.4byte	0xb4
 1514 083f 03       		.uleb128 0x3
 1515 0840 00080000 		.4byte	.LASF136
 1516 0844 11       		.byte	0x11
 1517 0845 8C       		.byte	0x8c
 1518 0846 B4000000 		.4byte	0xb4
 1519 084a 19       		.uleb128 0x19
 1520 084b 01       		.byte	0x1
 1521 084c 11       		.byte	0x11
 1522 084d 93       		.byte	0x93
 1523 084e 59080000 		.4byte	0x859
 1524 0852 1A       		.uleb128 0x1a
 1525 0853 50020000 		.4byte	.LASF137
 1526 0857 00       		.sleb128 0
 1527 0858 00       		.byte	0
 1528 0859 03       		.uleb128 0x3
 1529 085a 71000000 		.4byte	.LASF138
 1530 085e 11       		.byte	0x11
 1531 085f 95       		.byte	0x95
 1532 0860 4A080000 		.4byte	0x84a
 1533 0864 03       		.uleb128 0x3
 1534 0865 BE030000 		.4byte	.LASF139
 1535 0869 11       		.byte	0x11
 1536 086a 9A       		.byte	0x9a
 1537 086b 6F080000 		.4byte	0x86f
 1538 086f 05       		.uleb128 0x5
 1539 0870 BE030000 		.4byte	.LASF139
ARM GAS  /tmp/cc3XXQkZ.s 			page 28


 1540 0874 20       		.byte	0x20
 1541 0875 11       		.byte	0x11
 1542 0876 FE       		.byte	0xfe
 1543 0877 E4080000 		.4byte	0x8e4
 1544 087b 08       		.uleb128 0x8
 1545 087c 38020000 		.4byte	.LASF140
 1546 0880 11       		.byte	0x11
 1547 0881 0201     		.2byte	0x102
 1548 0883 29080000 		.4byte	0x829
 1549 0887 00       		.byte	0
 1550 0888 08       		.uleb128 0x8
 1551 0889 C1060000 		.4byte	.LASF141
 1552 088d 11       		.byte	0x11
 1553 088e 0601     		.2byte	0x106
 1554 0890 EF090000 		.4byte	0x9ef
 1555 0894 04       		.byte	0x4
 1556 0895 08       		.uleb128 0x8
 1557 0896 B9040000 		.4byte	.LASF142
 1558 089a 11       		.byte	0x11
 1559 089b 0A01     		.2byte	0x10a
 1560 089d 10090000 		.4byte	0x910
 1561 08a1 08       		.byte	0x8
 1562 08a2 08       		.uleb128 0x8
 1563 08a3 09040000 		.4byte	.LASF143
 1564 08a7 11       		.byte	0x11
 1565 08a8 0E01     		.2byte	0x10e
 1566 08aa 28000000 		.4byte	0x28
 1567 08ae 0C       		.byte	0xc
 1568 08af 08       		.uleb128 0x8
 1569 08b0 9B040000 		.4byte	.LASF144
 1570 08b4 11       		.byte	0x11
 1571 08b5 1201     		.2byte	0x112
 1572 08b7 FA090000 		.4byte	0x9fa
 1573 08bb 10       		.byte	0x10
 1574 08bc 07       		.uleb128 0x7
 1575 08bd 61646300 		.ascii	"adc\000"
 1576 08c1 11       		.byte	0x11
 1577 08c2 2601     		.2byte	0x126
 1578 08c4 050A0000 		.4byte	0xa05
 1579 08c8 14       		.byte	0x14
 1580 08c9 08       		.uleb128 0x8
 1581 08ca 21020000 		.4byte	.LASF145
 1582 08ce 11       		.byte	0x11
 1583 08cf 2A01     		.2byte	0x12a
 1584 08d1 0B0A0000 		.4byte	0xa0b
 1585 08d5 18       		.byte	0x18
 1586 08d6 08       		.uleb128 0x8
 1587 08d7 E4070000 		.4byte	.LASF146
 1588 08db 11       		.byte	0x11
 1589 08dc 2E01     		.2byte	0x12e
 1590 08de CA000000 		.4byte	0xca
 1591 08e2 1C       		.byte	0x1c
 1592 08e3 00       		.byte	0
 1593 08e4 03       		.uleb128 0x3
 1594 08e5 F1020000 		.4byte	.LASF147
 1595 08e9 11       		.byte	0x11
 1596 08ea A4       		.byte	0xa4
ARM GAS  /tmp/cc3XXQkZ.s 			page 29


 1597 08eb EF080000 		.4byte	0x8ef
 1598 08ef 09       		.uleb128 0x9
 1599 08f0 04       		.byte	0x4
 1600 08f1 F5080000 		.4byte	0x8f5
 1601 08f5 0B       		.uleb128 0xb
 1602 08f6 0A090000 		.4byte	0x90a
 1603 08fa 0C       		.uleb128 0xc
 1604 08fb 0A090000 		.4byte	0x90a
 1605 08ff 0C       		.uleb128 0xc
 1606 0900 10090000 		.4byte	0x910
 1607 0904 0C       		.uleb128 0xc
 1608 0905 28000000 		.4byte	0x28
 1609 0909 00       		.byte	0
 1610 090a 09       		.uleb128 0x9
 1611 090b 04       		.byte	0x4
 1612 090c 64080000 		.4byte	0x864
 1613 0910 09       		.uleb128 0x9
 1614 0911 04       		.byte	0x4
 1615 0912 34080000 		.4byte	0x834
 1616 0916 03       		.uleb128 0x3
 1617 0917 7C020000 		.4byte	.LASF148
 1618 091b 11       		.byte	0x11
 1619 091c AD       		.byte	0xad
 1620 091d 21090000 		.4byte	0x921
 1621 0921 09       		.uleb128 0x9
 1622 0922 04       		.byte	0x4
 1623 0923 27090000 		.4byte	0x927
 1624 0927 0B       		.uleb128 0xb
 1625 0928 37090000 		.4byte	0x937
 1626 092c 0C       		.uleb128 0xc
 1627 092d 0A090000 		.4byte	0x90a
 1628 0931 0C       		.uleb128 0xc
 1629 0932 59080000 		.4byte	0x859
 1630 0936 00       		.byte	0
 1631 0937 10       		.uleb128 0x10
 1632 0938 28       		.byte	0x28
 1633 0939 11       		.byte	0x11
 1634 093a B7       		.byte	0xb7
 1635 093b C4090000 		.4byte	0x9c4
 1636 093f 06       		.uleb128 0x6
 1637 0940 3E020000 		.4byte	.LASF149
 1638 0944 11       		.byte	0x11
 1639 0945 BB       		.byte	0xbb
 1640 0946 F5070000 		.4byte	0x7f5
 1641 094a 00       		.byte	0
 1642 094b 06       		.uleb128 0x6
 1643 094c 33040000 		.4byte	.LASF150
 1644 0950 11       		.byte	0x11
 1645 0951 BF       		.byte	0xbf
 1646 0952 3F080000 		.4byte	0x83f
 1647 0956 02       		.byte	0x2
 1648 0957 06       		.uleb128 0x6
 1649 0958 EA020000 		.4byte	.LASF151
 1650 095c 11       		.byte	0x11
 1651 095d C3       		.byte	0xc3
 1652 095e E4080000 		.4byte	0x8e4
 1653 0962 04       		.byte	0x4
ARM GAS  /tmp/cc3XXQkZ.s 			page 30


 1654 0963 06       		.uleb128 0x6
 1655 0964 0D060000 		.4byte	.LASF152
 1656 0968 11       		.byte	0x11
 1657 0969 C7       		.byte	0xc7
 1658 096a 16090000 		.4byte	0x916
 1659 096e 08       		.byte	0x8
 1660 096f 11       		.uleb128 0x11
 1661 0970 63723100 		.ascii	"cr1\000"
 1662 0974 11       		.byte	0x11
 1663 0975 CE       		.byte	0xce
 1664 0976 CA000000 		.4byte	0xca
 1665 097a 0C       		.byte	0xc
 1666 097b 11       		.uleb128 0x11
 1667 097c 63723200 		.ascii	"cr2\000"
 1668 0980 11       		.byte	0x11
 1669 0981 D5       		.byte	0xd5
 1670 0982 CA000000 		.4byte	0xca
 1671 0986 10       		.byte	0x10
 1672 0987 06       		.uleb128 0x6
 1673 0988 B1060000 		.4byte	.LASF153
 1674 098c 11       		.byte	0x11
 1675 098d DB       		.byte	0xdb
 1676 098e CA000000 		.4byte	0xca
 1677 0992 14       		.byte	0x14
 1678 0993 06       		.uleb128 0x6
 1679 0994 A0070000 		.4byte	.LASF154
 1680 0998 11       		.byte	0x11
 1681 0999 E1       		.byte	0xe1
 1682 099a CA000000 		.4byte	0xca
 1683 099e 18       		.byte	0x18
 1684 099f 06       		.uleb128 0x6
 1685 09a0 DC060000 		.4byte	.LASF155
 1686 09a4 11       		.byte	0x11
 1687 09a5 E6       		.byte	0xe6
 1688 09a6 CA000000 		.4byte	0xca
 1689 09aa 1C       		.byte	0x1c
 1690 09ab 06       		.uleb128 0x6
 1691 09ac E1060000 		.4byte	.LASF156
 1692 09b0 11       		.byte	0x11
 1693 09b1 EB       		.byte	0xeb
 1694 09b2 CA000000 		.4byte	0xca
 1695 09b6 20       		.byte	0x20
 1696 09b7 06       		.uleb128 0x6
 1697 09b8 E6060000 		.4byte	.LASF157
 1698 09bc 11       		.byte	0x11
 1699 09bd F0       		.byte	0xf0
 1700 09be CA000000 		.4byte	0xca
 1701 09c2 24       		.byte	0x24
 1702 09c3 00       		.byte	0
 1703 09c4 03       		.uleb128 0x3
 1704 09c5 C7070000 		.4byte	.LASF158
 1705 09c9 11       		.byte	0x11
 1706 09ca F1       		.byte	0xf1
 1707 09cb 37090000 		.4byte	0x937
 1708 09cf 10       		.uleb128 0x10
 1709 09d0 04       		.byte	0x4
 1710 09d1 11       		.byte	0x11
ARM GAS  /tmp/cc3XXQkZ.s 			page 31


 1711 09d2 F7       		.byte	0xf7
 1712 09d3 E4090000 		.4byte	0x9e4
 1713 09d7 06       		.uleb128 0x6
 1714 09d8 38030000 		.4byte	.LASF159
 1715 09dc 11       		.byte	0x11
 1716 09dd F8       		.byte	0xf8
 1717 09de CA000000 		.4byte	0xca
 1718 09e2 00       		.byte	0
 1719 09e3 00       		.byte	0
 1720 09e4 03       		.uleb128 0x3
 1721 09e5 16030000 		.4byte	.LASF160
 1722 09e9 11       		.byte	0x11
 1723 09ea F9       		.byte	0xf9
 1724 09eb CF090000 		.4byte	0x9cf
 1725 09ef 09       		.uleb128 0x9
 1726 09f0 04       		.byte	0x4
 1727 09f1 F5090000 		.4byte	0x9f5
 1728 09f5 16       		.uleb128 0x16
 1729 09f6 E4090000 		.4byte	0x9e4
 1730 09fa 09       		.uleb128 0x9
 1731 09fb 04       		.byte	0x4
 1732 09fc 000A0000 		.4byte	0xa00
 1733 0a00 16       		.uleb128 0x16
 1734 0a01 C4090000 		.4byte	0x9c4
 1735 0a05 09       		.uleb128 0x9
 1736 0a06 04       		.byte	0x4
 1737 0a07 1E050000 		.4byte	0x51e
 1738 0a0b 09       		.uleb128 0x9
 1739 0a0c 04       		.byte	0x4
 1740 0a0d 110A0000 		.4byte	0xa11
 1741 0a11 16       		.uleb128 0x16
 1742 0a12 EA070000 		.4byte	0x7ea
 1743 0a16 1B       		.uleb128 0x1b
 1744 0a17 09070000 		.4byte	.LASF164
 1745 0a1b 02       		.byte	0x2
 1746 0a1c 2202     		.2byte	0x222
 1747 0a1e 03       		.byte	0x3
 1748 0a1f 300A0000 		.4byte	0xa30
 1749 0a23 1C       		.uleb128 0x1c
 1750 0a24 52030000 		.4byte	.LASF168
 1751 0a28 02       		.byte	0x2
 1752 0a29 2202     		.2byte	0x222
 1753 0a2b CA000000 		.4byte	0xca
 1754 0a2f 00       		.byte	0
 1755 0a30 1D       		.uleb128 0x1d
 1756 0a31 5A000000 		.4byte	.LASF161
 1757 0a35 0B       		.byte	0xb
 1758 0a36 C801     		.2byte	0x1c8
 1759 0a38 03       		.byte	0x3
 1760 0a39 1D       		.uleb128 0x1d
 1761 0a3a 15020000 		.4byte	.LASF162
 1762 0a3e 0B       		.byte	0xb
 1763 0a3f E001     		.2byte	0x1e0
 1764 0a41 03       		.byte	0x3
 1765 0a42 1D       		.uleb128 0x1d
 1766 0a43 42060000 		.4byte	.LASF163
 1767 0a47 12       		.byte	0x12
ARM GAS  /tmp/cc3XXQkZ.s 			page 32


 1768 0a48 5A01     		.2byte	0x15a
 1769 0a4a 03       		.byte	0x3
 1770 0a4b 1B       		.uleb128 0x1b
 1771 0a4c 1E080000 		.4byte	.LASF165
 1772 0a50 12       		.byte	0x12
 1773 0a51 6601     		.2byte	0x166
 1774 0a53 03       		.byte	0x3
 1775 0a54 660A0000 		.4byte	0xa66
 1776 0a58 1E       		.uleb128 0x1e
 1777 0a59 33060000 		.4byte	.LASF170
 1778 0a5d 760A0000 		.4byte	0xa76
 1779 0a61 1E080000 		.4byte	.LASF165
 1780 0a65 00       		.byte	0
 1781 0a66 17       		.uleb128 0x17
 1782 0a67 53070000 		.4byte	0x753
 1783 0a6b 760A0000 		.4byte	0xa76
 1784 0a6f 18       		.uleb128 0x18
 1785 0a70 1B040000 		.4byte	0x41b
 1786 0a74 0B       		.byte	0xb
 1787 0a75 00       		.byte	0
 1788 0a76 16       		.uleb128 0x16
 1789 0a77 660A0000 		.4byte	0xa66
 1790 0a7b 1D       		.uleb128 0x1d
 1791 0a7c 3E030000 		.4byte	.LASF166
 1792 0a80 13       		.byte	0x13
 1793 0a81 EB01     		.2byte	0x1eb
 1794 0a83 03       		.byte	0x3
 1795 0a84 1D       		.uleb128 0x1d
 1796 0a85 52060000 		.4byte	.LASF167
 1797 0a89 13       		.byte	0x13
 1798 0a8a F601     		.2byte	0x1f6
 1799 0a8c 03       		.byte	0x3
 1800 0a8d 1F       		.uleb128 0x1f
 1801 0a8e 69050000 		.4byte	.LASF171
 1802 0a92 01       		.byte	0x1
 1803 0a93 AB       		.byte	0xab
 1804 0a94 01       		.byte	0x1
 1805 0a95 D30A0000 		.4byte	0xad3
 1806 0a99 20       		.uleb128 0x20
 1807 0a9a 30080000 		.4byte	.LASF169
 1808 0a9e 01       		.byte	0x1
 1809 0a9f AB       		.byte	0xab
 1810 0aa0 0A090000 		.4byte	0x90a
 1811 0aa4 20       		.uleb128 0x20
 1812 0aa5 9B040000 		.4byte	.LASF144
 1813 0aa9 01       		.byte	0x1
 1814 0aaa AC       		.byte	0xac
 1815 0aab FA090000 		.4byte	0x9fa
 1816 0aaf 20       		.uleb128 0x20
 1817 0ab0 B9040000 		.4byte	.LASF142
 1818 0ab4 01       		.byte	0x1
 1819 0ab5 AD       		.byte	0xad
 1820 0ab6 10090000 		.4byte	0x910
 1821 0aba 20       		.uleb128 0x20
 1822 0abb 09040000 		.4byte	.LASF143
 1823 0abf 01       		.byte	0x1
 1824 0ac0 AE       		.byte	0xae
ARM GAS  /tmp/cc3XXQkZ.s 			page 33


 1825 0ac1 28000000 		.4byte	0x28
 1826 0ac5 1E       		.uleb128 0x1e
 1827 0ac6 33060000 		.4byte	.LASF170
 1828 0aca E30A0000 		.4byte	0xae3
 1829 0ace 69050000 		.4byte	.LASF171
 1830 0ad2 00       		.byte	0
 1831 0ad3 17       		.uleb128 0x17
 1832 0ad4 53070000 		.4byte	0x753
 1833 0ad8 E30A0000 		.4byte	0xae3
 1834 0adc 18       		.uleb128 0x18
 1835 0add 1B040000 		.4byte	0x41b
 1836 0ae1 13       		.byte	0x13
 1837 0ae2 00       		.byte	0
 1838 0ae3 16       		.uleb128 0x16
 1839 0ae4 D30A0000 		.4byte	0xad3
 1840 0ae8 21       		.uleb128 0x21
 1841 0ae9 6E040000 		.4byte	.LASF172
 1842 0aed 01       		.byte	0x1
 1843 0aee 38       		.byte	0x38
 1844 0aef 00000000 		.4byte	.LFB207
 1845 0af3 04000000 		.4byte	.LFE207-.LFB207
 1846 0af7 01       		.uleb128 0x1
 1847 0af8 9C       		.byte	0x9c
 1848 0af9 070B0000 		.4byte	0xb07
 1849 0afd 22       		.uleb128 0x22
 1850 0afe 04000000 		.4byte	.LVL0
 1851 0b02 39100000 		.4byte	0x1039
 1852 0b06 00       		.byte	0
 1853 0b07 21       		.uleb128 0x21
 1854 0b08 99030000 		.4byte	.LASF173
 1855 0b0c 01       		.byte	0x1
 1856 0b0d 44       		.byte	0x44
 1857 0b0e 00000000 		.4byte	.LFB208
 1858 0b12 10000000 		.4byte	.LFE208-.LFB208
 1859 0b16 01       		.uleb128 0x1
 1860 0b17 9C       		.byte	0x9c
 1861 0b18 2A0B0000 		.4byte	0xb2a
 1862 0b1c 23       		.uleb128 0x23
 1863 0b1d 30080000 		.4byte	.LASF169
 1864 0b21 01       		.byte	0x1
 1865 0b22 44       		.byte	0x44
 1866 0b23 0A090000 		.4byte	0x90a
 1867 0b27 01       		.uleb128 0x1
 1868 0b28 50       		.byte	0x50
 1869 0b29 00       		.byte	0
 1870 0b2a 21       		.uleb128 0x21
 1871 0b2b 71070000 		.4byte	.LASF174
 1872 0b2f 01       		.byte	0x1
 1873 0b30 5F       		.byte	0x5f
 1874 0b31 00000000 		.4byte	.LFB209
 1875 0b35 1C000000 		.4byte	.LFE209-.LFB209
 1876 0b39 01       		.uleb128 0x1
 1877 0b3a 9C       		.byte	0x9c
 1878 0b3b 200C0000 		.4byte	0xc20
 1879 0b3f 24       		.uleb128 0x24
 1880 0b40 30080000 		.4byte	.LASF169
 1881 0b44 01       		.byte	0x1
ARM GAS  /tmp/cc3XXQkZ.s 			page 34


 1882 0b45 5F       		.byte	0x5f
 1883 0b46 0A090000 		.4byte	0x90a
 1884 0b4a 00000000 		.4byte	.LLST0
 1885 0b4e 24       		.uleb128 0x24
 1886 0b4f C1060000 		.4byte	.LASF141
 1887 0b53 01       		.byte	0x1
 1888 0b54 5F       		.byte	0x5f
 1889 0b55 EF090000 		.4byte	0x9ef
 1890 0b59 1E000000 		.4byte	.LLST1
 1891 0b5d 25       		.uleb128 0x25
 1892 0b5e 33060000 		.4byte	.LASF170
 1893 0b62 300C0000 		.4byte	0xc30
 1894 0b66 26       		.uleb128 0x26
 1895 0b67 7B0A0000 		.4byte	0xa7b
 1896 0b6b 02000000 		.4byte	.LBB78
 1897 0b6f 00000000 		.4byte	.Ldebug_ranges0+0
 1898 0b73 01       		.byte	0x1
 1899 0b74 63       		.byte	0x63
 1900 0b75 B30B0000 		.4byte	0xbb3
 1901 0b79 27       		.uleb128 0x27
 1902 0b7a 420A0000 		.4byte	0xa42
 1903 0b7e 02000000 		.4byte	.LBB79
 1904 0b82 00000000 		.4byte	.Ldebug_ranges0+0
 1905 0b86 13       		.byte	0x13
 1906 0b87 ED01     		.2byte	0x1ed
 1907 0b89 27       		.uleb128 0x27
 1908 0b8a 300A0000 		.4byte	0xa30
 1909 0b8e 02000000 		.4byte	.LBB80
 1910 0b92 00000000 		.4byte	.Ldebug_ranges0+0
 1911 0b96 12       		.byte	0x12
 1912 0b97 5C01     		.2byte	0x15c
 1913 0b99 27       		.uleb128 0x27
 1914 0b9a 160A0000 		.4byte	0xa16
 1915 0b9e 02000000 		.4byte	.LBB81
 1916 0ba2 00000000 		.4byte	.Ldebug_ranges0+0
 1917 0ba6 0B       		.byte	0xb
 1918 0ba7 D001     		.2byte	0x1d0
 1919 0ba9 28       		.uleb128 0x28
 1920 0baa 230A0000 		.4byte	0xa23
 1921 0bae 20       		.byte	0x20
 1922 0baf 00       		.byte	0
 1923 0bb0 00       		.byte	0
 1924 0bb1 00       		.byte	0
 1925 0bb2 00       		.byte	0
 1926 0bb3 29       		.uleb128 0x29
 1927 0bb4 840A0000 		.4byte	0xa84
 1928 0bb8 14000000 		.4byte	.LBB88
 1929 0bbc 08000000 		.4byte	.LBE88-.LBB88
 1930 0bc0 01       		.byte	0x1
 1931 0bc1 69       		.byte	0x69
 1932 0bc2 0F0C0000 		.4byte	0xc0f
 1933 0bc6 2A       		.uleb128 0x2a
 1934 0bc7 4B0A0000 		.4byte	0xa4b
 1935 0bcb 14000000 		.4byte	.LBB89
 1936 0bcf 08000000 		.4byte	.LBE89-.LBB89
 1937 0bd3 13       		.byte	0x13
 1938 0bd4 F801     		.2byte	0x1f8
ARM GAS  /tmp/cc3XXQkZ.s 			page 35


 1939 0bd6 2B       		.uleb128 0x2b
 1940 0bd7 14000000 		.4byte	.LBB90
 1941 0bdb 08000000 		.4byte	.LBE90-.LBB90
 1942 0bdf 2C       		.uleb128 0x2c
 1943 0be0 580A0000 		.4byte	0xa58
 1944 0be4 2A       		.uleb128 0x2a
 1945 0be5 390A0000 		.4byte	0xa39
 1946 0be9 14000000 		.4byte	.LBB91
 1947 0bed 08000000 		.4byte	.LBE91-.LBB91
 1948 0bf1 12       		.byte	0x12
 1949 0bf2 7301     		.2byte	0x173
 1950 0bf4 2A       		.uleb128 0x2a
 1951 0bf5 160A0000 		.4byte	0xa16
 1952 0bf9 14000000 		.4byte	.LBB92
 1953 0bfd 08000000 		.4byte	.LBE92-.LBB92
 1954 0c01 0B       		.byte	0xb
 1955 0c02 E301     		.2byte	0x1e3
 1956 0c04 28       		.uleb128 0x28
 1957 0c05 230A0000 		.4byte	0xa23
 1958 0c09 00       		.byte	0
 1959 0c0a 00       		.byte	0
 1960 0c0b 00       		.byte	0
 1961 0c0c 00       		.byte	0
 1962 0c0d 00       		.byte	0
 1963 0c0e 00       		.byte	0
 1964 0c0f 2D       		.uleb128 0x2d
 1965 0c10 10000000 		.4byte	.LVL3
 1966 0c14 41100000 		.4byte	0x1041
 1967 0c18 2E       		.uleb128 0x2e
 1968 0c19 01       		.uleb128 0x1
 1969 0c1a 50       		.byte	0x50
 1970 0c1b 02       		.uleb128 0x2
 1971 0c1c 74       		.byte	0x74
 1972 0c1d 00       		.sleb128 0
 1973 0c1e 00       		.byte	0
 1974 0c1f 00       		.byte	0
 1975 0c20 17       		.uleb128 0x17
 1976 0c21 53070000 		.4byte	0x753
 1977 0c25 300C0000 		.4byte	0xc30
 1978 0c29 18       		.uleb128 0x18
 1979 0c2a 1B040000 		.4byte	0x41b
 1980 0c2e 08       		.byte	0x8
 1981 0c2f 00       		.byte	0
 1982 0c30 16       		.uleb128 0x16
 1983 0c31 200C0000 		.4byte	0xc20
 1984 0c35 21       		.uleb128 0x21
 1985 0c36 30000000 		.4byte	.LASF175
 1986 0c3a 01       		.byte	0x1
 1987 0c3b 73       		.byte	0x73
 1988 0c3c 00000000 		.4byte	.LFB210
 1989 0c40 1A000000 		.4byte	.LFE210-.LFB210
 1990 0c44 01       		.uleb128 0x1
 1991 0c45 9C       		.byte	0x9c
 1992 0c46 1C0D0000 		.4byte	0xd1c
 1993 0c4a 24       		.uleb128 0x24
 1994 0c4b 30080000 		.4byte	.LASF169
 1995 0c4f 01       		.byte	0x1
ARM GAS  /tmp/cc3XXQkZ.s 			page 36


 1996 0c50 73       		.byte	0x73
 1997 0c51 0A090000 		.4byte	0x90a
 1998 0c55 3F000000 		.4byte	.LLST2
 1999 0c59 25       		.uleb128 0x25
 2000 0c5a 33060000 		.4byte	.LASF170
 2001 0c5e 2C0D0000 		.4byte	0xd2c
 2002 0c62 26       		.uleb128 0x26
 2003 0c63 7B0A0000 		.4byte	0xa7b
 2004 0c67 02000000 		.4byte	.LBB94
 2005 0c6b 18000000 		.4byte	.Ldebug_ranges0+0x18
 2006 0c6f 01       		.byte	0x1
 2007 0c70 77       		.byte	0x77
 2008 0c71 AF0C0000 		.4byte	0xcaf
 2009 0c75 27       		.uleb128 0x27
 2010 0c76 420A0000 		.4byte	0xa42
 2011 0c7a 02000000 		.4byte	.LBB95
 2012 0c7e 18000000 		.4byte	.Ldebug_ranges0+0x18
 2013 0c82 13       		.byte	0x13
 2014 0c83 ED01     		.2byte	0x1ed
 2015 0c85 27       		.uleb128 0x27
 2016 0c86 300A0000 		.4byte	0xa30
 2017 0c8a 02000000 		.4byte	.LBB96
 2018 0c8e 18000000 		.4byte	.Ldebug_ranges0+0x18
 2019 0c92 12       		.byte	0x12
 2020 0c93 5C01     		.2byte	0x15c
 2021 0c95 27       		.uleb128 0x27
 2022 0c96 160A0000 		.4byte	0xa16
 2023 0c9a 02000000 		.4byte	.LBB97
 2024 0c9e 18000000 		.4byte	.Ldebug_ranges0+0x18
 2025 0ca2 0B       		.byte	0xb
 2026 0ca3 D001     		.2byte	0x1d0
 2027 0ca5 28       		.uleb128 0x28
 2028 0ca6 230A0000 		.4byte	0xa23
 2029 0caa 20       		.byte	0x20
 2030 0cab 00       		.byte	0
 2031 0cac 00       		.byte	0
 2032 0cad 00       		.byte	0
 2033 0cae 00       		.byte	0
 2034 0caf 29       		.uleb128 0x29
 2035 0cb0 840A0000 		.4byte	0xa84
 2036 0cb4 12000000 		.4byte	.LBB104
 2037 0cb8 08000000 		.4byte	.LBE104-.LBB104
 2038 0cbc 01       		.byte	0x1
 2039 0cbd 7C       		.byte	0x7c
 2040 0cbe 0B0D0000 		.4byte	0xd0b
 2041 0cc2 2A       		.uleb128 0x2a
 2042 0cc3 4B0A0000 		.4byte	0xa4b
 2043 0cc7 12000000 		.4byte	.LBB105
 2044 0ccb 08000000 		.4byte	.LBE105-.LBB105
 2045 0ccf 13       		.byte	0x13
 2046 0cd0 F801     		.2byte	0x1f8
 2047 0cd2 2B       		.uleb128 0x2b
 2048 0cd3 12000000 		.4byte	.LBB106
 2049 0cd7 08000000 		.4byte	.LBE106-.LBB106
 2050 0cdb 2C       		.uleb128 0x2c
 2051 0cdc 580A0000 		.4byte	0xa58
 2052 0ce0 2A       		.uleb128 0x2a
ARM GAS  /tmp/cc3XXQkZ.s 			page 37


 2053 0ce1 390A0000 		.4byte	0xa39
 2054 0ce5 12000000 		.4byte	.LBB107
 2055 0ce9 08000000 		.4byte	.LBE107-.LBB107
 2056 0ced 12       		.byte	0x12
 2057 0cee 7301     		.2byte	0x173
 2058 0cf0 2A       		.uleb128 0x2a
 2059 0cf1 160A0000 		.4byte	0xa16
 2060 0cf5 12000000 		.4byte	.LBB108
 2061 0cf9 08000000 		.4byte	.LBE108-.LBB108
 2062 0cfd 0B       		.byte	0xb
 2063 0cfe E301     		.2byte	0x1e3
 2064 0d00 28       		.uleb128 0x28
 2065 0d01 230A0000 		.4byte	0xa23
 2066 0d05 00       		.byte	0
 2067 0d06 00       		.byte	0
 2068 0d07 00       		.byte	0
 2069 0d08 00       		.byte	0
 2070 0d09 00       		.byte	0
 2071 0d0a 00       		.byte	0
 2072 0d0b 2D       		.uleb128 0x2d
 2073 0d0c 0E000000 		.4byte	.LVL6
 2074 0d10 53100000 		.4byte	0x1053
 2075 0d14 2E       		.uleb128 0x2e
 2076 0d15 01       		.uleb128 0x1
 2077 0d16 50       		.byte	0x50
 2078 0d17 02       		.uleb128 0x2
 2079 0d18 74       		.byte	0x74
 2080 0d19 00       		.sleb128 0
 2081 0d1a 00       		.byte	0
 2082 0d1b 00       		.byte	0
 2083 0d1c 17       		.uleb128 0x17
 2084 0d1d 53070000 		.4byte	0x753
 2085 0d21 2C0D0000 		.4byte	0xd2c
 2086 0d25 18       		.uleb128 0x18
 2087 0d26 1B040000 		.4byte	0x41b
 2088 0d2a 07       		.byte	0x7
 2089 0d2b 00       		.byte	0
 2090 0d2c 16       		.uleb128 0x16
 2091 0d2d 1C0D0000 		.4byte	0xd1c
 2092 0d31 21       		.uleb128 0x21
 2093 0d32 41070000 		.4byte	.LASF176
 2094 0d36 01       		.byte	0x1
 2095 0d37 8F       		.byte	0x8f
 2096 0d38 00000000 		.4byte	.LFB211
 2097 0d3c 1E000000 		.4byte	.LFE211-.LFB211
 2098 0d40 01       		.uleb128 0x1
 2099 0d41 9C       		.byte	0x9c
 2100 0d42 800E0000 		.4byte	0xe80
 2101 0d46 24       		.uleb128 0x24
 2102 0d47 30080000 		.4byte	.LASF169
 2103 0d4b 01       		.byte	0x1
 2104 0d4c 8F       		.byte	0x8f
 2105 0d4d 0A090000 		.4byte	0x90a
 2106 0d51 5D000000 		.4byte	.LLST3
 2107 0d55 24       		.uleb128 0x24
 2108 0d56 9B040000 		.4byte	.LASF144
 2109 0d5a 01       		.byte	0x1
ARM GAS  /tmp/cc3XXQkZ.s 			page 38


 2110 0d5b 90       		.byte	0x90
 2111 0d5c FA090000 		.4byte	0x9fa
 2112 0d60 7E000000 		.4byte	.LLST4
 2113 0d64 24       		.uleb128 0x24
 2114 0d65 B9040000 		.4byte	.LASF142
 2115 0d69 01       		.byte	0x1
 2116 0d6a 91       		.byte	0x91
 2117 0d6b 10090000 		.4byte	0x910
 2118 0d6f 9F000000 		.4byte	.LLST5
 2119 0d73 24       		.uleb128 0x24
 2120 0d74 09040000 		.4byte	.LASF143
 2121 0d78 01       		.byte	0x1
 2122 0d79 92       		.byte	0x92
 2123 0d7a 28000000 		.4byte	0x28
 2124 0d7e C0000000 		.4byte	.LLST6
 2125 0d82 29       		.uleb128 0x29
 2126 0d83 7B0A0000 		.4byte	0xa7b
 2127 0d87 02000000 		.4byte	.LBB110
 2128 0d8b 06000000 		.4byte	.LBE110-.LBB110
 2129 0d8f 01       		.byte	0x1
 2130 0d90 94       		.byte	0x94
 2131 0d91 CF0D0000 		.4byte	0xdcf
 2132 0d95 2A       		.uleb128 0x2a
 2133 0d96 420A0000 		.4byte	0xa42
 2134 0d9a 02000000 		.4byte	.LBB111
 2135 0d9e 06000000 		.4byte	.LBE111-.LBB111
 2136 0da2 13       		.byte	0x13
 2137 0da3 ED01     		.2byte	0x1ed
 2138 0da5 2A       		.uleb128 0x2a
 2139 0da6 300A0000 		.4byte	0xa30
 2140 0daa 02000000 		.4byte	.LBB112
 2141 0dae 06000000 		.4byte	.LBE112-.LBB112
 2142 0db2 12       		.byte	0x12
 2143 0db3 5C01     		.2byte	0x15c
 2144 0db5 2A       		.uleb128 0x2a
 2145 0db6 160A0000 		.4byte	0xa16
 2146 0dba 02000000 		.4byte	.LBB113
 2147 0dbe 06000000 		.4byte	.LBE113-.LBB113
 2148 0dc2 0B       		.byte	0xb
 2149 0dc3 D001     		.2byte	0x1d0
 2150 0dc5 28       		.uleb128 0x28
 2151 0dc6 230A0000 		.4byte	0xa23
 2152 0dca 20       		.byte	0x20
 2153 0dcb 00       		.byte	0
 2154 0dcc 00       		.byte	0
 2155 0dcd 00       		.byte	0
 2156 0dce 00       		.byte	0
 2157 0dcf 29       		.uleb128 0x29
 2158 0dd0 8D0A0000 		.4byte	0xa8d
 2159 0dd4 08000000 		.4byte	.LBB115
 2160 0dd8 0E000000 		.4byte	.LBE115-.LBB115
 2161 0ddc 01       		.byte	0x1
 2162 0ddd 95       		.byte	0x95
 2163 0dde 270E0000 		.4byte	0xe27
 2164 0de2 2F       		.uleb128 0x2f
 2165 0de3 BA0A0000 		.4byte	0xaba
 2166 0de7 E1000000 		.4byte	.LLST7
ARM GAS  /tmp/cc3XXQkZ.s 			page 39


 2167 0deb 2F       		.uleb128 0x2f
 2168 0dec AF0A0000 		.4byte	0xaaf
 2169 0df0 02010000 		.4byte	.LLST8
 2170 0df4 2F       		.uleb128 0x2f
 2171 0df5 A40A0000 		.4byte	0xaa4
 2172 0df9 23010000 		.4byte	.LLST9
 2173 0dfd 2F       		.uleb128 0x2f
 2174 0dfe 990A0000 		.4byte	0xa99
 2175 0e02 44010000 		.4byte	.LLST10
 2176 0e06 2B       		.uleb128 0x2b
 2177 0e07 08000000 		.4byte	.LBB116
 2178 0e0b 0E000000 		.4byte	.LBE116-.LBB116
 2179 0e0f 2C       		.uleb128 0x2c
 2180 0e10 C50A0000 		.4byte	0xac5
 2181 0e14 2D       		.uleb128 0x2d
 2182 0e15 16000000 		.4byte	.LVL10
 2183 0e19 65100000 		.4byte	0x1065
 2184 0e1d 2E       		.uleb128 0x2e
 2185 0e1e 01       		.uleb128 0x1
 2186 0e1f 50       		.byte	0x50
 2187 0e20 03       		.uleb128 0x3
 2188 0e21 F3       		.byte	0xf3
 2189 0e22 01       		.uleb128 0x1
 2190 0e23 50       		.byte	0x50
 2191 0e24 00       		.byte	0
 2192 0e25 00       		.byte	0
 2193 0e26 00       		.byte	0
 2194 0e27 30       		.uleb128 0x30
 2195 0e28 840A0000 		.4byte	0xa84
 2196 0e2c 16000000 		.4byte	.LBB117
 2197 0e30 08000000 		.4byte	.LBE117-.LBB117
 2198 0e34 01       		.byte	0x1
 2199 0e35 96       		.byte	0x96
 2200 0e36 2A       		.uleb128 0x2a
 2201 0e37 4B0A0000 		.4byte	0xa4b
 2202 0e3b 16000000 		.4byte	.LBB118
 2203 0e3f 08000000 		.4byte	.LBE118-.LBB118
 2204 0e43 13       		.byte	0x13
 2205 0e44 F801     		.2byte	0x1f8
 2206 0e46 2B       		.uleb128 0x2b
 2207 0e47 16000000 		.4byte	.LBB119
 2208 0e4b 08000000 		.4byte	.LBE119-.LBB119
 2209 0e4f 2C       		.uleb128 0x2c
 2210 0e50 580A0000 		.4byte	0xa58
 2211 0e54 2A       		.uleb128 0x2a
 2212 0e55 390A0000 		.4byte	0xa39
 2213 0e59 16000000 		.4byte	.LBB120
 2214 0e5d 08000000 		.4byte	.LBE120-.LBB120
 2215 0e61 12       		.byte	0x12
 2216 0e62 7301     		.2byte	0x173
 2217 0e64 2A       		.uleb128 0x2a
 2218 0e65 160A0000 		.4byte	0xa16
 2219 0e69 16000000 		.4byte	.LBB121
 2220 0e6d 08000000 		.4byte	.LBE121-.LBB121
 2221 0e71 0B       		.byte	0xb
 2222 0e72 E301     		.2byte	0x1e3
 2223 0e74 28       		.uleb128 0x28
ARM GAS  /tmp/cc3XXQkZ.s 			page 40


 2224 0e75 230A0000 		.4byte	0xa23
 2225 0e79 00       		.byte	0
 2226 0e7a 00       		.byte	0
 2227 0e7b 00       		.byte	0
 2228 0e7c 00       		.byte	0
 2229 0e7d 00       		.byte	0
 2230 0e7e 00       		.byte	0
 2231 0e7f 00       		.byte	0
 2232 0e80 31       		.uleb128 0x31
 2233 0e81 8D0A0000 		.4byte	0xa8d
 2234 0e85 00000000 		.4byte	.LFB212
 2235 0e89 12000000 		.4byte	.LFE212-.LFB212
 2236 0e8d 01       		.uleb128 0x1
 2237 0e8e 9C       		.byte	0x9c
 2238 0e8f CE0E0000 		.4byte	0xece
 2239 0e93 2F       		.uleb128 0x2f
 2240 0e94 990A0000 		.4byte	0xa99
 2241 0e98 65010000 		.4byte	.LLST11
 2242 0e9c 2F       		.uleb128 0x2f
 2243 0e9d A40A0000 		.4byte	0xaa4
 2244 0ea1 86010000 		.4byte	.LLST12
 2245 0ea5 2F       		.uleb128 0x2f
 2246 0ea6 AF0A0000 		.4byte	0xaaf
 2247 0eaa A7010000 		.4byte	.LLST13
 2248 0eae 2F       		.uleb128 0x2f
 2249 0eaf BA0A0000 		.4byte	0xaba
 2250 0eb3 C8010000 		.4byte	.LLST14
 2251 0eb7 2C       		.uleb128 0x2c
 2252 0eb8 C50A0000 		.4byte	0xac5
 2253 0ebc 32       		.uleb128 0x32
 2254 0ebd 12000000 		.4byte	.LVL12
 2255 0ec1 65100000 		.4byte	0x1065
 2256 0ec5 2E       		.uleb128 0x2e
 2257 0ec6 01       		.uleb128 0x1
 2258 0ec7 50       		.byte	0x50
 2259 0ec8 03       		.uleb128 0x3
 2260 0ec9 F3       		.byte	0xf3
 2261 0eca 01       		.uleb128 0x1
 2262 0ecb 50       		.byte	0x50
 2263 0ecc 00       		.byte	0
 2264 0ecd 00       		.byte	0
 2265 0ece 21       		.uleb128 0x21
 2266 0ecf 35080000 		.4byte	.LASF177
 2267 0ed3 01       		.byte	0x1
 2268 0ed4 C9       		.byte	0xc9
 2269 0ed5 00000000 		.4byte	.LFB213
 2270 0ed9 2C000000 		.4byte	.LFE213-.LFB213
 2271 0edd 01       		.uleb128 0x1
 2272 0ede 9C       		.byte	0x9c
 2273 0edf B50F0000 		.4byte	0xfb5
 2274 0ee3 24       		.uleb128 0x24
 2275 0ee4 30080000 		.4byte	.LASF169
 2276 0ee8 01       		.byte	0x1
 2277 0ee9 C9       		.byte	0xc9
 2278 0eea 0A090000 		.4byte	0x90a
 2279 0eee E9010000 		.4byte	.LLST15
 2280 0ef2 25       		.uleb128 0x25
ARM GAS  /tmp/cc3XXQkZ.s 			page 41


 2281 0ef3 33060000 		.4byte	.LASF170
 2282 0ef7 C50F0000 		.4byte	0xfc5
 2283 0efb 29       		.uleb128 0x29
 2284 0efc 7B0A0000 		.4byte	0xa7b
 2285 0f00 00000000 		.4byte	.LBB123
 2286 0f04 06000000 		.4byte	.LBE123-.LBB123
 2287 0f08 01       		.byte	0x1
 2288 0f09 CD       		.byte	0xcd
 2289 0f0a 480F0000 		.4byte	0xf48
 2290 0f0e 2A       		.uleb128 0x2a
 2291 0f0f 420A0000 		.4byte	0xa42
 2292 0f13 00000000 		.4byte	.LBB124
 2293 0f17 06000000 		.4byte	.LBE124-.LBB124
 2294 0f1b 13       		.byte	0x13
 2295 0f1c ED01     		.2byte	0x1ed
 2296 0f1e 2A       		.uleb128 0x2a
 2297 0f1f 300A0000 		.4byte	0xa30
 2298 0f23 00000000 		.4byte	.LBB125
 2299 0f27 06000000 		.4byte	.LBE125-.LBB125
 2300 0f2b 12       		.byte	0x12
 2301 0f2c 5C01     		.2byte	0x15c
 2302 0f2e 2A       		.uleb128 0x2a
 2303 0f2f 160A0000 		.4byte	0xa16
 2304 0f33 00000000 		.4byte	.LBB126
 2305 0f37 06000000 		.4byte	.LBE126-.LBB126
 2306 0f3b 0B       		.byte	0xb
 2307 0f3c D001     		.2byte	0x1d0
 2308 0f3e 28       		.uleb128 0x28
 2309 0f3f 230A0000 		.4byte	0xa23
 2310 0f43 20       		.byte	0x20
 2311 0f44 00       		.byte	0
 2312 0f45 00       		.byte	0
 2313 0f46 00       		.byte	0
 2314 0f47 00       		.byte	0
 2315 0f48 29       		.uleb128 0x29
 2316 0f49 840A0000 		.4byte	0xa84
 2317 0f4d 1C000000 		.4byte	.LBB128
 2318 0f51 10000000 		.4byte	.LBE128-.LBB128
 2319 0f55 01       		.byte	0x1
 2320 0f56 D6       		.byte	0xd6
 2321 0f57 A40F0000 		.4byte	0xfa4
 2322 0f5b 2A       		.uleb128 0x2a
 2323 0f5c 4B0A0000 		.4byte	0xa4b
 2324 0f60 1C000000 		.4byte	.LBB129
 2325 0f64 10000000 		.4byte	.LBE129-.LBB129
 2326 0f68 13       		.byte	0x13
 2327 0f69 F801     		.2byte	0x1f8
 2328 0f6b 2B       		.uleb128 0x2b
 2329 0f6c 1C000000 		.4byte	.LBB130
 2330 0f70 10000000 		.4byte	.LBE130-.LBB130
 2331 0f74 2C       		.uleb128 0x2c
 2332 0f75 580A0000 		.4byte	0xa58
 2333 0f79 2A       		.uleb128 0x2a
 2334 0f7a 390A0000 		.4byte	0xa39
 2335 0f7e 1C000000 		.4byte	.LBB131
 2336 0f82 10000000 		.4byte	.LBE131-.LBB131
 2337 0f86 12       		.byte	0x12
ARM GAS  /tmp/cc3XXQkZ.s 			page 42


 2338 0f87 7301     		.2byte	0x173
 2339 0f89 2A       		.uleb128 0x2a
 2340 0f8a 160A0000 		.4byte	0xa16
 2341 0f8e 1C000000 		.4byte	.LBB132
 2342 0f92 10000000 		.4byte	.LBE132-.LBB132
 2343 0f96 0B       		.byte	0xb
 2344 0f97 E301     		.2byte	0x1e3
 2345 0f99 28       		.uleb128 0x28
 2346 0f9a 230A0000 		.4byte	0xa23
 2347 0f9e 00       		.byte	0
 2348 0f9f 00       		.byte	0
 2349 0fa0 00       		.byte	0
 2350 0fa1 00       		.byte	0
 2351 0fa2 00       		.byte	0
 2352 0fa3 00       		.byte	0
 2353 0fa4 2D       		.uleb128 0x2d
 2354 0fa5 14000000 		.4byte	.LVL14
 2355 0fa9 77100000 		.4byte	0x1077
 2356 0fad 2E       		.uleb128 0x2e
 2357 0fae 01       		.uleb128 0x1
 2358 0faf 50       		.byte	0x50
 2359 0fb0 02       		.uleb128 0x2
 2360 0fb1 74       		.byte	0x74
 2361 0fb2 00       		.sleb128 0
 2362 0fb3 00       		.byte	0
 2363 0fb4 00       		.byte	0
 2364 0fb5 17       		.uleb128 0x17
 2365 0fb6 53070000 		.4byte	0x753
 2366 0fba C50F0000 		.4byte	0xfc5
 2367 0fbe 18       		.uleb128 0x18
 2368 0fbf 1B040000 		.4byte	0x41b
 2369 0fc3 11       		.byte	0x11
 2370 0fc4 00       		.byte	0
 2371 0fc5 16       		.uleb128 0x16
 2372 0fc6 B50F0000 		.4byte	0xfb5
 2373 0fca 21       		.uleb128 0x21
 2374 0fcb B4070000 		.4byte	.LASF178
 2375 0fcf 01       		.byte	0x1
 2376 0fd0 E3       		.byte	0xe3
 2377 0fd1 00000000 		.4byte	.LFB214
 2378 0fd5 1A000000 		.4byte	.LFE214-.LFB214
 2379 0fd9 01       		.uleb128 0x1
 2380 0fda 9C       		.byte	0x9c
 2381 0fdb 08100000 		.4byte	0x1008
 2382 0fdf 24       		.uleb128 0x24
 2383 0fe0 30080000 		.4byte	.LASF169
 2384 0fe4 01       		.byte	0x1
 2385 0fe5 E3       		.byte	0xe3
 2386 0fe6 0A090000 		.4byte	0x90a
 2387 0fea 12020000 		.4byte	.LLST16
 2388 0fee 25       		.uleb128 0x25
 2389 0fef 33060000 		.4byte	.LASF170
 2390 0ff3 18100000 		.4byte	0x1018
 2391 0ff7 2D       		.uleb128 0x2d
 2392 0ff8 0E000000 		.4byte	.LVL18
 2393 0ffc 77100000 		.4byte	0x1077
 2394 1000 2E       		.uleb128 0x2e
ARM GAS  /tmp/cc3XXQkZ.s 			page 43


 2395 1001 01       		.uleb128 0x1
 2396 1002 50       		.byte	0x50
 2397 1003 02       		.uleb128 0x2
 2398 1004 74       		.byte	0x74
 2399 1005 00       		.sleb128 0
 2400 1006 00       		.byte	0
 2401 1007 00       		.byte	0
 2402 1008 17       		.uleb128 0x17
 2403 1009 53070000 		.4byte	0x753
 2404 100d 18100000 		.4byte	0x1018
 2405 1011 18       		.uleb128 0x18
 2406 1012 1B040000 		.4byte	0x41b
 2407 1016 12       		.byte	0x12
 2408 1017 00       		.byte	0
 2409 1018 16       		.uleb128 0x16
 2410 1019 08100000 		.4byte	0x1008
 2411 101d 33       		.uleb128 0x33
 2412 101e D0000000 		.4byte	.LASF179
 2413 1022 14       		.byte	0x14
 2414 1023 5506     		.2byte	0x655
 2415 1025 29100000 		.4byte	0x1029
 2416 1029 0F       		.uleb128 0xf
 2417 102a BF000000 		.4byte	0xbf
 2418 102e 34       		.uleb128 0x34
 2419 102f 636800   		.ascii	"ch\000"
 2420 1032 08       		.byte	0x8
 2421 1033 0902     		.2byte	0x209
 2422 1035 B4030000 		.4byte	0x3b4
 2423 1039 35       		.uleb128 0x35
 2424 103a AC040000 		.4byte	.LASF185
 2425 103e 11       		.byte	0x11
 2426 103f 7801     		.2byte	0x178
 2427 1041 36       		.uleb128 0x36
 2428 1042 5C070000 		.4byte	.LASF180
 2429 1046 11       		.byte	0x11
 2430 1047 7901     		.2byte	0x179
 2431 1049 53100000 		.4byte	0x1053
 2432 104d 0C       		.uleb128 0xc
 2433 104e 0A090000 		.4byte	0x90a
 2434 1052 00       		.byte	0
 2435 1053 36       		.uleb128 0x36
 2436 1054 64000000 		.4byte	.LASF181
 2437 1058 11       		.byte	0x11
 2438 1059 7A01     		.2byte	0x17a
 2439 105b 65100000 		.4byte	0x1065
 2440 105f 0C       		.uleb128 0xc
 2441 1060 0A090000 		.4byte	0x90a
 2442 1064 00       		.byte	0
 2443 1065 36       		.uleb128 0x36
 2444 1066 63020000 		.4byte	.LASF182
 2445 106a 11       		.byte	0x11
 2446 106b 7B01     		.2byte	0x17b
 2447 106d 77100000 		.4byte	0x1077
 2448 1071 0C       		.uleb128 0xc
 2449 1072 0A090000 		.4byte	0x90a
 2450 1076 00       		.byte	0
 2451 1077 37       		.uleb128 0x37
ARM GAS  /tmp/cc3XXQkZ.s 			page 44


 2452 1078 ED050000 		.4byte	.LASF186
 2453 107c 11       		.byte	0x11
 2454 107d 7C01     		.2byte	0x17c
 2455 107f 0C       		.uleb128 0xc
 2456 1080 0A090000 		.4byte	0x90a
 2457 1084 00       		.byte	0
 2458 1085 00       		.byte	0
 2459              		.section	.debug_abbrev,"",%progbits
 2460              	.Ldebug_abbrev0:
 2461 0000 01       		.uleb128 0x1
 2462 0001 11       		.uleb128 0x11
 2463 0002 01       		.byte	0x1
 2464 0003 25       		.uleb128 0x25
 2465 0004 0E       		.uleb128 0xe
 2466 0005 13       		.uleb128 0x13
 2467 0006 0B       		.uleb128 0xb
 2468 0007 03       		.uleb128 0x3
 2469 0008 0E       		.uleb128 0xe
 2470 0009 55       		.uleb128 0x55
 2471 000a 17       		.uleb128 0x17
 2472 000b 11       		.uleb128 0x11
 2473 000c 01       		.uleb128 0x1
 2474 000d 10       		.uleb128 0x10
 2475 000e 17       		.uleb128 0x17
 2476 000f 00       		.byte	0
 2477 0010 00       		.byte	0
 2478 0011 02       		.uleb128 0x2
 2479 0012 24       		.uleb128 0x24
 2480 0013 00       		.byte	0
 2481 0014 0B       		.uleb128 0xb
 2482 0015 0B       		.uleb128 0xb
 2483 0016 3E       		.uleb128 0x3e
 2484 0017 0B       		.uleb128 0xb
 2485 0018 03       		.uleb128 0x3
 2486 0019 08       		.uleb128 0x8
 2487 001a 00       		.byte	0
 2488 001b 00       		.byte	0
 2489 001c 03       		.uleb128 0x3
 2490 001d 16       		.uleb128 0x16
 2491 001e 00       		.byte	0
 2492 001f 03       		.uleb128 0x3
 2493 0020 0E       		.uleb128 0xe
 2494 0021 3A       		.uleb128 0x3a
 2495 0022 0B       		.uleb128 0xb
 2496 0023 3B       		.uleb128 0x3b
 2497 0024 0B       		.uleb128 0xb
 2498 0025 49       		.uleb128 0x49
 2499 0026 13       		.uleb128 0x13
 2500 0027 00       		.byte	0
 2501 0028 00       		.byte	0
 2502 0029 04       		.uleb128 0x4
 2503 002a 24       		.uleb128 0x24
 2504 002b 00       		.byte	0
 2505 002c 0B       		.uleb128 0xb
 2506 002d 0B       		.uleb128 0xb
 2507 002e 3E       		.uleb128 0x3e
 2508 002f 0B       		.uleb128 0xb
ARM GAS  /tmp/cc3XXQkZ.s 			page 45


 2509 0030 03       		.uleb128 0x3
 2510 0031 0E       		.uleb128 0xe
 2511 0032 00       		.byte	0
 2512 0033 00       		.byte	0
 2513 0034 05       		.uleb128 0x5
 2514 0035 13       		.uleb128 0x13
 2515 0036 01       		.byte	0x1
 2516 0037 03       		.uleb128 0x3
 2517 0038 0E       		.uleb128 0xe
 2518 0039 0B       		.uleb128 0xb
 2519 003a 0B       		.uleb128 0xb
 2520 003b 3A       		.uleb128 0x3a
 2521 003c 0B       		.uleb128 0xb
 2522 003d 3B       		.uleb128 0x3b
 2523 003e 0B       		.uleb128 0xb
 2524 003f 01       		.uleb128 0x1
 2525 0040 13       		.uleb128 0x13
 2526 0041 00       		.byte	0
 2527 0042 00       		.byte	0
 2528 0043 06       		.uleb128 0x6
 2529 0044 0D       		.uleb128 0xd
 2530 0045 00       		.byte	0
 2531 0046 03       		.uleb128 0x3
 2532 0047 0E       		.uleb128 0xe
 2533 0048 3A       		.uleb128 0x3a
 2534 0049 0B       		.uleb128 0xb
 2535 004a 3B       		.uleb128 0x3b
 2536 004b 0B       		.uleb128 0xb
 2537 004c 49       		.uleb128 0x49
 2538 004d 13       		.uleb128 0x13
 2539 004e 38       		.uleb128 0x38
 2540 004f 0B       		.uleb128 0xb
 2541 0050 00       		.byte	0
 2542 0051 00       		.byte	0
 2543 0052 07       		.uleb128 0x7
 2544 0053 0D       		.uleb128 0xd
 2545 0054 00       		.byte	0
 2546 0055 03       		.uleb128 0x3
 2547 0056 08       		.uleb128 0x8
 2548 0057 3A       		.uleb128 0x3a
 2549 0058 0B       		.uleb128 0xb
 2550 0059 3B       		.uleb128 0x3b
 2551 005a 05       		.uleb128 0x5
 2552 005b 49       		.uleb128 0x49
 2553 005c 13       		.uleb128 0x13
 2554 005d 38       		.uleb128 0x38
 2555 005e 0B       		.uleb128 0xb
 2556 005f 00       		.byte	0
 2557 0060 00       		.byte	0
 2558 0061 08       		.uleb128 0x8
 2559 0062 0D       		.uleb128 0xd
 2560 0063 00       		.byte	0
 2561 0064 03       		.uleb128 0x3
 2562 0065 0E       		.uleb128 0xe
 2563 0066 3A       		.uleb128 0x3a
 2564 0067 0B       		.uleb128 0xb
 2565 0068 3B       		.uleb128 0x3b
ARM GAS  /tmp/cc3XXQkZ.s 			page 46


 2566 0069 05       		.uleb128 0x5
 2567 006a 49       		.uleb128 0x49
 2568 006b 13       		.uleb128 0x13
 2569 006c 38       		.uleb128 0x38
 2570 006d 0B       		.uleb128 0xb
 2571 006e 00       		.byte	0
 2572 006f 00       		.byte	0
 2573 0070 09       		.uleb128 0x9
 2574 0071 0F       		.uleb128 0xf
 2575 0072 00       		.byte	0
 2576 0073 0B       		.uleb128 0xb
 2577 0074 0B       		.uleb128 0xb
 2578 0075 49       		.uleb128 0x49
 2579 0076 13       		.uleb128 0x13
 2580 0077 00       		.byte	0
 2581 0078 00       		.byte	0
 2582 0079 0A       		.uleb128 0xa
 2583 007a 13       		.uleb128 0x13
 2584 007b 01       		.byte	0x1
 2585 007c 03       		.uleb128 0x3
 2586 007d 0E       		.uleb128 0xe
 2587 007e 0B       		.uleb128 0xb
 2588 007f 0B       		.uleb128 0xb
 2589 0080 3A       		.uleb128 0x3a
 2590 0081 0B       		.uleb128 0xb
 2591 0082 3B       		.uleb128 0x3b
 2592 0083 05       		.uleb128 0x5
 2593 0084 01       		.uleb128 0x1
 2594 0085 13       		.uleb128 0x13
 2595 0086 00       		.byte	0
 2596 0087 00       		.byte	0
 2597 0088 0B       		.uleb128 0xb
 2598 0089 15       		.uleb128 0x15
 2599 008a 01       		.byte	0x1
 2600 008b 27       		.uleb128 0x27
 2601 008c 19       		.uleb128 0x19
 2602 008d 01       		.uleb128 0x1
 2603 008e 13       		.uleb128 0x13
 2604 008f 00       		.byte	0
 2605 0090 00       		.byte	0
 2606 0091 0C       		.uleb128 0xc
 2607 0092 05       		.uleb128 0x5
 2608 0093 00       		.byte	0
 2609 0094 49       		.uleb128 0x49
 2610 0095 13       		.uleb128 0x13
 2611 0096 00       		.byte	0
 2612 0097 00       		.byte	0
 2613 0098 0D       		.uleb128 0xd
 2614 0099 0F       		.uleb128 0xf
 2615 009a 00       		.byte	0
 2616 009b 0B       		.uleb128 0xb
 2617 009c 0B       		.uleb128 0xb
 2618 009d 00       		.byte	0
 2619 009e 00       		.byte	0
 2620 009f 0E       		.uleb128 0xe
 2621 00a0 13       		.uleb128 0x13
 2622 00a1 01       		.byte	0x1
ARM GAS  /tmp/cc3XXQkZ.s 			page 47


 2623 00a2 03       		.uleb128 0x3
 2624 00a3 0E       		.uleb128 0xe
 2625 00a4 0B       		.uleb128 0xb
 2626 00a5 05       		.uleb128 0x5
 2627 00a6 3A       		.uleb128 0x3a
 2628 00a7 0B       		.uleb128 0xb
 2629 00a8 3B       		.uleb128 0x3b
 2630 00a9 05       		.uleb128 0x5
 2631 00aa 01       		.uleb128 0x1
 2632 00ab 13       		.uleb128 0x13
 2633 00ac 00       		.byte	0
 2634 00ad 00       		.byte	0
 2635 00ae 0F       		.uleb128 0xf
 2636 00af 35       		.uleb128 0x35
 2637 00b0 00       		.byte	0
 2638 00b1 49       		.uleb128 0x49
 2639 00b2 13       		.uleb128 0x13
 2640 00b3 00       		.byte	0
 2641 00b4 00       		.byte	0
 2642 00b5 10       		.uleb128 0x10
 2643 00b6 13       		.uleb128 0x13
 2644 00b7 01       		.byte	0x1
 2645 00b8 0B       		.uleb128 0xb
 2646 00b9 0B       		.uleb128 0xb
 2647 00ba 3A       		.uleb128 0x3a
 2648 00bb 0B       		.uleb128 0xb
 2649 00bc 3B       		.uleb128 0x3b
 2650 00bd 0B       		.uleb128 0xb
 2651 00be 01       		.uleb128 0x1
 2652 00bf 13       		.uleb128 0x13
 2653 00c0 00       		.byte	0
 2654 00c1 00       		.byte	0
 2655 00c2 11       		.uleb128 0x11
 2656 00c3 0D       		.uleb128 0xd
 2657 00c4 00       		.byte	0
 2658 00c5 03       		.uleb128 0x3
 2659 00c6 08       		.uleb128 0x8
 2660 00c7 3A       		.uleb128 0x3a
 2661 00c8 0B       		.uleb128 0xb
 2662 00c9 3B       		.uleb128 0x3b
 2663 00ca 0B       		.uleb128 0xb
 2664 00cb 49       		.uleb128 0x49
 2665 00cc 13       		.uleb128 0x13
 2666 00cd 38       		.uleb128 0x38
 2667 00ce 0B       		.uleb128 0xb
 2668 00cf 00       		.byte	0
 2669 00d0 00       		.byte	0
 2670 00d1 12       		.uleb128 0x12
 2671 00d2 13       		.uleb128 0x13
 2672 00d3 01       		.byte	0x1
 2673 00d4 0B       		.uleb128 0xb
 2674 00d5 0B       		.uleb128 0xb
 2675 00d6 3A       		.uleb128 0x3a
 2676 00d7 0B       		.uleb128 0xb
 2677 00d8 3B       		.uleb128 0x3b
 2678 00d9 05       		.uleb128 0x5
 2679 00da 01       		.uleb128 0x1
ARM GAS  /tmp/cc3XXQkZ.s 			page 48


 2680 00db 13       		.uleb128 0x13
 2681 00dc 00       		.byte	0
 2682 00dd 00       		.byte	0
 2683 00de 13       		.uleb128 0x13
 2684 00df 16       		.uleb128 0x16
 2685 00e0 00       		.byte	0
 2686 00e1 03       		.uleb128 0x3
 2687 00e2 0E       		.uleb128 0xe
 2688 00e3 3A       		.uleb128 0x3a
 2689 00e4 0B       		.uleb128 0xb
 2690 00e5 3B       		.uleb128 0x3b
 2691 00e6 05       		.uleb128 0x5
 2692 00e7 49       		.uleb128 0x49
 2693 00e8 13       		.uleb128 0x13
 2694 00e9 00       		.byte	0
 2695 00ea 00       		.byte	0
 2696 00eb 14       		.uleb128 0x14
 2697 00ec 17       		.uleb128 0x17
 2698 00ed 01       		.byte	0x1
 2699 00ee 0B       		.uleb128 0xb
 2700 00ef 0B       		.uleb128 0xb
 2701 00f0 3A       		.uleb128 0x3a
 2702 00f1 0B       		.uleb128 0xb
 2703 00f2 3B       		.uleb128 0x3b
 2704 00f3 0B       		.uleb128 0xb
 2705 00f4 01       		.uleb128 0x1
 2706 00f5 13       		.uleb128 0x13
 2707 00f6 00       		.byte	0
 2708 00f7 00       		.byte	0
 2709 00f8 15       		.uleb128 0x15
 2710 00f9 0D       		.uleb128 0xd
 2711 00fa 00       		.byte	0
 2712 00fb 03       		.uleb128 0x3
 2713 00fc 0E       		.uleb128 0xe
 2714 00fd 3A       		.uleb128 0x3a
 2715 00fe 0B       		.uleb128 0xb
 2716 00ff 3B       		.uleb128 0x3b
 2717 0100 05       		.uleb128 0x5
 2718 0101 49       		.uleb128 0x49
 2719 0102 13       		.uleb128 0x13
 2720 0103 00       		.byte	0
 2721 0104 00       		.byte	0
 2722 0105 16       		.uleb128 0x16
 2723 0106 26       		.uleb128 0x26
 2724 0107 00       		.byte	0
 2725 0108 49       		.uleb128 0x49
 2726 0109 13       		.uleb128 0x13
 2727 010a 00       		.byte	0
 2728 010b 00       		.byte	0
 2729 010c 17       		.uleb128 0x17
 2730 010d 01       		.uleb128 0x1
 2731 010e 01       		.byte	0x1
 2732 010f 49       		.uleb128 0x49
 2733 0110 13       		.uleb128 0x13
 2734 0111 01       		.uleb128 0x1
 2735 0112 13       		.uleb128 0x13
 2736 0113 00       		.byte	0
ARM GAS  /tmp/cc3XXQkZ.s 			page 49


 2737 0114 00       		.byte	0
 2738 0115 18       		.uleb128 0x18
 2739 0116 21       		.uleb128 0x21
 2740 0117 00       		.byte	0
 2741 0118 49       		.uleb128 0x49
 2742 0119 13       		.uleb128 0x13
 2743 011a 2F       		.uleb128 0x2f
 2744 011b 0B       		.uleb128 0xb
 2745 011c 00       		.byte	0
 2746 011d 00       		.byte	0
 2747 011e 19       		.uleb128 0x19
 2748 011f 04       		.uleb128 0x4
 2749 0120 01       		.byte	0x1
 2750 0121 0B       		.uleb128 0xb
 2751 0122 0B       		.uleb128 0xb
 2752 0123 3A       		.uleb128 0x3a
 2753 0124 0B       		.uleb128 0xb
 2754 0125 3B       		.uleb128 0x3b
 2755 0126 0B       		.uleb128 0xb
 2756 0127 01       		.uleb128 0x1
 2757 0128 13       		.uleb128 0x13
 2758 0129 00       		.byte	0
 2759 012a 00       		.byte	0
 2760 012b 1A       		.uleb128 0x1a
 2761 012c 28       		.uleb128 0x28
 2762 012d 00       		.byte	0
 2763 012e 03       		.uleb128 0x3
 2764 012f 0E       		.uleb128 0xe
 2765 0130 1C       		.uleb128 0x1c
 2766 0131 0D       		.uleb128 0xd
 2767 0132 00       		.byte	0
 2768 0133 00       		.byte	0
 2769 0134 1B       		.uleb128 0x1b
 2770 0135 2E       		.uleb128 0x2e
 2771 0136 01       		.byte	0x1
 2772 0137 03       		.uleb128 0x3
 2773 0138 0E       		.uleb128 0xe
 2774 0139 3A       		.uleb128 0x3a
 2775 013a 0B       		.uleb128 0xb
 2776 013b 3B       		.uleb128 0x3b
 2777 013c 05       		.uleb128 0x5
 2778 013d 27       		.uleb128 0x27
 2779 013e 19       		.uleb128 0x19
 2780 013f 20       		.uleb128 0x20
 2781 0140 0B       		.uleb128 0xb
 2782 0141 01       		.uleb128 0x1
 2783 0142 13       		.uleb128 0x13
 2784 0143 00       		.byte	0
 2785 0144 00       		.byte	0
 2786 0145 1C       		.uleb128 0x1c
 2787 0146 05       		.uleb128 0x5
 2788 0147 00       		.byte	0
 2789 0148 03       		.uleb128 0x3
 2790 0149 0E       		.uleb128 0xe
 2791 014a 3A       		.uleb128 0x3a
 2792 014b 0B       		.uleb128 0xb
 2793 014c 3B       		.uleb128 0x3b
ARM GAS  /tmp/cc3XXQkZ.s 			page 50


 2794 014d 05       		.uleb128 0x5
 2795 014e 49       		.uleb128 0x49
 2796 014f 13       		.uleb128 0x13
 2797 0150 00       		.byte	0
 2798 0151 00       		.byte	0
 2799 0152 1D       		.uleb128 0x1d
 2800 0153 2E       		.uleb128 0x2e
 2801 0154 00       		.byte	0
 2802 0155 03       		.uleb128 0x3
 2803 0156 0E       		.uleb128 0xe
 2804 0157 3A       		.uleb128 0x3a
 2805 0158 0B       		.uleb128 0xb
 2806 0159 3B       		.uleb128 0x3b
 2807 015a 05       		.uleb128 0x5
 2808 015b 27       		.uleb128 0x27
 2809 015c 19       		.uleb128 0x19
 2810 015d 20       		.uleb128 0x20
 2811 015e 0B       		.uleb128 0xb
 2812 015f 00       		.byte	0
 2813 0160 00       		.byte	0
 2814 0161 1E       		.uleb128 0x1e
 2815 0162 34       		.uleb128 0x34
 2816 0163 00       		.byte	0
 2817 0164 03       		.uleb128 0x3
 2818 0165 0E       		.uleb128 0xe
 2819 0166 49       		.uleb128 0x49
 2820 0167 13       		.uleb128 0x13
 2821 0168 34       		.uleb128 0x34
 2822 0169 19       		.uleb128 0x19
 2823 016a 1C       		.uleb128 0x1c
 2824 016b 0E       		.uleb128 0xe
 2825 016c 00       		.byte	0
 2826 016d 00       		.byte	0
 2827 016e 1F       		.uleb128 0x1f
 2828 016f 2E       		.uleb128 0x2e
 2829 0170 01       		.byte	0x1
 2830 0171 3F       		.uleb128 0x3f
 2831 0172 19       		.uleb128 0x19
 2832 0173 03       		.uleb128 0x3
 2833 0174 0E       		.uleb128 0xe
 2834 0175 3A       		.uleb128 0x3a
 2835 0176 0B       		.uleb128 0xb
 2836 0177 3B       		.uleb128 0x3b
 2837 0178 0B       		.uleb128 0xb
 2838 0179 27       		.uleb128 0x27
 2839 017a 19       		.uleb128 0x19
 2840 017b 20       		.uleb128 0x20
 2841 017c 0B       		.uleb128 0xb
 2842 017d 01       		.uleb128 0x1
 2843 017e 13       		.uleb128 0x13
 2844 017f 00       		.byte	0
 2845 0180 00       		.byte	0
 2846 0181 20       		.uleb128 0x20
 2847 0182 05       		.uleb128 0x5
 2848 0183 00       		.byte	0
 2849 0184 03       		.uleb128 0x3
 2850 0185 0E       		.uleb128 0xe
ARM GAS  /tmp/cc3XXQkZ.s 			page 51


 2851 0186 3A       		.uleb128 0x3a
 2852 0187 0B       		.uleb128 0xb
 2853 0188 3B       		.uleb128 0x3b
 2854 0189 0B       		.uleb128 0xb
 2855 018a 49       		.uleb128 0x49
 2856 018b 13       		.uleb128 0x13
 2857 018c 00       		.byte	0
 2858 018d 00       		.byte	0
 2859 018e 21       		.uleb128 0x21
 2860 018f 2E       		.uleb128 0x2e
 2861 0190 01       		.byte	0x1
 2862 0191 3F       		.uleb128 0x3f
 2863 0192 19       		.uleb128 0x19
 2864 0193 03       		.uleb128 0x3
 2865 0194 0E       		.uleb128 0xe
 2866 0195 3A       		.uleb128 0x3a
 2867 0196 0B       		.uleb128 0xb
 2868 0197 3B       		.uleb128 0x3b
 2869 0198 0B       		.uleb128 0xb
 2870 0199 27       		.uleb128 0x27
 2871 019a 19       		.uleb128 0x19
 2872 019b 11       		.uleb128 0x11
 2873 019c 01       		.uleb128 0x1
 2874 019d 12       		.uleb128 0x12
 2875 019e 06       		.uleb128 0x6
 2876 019f 40       		.uleb128 0x40
 2877 01a0 18       		.uleb128 0x18
 2878 01a1 9742     		.uleb128 0x2117
 2879 01a3 19       		.uleb128 0x19
 2880 01a4 01       		.uleb128 0x1
 2881 01a5 13       		.uleb128 0x13
 2882 01a6 00       		.byte	0
 2883 01a7 00       		.byte	0
 2884 01a8 22       		.uleb128 0x22
 2885 01a9 898201   		.uleb128 0x4109
 2886 01ac 00       		.byte	0
 2887 01ad 11       		.uleb128 0x11
 2888 01ae 01       		.uleb128 0x1
 2889 01af 9542     		.uleb128 0x2115
 2890 01b1 19       		.uleb128 0x19
 2891 01b2 31       		.uleb128 0x31
 2892 01b3 13       		.uleb128 0x13
 2893 01b4 00       		.byte	0
 2894 01b5 00       		.byte	0
 2895 01b6 23       		.uleb128 0x23
 2896 01b7 05       		.uleb128 0x5
 2897 01b8 00       		.byte	0
 2898 01b9 03       		.uleb128 0x3
 2899 01ba 0E       		.uleb128 0xe
 2900 01bb 3A       		.uleb128 0x3a
 2901 01bc 0B       		.uleb128 0xb
 2902 01bd 3B       		.uleb128 0x3b
 2903 01be 0B       		.uleb128 0xb
 2904 01bf 49       		.uleb128 0x49
 2905 01c0 13       		.uleb128 0x13
 2906 01c1 02       		.uleb128 0x2
 2907 01c2 18       		.uleb128 0x18
ARM GAS  /tmp/cc3XXQkZ.s 			page 52


 2908 01c3 00       		.byte	0
 2909 01c4 00       		.byte	0
 2910 01c5 24       		.uleb128 0x24
 2911 01c6 05       		.uleb128 0x5
 2912 01c7 00       		.byte	0
 2913 01c8 03       		.uleb128 0x3
 2914 01c9 0E       		.uleb128 0xe
 2915 01ca 3A       		.uleb128 0x3a
 2916 01cb 0B       		.uleb128 0xb
 2917 01cc 3B       		.uleb128 0x3b
 2918 01cd 0B       		.uleb128 0xb
 2919 01ce 49       		.uleb128 0x49
 2920 01cf 13       		.uleb128 0x13
 2921 01d0 02       		.uleb128 0x2
 2922 01d1 17       		.uleb128 0x17
 2923 01d2 00       		.byte	0
 2924 01d3 00       		.byte	0
 2925 01d4 25       		.uleb128 0x25
 2926 01d5 34       		.uleb128 0x34
 2927 01d6 00       		.byte	0
 2928 01d7 03       		.uleb128 0x3
 2929 01d8 0E       		.uleb128 0xe
 2930 01d9 49       		.uleb128 0x49
 2931 01da 13       		.uleb128 0x13
 2932 01db 34       		.uleb128 0x34
 2933 01dc 19       		.uleb128 0x19
 2934 01dd 00       		.byte	0
 2935 01de 00       		.byte	0
 2936 01df 26       		.uleb128 0x26
 2937 01e0 1D       		.uleb128 0x1d
 2938 01e1 01       		.byte	0x1
 2939 01e2 31       		.uleb128 0x31
 2940 01e3 13       		.uleb128 0x13
 2941 01e4 52       		.uleb128 0x52
 2942 01e5 01       		.uleb128 0x1
 2943 01e6 55       		.uleb128 0x55
 2944 01e7 17       		.uleb128 0x17
 2945 01e8 58       		.uleb128 0x58
 2946 01e9 0B       		.uleb128 0xb
 2947 01ea 59       		.uleb128 0x59
 2948 01eb 0B       		.uleb128 0xb
 2949 01ec 01       		.uleb128 0x1
 2950 01ed 13       		.uleb128 0x13
 2951 01ee 00       		.byte	0
 2952 01ef 00       		.byte	0
 2953 01f0 27       		.uleb128 0x27
 2954 01f1 1D       		.uleb128 0x1d
 2955 01f2 01       		.byte	0x1
 2956 01f3 31       		.uleb128 0x31
 2957 01f4 13       		.uleb128 0x13
 2958 01f5 52       		.uleb128 0x52
 2959 01f6 01       		.uleb128 0x1
 2960 01f7 55       		.uleb128 0x55
 2961 01f8 17       		.uleb128 0x17
 2962 01f9 58       		.uleb128 0x58
 2963 01fa 0B       		.uleb128 0xb
 2964 01fb 59       		.uleb128 0x59
ARM GAS  /tmp/cc3XXQkZ.s 			page 53


 2965 01fc 05       		.uleb128 0x5
 2966 01fd 00       		.byte	0
 2967 01fe 00       		.byte	0
 2968 01ff 28       		.uleb128 0x28
 2969 0200 05       		.uleb128 0x5
 2970 0201 00       		.byte	0
 2971 0202 31       		.uleb128 0x31
 2972 0203 13       		.uleb128 0x13
 2973 0204 1C       		.uleb128 0x1c
 2974 0205 0B       		.uleb128 0xb
 2975 0206 00       		.byte	0
 2976 0207 00       		.byte	0
 2977 0208 29       		.uleb128 0x29
 2978 0209 1D       		.uleb128 0x1d
 2979 020a 01       		.byte	0x1
 2980 020b 31       		.uleb128 0x31
 2981 020c 13       		.uleb128 0x13
 2982 020d 11       		.uleb128 0x11
 2983 020e 01       		.uleb128 0x1
 2984 020f 12       		.uleb128 0x12
 2985 0210 06       		.uleb128 0x6
 2986 0211 58       		.uleb128 0x58
 2987 0212 0B       		.uleb128 0xb
 2988 0213 59       		.uleb128 0x59
 2989 0214 0B       		.uleb128 0xb
 2990 0215 01       		.uleb128 0x1
 2991 0216 13       		.uleb128 0x13
 2992 0217 00       		.byte	0
 2993 0218 00       		.byte	0
 2994 0219 2A       		.uleb128 0x2a
 2995 021a 1D       		.uleb128 0x1d
 2996 021b 01       		.byte	0x1
 2997 021c 31       		.uleb128 0x31
 2998 021d 13       		.uleb128 0x13
 2999 021e 11       		.uleb128 0x11
 3000 021f 01       		.uleb128 0x1
 3001 0220 12       		.uleb128 0x12
 3002 0221 06       		.uleb128 0x6
 3003 0222 58       		.uleb128 0x58
 3004 0223 0B       		.uleb128 0xb
 3005 0224 59       		.uleb128 0x59
 3006 0225 05       		.uleb128 0x5
 3007 0226 00       		.byte	0
 3008 0227 00       		.byte	0
 3009 0228 2B       		.uleb128 0x2b
 3010 0229 0B       		.uleb128 0xb
 3011 022a 01       		.byte	0x1
 3012 022b 11       		.uleb128 0x11
 3013 022c 01       		.uleb128 0x1
 3014 022d 12       		.uleb128 0x12
 3015 022e 06       		.uleb128 0x6
 3016 022f 00       		.byte	0
 3017 0230 00       		.byte	0
 3018 0231 2C       		.uleb128 0x2c
 3019 0232 34       		.uleb128 0x34
 3020 0233 00       		.byte	0
 3021 0234 31       		.uleb128 0x31
ARM GAS  /tmp/cc3XXQkZ.s 			page 54


 3022 0235 13       		.uleb128 0x13
 3023 0236 00       		.byte	0
 3024 0237 00       		.byte	0
 3025 0238 2D       		.uleb128 0x2d
 3026 0239 898201   		.uleb128 0x4109
 3027 023c 01       		.byte	0x1
 3028 023d 11       		.uleb128 0x11
 3029 023e 01       		.uleb128 0x1
 3030 023f 31       		.uleb128 0x31
 3031 0240 13       		.uleb128 0x13
 3032 0241 00       		.byte	0
 3033 0242 00       		.byte	0
 3034 0243 2E       		.uleb128 0x2e
 3035 0244 8A8201   		.uleb128 0x410a
 3036 0247 00       		.byte	0
 3037 0248 02       		.uleb128 0x2
 3038 0249 18       		.uleb128 0x18
 3039 024a 9142     		.uleb128 0x2111
 3040 024c 18       		.uleb128 0x18
 3041 024d 00       		.byte	0
 3042 024e 00       		.byte	0
 3043 024f 2F       		.uleb128 0x2f
 3044 0250 05       		.uleb128 0x5
 3045 0251 00       		.byte	0
 3046 0252 31       		.uleb128 0x31
 3047 0253 13       		.uleb128 0x13
 3048 0254 02       		.uleb128 0x2
 3049 0255 17       		.uleb128 0x17
 3050 0256 00       		.byte	0
 3051 0257 00       		.byte	0
 3052 0258 30       		.uleb128 0x30
 3053 0259 1D       		.uleb128 0x1d
 3054 025a 01       		.byte	0x1
 3055 025b 31       		.uleb128 0x31
 3056 025c 13       		.uleb128 0x13
 3057 025d 11       		.uleb128 0x11
 3058 025e 01       		.uleb128 0x1
 3059 025f 12       		.uleb128 0x12
 3060 0260 06       		.uleb128 0x6
 3061 0261 58       		.uleb128 0x58
 3062 0262 0B       		.uleb128 0xb
 3063 0263 59       		.uleb128 0x59
 3064 0264 0B       		.uleb128 0xb
 3065 0265 00       		.byte	0
 3066 0266 00       		.byte	0
 3067 0267 31       		.uleb128 0x31
 3068 0268 2E       		.uleb128 0x2e
 3069 0269 01       		.byte	0x1
 3070 026a 31       		.uleb128 0x31
 3071 026b 13       		.uleb128 0x13
 3072 026c 11       		.uleb128 0x11
 3073 026d 01       		.uleb128 0x1
 3074 026e 12       		.uleb128 0x12
 3075 026f 06       		.uleb128 0x6
 3076 0270 40       		.uleb128 0x40
 3077 0271 18       		.uleb128 0x18
 3078 0272 9742     		.uleb128 0x2117
ARM GAS  /tmp/cc3XXQkZ.s 			page 55


 3079 0274 19       		.uleb128 0x19
 3080 0275 01       		.uleb128 0x1
 3081 0276 13       		.uleb128 0x13
 3082 0277 00       		.byte	0
 3083 0278 00       		.byte	0
 3084 0279 32       		.uleb128 0x32
 3085 027a 898201   		.uleb128 0x4109
 3086 027d 01       		.byte	0x1
 3087 027e 11       		.uleb128 0x11
 3088 027f 01       		.uleb128 0x1
 3089 0280 9542     		.uleb128 0x2115
 3090 0282 19       		.uleb128 0x19
 3091 0283 31       		.uleb128 0x31
 3092 0284 13       		.uleb128 0x13
 3093 0285 00       		.byte	0
 3094 0286 00       		.byte	0
 3095 0287 33       		.uleb128 0x33
 3096 0288 34       		.uleb128 0x34
 3097 0289 00       		.byte	0
 3098 028a 03       		.uleb128 0x3
 3099 028b 0E       		.uleb128 0xe
 3100 028c 3A       		.uleb128 0x3a
 3101 028d 0B       		.uleb128 0xb
 3102 028e 3B       		.uleb128 0x3b
 3103 028f 05       		.uleb128 0x5
 3104 0290 49       		.uleb128 0x49
 3105 0291 13       		.uleb128 0x13
 3106 0292 3F       		.uleb128 0x3f
 3107 0293 19       		.uleb128 0x19
 3108 0294 3C       		.uleb128 0x3c
 3109 0295 19       		.uleb128 0x19
 3110 0296 00       		.byte	0
 3111 0297 00       		.byte	0
 3112 0298 34       		.uleb128 0x34
 3113 0299 34       		.uleb128 0x34
 3114 029a 00       		.byte	0
 3115 029b 03       		.uleb128 0x3
 3116 029c 08       		.uleb128 0x8
 3117 029d 3A       		.uleb128 0x3a
 3118 029e 0B       		.uleb128 0xb
 3119 029f 3B       		.uleb128 0x3b
 3120 02a0 05       		.uleb128 0x5
 3121 02a1 49       		.uleb128 0x49
 3122 02a2 13       		.uleb128 0x13
 3123 02a3 3F       		.uleb128 0x3f
 3124 02a4 19       		.uleb128 0x19
 3125 02a5 3C       		.uleb128 0x3c
 3126 02a6 19       		.uleb128 0x19
 3127 02a7 00       		.byte	0
 3128 02a8 00       		.byte	0
 3129 02a9 35       		.uleb128 0x35
 3130 02aa 2E       		.uleb128 0x2e
 3131 02ab 00       		.byte	0
 3132 02ac 3F       		.uleb128 0x3f
 3133 02ad 19       		.uleb128 0x19
 3134 02ae 03       		.uleb128 0x3
 3135 02af 0E       		.uleb128 0xe
ARM GAS  /tmp/cc3XXQkZ.s 			page 56


 3136 02b0 3A       		.uleb128 0x3a
 3137 02b1 0B       		.uleb128 0xb
 3138 02b2 3B       		.uleb128 0x3b
 3139 02b3 05       		.uleb128 0x5
 3140 02b4 27       		.uleb128 0x27
 3141 02b5 19       		.uleb128 0x19
 3142 02b6 3C       		.uleb128 0x3c
 3143 02b7 19       		.uleb128 0x19
 3144 02b8 00       		.byte	0
 3145 02b9 00       		.byte	0
 3146 02ba 36       		.uleb128 0x36
 3147 02bb 2E       		.uleb128 0x2e
 3148 02bc 01       		.byte	0x1
 3149 02bd 3F       		.uleb128 0x3f
 3150 02be 19       		.uleb128 0x19
 3151 02bf 03       		.uleb128 0x3
 3152 02c0 0E       		.uleb128 0xe
 3153 02c1 3A       		.uleb128 0x3a
 3154 02c2 0B       		.uleb128 0xb
 3155 02c3 3B       		.uleb128 0x3b
 3156 02c4 05       		.uleb128 0x5
 3157 02c5 27       		.uleb128 0x27
 3158 02c6 19       		.uleb128 0x19
 3159 02c7 3C       		.uleb128 0x3c
 3160 02c8 19       		.uleb128 0x19
 3161 02c9 01       		.uleb128 0x1
 3162 02ca 13       		.uleb128 0x13
 3163 02cb 00       		.byte	0
 3164 02cc 00       		.byte	0
 3165 02cd 37       		.uleb128 0x37
 3166 02ce 2E       		.uleb128 0x2e
 3167 02cf 01       		.byte	0x1
 3168 02d0 3F       		.uleb128 0x3f
 3169 02d1 19       		.uleb128 0x19
 3170 02d2 03       		.uleb128 0x3
 3171 02d3 0E       		.uleb128 0xe
 3172 02d4 3A       		.uleb128 0x3a
 3173 02d5 0B       		.uleb128 0xb
 3174 02d6 3B       		.uleb128 0x3b
 3175 02d7 05       		.uleb128 0x5
 3176 02d8 27       		.uleb128 0x27
 3177 02d9 19       		.uleb128 0x19
 3178 02da 3C       		.uleb128 0x3c
 3179 02db 19       		.uleb128 0x19
 3180 02dc 00       		.byte	0
 3181 02dd 00       		.byte	0
 3182 02de 00       		.byte	0
 3183              		.section	.debug_loc,"",%progbits
 3184              	.Ldebug_loc0:
 3185              	.LLST0:
 3186 0000 00000000 		.4byte	.LVL2
 3187 0004 0F000000 		.4byte	.LVL3-1
 3188 0008 0100     		.2byte	0x1
 3189 000a 50       		.byte	0x50
 3190 000b 0F000000 		.4byte	.LVL3-1
 3191 000f 1C000000 		.4byte	.LFE209
 3192 0013 0100     		.2byte	0x1
ARM GAS  /tmp/cc3XXQkZ.s 			page 57


 3193 0015 54       		.byte	0x54
 3194 0016 00000000 		.4byte	0
 3195 001a 00000000 		.4byte	0
 3196              	.LLST1:
 3197 001e 00000000 		.4byte	.LVL2
 3198 0022 0F000000 		.4byte	.LVL3-1
 3199 0026 0100     		.2byte	0x1
 3200 0028 51       		.byte	0x51
 3201 0029 0F000000 		.4byte	.LVL3-1
 3202 002d 1C000000 		.4byte	.LFE209
 3203 0031 0400     		.2byte	0x4
 3204 0033 F3       		.byte	0xf3
 3205 0034 01       		.uleb128 0x1
 3206 0035 51       		.byte	0x51
 3207 0036 9F       		.byte	0x9f
 3208 0037 00000000 		.4byte	0
 3209 003b 00000000 		.4byte	0
 3210              	.LLST2:
 3211 003f 00000000 		.4byte	.LVL5
 3212 0043 0D000000 		.4byte	.LVL6-1
 3213 0047 0100     		.2byte	0x1
 3214 0049 50       		.byte	0x50
 3215 004a 0D000000 		.4byte	.LVL6-1
 3216 004e 1A000000 		.4byte	.LFE210
 3217 0052 0100     		.2byte	0x1
 3218 0054 54       		.byte	0x54
 3219 0055 00000000 		.4byte	0
 3220 0059 00000000 		.4byte	0
 3221              	.LLST3:
 3222 005d 00000000 		.4byte	.LVL8
 3223 0061 15000000 		.4byte	.LVL10-1
 3224 0065 0100     		.2byte	0x1
 3225 0067 50       		.byte	0x50
 3226 0068 15000000 		.4byte	.LVL10-1
 3227 006c 1E000000 		.4byte	.LFE211
 3228 0070 0400     		.2byte	0x4
 3229 0072 F3       		.byte	0xf3
 3230 0073 01       		.uleb128 0x1
 3231 0074 50       		.byte	0x50
 3232 0075 9F       		.byte	0x9f
 3233 0076 00000000 		.4byte	0
 3234 007a 00000000 		.4byte	0
 3235              	.LLST4:
 3236 007e 00000000 		.4byte	.LVL8
 3237 0082 15000000 		.4byte	.LVL10-1
 3238 0086 0100     		.2byte	0x1
 3239 0088 51       		.byte	0x51
 3240 0089 15000000 		.4byte	.LVL10-1
 3241 008d 1E000000 		.4byte	.LFE211
 3242 0091 0400     		.2byte	0x4
 3243 0093 F3       		.byte	0xf3
 3244 0094 01       		.uleb128 0x1
 3245 0095 51       		.byte	0x51
 3246 0096 9F       		.byte	0x9f
 3247 0097 00000000 		.4byte	0
 3248 009b 00000000 		.4byte	0
 3249              	.LLST5:
ARM GAS  /tmp/cc3XXQkZ.s 			page 58


 3250 009f 00000000 		.4byte	.LVL8
 3251 00a3 15000000 		.4byte	.LVL10-1
 3252 00a7 0100     		.2byte	0x1
 3253 00a9 52       		.byte	0x52
 3254 00aa 15000000 		.4byte	.LVL10-1
 3255 00ae 1E000000 		.4byte	.LFE211
 3256 00b2 0400     		.2byte	0x4
 3257 00b4 F3       		.byte	0xf3
 3258 00b5 01       		.uleb128 0x1
 3259 00b6 52       		.byte	0x52
 3260 00b7 9F       		.byte	0x9f
 3261 00b8 00000000 		.4byte	0
 3262 00bc 00000000 		.4byte	0
 3263              	.LLST6:
 3264 00c0 00000000 		.4byte	.LVL8
 3265 00c4 15000000 		.4byte	.LVL10-1
 3266 00c8 0100     		.2byte	0x1
 3267 00ca 53       		.byte	0x53
 3268 00cb 15000000 		.4byte	.LVL10-1
 3269 00cf 1E000000 		.4byte	.LFE211
 3270 00d3 0400     		.2byte	0x4
 3271 00d5 F3       		.byte	0xf3
 3272 00d6 01       		.uleb128 0x1
 3273 00d7 53       		.byte	0x53
 3274 00d8 9F       		.byte	0x9f
 3275 00d9 00000000 		.4byte	0
 3276 00dd 00000000 		.4byte	0
 3277              	.LLST7:
 3278 00e1 08000000 		.4byte	.LVL9
 3279 00e5 15000000 		.4byte	.LVL10-1
 3280 00e9 0100     		.2byte	0x1
 3281 00eb 53       		.byte	0x53
 3282 00ec 15000000 		.4byte	.LVL10-1
 3283 00f0 1E000000 		.4byte	.LFE211
 3284 00f4 0400     		.2byte	0x4
 3285 00f6 F3       		.byte	0xf3
 3286 00f7 01       		.uleb128 0x1
 3287 00f8 53       		.byte	0x53
 3288 00f9 9F       		.byte	0x9f
 3289 00fa 00000000 		.4byte	0
 3290 00fe 00000000 		.4byte	0
 3291              	.LLST8:
 3292 0102 08000000 		.4byte	.LVL9
 3293 0106 15000000 		.4byte	.LVL10-1
 3294 010a 0100     		.2byte	0x1
 3295 010c 52       		.byte	0x52
 3296 010d 15000000 		.4byte	.LVL10-1
 3297 0111 1E000000 		.4byte	.LFE211
 3298 0115 0400     		.2byte	0x4
 3299 0117 F3       		.byte	0xf3
 3300 0118 01       		.uleb128 0x1
 3301 0119 52       		.byte	0x52
 3302 011a 9F       		.byte	0x9f
 3303 011b 00000000 		.4byte	0
 3304 011f 00000000 		.4byte	0
 3305              	.LLST9:
 3306 0123 08000000 		.4byte	.LVL9
ARM GAS  /tmp/cc3XXQkZ.s 			page 59


 3307 0127 15000000 		.4byte	.LVL10-1
 3308 012b 0100     		.2byte	0x1
 3309 012d 51       		.byte	0x51
 3310 012e 15000000 		.4byte	.LVL10-1
 3311 0132 1E000000 		.4byte	.LFE211
 3312 0136 0400     		.2byte	0x4
 3313 0138 F3       		.byte	0xf3
 3314 0139 01       		.uleb128 0x1
 3315 013a 51       		.byte	0x51
 3316 013b 9F       		.byte	0x9f
 3317 013c 00000000 		.4byte	0
 3318 0140 00000000 		.4byte	0
 3319              	.LLST10:
 3320 0144 08000000 		.4byte	.LVL9
 3321 0148 15000000 		.4byte	.LVL10-1
 3322 014c 0100     		.2byte	0x1
 3323 014e 50       		.byte	0x50
 3324 014f 15000000 		.4byte	.LVL10-1
 3325 0153 1E000000 		.4byte	.LFE211
 3326 0157 0400     		.2byte	0x4
 3327 0159 F3       		.byte	0xf3
 3328 015a 01       		.uleb128 0x1
 3329 015b 50       		.byte	0x50
 3330 015c 9F       		.byte	0x9f
 3331 015d 00000000 		.4byte	0
 3332 0161 00000000 		.4byte	0
 3333              	.LLST11:
 3334 0165 00000000 		.4byte	.LVL11
 3335 0169 11000000 		.4byte	.LVL12-1
 3336 016d 0100     		.2byte	0x1
 3337 016f 50       		.byte	0x50
 3338 0170 11000000 		.4byte	.LVL12-1
 3339 0174 12000000 		.4byte	.LFE212
 3340 0178 0400     		.2byte	0x4
 3341 017a F3       		.byte	0xf3
 3342 017b 01       		.uleb128 0x1
 3343 017c 50       		.byte	0x50
 3344 017d 9F       		.byte	0x9f
 3345 017e 00000000 		.4byte	0
 3346 0182 00000000 		.4byte	0
 3347              	.LLST12:
 3348 0186 00000000 		.4byte	.LVL11
 3349 018a 11000000 		.4byte	.LVL12-1
 3350 018e 0100     		.2byte	0x1
 3351 0190 51       		.byte	0x51
 3352 0191 11000000 		.4byte	.LVL12-1
 3353 0195 12000000 		.4byte	.LFE212
 3354 0199 0400     		.2byte	0x4
 3355 019b F3       		.byte	0xf3
 3356 019c 01       		.uleb128 0x1
 3357 019d 51       		.byte	0x51
 3358 019e 9F       		.byte	0x9f
 3359 019f 00000000 		.4byte	0
 3360 01a3 00000000 		.4byte	0
 3361              	.LLST13:
 3362 01a7 00000000 		.4byte	.LVL11
 3363 01ab 11000000 		.4byte	.LVL12-1
ARM GAS  /tmp/cc3XXQkZ.s 			page 60


 3364 01af 0100     		.2byte	0x1
 3365 01b1 52       		.byte	0x52
 3366 01b2 11000000 		.4byte	.LVL12-1
 3367 01b6 12000000 		.4byte	.LFE212
 3368 01ba 0400     		.2byte	0x4
 3369 01bc F3       		.byte	0xf3
 3370 01bd 01       		.uleb128 0x1
 3371 01be 52       		.byte	0x52
 3372 01bf 9F       		.byte	0x9f
 3373 01c0 00000000 		.4byte	0
 3374 01c4 00000000 		.4byte	0
 3375              	.LLST14:
 3376 01c8 00000000 		.4byte	.LVL11
 3377 01cc 11000000 		.4byte	.LVL12-1
 3378 01d0 0100     		.2byte	0x1
 3379 01d2 53       		.byte	0x53
 3380 01d3 11000000 		.4byte	.LVL12-1
 3381 01d7 12000000 		.4byte	.LFE212
 3382 01db 0400     		.2byte	0x4
 3383 01dd F3       		.byte	0xf3
 3384 01de 01       		.uleb128 0x1
 3385 01df 53       		.byte	0x53
 3386 01e0 9F       		.byte	0x9f
 3387 01e1 00000000 		.4byte	0
 3388 01e5 00000000 		.4byte	0
 3389              	.LLST15:
 3390 01e9 00000000 		.4byte	.LVL13
 3391 01ed 13000000 		.4byte	.LVL14-1
 3392 01f1 0100     		.2byte	0x1
 3393 01f3 50       		.byte	0x50
 3394 01f4 13000000 		.4byte	.LVL14-1
 3395 01f8 24000000 		.4byte	.LVL16
 3396 01fc 0100     		.2byte	0x1
 3397 01fe 54       		.byte	0x54
 3398 01ff 24000000 		.4byte	.LVL16
 3399 0203 2C000000 		.4byte	.LFE213
 3400 0207 0100     		.2byte	0x1
 3401 0209 50       		.byte	0x50
 3402 020a 00000000 		.4byte	0
 3403 020e 00000000 		.4byte	0
 3404              	.LLST16:
 3405 0212 00000000 		.4byte	.LVL17
 3406 0216 0D000000 		.4byte	.LVL18-1
 3407 021a 0100     		.2byte	0x1
 3408 021c 50       		.byte	0x50
 3409 021d 0D000000 		.4byte	.LVL18-1
 3410 0221 18000000 		.4byte	.LVL19
 3411 0225 0100     		.2byte	0x1
 3412 0227 54       		.byte	0x54
 3413 0228 18000000 		.4byte	.LVL19
 3414 022c 1A000000 		.4byte	.LFE214
 3415 0230 0100     		.2byte	0x1
 3416 0232 50       		.byte	0x50
 3417 0233 00000000 		.4byte	0
 3418 0237 00000000 		.4byte	0
 3419              		.section	.debug_aranges,"",%progbits
 3420 0000 54000000 		.4byte	0x54
ARM GAS  /tmp/cc3XXQkZ.s 			page 61


 3421 0004 0200     		.2byte	0x2
 3422 0006 00000000 		.4byte	.Ldebug_info0
 3423 000a 04       		.byte	0x4
 3424 000b 00       		.byte	0
 3425 000c 0000     		.2byte	0
 3426 000e 0000     		.2byte	0
 3427 0010 00000000 		.4byte	.LFB207
 3428 0014 04000000 		.4byte	.LFE207-.LFB207
 3429 0018 00000000 		.4byte	.LFB208
 3430 001c 10000000 		.4byte	.LFE208-.LFB208
 3431 0020 00000000 		.4byte	.LFB209
 3432 0024 1C000000 		.4byte	.LFE209-.LFB209
 3433 0028 00000000 		.4byte	.LFB210
 3434 002c 1A000000 		.4byte	.LFE210-.LFB210
 3435 0030 00000000 		.4byte	.LFB211
 3436 0034 1E000000 		.4byte	.LFE211-.LFB211
 3437 0038 00000000 		.4byte	.LFB212
 3438 003c 12000000 		.4byte	.LFE212-.LFB212
 3439 0040 00000000 		.4byte	.LFB213
 3440 0044 2C000000 		.4byte	.LFE213-.LFB213
 3441 0048 00000000 		.4byte	.LFB214
 3442 004c 1A000000 		.4byte	.LFE214-.LFB214
 3443 0050 00000000 		.4byte	0
 3444 0054 00000000 		.4byte	0
 3445              		.section	.debug_ranges,"",%progbits
 3446              	.Ldebug_ranges0:
 3447 0000 02000000 		.4byte	.LBB78
 3448 0004 04000000 		.4byte	.LBE78
 3449 0008 06000000 		.4byte	.LBB87
 3450 000c 0A000000 		.4byte	.LBE87
 3451 0010 00000000 		.4byte	0
 3452 0014 00000000 		.4byte	0
 3453 0018 02000000 		.4byte	.LBB94
 3454 001c 04000000 		.4byte	.LBE94
 3455 0020 06000000 		.4byte	.LBB103
 3456 0024 0A000000 		.4byte	.LBE103
 3457 0028 00000000 		.4byte	0
 3458 002c 00000000 		.4byte	0
 3459 0030 00000000 		.4byte	.LFB207
 3460 0034 04000000 		.4byte	.LFE207
 3461 0038 00000000 		.4byte	.LFB208
 3462 003c 10000000 		.4byte	.LFE208
 3463 0040 00000000 		.4byte	.LFB209
 3464 0044 1C000000 		.4byte	.LFE209
 3465 0048 00000000 		.4byte	.LFB210
 3466 004c 1A000000 		.4byte	.LFE210
 3467 0050 00000000 		.4byte	.LFB211
 3468 0054 1E000000 		.4byte	.LFE211
 3469 0058 00000000 		.4byte	.LFB212
 3470 005c 12000000 		.4byte	.LFE212
 3471 0060 00000000 		.4byte	.LFB213
 3472 0064 2C000000 		.4byte	.LFE213
 3473 0068 00000000 		.4byte	.LFB214
 3474 006c 1A000000 		.4byte	.LFE214
 3475 0070 00000000 		.4byte	0
 3476 0074 00000000 		.4byte	0
 3477              		.section	.debug_line,"",%progbits
ARM GAS  /tmp/cc3XXQkZ.s 			page 62


 3478              	.Ldebug_line0:
 3479 0000 F4040000 		.section	.debug_str,"MS",%progbits,1
 3479      0200E403 
 3479      00000201 
 3479      FB0E0D00 
 3479      01010101 
 3480              	.LASF50:
 3481 0000 72656164 		.ascii	"ready_list_t\000"
 3481      795F6C69 
 3481      73745F74 
 3481      00
 3482              	.LASF2:
 3483 000d 73697A65 		.ascii	"size_t\000"
 3483      5F7400
 3484              	.LASF104:
 3485 0014 7264796D 		.ascii	"rdymsg\000"
 3485      736700
 3486              	.LASF134:
 3487 001b 61646373 		.ascii	"adcstate_t\000"
 3487      74617465 
 3487      5F7400
 3488              	.LASF3:
 3489 0026 5F5F7569 		.ascii	"__uint8_t\000"
 3489      6E74385F 
 3489      7400
 3490              	.LASF175:
 3491 0030 61646353 		.ascii	"adcStop\000"
 3491      746F7000 
 3492              	.LASF101:
 3493 0038 706F7274 		.ascii	"port_intctx\000"
 3493      5F696E74 
 3493      63747800 
 3494              	.LASF67:
 3495 0044 73797374 		.ascii	"system_debug_t\000"
 3495      656D5F64 
 3495      65627567 
 3495      5F7400
 3496              	.LASF125:
 3497 0053 76656374 		.ascii	"vector\000"
 3497      6F7200
 3498              	.LASF161:
 3499 005a 706F7274 		.ascii	"port_lock\000"
 3499      5F6C6F63 
 3499      6B00
 3500              	.LASF181:
 3501 0064 6164635F 		.ascii	"adc_lld_stop\000"
 3501      6C6C645F 
 3501      73746F70 
 3501      00
 3502              	.LASF138:
 3503 0071 61646365 		.ascii	"adcerror_t\000"
 3503      72726F72 
 3503      5F7400
 3504              	.LASF14:
 3505 007c 6C6F6E67 		.ascii	"long long unsigned int\000"
 3505      206C6F6E 
 3505      6720756E 
ARM GAS  /tmp/cc3XXQkZ.s 			page 63


 3505      7369676E 
 3505      65642069 
 3506              	.LASF112:
 3507 0093 735F7175 		.ascii	"s_queue\000"
 3507      65756500 
 3508              	.LASF105:
 3509 009b 65786974 		.ascii	"exitcode\000"
 3509      636F6465 
 3509      00
 3510              	.LASF128:
 3511 00a4 4144435F 		.ascii	"ADC_UNINIT\000"
 3511      554E494E 
 3511      495400
 3512              	.LASF74:
 3513 00af 6D61696E 		.ascii	"mainthread\000"
 3513      74687265 
 3513      616400
 3514              	.LASF64:
 3515 00ba 76697274 		.ascii	"virtual_timers_list_t\000"
 3515      75616C5F 
 3515      74696D65 
 3515      72735F6C 
 3515      6973745F 
 3516              	.LASF179:
 3517 00d0 49544D5F 		.ascii	"ITM_RxBuffer\000"
 3517      52784275 
 3517      66666572 
 3517      00
 3518              	.LASF49:
 3519 00dd 63685F74 		.ascii	"ch_threads_queue\000"
 3519      68726561 
 3519      64735F71 
 3519      75657565 
 3519      00
 3520              	.LASF32:
 3521 00ee 705F7072 		.ascii	"p_prio\000"
 3521      696F00
 3522              	.LASF86:
 3523 00f5 4A535152 		.ascii	"JSQR\000"
 3523      00
 3524              	.LASF12:
 3525 00fa 6C6F6E67 		.ascii	"long long int\000"
 3525      206C6F6E 
 3525      6720696E 
 3525      7400
 3526              	.LASF1:
 3527 0108 7369676E 		.ascii	"signed char\000"
 3527      65642063 
 3527      68617200 
 3528              	.LASF11:
 3529 0114 6C6F6E67 		.ascii	"long unsigned int\000"
 3529      20756E73 
 3529      69676E65 
 3529      6420696E 
 3529      7400
 3530              	.LASF88:
 3531 0126 4A445232 		.ascii	"JDR2\000"
ARM GAS  /tmp/cc3XXQkZ.s 			page 64


 3531      00
 3532              	.LASF43:
 3533 012b 705F6D70 		.ascii	"p_mpool\000"
 3533      6F6F6C00 
 3534              	.LASF115:
 3535 0133 6D5F7175 		.ascii	"m_queue\000"
 3535      65756500 
 3536              	.LASF183:
 3537 013b 474E5520 		.ascii	"GNU C 4.9.3 20150529 (release) [ARM/embedded-4_9-br"
 3537      4320342E 
 3537      392E3320 
 3537      32303135 
 3537      30353239 
 3538 016e 616E6368 		.ascii	"anch revision 224288] -mcpu=cortex-m3 -mno-thumb-in"
 3538      20726576 
 3538      6973696F 
 3538      6E203232 
 3538      34323838 
 3539 01a1 74657277 		.ascii	"terwork -mthumb -ggdb -O2 -fomit-frame-pointer -fal"
 3539      6F726B20 
 3539      2D6D7468 
 3539      756D6220 
 3539      2D676764 
 3540 01d4 69676E2D 		.ascii	"ign-functions=16 -ffunction-sections -fdata-section"
 3540      66756E63 
 3540      74696F6E 
 3540      733D3136 
 3540      202D6666 
 3541 0207 73202D66 		.ascii	"s -fno-common\000"
 3541      6E6F2D63 
 3541      6F6D6D6F 
 3541      6E00
 3542              	.LASF162:
 3543 0215 706F7274 		.ascii	"port_unlock\000"
 3543      5F756E6C 
 3543      6F636B00 
 3544              	.LASF145:
 3545 0221 646D6173 		.ascii	"dmastp\000"
 3545      747000
 3546              	.LASF133:
 3547 0228 4144435F 		.ascii	"ADC_ERROR\000"
 3547      4552524F 
 3547      5200
 3548              	.LASF122:
 3549 0232 6373656C 		.ascii	"cselr\000"
 3549      7200
 3550              	.LASF140:
 3551 0238 73746174 		.ascii	"state\000"
 3551      6500
 3552              	.LASF149:
 3553 023e 63697263 		.ascii	"circular\000"
 3553      756C6172 
 3553      00
 3554              	.LASF9:
 3555 0247 6C6F6E67 		.ascii	"long int\000"
 3555      20696E74 
 3555      00
ARM GAS  /tmp/cc3XXQkZ.s 			page 65


 3556              	.LASF137:
 3557 0250 4144435F 		.ascii	"ADC_ERR_DMAFAILURE\000"
 3557      4552525F 
 3557      444D4146 
 3557      41494C55 
 3557      524500
 3558              	.LASF182:
 3559 0263 6164635F 		.ascii	"adc_lld_start_conversion\000"
 3559      6C6C645F 
 3559      73746172 
 3559      745F636F 
 3559      6E766572 
 3560              	.LASF148:
 3561 027c 61646365 		.ascii	"adcerrorcallback_t\000"
 3561      72726F72 
 3561      63616C6C 
 3561      6261636B 
 3561      5F7400
 3562              	.LASF22:
 3563 028f 74737461 		.ascii	"tstate_t\000"
 3563      74655F74 
 3563      00
 3564              	.LASF184:
 3565 0298 2F686F6D 		.ascii	"/home/maciek/ChibiOS_16.1.5/os/hal/src/adc.c\000"
 3565      652F6D61 
 3565      6369656B 
 3565      2F436869 
 3565      62694F53 
 3566              	.LASF71:
 3567 02c5 63685F73 		.ascii	"ch_system\000"
 3567      79737465 
 3567      6D00
 3568              	.LASF16:
 3569 02cf 75696E74 		.ascii	"uint16_t\000"
 3569      31365F74 
 3569      00
 3570              	.LASF91:
 3571 02d8 4144435F 		.ascii	"ADC_TypeDef\000"
 3571      54797065 
 3571      44656600 
 3572              	.LASF123:
 3573 02e4 73686966 		.ascii	"shift\000"
 3573      7400
 3574              	.LASF151:
 3575 02ea 656E645F 		.ascii	"end_cb\000"
 3575      636200
 3576              	.LASF147:
 3577 02f1 61646363 		.ascii	"adccallback_t\000"
 3577      616C6C62 
 3577      61636B5F 
 3577      7400
 3578              	.LASF135:
 3579 02ff 61646373 		.ascii	"adcsample_t\000"
 3579      616D706C 
 3579      655F7400 
 3580              	.LASF10:
 3581 030b 5F5F7569 		.ascii	"__uint32_t\000"
ARM GAS  /tmp/cc3XXQkZ.s 			page 66


 3581      6E743332 
 3581      5F7400
 3582              	.LASF160:
 3583 0316 41444343 		.ascii	"ADCConfig\000"
 3583      6F6E6669 
 3583      6700
 3584              	.LASF98:
 3585 0320 72656761 		.ascii	"regarm_t\000"
 3585      726D5F74 
 3585      00
 3586              	.LASF60:
 3587 0329 76745F70 		.ascii	"vt_prev\000"
 3587      72657600 
 3588              	.LASF73:
 3589 0331 76746C69 		.ascii	"vtlist\000"
 3589      737400
 3590              	.LASF159:
 3591 0338 64756D6D 		.ascii	"dummy\000"
 3591      7900
 3592              	.LASF166:
 3593 033e 6F73616C 		.ascii	"osalSysLock\000"
 3593      5379734C 
 3593      6F636B00 
 3594              	.LASF119:
 3595 034a 6D757465 		.ascii	"mutex_t\000"
 3595      785F7400 
 3596              	.LASF168:
 3597 0352 76616C75 		.ascii	"value\000"
 3597      6500
 3598              	.LASF131:
 3599 0358 4144435F 		.ascii	"ADC_ACTIVE\000"
 3599      41435449 
 3599      564500
 3600              	.LASF75:
 3601 0363 69646C65 		.ascii	"idle_thread_wa\000"
 3601      5F746872 
 3601      6561645F 
 3601      776100
 3602              	.LASF97:
 3603 0372 444D415F 		.ascii	"DMA_TypeDef\000"
 3603      54797065 
 3603      44656600 
 3604              	.LASF27:
 3605 037e 636E745F 		.ascii	"cnt_t\000"
 3605      7400
 3606              	.LASF0:
 3607 0384 756E7369 		.ascii	"unsigned int\000"
 3607      676E6564 
 3607      20696E74 
 3607      00
 3608              	.LASF59:
 3609 0391 76745F6E 		.ascii	"vt_next\000"
 3609      65787400 
 3610              	.LASF173:
 3611 0399 6164634F 		.ascii	"adcObjectInit\000"
 3611      626A6563 
 3611      74496E69 
ARM GAS  /tmp/cc3XXQkZ.s 			page 67


 3611      7400
 3612              	.LASF108:
 3613 03a7 77747365 		.ascii	"wtsemp\000"
 3613      6D7000
 3614              	.LASF93:
 3615 03ae 43504152 		.ascii	"CPAR\000"
 3615      00
 3616              	.LASF38:
 3617 03b3 705F6D73 		.ascii	"p_msgqueue\000"
 3617      67717565 
 3617      756500
 3618              	.LASF139:
 3619 03be 41444344 		.ascii	"ADCDriver\000"
 3619      72697665 
 3619      7200
 3620              	.LASF95:
 3621 03c8 444D415F 		.ascii	"DMA_Channel_TypeDef\000"
 3621      4368616E 
 3621      6E656C5F 
 3621      54797065 
 3621      44656600 
 3622              	.LASF113:
 3623 03dc 735F636E 		.ascii	"s_cnt\000"
 3623      7400
 3624              	.LASF7:
 3625 03e2 73686F72 		.ascii	"short unsigned int\000"
 3625      7420756E 
 3625      7369676E 
 3625      65642069 
 3625      6E7400
 3626              	.LASF46:
 3627 03f5 63685F74 		.ascii	"ch_thread\000"
 3627      68726561 
 3627      6400
 3628              	.LASF130:
 3629 03ff 4144435F 		.ascii	"ADC_READY\000"
 3629      52454144 
 3629      5900
 3630              	.LASF143:
 3631 0409 64657074 		.ascii	"depth\000"
 3631      6800
 3632              	.LASF25:
 3633 040f 6D73675F 		.ascii	"msg_t\000"
 3633      7400
 3634              	.LASF124:
 3635 0415 73656C66 		.ascii	"selfindex\000"
 3635      696E6465 
 3635      7800
 3636              	.LASF70:
 3637 041f 63685F73 		.ascii	"ch_system_t\000"
 3637      79737465 
 3637      6D5F7400 
 3638              	.LASF21:
 3639 042b 746D6F64 		.ascii	"tmode_t\000"
 3639      655F7400 
 3640              	.LASF150:
 3641 0433 6E756D5F 		.ascii	"num_channels\000"
ARM GAS  /tmp/cc3XXQkZ.s 			page 68


 3641      6368616E 
 3641      6E656C73 
 3641      00
 3642              	.LASF51:
 3643 0440 63685F72 		.ascii	"ch_ready_list\000"
 3643      65616479 
 3643      5F6C6973 
 3643      7400
 3644              	.LASF26:
 3645 044e 6576656E 		.ascii	"eventmask_t\000"
 3645      746D6173 
 3645      6B5F7400 
 3646              	.LASF5:
 3647 045a 73686F72 		.ascii	"short int\000"
 3647      7420696E 
 3647      7400
 3648              	.LASF8:
 3649 0464 5F5F696E 		.ascii	"__int32_t\000"
 3649      7433325F 
 3649      7400
 3650              	.LASF172:
 3651 046e 61646349 		.ascii	"adcInit\000"
 3651      6E697400 
 3652              	.LASF94:
 3653 0476 434D4152 		.ascii	"CMAR\000"
 3653      00
 3654              	.LASF99:
 3655 047b 73746B61 		.ascii	"stkalign_t\000"
 3655      6C69676E 
 3655      5F7400
 3656              	.LASF45:
 3657 0486 74687265 		.ascii	"threads_list_t\000"
 3657      6164735F 
 3657      6C697374 
 3657      5F7400
 3658              	.LASF121:
 3659 0495 636D6173 		.ascii	"cmask\000"
 3659      6B00
 3660              	.LASF144:
 3661 049b 67727070 		.ascii	"grpp\000"
 3661      00
 3662              	.LASF79:
 3663 04a0 4A4F4652 		.ascii	"JOFR1\000"
 3663      3100
 3664              	.LASF80:
 3665 04a6 4A4F4652 		.ascii	"JOFR2\000"
 3665      3200
 3666              	.LASF185:
 3667 04ac 6164635F 		.ascii	"adc_lld_init\000"
 3667      6C6C645F 
 3667      696E6974 
 3667      00
 3668              	.LASF142:
 3669 04b9 73616D70 		.ascii	"samples\000"
 3669      6C657300 
 3670              	.LASF37:
 3671 04c1 705F7761 		.ascii	"p_waiting\000"
ARM GAS  /tmp/cc3XXQkZ.s 			page 69


 3671      6974696E 
 3671      6700
 3672              	.LASF76:
 3673 04cb 73697A65 		.ascii	"sizetype\000"
 3673      74797065 
 3673      00
 3674              	.LASF44:
 3675 04d4 74687265 		.ascii	"thread_reference_t\000"
 3675      61645F72 
 3675      65666572 
 3675      656E6365 
 3675      5F7400
 3676              	.LASF65:
 3677 04e7 63685F76 		.ascii	"ch_virtual_timers_list\000"
 3677      69727475 
 3677      616C5F74 
 3677      696D6572 
 3677      735F6C69 
 3678              	.LASF107:
 3679 04fe 77747472 		.ascii	"wttrp\000"
 3679      7000
 3680              	.LASF103:
 3681 0504 746D5F63 		.ascii	"tm_calibration_t\000"
 3681      616C6962 
 3681      72617469 
 3681      6F6E5F74 
 3681      00
 3682              	.LASF129:
 3683 0515 4144435F 		.ascii	"ADC_STOP\000"
 3683      53544F50 
 3683      00
 3684              	.LASF19:
 3685 051e 75696E74 		.ascii	"uint64_t\000"
 3685      36345F74 
 3685      00
 3686              	.LASF90:
 3687 0527 4A445234 		.ascii	"JDR4\000"
 3687      00
 3688              	.LASF54:
 3689 052c 725F6374 		.ascii	"r_ctx\000"
 3689      7800
 3690              	.LASF77:
 3691 0532 534D5052 		.ascii	"SMPR1\000"
 3691      3100
 3692              	.LASF78:
 3693 0538 534D5052 		.ascii	"SMPR2\000"
 3693      3200
 3694              	.LASF117:
 3695 053e 6D5F6E65 		.ascii	"m_next\000"
 3695      787400
 3696              	.LASF55:
 3697 0545 725F6375 		.ascii	"r_current\000"
 3697      7272656E 
 3697      7400
 3698              	.LASF83:
 3699 054f 53515231 		.ascii	"SQR1\000"
 3699      00
ARM GAS  /tmp/cc3XXQkZ.s 			page 70


 3700              	.LASF84:
 3701 0554 53515232 		.ascii	"SQR2\000"
 3701      00
 3702              	.LASF85:
 3703 0559 53515233 		.ascii	"SQR3\000"
 3703      00
 3704              	.LASF13:
 3705 055e 5F5F7569 		.ascii	"__uint64_t\000"
 3705      6E743634 
 3705      5F7400
 3706              	.LASF171:
 3707 0569 61646353 		.ascii	"adcStartConversionI\000"
 3707      74617274 
 3707      436F6E76 
 3707      65727369 
 3707      6F6E4900 
 3708              	.LASF23:
 3709 057d 74726566 		.ascii	"trefs_t\000"
 3709      735F7400 
 3710              	.LASF57:
 3711 0585 76697274 		.ascii	"virtual_timer_t\000"
 3711      75616C5F 
 3711      74696D65 
 3711      725F7400 
 3712              	.LASF31:
 3713 0595 705F7072 		.ascii	"p_prev\000"
 3713      657600
 3714              	.LASF126:
 3715 059c 73746D33 		.ascii	"stm32_dma_stream_t\000"
 3715      325F646D 
 3715      615F7374 
 3715      7265616D 
 3715      5F7400
 3716              	.LASF24:
 3717 05af 74707269 		.ascii	"tprio_t\000"
 3717      6F5F7400 
 3718              	.LASF68:
 3719 05b7 63685F73 		.ascii	"ch_system_debug\000"
 3719      79737465 
 3719      6D5F6465 
 3719      62756700 
 3720              	.LASF127:
 3721 05c7 5F426F6F 		.ascii	"_Bool\000"
 3721      6C00
 3722              	.LASF17:
 3723 05cd 696E7433 		.ascii	"int32_t\000"
 3723      325F7400 
 3724              	.LASF4:
 3725 05d5 756E7369 		.ascii	"unsigned char\000"
 3725      676E6564 
 3725      20636861 
 3725      7200
 3726              	.LASF41:
 3727 05e3 705F6D74 		.ascii	"p_mtxlist\000"
 3727      786C6973 
 3727      7400
 3728              	.LASF186:
ARM GAS  /tmp/cc3XXQkZ.s 			page 71


 3729 05ed 6164635F 		.ascii	"adc_lld_stop_conversion\000"
 3729      6C6C645F 
 3729      73746F70 
 3729      5F636F6E 
 3729      76657273 
 3730              	.LASF34:
 3731 0605 705F7374 		.ascii	"p_state\000"
 3731      61746500 
 3732              	.LASF152:
 3733 060d 6572726F 		.ascii	"error_cb\000"
 3733      725F6362 
 3733      00
 3734              	.LASF53:
 3735 0616 725F7072 		.ascii	"r_prio\000"
 3735      696F00
 3736              	.LASF110:
 3737 061d 65776D61 		.ascii	"ewmask\000"
 3737      736B00
 3738              	.LASF30:
 3739 0624 705F6E65 		.ascii	"p_next\000"
 3739      787400
 3740              	.LASF35:
 3741 062b 705F666C 		.ascii	"p_flags\000"
 3741      61677300 
 3742              	.LASF170:
 3743 0633 5F5F6675 		.ascii	"__func__\000"
 3743      6E635F5F 
 3743      00
 3744              	.LASF81:
 3745 063c 4A4F4652 		.ascii	"JOFR3\000"
 3745      3300
 3746              	.LASF163:
 3747 0642 63685379 		.ascii	"chSysLock\000"
 3747      734C6F63 
 3747      6B00
 3748              	.LASF82:
 3749 064c 4A4F4652 		.ascii	"JOFR4\000"
 3749      3400
 3750              	.LASF167:
 3751 0652 6F73616C 		.ascii	"osalSysUnlock\000"
 3751      53797355 
 3751      6E6C6F63 
 3751      6B00
 3752              	.LASF120:
 3753 0660 6368616E 		.ascii	"channel\000"
 3753      6E656C00 
 3754              	.LASF111:
 3755 0668 63685F73 		.ascii	"ch_semaphore\000"
 3755      656D6170 
 3755      686F7265 
 3755      00
 3756              	.LASF40:
 3757 0675 705F6570 		.ascii	"p_epending\000"
 3757      656E6469 
 3757      6E6700
 3758              	.LASF18:
 3759 0680 75696E74 		.ascii	"uint32_t\000"
ARM GAS  /tmp/cc3XXQkZ.s 			page 72


 3759      33325F74 
 3759      00
 3760              	.LASF109:
 3761 0689 77746D74 		.ascii	"wtmtxp\000"
 3761      787000
 3762              	.LASF52:
 3763 0690 725F7175 		.ascii	"r_queue\000"
 3763      65756500 
 3764              	.LASF61:
 3765 0698 76745F64 		.ascii	"vt_delta\000"
 3765      656C7461 
 3765      00
 3766              	.LASF47:
 3767 06a1 63685F74 		.ascii	"ch_threads_list\000"
 3767      68726561 
 3767      64735F6C 
 3767      69737400 
 3768              	.LASF153:
 3769 06b1 736D7072 		.ascii	"smpr1\000"
 3769      3100
 3770              	.LASF96:
 3771 06b7 49464352 		.ascii	"IFCR\000"
 3771      00
 3772              	.LASF118:
 3773 06bc 63686172 		.ascii	"char\000"
 3773      00
 3774              	.LASF141:
 3775 06c1 636F6E66 		.ascii	"config\000"
 3775      696700
 3776              	.LASF6:
 3777 06c8 5F5F7569 		.ascii	"__uint16_t\000"
 3777      6E743136 
 3777      5F7400
 3778              	.LASF29:
 3779 06d3 74687265 		.ascii	"thread_t\000"
 3779      61645F74 
 3779      00
 3780              	.LASF155:
 3781 06dc 73717231 		.ascii	"sqr1\000"
 3781      00
 3782              	.LASF156:
 3783 06e1 73717232 		.ascii	"sqr2\000"
 3783      00
 3784              	.LASF157:
 3785 06e6 73717233 		.ascii	"sqr3\000"
 3785      00
 3786              	.LASF28:
 3787 06eb 73797374 		.ascii	"systime_t\000"
 3787      696D655F 
 3787      7400
 3788              	.LASF42:
 3789 06f5 705F7265 		.ascii	"p_realprio\000"
 3789      616C7072 
 3789      696F00
 3790              	.LASF56:
 3791 0700 76746675 		.ascii	"vtfunc_t\000"
 3791      6E635F74 
ARM GAS  /tmp/cc3XXQkZ.s 			page 73


 3791      00
 3792              	.LASF164:
 3793 0709 5F5F7365 		.ascii	"__set_BASEPRI\000"
 3793      745F4241 
 3793      53455052 
 3793      4900
 3794              	.LASF69:
 3795 0717 70616E69 		.ascii	"panic_msg\000"
 3795      635F6D73 
 3795      6700
 3796              	.LASF102:
 3797 0721 6F666673 		.ascii	"offset\000"
 3797      657400
 3798              	.LASF100:
 3799 0728 636F6E74 		.ascii	"context\000"
 3799      65787400 
 3800              	.LASF58:
 3801 0730 63685F76 		.ascii	"ch_virtual_timer\000"
 3801      69727475 
 3801      616C5F74 
 3801      696D6572 
 3801      00
 3802              	.LASF176:
 3803 0741 61646353 		.ascii	"adcStartConversion\000"
 3803      74617274 
 3803      436F6E76 
 3803      65727369 
 3803      6F6E00
 3804              	.LASF20:
 3805 0754 7274636E 		.ascii	"rtcnt_t\000"
 3805      745F7400 
 3806              	.LASF180:
 3807 075c 6164635F 		.ascii	"adc_lld_start\000"
 3807      6C6C645F 
 3807      73746172 
 3807      7400
 3808              	.LASF63:
 3809 076a 76745F70 		.ascii	"vt_par\000"
 3809      617200
 3810              	.LASF174:
 3811 0771 61646353 		.ascii	"adcStart\000"
 3811      74617274 
 3811      00
 3812              	.LASF48:
 3813 077a 74687265 		.ascii	"threads_queue_t\000"
 3813      6164735F 
 3813      71756575 
 3813      655F7400 
 3814              	.LASF114:
 3815 078a 63685F6D 		.ascii	"ch_mutex\000"
 3815      75746578 
 3815      00
 3816              	.LASF36:
 3817 0793 705F7265 		.ascii	"p_refs\000"
 3817      667300
 3818              	.LASF92:
 3819 079a 434E4454 		.ascii	"CNDTR\000"
ARM GAS  /tmp/cc3XXQkZ.s 			page 74


 3819      5200
 3820              	.LASF154:
 3821 07a0 736D7072 		.ascii	"smpr2\000"
 3821      3200
 3822              	.LASF72:
 3823 07a6 726C6973 		.ascii	"rlist\000"
 3823      7400
 3824              	.LASF15:
 3825 07ac 75696E74 		.ascii	"uint8_t\000"
 3825      385F7400 
 3826              	.LASF178:
 3827 07b4 61646353 		.ascii	"adcStopConversionI\000"
 3827      746F7043 
 3827      6F6E7665 
 3827      7273696F 
 3827      6E4900
 3828              	.LASF158:
 3829 07c7 41444343 		.ascii	"ADCConversionGroup\000"
 3829      6F6E7665 
 3829      7273696F 
 3829      6E47726F 
 3829      757000
 3830              	.LASF87:
 3831 07da 4A445231 		.ascii	"JDR1\000"
 3831      00
 3832              	.LASF89:
 3833 07df 4A445233 		.ascii	"JDR3\000"
 3833      00
 3834              	.LASF146:
 3835 07e4 646D616D 		.ascii	"dmamode\000"
 3835      6F646500 
 3836              	.LASF106:
 3837 07ec 77746F62 		.ascii	"wtobjp\000"
 3837      6A7000
 3838              	.LASF132:
 3839 07f3 4144435F 		.ascii	"ADC_COMPLETE\000"
 3839      434F4D50 
 3839      4C455445 
 3839      00
 3840              	.LASF136:
 3841 0800 6164635F 		.ascii	"adc_channels_num_t\000"
 3841      6368616E 
 3841      6E656C73 
 3841      5F6E756D 
 3841      5F7400
 3842              	.LASF66:
 3843 0813 76745F73 		.ascii	"vt_systime\000"
 3843      79737469 
 3843      6D6500
 3844              	.LASF165:
 3845 081e 63685379 		.ascii	"chSysUnlock\000"
 3845      73556E6C 
 3845      6F636B00 
 3846              	.LASF39:
 3847 082a 705F6D73 		.ascii	"p_msg\000"
 3847      6700
 3848              	.LASF169:
ARM GAS  /tmp/cc3XXQkZ.s 			page 75


 3849 0830 61646370 		.ascii	"adcp\000"
 3849      00
 3850              	.LASF177:
 3851 0835 61646353 		.ascii	"adcStopConversion\000"
 3851      746F7043 
 3851      6F6E7665 
 3851      7273696F 
 3851      6E00
 3852              	.LASF116:
 3853 0847 6D5F6F77 		.ascii	"m_owner\000"
 3853      6E657200 
 3854              	.LASF33:
 3855 084f 705F6374 		.ascii	"p_ctx\000"
 3855      7800
 3856              	.LASF62:
 3857 0855 76745F66 		.ascii	"vt_func\000"
 3857      756E6300 
 3858              		.ident	"GCC: (GNU Tools for ARM Embedded Processors) 4.9.3 20150529 (release) [ARM/embedded-4_9-br
ARM GAS  /tmp/cc3XXQkZ.s 			page 76


DEFINED SYMBOLS
                            *ABS*:00000000 adc.c
     /tmp/cc3XXQkZ.s:19     .text.adcInit:00000000 $t
     /tmp/cc3XXQkZ.s:25     .text.adcInit:00000000 adcInit
     /tmp/cc3XXQkZ.s:40     .text.adcObjectInit:00000000 $t
     /tmp/cc3XXQkZ.s:46     .text.adcObjectInit:00000000 adcObjectInit
     /tmp/cc3XXQkZ.s:72     .text.adcStart:00000000 $t
     /tmp/cc3XXQkZ.s:78     .text.adcStart:00000000 adcStart
     /tmp/cc3XXQkZ.s:151    .text.adcStop:00000000 $t
     /tmp/cc3XXQkZ.s:157    .text.adcStop:00000000 adcStop
     /tmp/cc3XXQkZ.s:227    .text.adcStartConversion:00000000 $t
     /tmp/cc3XXQkZ.s:233    .text.adcStartConversion:00000000 adcStartConversion
     /tmp/cc3XXQkZ.s:303    .text.adcStartConversionI:00000000 $t
     /tmp/cc3XXQkZ.s:309    .text.adcStartConversionI:00000000 adcStartConversionI
     /tmp/cc3XXQkZ.s:342    .text.adcStopConversion:00000000 $t
     /tmp/cc3XXQkZ.s:348    .text.adcStopConversion:00000000 adcStopConversion
     /tmp/cc3XXQkZ.s:426    .text.adcStopConversionI:00000000 $t
     /tmp/cc3XXQkZ.s:432    .text.adcStopConversionI:00000000 adcStopConversionI
                     .debug_frame:00000010 $d

UNDEFINED SYMBOLS
adc_lld_init
adc_lld_start
adc_lld_stop
adc_lld_start_conversion
adc_lld_stop_conversion
