ARM GAS  /tmp/cc3XXQkZ.s 			page 1


   1              		.syntax unified
   2              		.cpu cortex-m3
   3              		.fpu softvfp
   4              		.eabi_attribute 20, 1
   5              		.eabi_attribute 21, 1
   6              		.eabi_attribute 23, 3
   7              		.eabi_attribute 24, 1
   8              		.eabi_attribute 25, 1
   9              		.eabi_attribute 26, 1
  10              		.eabi_attribute 30, 2
  11              		.eabi_attribute 34, 1
  12              		.eabi_attribute 18, 4
  13              		.thumb
  14              		.file	"adc.c"
  15              		.text
  16              	.Ltext0:
  17              		.cfi_sections	.debug_frame
  18              		.section	.text.adcInit,"ax",%progbits
  19              		.align	2
  20              		.p2align 4,,15
  21              		.global	adcInit
  22              		.thumb
  23              		.thumb_func
  24              		.type	adcInit, %function
  25              	adcInit:
  26              	.LFB207:
  27              		.file 1 "/home/maciek/ChibiOS_16.1.5/os/hal/src/adc.c"
  28              		.loc 1 56 0
  29              		.cfi_startproc
  30              		@ args = 0, pretend = 0, frame = 0
  31              		@ frame_needed = 0, uses_anonymous_args = 0
  32              		@ link register save eliminated.
  33              		.loc 1 58 0
  34 0000 FFF7FEBF 		b	adc_lld_init
  35              	.LVL0:
  36              		.cfi_endproc
  37              	.LFE207:
  38              		.size	adcInit, .-adcInit
  39              		.section	.text.adcObjectInit,"ax",%progbits
  40              		.align	2
  41              		.p2align 4,,15
  42              		.global	adcObjectInit
  43              		.thumb
  44              		.thumb_func
  45              		.type	adcObjectInit, %function
  46              	adcObjectInit:
  47              	.LFB208:
  48              		.loc 1 68 0
  49              		.cfi_startproc
  50              		@ args = 0, pretend = 0, frame = 0
  51              		@ frame_needed = 0, uses_anonymous_args = 0
  52              		@ link register save eliminated.
  53              	.LVL1:
  54              		.loc 1 71 0
  55 0000 0023     		movs	r3, #0
  56              		.loc 1 70 0
  57 0002 0122     		movs	r2, #1
ARM GAS  /tmp/cc3XXQkZ.s 			page 2


  58 0004 0270     		strb	r2, [r0]
  59              		.loc 1 71 0
  60 0006 4360     		str	r3, [r0, #4]
  61              		.loc 1 72 0
  62 0008 8360     		str	r3, [r0, #8]
  63              		.loc 1 73 0
  64 000a C360     		str	r3, [r0, #12]
  65              		.loc 1 74 0
  66 000c 0361     		str	r3, [r0, #16]
  67 000e 7047     		bx	lr
  68              		.cfi_endproc
  69              	.LFE208:
  70              		.size	adcObjectInit, .-adcObjectInit
  71              		.section	.text.adcStart,"ax",%progbits
  72              		.align	2
  73              		.p2align 4,,15
  74              		.global	adcStart
  75              		.thumb
  76              		.thumb_func
  77              		.type	adcStart, %function
  78              	adcStart:
  79              	.LFB209:
  80              		.loc 1 95 0
  81              		.cfi_startproc
  82              		@ args = 0, pretend = 0, frame = 0
  83              		@ frame_needed = 0, uses_anonymous_args = 0
  84              	.LVL2:
  85 0000 10B5     		push	{r4, lr}
  86              		.cfi_def_cfa_offset 8
  87              		.cfi_offset 4, -8
  88              		.cfi_offset 14, -4
  89              	.LBB78:
  90              	.LBB79:
  91              	.LBB80:
  92              	.LBB81:
  93              	.LBB82:
  94              		.file 2 "/home/maciek/ChibiOS_16.1.5/os/ext/CMSIS/include/core_cmFunc.h"
  95              		.loc 2 548 0
  96 0002 2023     		movs	r3, #32
  97              	.LBE82:
  98              	.LBE81:
  99              	.LBE80:
 100              	.LBE79:
 101              	.LBE78:
 102              		.loc 1 95 0
 103 0004 0446     		mov	r4, r0
 104              	.LBB87:
 105              	.LBB86:
 106              	.LBB85:
 107              	.LBB84:
 108              	.LBB83:
 109              		.loc 2 548 0
 110              	@ 548 "/home/maciek/ChibiOS_16.1.5/os/ext/CMSIS/include/core_cmFunc.h" 1
 111 0006 83F31188 		MSR basepri, r3
 112              	@ 0 "" 2
 113              		.thumb
 114              	.LBE83:
ARM GAS  /tmp/cc3XXQkZ.s 			page 3


 115              	.LBE84:
 116              	.LBE85:
 117              	.LBE86:
 118              	.LBE87:
 119              		.loc 1 102 0
 120 000a 4160     		str	r1, [r0, #4]
 121              		.loc 1 103 0
 122 000c FFF7FEFF 		bl	adc_lld_start
 123              	.LVL3:
 124              		.loc 1 104 0
 125 0010 0223     		movs	r3, #2
 126 0012 2370     		strb	r3, [r4]
 127              	.LVL4:
 128              	.LBB88:
 129              	.LBB89:
 130              	.LBB90:
 131              	.LBB91:
 132              	.LBB92:
 133              	.LBB93:
 134              		.loc 2 548 0
 135 0014 0023     		movs	r3, #0
 136              	@ 548 "/home/maciek/ChibiOS_16.1.5/os/ext/CMSIS/include/core_cmFunc.h" 1
 137 0016 83F31188 		MSR basepri, r3
 138              	@ 0 "" 2
 139              		.thumb
 140 001a 10BD     		pop	{r4, pc}
 141              	.LBE93:
 142              	.LBE92:
 143              	.LBE91:
 144              	.LBE90:
 145              	.LBE89:
 146              	.LBE88:
 147              		.cfi_endproc
 148              	.LFE209:
 149              		.size	adcStart, .-adcStart
 150              		.section	.text.adcStop,"ax",%progbits
 151              		.align	2
 152              		.p2align 4,,15
 153              		.global	adcStop
 154              		.thumb
 155              		.thumb_func
 156              		.type	adcStop, %function
 157              	adcStop:
 158              	.LFB210:
 159              		.loc 1 115 0
 160              		.cfi_startproc
 161              		@ args = 0, pretend = 0, frame = 0
 162              		@ frame_needed = 0, uses_anonymous_args = 0
 163              	.LVL5:
 164 0000 10B5     		push	{r4, lr}
 165              		.cfi_def_cfa_offset 8
 166              		.cfi_offset 4, -8
 167              		.cfi_offset 14, -4
 168              	.LBB94:
 169              	.LBB95:
 170              	.LBB96:
 171              	.LBB97:
ARM GAS  /tmp/cc3XXQkZ.s 			page 4


 172              	.LBB98:
 173              		.loc 2 548 0
 174 0002 2023     		movs	r3, #32
 175              	.LBE98:
 176              	.LBE97:
 177              	.LBE96:
 178              	.LBE95:
 179              	.LBE94:
 180              		.loc 1 115 0
 181 0004 0446     		mov	r4, r0
 182              	.LBB103:
 183              	.LBB102:
 184              	.LBB101:
 185              	.LBB100:
 186              	.LBB99:
 187              		.loc 2 548 0
 188              	@ 548 "/home/maciek/ChibiOS_16.1.5/os/ext/CMSIS/include/core_cmFunc.h" 1
 189 0006 83F31188 		MSR basepri, r3
 190              	@ 0 "" 2
 191              		.thumb
 192              	.LBE99:
 193              	.LBE100:
 194              	.LBE101:
 195              	.LBE102:
 196              	.LBE103:
 197              		.loc 1 122 0
 198 000a FFF7FEFF 		bl	adc_lld_stop
 199              	.LVL6:
 200              		.loc 1 123 0
 201 000e 0123     		movs	r3, #1
 202 0010 2370     		strb	r3, [r4]
 203              	.LVL7:
 204              	.LBB104:
 205              	.LBB105:
 206              	.LBB106:
 207              	.LBB107:
 208              	.LBB108:
 209              	.LBB109:
 210              		.loc 2 548 0
 211 0012 0023     		movs	r3, #0
 212              	@ 548 "/home/maciek/ChibiOS_16.1.5/os/ext/CMSIS/include/core_cmFunc.h" 1
 213 0014 83F31188 		MSR basepri, r3
 214              	@ 0 "" 2
 215              		.thumb
 216 0018 10BD     		pop	{r4, pc}
 217              	.LBE109:
 218              	.LBE108:
 219              	.LBE107:
 220              	.LBE106:
 221              	.LBE105:
 222              	.LBE104:
 223              		.cfi_endproc
 224              	.LFE210:
 225              		.size	adcStop, .-adcStop
 226 001a 00BF     		.section	.text.adcStartConversion,"ax",%progbits
 227              		.align	2
 228              		.p2align 4,,15
ARM GAS  /tmp/cc3XXQkZ.s 			page 5


 229              		.global	adcStartConversion
 230              		.thumb
 231              		.thumb_func
 232              		.type	adcStartConversion, %function
 233              	adcStartConversion:
 234              	.LFB211:
 235              		.loc 1 146 0
 236              		.cfi_startproc
 237              		@ args = 0, pretend = 0, frame = 0
 238              		@ frame_needed = 0, uses_anonymous_args = 0
 239              	.LVL8:
 240 0000 38B5     		push	{r3, r4, r5, lr}
 241              		.cfi_def_cfa_offset 16
 242              		.cfi_offset 3, -16
 243              		.cfi_offset 4, -12
 244              		.cfi_offset 5, -8
 245              		.cfi_offset 14, -4
 246              	.LBB110:
 247              	.LBB111:
 248              	.LBB112:
 249              	.LBB113:
 250              	.LBB114:
 251              		.loc 2 548 0
 252 0002 2025     		movs	r5, #32
 253              	@ 548 "/home/maciek/ChibiOS_16.1.5/os/ext/CMSIS/include/core_cmFunc.h" 1
 254 0004 85F31188 		MSR basepri, r5
 255              	@ 0 "" 2
 256              	.LVL9:
 257              		.thumb
 258              	.LBE114:
 259              	.LBE113:
 260              	.LBE112:
 261              	.LBE111:
 262              	.LBE110:
 263              	.LBB115:
 264              	.LBB116:
 265              		.loc 1 187 0
 266 0008 0325     		movs	r5, #3
 267              		.loc 1 185 0
 268 000a C360     		str	r3, [r0, #12]
 269              		.loc 1 184 0
 270 000c 8260     		str	r2, [r0, #8]
 271              		.loc 1 186 0
 272 000e 0161     		str	r1, [r0, #16]
 273              		.loc 1 187 0
 274 0010 0570     		strb	r5, [r0]
 275              		.loc 1 188 0
 276 0012 FFF7FEFF 		bl	adc_lld_start_conversion
 277              	.LVL10:
 278              	.LBE116:
 279              	.LBE115:
 280              	.LBB117:
 281              	.LBB118:
 282              	.LBB119:
 283              	.LBB120:
 284              	.LBB121:
 285              	.LBB122:
ARM GAS  /tmp/cc3XXQkZ.s 			page 6


 286              		.loc 2 548 0
 287 0016 0023     		movs	r3, #0
 288              	@ 548 "/home/maciek/ChibiOS_16.1.5/os/ext/CMSIS/include/core_cmFunc.h" 1
 289 0018 83F31188 		MSR basepri, r3
 290              	@ 0 "" 2
 291              		.thumb
 292 001c 38BD     		pop	{r3, r4, r5, pc}
 293              	.LBE122:
 294              	.LBE121:
 295              	.LBE120:
 296              	.LBE119:
 297              	.LBE118:
 298              	.LBE117:
 299              		.cfi_endproc
 300              	.LFE211:
 301              		.size	adcStartConversion, .-adcStartConversion
 302 001e 00BF     		.section	.text.adcStartConversionI,"ax",%progbits
 303              		.align	2
 304              		.p2align 4,,15
 305              		.global	adcStartConversionI
 306              		.thumb
 307              		.thumb_func
 308              		.type	adcStartConversionI, %function
 309              	adcStartConversionI:
 310              	.LFB212:
 311              		.loc 1 174 0
 312              		.cfi_startproc
 313              		@ args = 0, pretend = 0, frame = 0
 314              		@ frame_needed = 0, uses_anonymous_args = 0
 315              		@ link register save eliminated.
 316              	.LVL11:
 317 0000 30B4     		push	{r4, r5}
 318              		.cfi_def_cfa_offset 8
 319              		.cfi_offset 4, -8
 320              		.cfi_offset 5, -4
 321              		.loc 1 187 0
 322 0002 0325     		movs	r5, #3
 323 0004 0570     		strb	r5, [r0]
 324              		.loc 1 184 0
 325 0006 8260     		str	r2, [r0, #8]
 326              		.loc 1 185 0
 327 0008 C360     		str	r3, [r0, #12]
 328              		.loc 1 186 0
 329 000a 0161     		str	r1, [r0, #16]
 330              		.loc 1 189 0
 331 000c 30BC     		pop	{r4, r5}
 332              		.cfi_restore 5
 333              		.cfi_restore 4
 334              		.cfi_def_cfa_offset 0
 335              		.loc 1 188 0
 336 000e FFF7FEBF 		b	adc_lld_start_conversion
 337              	.LVL12:
 338              		.cfi_endproc
 339              	.LFE212:
 340              		.size	adcStartConversionI, .-adcStartConversionI
 341 0012 00BF     		.section	.text.adcStopConversion,"ax",%progbits
 342              		.align	2
ARM GAS  /tmp/cc3XXQkZ.s 			page 7


 343              		.p2align 4,,15
 344              		.global	adcStopConversion
 345              		.thumb
 346              		.thumb_func
 347              		.type	adcStopConversion, %function
 348              	adcStopConversion:
 349              	.LFB213:
 350              		.loc 1 201 0
 351              		.cfi_startproc
 352              		@ args = 0, pretend = 0, frame = 0
 353              		@ frame_needed = 0, uses_anonymous_args = 0
 354              	.LVL13:
 355              	.LBB123:
 356              	.LBB124:
 357              	.LBB125:
 358              	.LBB126:
 359              	.LBB127:
 360              		.loc 2 548 0
 361 0000 2022     		movs	r2, #32
 362              	@ 548 "/home/maciek/ChibiOS_16.1.5/os/ext/CMSIS/include/core_cmFunc.h" 1
 363 0002 82F31188 		MSR basepri, r2
 364              	@ 0 "" 2
 365              		.thumb
 366              	.LBE127:
 367              	.LBE126:
 368              	.LBE125:
 369              	.LBE124:
 370              	.LBE123:
 371              		.loc 1 208 0
 372 0006 0278     		ldrb	r2, [r0]	@ zero_extendqisi2
 373 0008 022A     		cmp	r2, #2
 374 000a 0BD0     		beq	.L17
 375              		.loc 1 201 0
 376 000c 10B5     		push	{r4, lr}
 377              		.cfi_def_cfa_offset 8
 378              		.cfi_offset 4, -8
 379              		.cfi_offset 14, -4
 380 000e 0446     		mov	r4, r0
 381              		.loc 1 209 0
 382 0010 FFF7FEFF 		bl	adc_lld_stop_conversion
 383              	.LVL14:
 384              		.loc 1 210 0
 385 0014 0022     		movs	r2, #0
 386              		.loc 1 211 0
 387 0016 0223     		movs	r3, #2
 388 0018 2370     		strb	r3, [r4]
 389              	.LVL15:
 390              		.loc 1 210 0
 391 001a 2261     		str	r2, [r4, #16]
 392              	.LBB128:
 393              	.LBB129:
 394              	.LBB130:
 395              	.LBB131:
 396              	.LBB132:
 397              	.LBB133:
 398              		.loc 2 548 0
 399 001c 0023     		movs	r3, #0
ARM GAS  /tmp/cc3XXQkZ.s 			page 8


 400              	@ 548 "/home/maciek/ChibiOS_16.1.5/os/ext/CMSIS/include/core_cmFunc.h" 1
 401 001e 83F31188 		MSR basepri, r3
 402              	@ 0 "" 2
 403              		.thumb
 404 0022 10BD     		pop	{r4, pc}
 405              	.LVL16:
 406              	.L17:
 407              		.cfi_def_cfa_offset 0
 408              		.cfi_restore 4
 409              		.cfi_restore 14
 410 0024 0023     		movs	r3, #0
 411              	@ 548 "/home/maciek/ChibiOS_16.1.5/os/ext/CMSIS/include/core_cmFunc.h" 1
 412 0026 83F31188 		MSR basepri, r3
 413              	@ 0 "" 2
 414              		.thumb
 415 002a 7047     		bx	lr
 416              	.LBE133:
 417              	.LBE132:
 418              	.LBE131:
 419              	.LBE130:
 420              	.LBE129:
 421              	.LBE128:
 422              		.cfi_endproc
 423              	.LFE213:
 424              		.size	adcStopConversion, .-adcStopConversion
 425              		.section	.text.adcStopConversionI,"ax",%progbits
 426              		.align	2
 427              		.p2align 4,,15
 428              		.global	adcStopConversionI
 429              		.thumb
 430              		.thumb_func
 431              		.type	adcStopConversionI, %function
 432              	adcStopConversionI:
 433              	.LFB214:
 434              		.loc 1 227 0
 435              		.cfi_startproc
 436              		@ args = 0, pretend = 0, frame = 0
 437              		@ frame_needed = 0, uses_anonymous_args = 0
 438              	.LVL17:
 439              		.loc 1 236 0
 440 0000 0278     		ldrb	r2, [r0]	@ zero_extendqisi2
 441 0002 022A     		cmp	r2, #2
 442 0004 08D0     		beq	.L25
 443              		.loc 1 227 0
 444 0006 10B5     		push	{r4, lr}
 445              		.cfi_def_cfa_offset 8
 446              		.cfi_offset 4, -8
 447              		.cfi_offset 14, -4
 448 0008 0446     		mov	r4, r0
 449              		.loc 1 237 0
 450 000a FFF7FEFF 		bl	adc_lld_stop_conversion
 451              	.LVL18:
 452              		.loc 1 238 0
 453 000e 0022     		movs	r2, #0
 454              		.loc 1 239 0
 455 0010 0223     		movs	r3, #2
 456              		.loc 1 238 0
ARM GAS  /tmp/cc3XXQkZ.s 			page 9


 457 0012 2261     		str	r2, [r4, #16]
 458              		.loc 1 239 0
 459 0014 2370     		strb	r3, [r4]
 460 0016 10BD     		pop	{r4, pc}
 461              	.LVL19:
 462              	.L25:
 463              		.cfi_def_cfa_offset 0
 464              		.cfi_restore 4
 465              		.cfi_restore 14
 466 0018 7047     		bx	lr
 467              		.cfi_endproc
 468              	.LFE214:
 469              		.size	adcStopConversionI, .-adcStopConversionI
 470              		.text
 471              	.Letext0:
 472              		.file 3 "/opt/stm32/gcc/gcc-arm-none-eabi-4_9-2015q2/lib/gcc/arm-none-eabi/4.9.3/include/stddef.h"
 473              		.file 4 "/opt/stm32/gcc/gcc-arm-none-eabi-4_9-2015q2/arm-none-eabi/include/machine/_default_types.
 474              		.file 5 "/opt/stm32/gcc/gcc-arm-none-eabi-4_9-2015q2/arm-none-eabi/include/sys/_stdint.h"
 475              		.file 6 "/home/maciek/ChibiOS_16.1.5/os/rt/ports/ARMCMx/compilers/GCC/chtypes.h"
 476              		.file 7 "/home/maciek/ChibiOS_16.1.5/os/rt/include/chsystypes.h"
 477              		.file 8 "/home/maciek/ChibiOS_16.1.5/os/rt/include/chschd.h"
 478              		.file 9 "/home/maciek/ChibiOS_16.1.5/os/ext/CMSIS/ST/STM32F1xx/stm32f103xe.h"
 479              		.file 10 "/home/maciek/ChibiOS_16.1.5/os/rt/ports/ARMCMx/chcore.h"
 480              		.file 11 "/home/maciek/ChibiOS_16.1.5/os/rt/ports/ARMCMx/chcore_v7m.h"
 481              		.file 12 "/home/maciek/ChibiOS_16.1.5/os/rt/include/chtm.h"
 482              		.file 13 "/home/maciek/ChibiOS_16.1.5/os/rt/include/chsem.h"
 483              		.file 14 "/home/maciek/ChibiOS_16.1.5/os/rt/include/chmtx.h"
 484              		.file 15 "/home/maciek/ChibiOS_16.1.5/os/hal/ports/STM32/LLD/DMAv1/stm32_dma.h"
 485              		.file 16 "/home/maciek/ChibiOS_16.1.5/os/hal/include/adc.h"
 486              		.file 17 "/home/maciek/ChibiOS_16.1.5/os/hal/ports/STM32/STM32F1xx/adc_lld.h"
 487              		.file 18 "/home/maciek/ChibiOS_16.1.5/os/rt/include/chsys.h"
 488              		.file 19 "/home/maciek/ChibiOS_16.1.5/os/hal/osal/rt/osal.h"
 489              		.file 20 "/home/maciek/ChibiOS_16.1.5/os/ext/CMSIS/include/core_cm3.h"