ARM GAS  /tmp/ccT0wPuQ.s 			page 1


   1              		.syntax unified
   2              		.cpu cortex-m3
   3              		.fpu softvfp
   4              		.eabi_attribute 20, 1
   5              		.eabi_attribute 21, 1
   6              		.eabi_attribute 23, 3
   7              		.eabi_attribute 24, 1
   8              		.eabi_attribute 25, 1
   9              		.eabi_attribute 26, 1
  10              		.eabi_attribute 30, 2
  11              		.eabi_attribute 34, 1
  12              		.eabi_attribute 18, 4
  13              		.thumb
  14              		.file	"adc_lld.c"
  15              		.text
  16              	.Ltext0:
  17              		.cfi_sections	.debug_frame
  18              		.section	.text.adc_lld_serve_rx_interrupt,"ax",%progbits
  19              		.align	2
  20              		.p2align 4,,15
  21              		.thumb
  22              		.thumb_func
  23              		.type	adc_lld_serve_rx_interrupt, %function
  24              	adc_lld_serve_rx_interrupt:
  25              	.LFB207:
  26              		.file 1 "/home/maciek/ChibiOS_16.1.5/os/hal/ports/STM32/STM32F1xx/adc_lld.c"
  27              		.loc 1 56 0
  28              		.cfi_startproc
  29              		@ args = 0, pretend = 0, frame = 0
  30              		@ frame_needed = 0, uses_anonymous_args = 0
  31              	.LVL0:
  32 0000 2DE9F041 		push	{r4, r5, r6, r7, r8, lr}
  33              		.cfi_def_cfa_offset 24
  34              		.cfi_offset 4, -24
  35              		.cfi_offset 5, -20
  36              		.cfi_offset 6, -16
  37              		.cfi_offset 7, -12
  38              		.cfi_offset 8, -8
  39              		.cfi_offset 14, -4
  40              		.loc 1 59 0
  41 0004 0D07     		lsls	r5, r1, #28
  42              		.loc 1 56 0
  43 0006 0446     		mov	r4, r0
  44              		.loc 1 59 0
  45 0008 1DD5     		bpl	.L2
  46              	.LVL1:
  47              	.LBB21:
  48              	.LBB22:
  49              		.loc 1 227 0
  50 000a 8269     		ldr	r2, [r0, #24]
  51              	.LBE22:
  52              	.LBE21:
  53              		.loc 1 62 0
  54 000c 0769     		ldr	r7, [r0, #16]
  55              	.LBB25:
  56              	.LBB23:
  57              		.loc 1 227 0
ARM GAS  /tmp/ccT0wPuQ.s 			page 2


  58 000e 5568     		ldr	r5, [r2, #4]
  59 0010 1668     		ldr	r6, [r2]
  60 0012 2968     		ldr	r1, [r5]
  61              	.LVL2:
  62 0014 0F23     		movs	r3, #15
  63 0016 21F00F01 		bic	r1, r1, #15
  64 001a 2960     		str	r1, [r5]
  65 001c 117C     		ldrb	r1, [r2, #16]	@ zero_extendqisi2
  66              		.loc 1 228 0
  67 001e 4569     		ldr	r5, [r0, #20]
  68              	.LBE23:
  69              	.LBE25:
  70              		.loc 1 62 0
  71 0020 BA68     		ldr	r2, [r7, #8]
  72              	.LBB26:
  73              	.LBB24:
  74              		.loc 1 227 0
  75 0022 8B40     		lsls	r3, r3, r1
  76              		.loc 1 228 0
  77 0024 0021     		movs	r1, #0
  78              		.loc 1 227 0
  79 0026 7360     		str	r3, [r6, #4]
  80              		.loc 1 228 0
  81 0028 A960     		str	r1, [r5, #8]
  82              	.LBE24:
  83              	.LBE26:
  84              		.loc 1 62 0
  85 002a 002A     		cmp	r2, #0
  86 002c 47D0     		beq	.L3
  87              		.loc 1 62 0 is_stmt 0 discriminator 1
  88 002e 0523     		movs	r3, #5
  89 0030 0370     		strb	r3, [r0]
  90 0032 9047     		blx	r2
  91              	.LVL3:
  92 0034 2378     		ldrb	r3, [r4]	@ zero_extendqisi2
  93 0036 052B     		cmp	r3, #5
  94 0038 04BF     		itt	eq
  95 003a 0223     		moveq	r3, #2
  96 003c 2370     		strbeq	r3, [r4]
  97 003e 0023     		movs	r3, #0
  98 0040 2361     		str	r3, [r4, #16]
  99 0042 BDE8F081 		pop	{r4, r5, r6, r7, r8, pc}
 100              	.LVL4:
 101              	.L2:
 102              	.LBB27:
 103              	.LBB28:
 104              		.loc 1 65 0 is_stmt 1
 105 0046 8A07     		lsls	r2, r1, #30
 106 0048 13D5     		bpl	.L6
 107              		.loc 1 67 0
 108 004a 0369     		ldr	r3, [r0, #16]
 109 004c 1A78     		ldrb	r2, [r3]	@ zero_extendqisi2
 110 004e DAB1     		cbz	r2, .L7
 111 0050 5D68     		ldr	r5, [r3, #4]
 112 0052 002D     		cmp	r5, #0
 113 0054 31D0     		beq	.L1
 114 0056 C268     		ldr	r2, [r0, #12]
ARM GAS  /tmp/ccT0wPuQ.s 			page 3


 115 0058 012A     		cmp	r2, #1
 116 005a 36D9     		bls	.L9
 117              	.LBB29:
 118 005c 5B88     		ldrh	r3, [r3, #2]
 119 005e 5208     		lsrs	r2, r2, #1
 120              	.LVL5:
 121 0060 03FB02F3 		mul	r3, r3, r2
 122 0064 8168     		ldr	r1, [r0, #8]
 123              	.LVL6:
 124 0066 01EB4301 		add	r1, r1, r3, lsl #1
 125 006a 2B46     		mov	r3, r5
 126              	.LBE29:
 127              	.LBE28:
 128              	.LBE27:
 129              		.loc 1 74 0
 130 006c BDE8F041 		pop	{r4, r5, r6, r7, r8, lr}
 131              		.cfi_remember_state
 132              		.cfi_restore 14
 133              		.cfi_restore 8
 134              		.cfi_restore 7
 135              		.cfi_restore 6
 136              		.cfi_restore 5
 137              		.cfi_restore 4
 138              		.cfi_def_cfa_offset 0
 139              	.LBB39:
 140              	.LBB35:
 141              	.LBB30:
 142              		.loc 1 67 0
 143 0070 1847     		bx	r3	@ indirect register sibling call
 144              	.LVL7:
 145              	.L6:
 146              		.cfi_restore_state
 147              	.LBE30:
 148              		.loc 1 69 0
 149 0072 4B07     		lsls	r3, r1, #29
 150 0074 21D5     		bpl	.L1
 151              		.loc 1 71 0
 152 0076 0369     		ldr	r3, [r0, #16]
 153 0078 5B68     		ldr	r3, [r3, #4]
 154 007a F3B1     		cbz	r3, .L1
 155              	.LBE35:
 156              	.LBE39:
 157              		.loc 1 74 0
 158 007c BDE8F041 		pop	{r4, r5, r6, r7, r8, lr}
 159              		.cfi_remember_state
 160              		.cfi_restore 14
 161              		.cfi_restore 8
 162              		.cfi_restore 7
 163              		.cfi_restore 6
 164              		.cfi_restore 5
 165              		.cfi_restore 4
 166              		.cfi_def_cfa_offset 0
 167              	.LBB40:
 168              	.LBB36:
 169              		.loc 1 71 0
 170 0080 C268     		ldr	r2, [r0, #12]
 171 0082 8168     		ldr	r1, [r0, #8]
ARM GAS  /tmp/ccT0wPuQ.s 			page 4


 172              	.LVL8:
 173 0084 5208     		lsrs	r2, r2, #1
 174 0086 1847     		bx	r3	@ indirect register sibling call
 175              	.LVL9:
 176              	.L7:
 177              		.cfi_restore_state
 178              	.LBB31:
 179              	.LBB32:
 180              		.loc 1 227 0
 181 0088 8169     		ldr	r1, [r0, #24]
 182              	.LVL10:
 183              	.LBE32:
 184              	.LBE31:
 185              		.loc 1 67 0
 186 008a 5F68     		ldr	r7, [r3, #4]
 187              	.LBB34:
 188              	.LBB33:
 189              		.loc 1 227 0
 190 008c 4E68     		ldr	r6, [r1, #4]
 191 008e D1F800E0 		ldr	lr, [r1]
 192 0092 3568     		ldr	r5, [r6]
 193 0094 0F23     		movs	r3, #15
 194 0096 25F00F05 		bic	r5, r5, #15
 195 009a 3560     		str	r5, [r6]
 196 009c 0D7C     		ldrb	r5, [r1, #16]	@ zero_extendqisi2
 197              		.loc 1 228 0
 198 009e 4169     		ldr	r1, [r0, #20]
 199              		.loc 1 227 0
 200 00a0 AB40     		lsls	r3, r3, r5
 201 00a2 CEF80430 		str	r3, [lr, #4]
 202              		.loc 1 228 0
 203 00a6 8A60     		str	r2, [r1, #8]
 204              	.LBE33:
 205              	.LBE34:
 206              		.loc 1 67 0
 207 00a8 4FB1     		cbz	r7, .L3
 208 00aa 0423     		movs	r3, #4
 209 00ac 0370     		strb	r3, [r0]
 210 00ae 8168     		ldr	r1, [r0, #8]
 211 00b0 C268     		ldr	r2, [r0, #12]
 212 00b2 B847     		blx	r7
 213              	.LVL11:
 214 00b4 2378     		ldrb	r3, [r4]	@ zero_extendqisi2
 215 00b6 042B     		cmp	r3, #4
 216 00b8 01D0     		beq	.L3
 217              	.LVL12:
 218              	.L1:
 219 00ba BDE8F081 		pop	{r4, r5, r6, r7, r8, pc}
 220              	.LVL13:
 221              	.L3:
 222              	.LBE36:
 223              	.LBE40:
 224              		.loc 1 62 0 discriminator 2
 225 00be 0222     		movs	r2, #2
 226 00c0 0023     		movs	r3, #0
 227 00c2 2270     		strb	r2, [r4]
 228 00c4 2361     		str	r3, [r4, #16]
ARM GAS  /tmp/ccT0wPuQ.s 			page 5


 229 00c6 BDE8F081 		pop	{r4, r5, r6, r7, r8, pc}
 230              	.LVL14:
 231              	.L9:
 232              	.LBB41:
 233              	.LBB37:
 234              		.loc 1 67 0
 235 00ca 2B46     		mov	r3, r5
 236              	.LBE37:
 237              	.LBE41:
 238              		.loc 1 74 0
 239 00cc BDE8F041 		pop	{r4, r5, r6, r7, r8, lr}
 240              		.cfi_restore 14
 241              		.cfi_restore 8
 242              		.cfi_restore 7
 243              		.cfi_restore 6
 244              		.cfi_restore 5
 245              		.cfi_restore 4
 246              		.cfi_def_cfa_offset 0
 247              	.LBB42:
 248              	.LBB38:
 249              		.loc 1 67 0
 250 00d0 8168     		ldr	r1, [r0, #8]
 251              	.LVL15:
 252 00d2 1847     		bx	r3	@ indirect register sibling call
 253              	.LVL16:
 254              	.LBE38:
 255              	.LBE42:
 256              		.cfi_endproc
 257              	.LFE207:
 258              		.size	adc_lld_serve_rx_interrupt, .-adc_lld_serve_rx_interrupt
 259              		.section	.text.adc_lld_init,"ax",%progbits
 260              		.align	2
 261              		.p2align 4,,15
 262              		.global	adc_lld_init
 263              		.thumb
 264              		.thumb_func
 265              		.type	adc_lld_init, %function
 266              	adc_lld_init:
 267              	.LFB208:
 268              		.loc 1 89 0
 269              		.cfi_startproc
 270              		@ args = 0, pretend = 0, frame = 0
 271              		@ frame_needed = 0, uses_anonymous_args = 0
 272 0000 F8B5     		push	{r3, r4, r5, r6, r7, lr}
 273              		.cfi_def_cfa_offset 24
 274              		.cfi_offset 3, -24
 275              		.cfi_offset 4, -20
 276              		.cfi_offset 5, -16
 277              		.cfi_offset 6, -12
 278              		.cfi_offset 7, -8
 279              		.cfi_offset 14, -4
 280              		.loc 1 93 0
 281 0002 164C     		ldr	r4, .L34
 282              		.loc 1 103 0
 283 0004 0027     		movs	r7, #0
 284              		.loc 1 93 0
 285 0006 2046     		mov	r0, r4
ARM GAS  /tmp/ccT0wPuQ.s 			page 6


 286 0008 FFF7FEFF 		bl	adcObjectInit
 287              	.LVL17:
 288              		.loc 1 94 0
 289 000c 144B     		ldr	r3, .L34+4
 290              		.loc 1 96 0
 291 000e 42F28A5E 		movw	lr, #9610
 292              		.loc 1 108 0
 293 0012 1946     		mov	r1, r3
 294              		.loc 1 102 0
 295 0014 1348     		ldr	r0, .L34+8
 296              		.loc 1 95 0
 297 0016 DFF850C0 		ldr	ip, .L34+12
 298              		.loc 1 102 0
 299 001a 8269     		ldr	r2, [r0, #24]
 300              		.loc 1 104 0
 301 001c 0126     		movs	r6, #1
 302              		.loc 1 102 0
 303 001e 42F40072 		orr	r2, r2, #512
 304              		.loc 1 107 0
 305 0022 0925     		movs	r5, #9
 306              		.loc 1 95 0
 307 0024 C4F818C0 		str	ip, [r4, #24]
 308              		.loc 1 96 0
 309 0028 C4F81CE0 		str	lr, [r4, #28]
 310              		.loc 1 94 0
 311 002c 6361     		str	r3, [r4, #20]
 312              		.loc 1 102 0
 313 002e 8261     		str	r2, [r0, #24]
 314              		.loc 1 103 0
 315 0030 5F60     		str	r7, [r3, #4]
 316              		.loc 1 104 0
 317 0032 9E60     		str	r6, [r3, #8]
 318              		.loc 1 107 0
 319 0034 9D60     		str	r5, [r3, #8]
 320              	.L29:
 321              		.loc 1 108 0 discriminator 1
 322 0036 8B68     		ldr	r3, [r1, #8]
 323 0038 094A     		ldr	r2, .L34+4
 324 003a 1B07     		lsls	r3, r3, #28
 325 003c FBD4     		bmi	.L29
 326              		.loc 1 113 0
 327 003e 1146     		mov	r1, r2
 328              		.loc 1 112 0
 329 0040 0523     		movs	r3, #5
 330 0042 9360     		str	r3, [r2, #8]
 331              	.L30:
 332              		.loc 1 113 0 discriminator 1
 333 0044 8B68     		ldr	r3, [r1, #8]
 334 0046 064A     		ldr	r2, .L34+4
 335 0048 13F00403 		ands	r3, r3, #4
 336 004c FAD1     		bne	.L30
 337              		.loc 1 118 0
 338 004e 0549     		ldr	r1, .L34+8
 339              		.loc 1 117 0
 340 0050 9360     		str	r3, [r2, #8]
 341              		.loc 1 118 0
 342 0052 8B69     		ldr	r3, [r1, #24]
ARM GAS  /tmp/ccT0wPuQ.s 			page 7


 343 0054 23F40073 		bic	r3, r3, #512
 344 0058 8B61     		str	r3, [r1, #24]
 345 005a F8BD     		pop	{r3, r4, r5, r6, r7, pc}
 346              	.L35:
 347              		.align	2
 348              	.L34:
 349 005c 00000000 		.word	.LANCHOR0
 350 0060 00240140 		.word	1073816576
 351 0064 00100240 		.word	1073876992
 352 0068 00000000 		.word	_stm32_dma_streams
 353              		.cfi_endproc
 354              	.LFE208:
 355              		.size	adc_lld_init, .-adc_lld_init
 356              		.section	.text.adc_lld_start,"ax",%progbits
 357              		.align	2
 358              		.p2align 4,,15
 359              		.global	adc_lld_start
 360              		.thumb
 361              		.thumb_func
 362              		.type	adc_lld_start, %function
 363              	adc_lld_start:
 364              	.LFB209:
 365              		.loc 1 129 0
 366              		.cfi_startproc
 367              		@ args = 0, pretend = 0, frame = 0
 368              		@ frame_needed = 0, uses_anonymous_args = 0
 369              	.LVL18:
 370              		.loc 1 132 0
 371 0000 0378     		ldrb	r3, [r0]	@ zero_extendqisi2
 372 0002 012B     		cmp	r3, #1
 373 0004 00D0     		beq	.L41
 374 0006 7047     		bx	lr
 375              	.L41:
 376              		.loc 1 134 0
 377 0008 0C4B     		ldr	r3, .L43
 378              		.loc 1 129 0
 379 000a 10B5     		push	{r4, lr}
 380              		.cfi_def_cfa_offset 8
 381              		.cfi_offset 4, -8
 382              		.cfi_offset 14, -4
 383              		.loc 1 134 0
 384 000c 9842     		cmp	r0, r3
 385 000e 0446     		mov	r4, r0
 386 0010 04D0     		beq	.L42
 387              	.LVL19:
 388              	.L38:
 389              		.loc 1 148 0
 390 0012 6369     		ldr	r3, [r4, #20]
 391 0014 0022     		movs	r2, #0
 392 0016 5A60     		str	r2, [r3, #4]
 393              		.loc 1 149 0
 394 0018 9A60     		str	r2, [r3, #8]
 395 001a 10BD     		pop	{r4, pc}
 396              	.LVL20:
 397              	.L42:
 398              	.LBB43:
 399              		.loc 1 136 0
ARM GAS  /tmp/ccT0wPuQ.s 			page 8


 400 001c 0621     		movs	r1, #6
 401 001e 084A     		ldr	r2, .L43+4
 402 0020 2346     		mov	r3, r4
 403 0022 8069     		ldr	r0, [r0, #24]
 404              	.LVL21:
 405 0024 FFF7FEFF 		bl	dmaStreamAllocate
 406              	.LVL22:
 407              		.loc 1 141 0
 408 0028 A369     		ldr	r3, [r4, #24]
 409 002a 0649     		ldr	r1, .L43+8
 410 002c 5B68     		ldr	r3, [r3, #4]
 411              		.loc 1 142 0
 412 002e 064A     		ldr	r2, .L43+12
 413              		.loc 1 141 0
 414 0030 9960     		str	r1, [r3, #8]
 415              		.loc 1 142 0
 416 0032 9369     		ldr	r3, [r2, #24]
 417 0034 43F40073 		orr	r3, r3, #512
 418 0038 9361     		str	r3, [r2, #24]
 419 003a EAE7     		b	.L38
 420              	.L44:
 421              		.align	2
 422              	.L43:
 423 003c 00000000 		.word	.LANCHOR0
 424 0040 00000000 		.word	adc_lld_serve_rx_interrupt
 425 0044 4C240140 		.word	1073816652
 426 0048 00100240 		.word	1073876992
 427              	.LBE43:
 428              		.cfi_endproc
 429              	.LFE209:
 430              		.size	adc_lld_start, .-adc_lld_start
 431              		.section	.text.adc_lld_stop,"ax",%progbits
 432              		.align	2
 433              		.p2align 4,,15
 434              		.global	adc_lld_stop
 435              		.thumb
 436              		.thumb_func
 437              		.type	adc_lld_stop, %function
 438              	adc_lld_stop:
 439              	.LFB210:
 440              		.loc 1 160 0
 441              		.cfi_startproc
 442              		@ args = 0, pretend = 0, frame = 0
 443              		@ frame_needed = 0, uses_anonymous_args = 0
 444              	.LVL23:
 445 0000 08B5     		push	{r3, lr}
 446              		.cfi_def_cfa_offset 8
 447              		.cfi_offset 3, -8
 448              		.cfi_offset 14, -4
 449              		.loc 1 163 0
 450 0002 0378     		ldrb	r3, [r0]	@ zero_extendqisi2
 451 0004 022B     		cmp	r3, #2
 452 0006 00D0     		beq	.L48
 453              	.LVL24:
 454              	.L45:
 455 0008 08BD     		pop	{r3, pc}
 456              	.LVL25:
ARM GAS  /tmp/ccT0wPuQ.s 			page 9


 457              	.L48:
 458              		.loc 1 165 0
 459 000a 084B     		ldr	r3, .L49
 460 000c 9842     		cmp	r0, r3
 461 000e FBD1     		bne	.L45
 462              		.loc 1 166 0
 463 0010 074B     		ldr	r3, .L49+4
 464 0012 0022     		movs	r2, #0
 465              		.loc 1 168 0
 466 0014 8069     		ldr	r0, [r0, #24]
 467              	.LVL26:
 468              		.loc 1 166 0
 469 0016 5A60     		str	r2, [r3, #4]
 470              		.loc 1 167 0
 471 0018 9A60     		str	r2, [r3, #8]
 472              		.loc 1 168 0
 473 001a FFF7FEFF 		bl	dmaStreamRelease
 474              	.LVL27:
 475              		.loc 1 169 0
 476 001e 054A     		ldr	r2, .L49+8
 477 0020 9369     		ldr	r3, [r2, #24]
 478 0022 23F40073 		bic	r3, r3, #512
 479 0026 9361     		str	r3, [r2, #24]
 480 0028 EEE7     		b	.L45
 481              	.L50:
 482 002a 00BF     		.align	2
 483              	.L49:
 484 002c 00000000 		.word	.LANCHOR0
 485 0030 00240140 		.word	1073816576
 486 0034 00100240 		.word	1073876992
 487              		.cfi_endproc
 488              	.LFE210:
 489              		.size	adc_lld_stop, .-adc_lld_stop
 490              		.section	.text.adc_lld_start_conversion,"ax",%progbits
 491              		.align	2
 492              		.p2align 4,,15
 493              		.global	adc_lld_start_conversion
 494              		.thumb
 495              		.thumb_func
 496              		.type	adc_lld_start_conversion, %function
 497              	adc_lld_start_conversion:
 498              	.LFB211:
 499              		.loc 1 182 0
 500              		.cfi_startproc
 501              		@ args = 0, pretend = 0, frame = 0
 502              		@ frame_needed = 0, uses_anonymous_args = 0
 503              		@ link register save eliminated.
 504              	.LVL28:
 505              		.loc 1 184 0
 506 0000 0369     		ldr	r3, [r0, #16]
 507              	.LVL29:
 508              		.loc 1 182 0
 509 0002 F0B4     		push	{r4, r5, r6, r7}
 510              		.cfi_def_cfa_offset 16
 511              		.cfi_offset 4, -16
 512              		.cfi_offset 5, -12
 513              		.cfi_offset 6, -8
ARM GAS  /tmp/ccT0wPuQ.s 			page 10


 514              		.cfi_offset 7, -4
 515              		.loc 1 188 0
 516 0004 1A78     		ldrb	r2, [r3]	@ zero_extendqisi2
 517              		.loc 1 187 0
 518 0006 C169     		ldr	r1, [r0, #28]
 519              	.LVL30:
 520              		.loc 1 190 0
 521 0008 C468     		ldr	r4, [r0, #12]
 522              		.loc 1 188 0
 523 000a 2AB1     		cbz	r2, .L53
 524              	.LVL31:
 525              		.loc 1 190 0
 526 000c 012C     		cmp	r4, #1
 527              		.loc 1 189 0
 528 000e 94BF     		ite	ls
 529 0010 41F02001 		orrls	r1, r1, #32
 530              	.LVL32:
 531              		.loc 1 193 0
 532 0014 41F02401 		orrhi	r1, r1, #36
 533              	.LVL33:
 534              	.L53:
 535              		.loc 1 197 0
 536 0018 5A88     		ldrh	r2, [r3, #2]
 537              		.loc 1 196 0
 538 001a 8569     		ldr	r5, [r0, #24]
 539              		.loc 1 197 0
 540 001c 02FB04F2 		mul	r2, r2, r4
 541              		.loc 1 196 0
 542 0020 8668     		ldr	r6, [r0, #8]
 543 0022 6C68     		ldr	r4, [r5, #4]
 544              		.loc 1 203 0
 545 0024 DD68     		ldr	r5, [r3, #12]
 546              		.loc 1 196 0
 547 0026 E660     		str	r6, [r4, #12]
 548              		.loc 1 197 0
 549 0028 6260     		str	r2, [r4, #4]
 550              		.loc 1 199 0
 551 002a 2160     		str	r1, [r4]
 552              		.loc 1 200 0
 553 002c 2668     		ldr	r6, [r4]
 554              		.loc 1 204 0
 555 002e 1969     		ldr	r1, [r3, #16]
 556              	.LVL34:
 557              		.loc 1 203 0
 558 0030 4269     		ldr	r2, [r0, #20]
 559              		.loc 1 205 0
 560 0032 11F4841F 		tst	r1, #1081344
 561              		.loc 1 203 0
 562 0036 45F48070 		orr	r0, r5, #256
 563              	.LVL35:
 564              		.loc 1 200 0
 565 003a 46F00106 		orr	r6, r6, #1
 566 003e 2660     		str	r6, [r4]
 567              	.LVL36:
 568              		.loc 1 203 0
 569 0040 5060     		str	r0, [r2, #4]
 570              		.loc 1 204 0
ARM GAS  /tmp/ccT0wPuQ.s 			page 11


 571 0042 14BF     		ite	ne
 572 0044 41F48070 		orrne	r0, r1, #256
 573              		.loc 1 206 0
 574 0048 41F48170 		orreq	r0, r1, #258
 575              		.loc 1 208 0
 576 004c 5F69     		ldr	r7, [r3, #20]
 577              		.loc 1 209 0
 578 004e 9E69     		ldr	r6, [r3, #24]
 579              		.loc 1 210 0
 580 0050 DD69     		ldr	r5, [r3, #28]
 581              		.loc 1 211 0
 582 0052 1C6A     		ldr	r4, [r3, #32]
 583              		.loc 1 206 0
 584 0054 40F00100 		orr	r0, r0, #1
 585              	.LVL37:
 586              		.loc 1 212 0
 587 0058 5B6A     		ldr	r3, [r3, #36]
 588              	.LVL38:
 589              		.loc 1 207 0
 590 005a 0143     		orrs	r1, r1, r0
 591 005c 9160     		str	r1, [r2, #8]
 592              		.loc 1 208 0
 593 005e D760     		str	r7, [r2, #12]
 594              		.loc 1 209 0
 595 0060 1661     		str	r6, [r2, #16]
 596              		.loc 1 210 0
 597 0062 D562     		str	r5, [r2, #44]
 598              		.loc 1 211 0
 599 0064 1463     		str	r4, [r2, #48]
 600              		.loc 1 212 0
 601 0066 5363     		str	r3, [r2, #52]
 602              		.loc 1 216 0
 603 0068 F0BC     		pop	{r4, r5, r6, r7}
 604              		.cfi_restore 7
 605              		.cfi_restore 6
 606              		.cfi_restore 5
 607              		.cfi_restore 4
 608              		.cfi_def_cfa_offset 0
 609              		.loc 1 215 0
 610 006a 9060     		str	r0, [r2, #8]
 611              		.loc 1 216 0
 612 006c 7047     		bx	lr
 613              		.cfi_endproc
 614              	.LFE211:
 615              		.size	adc_lld_start_conversion, .-adc_lld_start_conversion
 616 006e 00BF     		.section	.text.adc_lld_stop_conversion,"ax",%progbits
 617              		.align	2
 618              		.p2align 4,,15
 619              		.global	adc_lld_stop_conversion
 620              		.thumb
 621              		.thumb_func
 622              		.type	adc_lld_stop_conversion, %function
 623              	adc_lld_stop_conversion:
 624              	.LFB212:
 625              		.loc 1 225 0
 626              		.cfi_startproc
 627              		@ args = 0, pretend = 0, frame = 0
ARM GAS  /tmp/ccT0wPuQ.s 			page 12


 628              		@ frame_needed = 0, uses_anonymous_args = 0
 629              		@ link register save eliminated.
 630              	.LVL39:
 631              		.loc 1 227 0
 632 0000 8269     		ldr	r2, [r0, #24]
 633              		.loc 1 225 0
 634 0002 30B4     		push	{r4, r5}
 635              		.cfi_def_cfa_offset 8
 636              		.cfi_offset 4, -8
 637              		.cfi_offset 5, -4
 638              		.loc 1 228 0
 639 0004 4469     		ldr	r4, [r0, #20]
 640              		.loc 1 227 0
 641 0006 5068     		ldr	r0, [r2, #4]
 642              	.LVL40:
 643 0008 1568     		ldr	r5, [r2]
 644 000a 0168     		ldr	r1, [r0]
 645 000c 0F23     		movs	r3, #15
 646 000e 21F00F01 		bic	r1, r1, #15
 647 0012 0160     		str	r1, [r0]
 648 0014 117C     		ldrb	r1, [r2, #16]	@ zero_extendqisi2
 649              		.loc 1 228 0
 650 0016 0022     		movs	r2, #0
 651              		.loc 1 227 0
 652 0018 8B40     		lsls	r3, r3, r1
 653 001a 6B60     		str	r3, [r5, #4]
 654              		.loc 1 228 0
 655 001c A260     		str	r2, [r4, #8]
 656              		.loc 1 229 0
 657 001e 30BC     		pop	{r4, r5}
 658              		.cfi_restore 5
 659              		.cfi_restore 4
 660              		.cfi_def_cfa_offset 0
 661 0020 7047     		bx	lr
 662              		.cfi_endproc
 663              	.LFE212:
 664              		.size	adc_lld_stop_conversion, .-adc_lld_stop_conversion
 665              		.global	ADCD1
 666 0022 00BF     		.section	.bss.ADCD1,"aw",%nobits
 667              		.align	2
 668              		.set	.LANCHOR0,. + 0
 669              		.type	ADCD1, %object
 670              		.size	ADCD1, 32
 671              	ADCD1:
 672 0000 00000000 		.space	32
 672      00000000 
 672      00000000 
 672      00000000 
 672      00000000 
 673              		.text
 674              	.Letext0:
 675              		.file 2 "/opt/stm32/gcc/gcc-arm-none-eabi-4_9-2015q2/lib/gcc/arm-none-eabi/4.9.3/include/stddef.h"
 676              		.file 3 "/opt/stm32/gcc/gcc-arm-none-eabi-4_9-2015q2/arm-none-eabi/include/machine/_default_types.
 677              		.file 4 "/opt/stm32/gcc/gcc-arm-none-eabi-4_9-2015q2/arm-none-eabi/include/sys/_stdint.h"
 678              		.file 5 "/home/maciek/ChibiOS_16.1.5/os/rt/ports/ARMCMx/compilers/GCC/chtypes.h"
 679              		.file 6 "/home/maciek/ChibiOS_16.1.5/os/rt/include/chsystypes.h"
 680              		.file 7 "/home/maciek/ChibiOS_16.1.5/os/rt/include/chschd.h"
ARM GAS  /tmp/ccT0wPuQ.s 			page 13


 681              		.file 8 "/home/maciek/ChibiOS_16.1.5/os/ext/CMSIS/ST/STM32F1xx/stm32f103xe.h"
 682              		.file 9 "/home/maciek/ChibiOS_16.1.5/os/rt/ports/ARMCMx/chcore.h"
 683              		.file 10 "/home/maciek/ChibiOS_16.1.5/os/rt/ports/ARMCMx/chcore_v7m.h"
 684              		.file 11 "/home/maciek/ChibiOS_16.1.5/os/rt/include/chtm.h"
 685              		.file 12 "/home/maciek/ChibiOS_16.1.5/os/rt/include/chsem.h"
 686              		.file 13 "/home/maciek/ChibiOS_16.1.5/os/rt/include/chmtx.h"
 687              		.file 14 "/home/maciek/ChibiOS_16.1.5/os/hal/ports/STM32/LLD/DMAv1/stm32_dma.h"
 688              		.file 15 "/home/maciek/ChibiOS_16.1.5/os/hal/include/adc.h"
 689              		.file 16 "/home/maciek/ChibiOS_16.1.5/os/hal/ports/STM32/STM32F1xx/adc_lld.h"
 690              		.file 17 "/home/maciek/ChibiOS_16.1.5/os/ext/CMSIS/include/core_cm3.h"