ARM GAS  /tmp/ccT0wPuQ.s 			page 1


   1              		.syntax unified
   2              		.cpu cortex-m3
   3              		.fpu softvfp
   4              		.eabi_attribute 20, 1
   5              		.eabi_attribute 21, 1
   6              		.eabi_attribute 23, 3
   7              		.eabi_attribute 24, 1
   8              		.eabi_attribute 25, 1
   9              		.eabi_attribute 26, 1
  10              		.eabi_attribute 30, 2
  11              		.eabi_attribute 34, 1
  12              		.eabi_attribute 18, 4
  13              		.thumb
  14              		.file	"adc_lld.c"
  15              		.text
  16              	.Ltext0:
  17              		.cfi_sections	.debug_frame
  18              		.section	.text.adc_lld_serve_rx_interrupt,"ax",%progbits
  19              		.align	2
  20              		.p2align 4,,15
  21              		.thumb
  22              		.thumb_func
  23              		.type	adc_lld_serve_rx_interrupt, %function
  24              	adc_lld_serve_rx_interrupt:
  25              	.LFB207:
  26              		.file 1 "/home/maciek/ChibiOS_16.1.5/os/hal/ports/STM32/STM32F1xx/adc_lld.c"
  27              		.loc 1 56 0
  28              		.cfi_startproc
  29              		@ args = 0, pretend = 0, frame = 0
  30              		@ frame_needed = 0, uses_anonymous_args = 0
  31              	.LVL0:
  32 0000 2DE9F041 		push	{r4, r5, r6, r7, r8, lr}
  33              		.cfi_def_cfa_offset 24
  34              		.cfi_offset 4, -24
  35              		.cfi_offset 5, -20
  36              		.cfi_offset 6, -16
  37              		.cfi_offset 7, -12
  38              		.cfi_offset 8, -8
  39              		.cfi_offset 14, -4
  40              		.loc 1 59 0
  41 0004 0D07     		lsls	r5, r1, #28
  42              		.loc 1 56 0
  43 0006 0446     		mov	r4, r0
  44              		.loc 1 59 0
  45 0008 1DD5     		bpl	.L2
  46              	.LVL1:
  47              	.LBB21:
  48              	.LBB22:
  49              		.loc 1 227 0
  50 000a 8269     		ldr	r2, [r0, #24]
  51              	.LBE22:
  52              	.LBE21:
  53              		.loc 1 62 0
  54 000c 0769     		ldr	r7, [r0, #16]
  55              	.LBB25:
  56              	.LBB23:
  57              		.loc 1 227 0
ARM GAS  /tmp/ccT0wPuQ.s 			page 2


  58 000e 5568     		ldr	r5, [r2, #4]
  59 0010 1668     		ldr	r6, [r2]
  60 0012 2968     		ldr	r1, [r5]
  61              	.LVL2:
  62 0014 0F23     		movs	r3, #15
  63 0016 21F00F01 		bic	r1, r1, #15
  64 001a 2960     		str	r1, [r5]
  65 001c 117C     		ldrb	r1, [r2, #16]	@ zero_extendqisi2
  66              		.loc 1 228 0
  67 001e 4569     		ldr	r5, [r0, #20]
  68              	.LBE23:
  69              	.LBE25:
  70              		.loc 1 62 0
  71 0020 BA68     		ldr	r2, [r7, #8]
  72              	.LBB26:
  73              	.LBB24:
  74              		.loc 1 227 0
  75 0022 8B40     		lsls	r3, r3, r1
  76              		.loc 1 228 0
  77 0024 0021     		movs	r1, #0
  78              		.loc 1 227 0
  79 0026 7360     		str	r3, [r6, #4]
  80              		.loc 1 228 0
  81 0028 A960     		str	r1, [r5, #8]
  82              	.LBE24:
  83              	.LBE26:
  84              		.loc 1 62 0
  85 002a 002A     		cmp	r2, #0
  86 002c 47D0     		beq	.L3
  87              		.loc 1 62 0 is_stmt 0 discriminator 1
  88 002e 0523     		movs	r3, #5
  89 0030 0370     		strb	r3, [r0]
  90 0032 9047     		blx	r2
  91              	.LVL3:
  92 0034 2378     		ldrb	r3, [r4]	@ zero_extendqisi2
  93 0036 052B     		cmp	r3, #5
  94 0038 04BF     		itt	eq
  95 003a 0223     		moveq	r3, #2
  96 003c 2370     		strbeq	r3, [r4]
  97 003e 0023     		movs	r3, #0
  98 0040 2361     		str	r3, [r4, #16]
  99 0042 BDE8F081 		pop	{r4, r5, r6, r7, r8, pc}
 100              	.LVL4:
 101              	.L2:
 102              	.LBB27:
 103              	.LBB28:
 104              		.loc 1 65 0 is_stmt 1
 105 0046 8A07     		lsls	r2, r1, #30
 106 0048 13D5     		bpl	.L6
 107              		.loc 1 67 0
 108 004a 0369     		ldr	r3, [r0, #16]
 109 004c 1A78     		ldrb	r2, [r3]	@ zero_extendqisi2
 110 004e DAB1     		cbz	r2, .L7
 111 0050 5D68     		ldr	r5, [r3, #4]
 112 0052 002D     		cmp	r5, #0
 113 0054 31D0     		beq	.L1
 114 0056 C268     		ldr	r2, [r0, #12]
ARM GAS  /tmp/ccT0wPuQ.s 			page 3


 115 0058 012A     		cmp	r2, #1
 116 005a 36D9     		bls	.L9
 117              	.LBB29:
 118 005c 5B88     		ldrh	r3, [r3, #2]
 119 005e 5208     		lsrs	r2, r2, #1
 120              	.LVL5:
 121 0060 03FB02F3 		mul	r3, r3, r2
 122 0064 8168     		ldr	r1, [r0, #8]
 123              	.LVL6:
 124 0066 01EB4301 		add	r1, r1, r3, lsl #1
 125 006a 2B46     		mov	r3, r5
 126              	.LBE29:
 127              	.LBE28:
 128              	.LBE27:
 129              		.loc 1 74 0
 130 006c BDE8F041 		pop	{r4, r5, r6, r7, r8, lr}
 131              		.cfi_remember_state
 132              		.cfi_restore 14
 133              		.cfi_restore 8
 134              		.cfi_restore 7
 135              		.cfi_restore 6
 136              		.cfi_restore 5
 137              		.cfi_restore 4
 138              		.cfi_def_cfa_offset 0
 139              	.LBB39:
 140              	.LBB35:
 141              	.LBB30:
 142              		.loc 1 67 0
 143 0070 1847     		bx	r3	@ indirect register sibling call
 144              	.LVL7:
 145              	.L6:
 146              		.cfi_restore_state
 147              	.LBE30:
 148              		.loc 1 69 0
 149 0072 4B07     		lsls	r3, r1, #29
 150 0074 21D5     		bpl	.L1
 151              		.loc 1 71 0
 152 0076 0369     		ldr	r3, [r0, #16]
 153 0078 5B68     		ldr	r3, [r3, #4]
 154 007a F3B1     		cbz	r3, .L1
 155              	.LBE35:
 156              	.LBE39:
 157              		.loc 1 74 0
 158 007c BDE8F041 		pop	{r4, r5, r6, r7, r8, lr}
 159              		.cfi_remember_state
 160              		.cfi_restore 14
 161              		.cfi_restore 8
 162              		.cfi_restore 7
 163              		.cfi_restore 6
 164              		.cfi_restore 5
 165              		.cfi_restore 4
 166              		.cfi_def_cfa_offset 0
 167              	.LBB40:
 168              	.LBB36:
 169              		.loc 1 71 0
 170 0080 C268     		ldr	r2, [r0, #12]
 171 0082 8168     		ldr	r1, [r0, #8]
ARM GAS  /tmp/ccT0wPuQ.s 			page 4


 172              	.LVL8:
 173 0084 5208     		lsrs	r2, r2, #1
 174 0086 1847     		bx	r3	@ indirect register sibling call
 175              	.LVL9:
 176              	.L7:
 177              		.cfi_restore_state
 178              	.LBB31:
 179              	.LBB32:
 180              		.loc 1 227 0
 181 0088 8169     		ldr	r1, [r0, #24]
 182              	.LVL10:
 183              	.LBE32:
 184              	.LBE31:
 185              		.loc 1 67 0
 186 008a 5F68     		ldr	r7, [r3, #4]
 187              	.LBB34:
 188              	.LBB33:
 189              		.loc 1 227 0
 190 008c 4E68     		ldr	r6, [r1, #4]
 191 008e D1F800E0 		ldr	lr, [r1]
 192 0092 3568     		ldr	r5, [r6]
 193 0094 0F23     		movs	r3, #15
 194 0096 25F00F05 		bic	r5, r5, #15
 195 009a 3560     		str	r5, [r6]
 196 009c 0D7C     		ldrb	r5, [r1, #16]	@ zero_extendqisi2
 197              		.loc 1 228 0
 198 009e 4169     		ldr	r1, [r0, #20]
 199              		.loc 1 227 0
 200 00a0 AB40     		lsls	r3, r3, r5
 201 00a2 CEF80430 		str	r3, [lr, #4]
 202              		.loc 1 228 0
 203 00a6 8A60     		str	r2, [r1, #8]
 204              	.LBE33:
 205              	.LBE34:
 206              		.loc 1 67 0
 207 00a8 4FB1     		cbz	r7, .L3
 208 00aa 0423     		movs	r3, #4
 209 00ac 0370     		strb	r3, [r0]
 210 00ae 8168     		ldr	r1, [r0, #8]
 211 00b0 C268     		ldr	r2, [r0, #12]
 212 00b2 B847     		blx	r7
 213              	.LVL11:
 214 00b4 2378     		ldrb	r3, [r4]	@ zero_extendqisi2
 215 00b6 042B     		cmp	r3, #4
 216 00b8 01D0     		beq	.L3
 217              	.LVL12:
 218              	.L1:
 219 00ba BDE8F081 		pop	{r4, r5, r6, r7, r8, pc}
 220              	.LVL13:
 221              	.L3:
 222              	.LBE36:
 223              	.LBE40:
 224              		.loc 1 62 0 discriminator 2
 225 00be 0222     		movs	r2, #2
 226 00c0 0023     		movs	r3, #0
 227 00c2 2270     		strb	r2, [r4]
 228 00c4 2361     		str	r3, [r4, #16]
ARM GAS  /tmp/ccT0wPuQ.s 			page 5


 229 00c6 BDE8F081 		pop	{r4, r5, r6, r7, r8, pc}
 230              	.LVL14:
 231              	.L9:
 232              	.LBB41:
 233              	.LBB37:
 234              		.loc 1 67 0
 235 00ca 2B46     		mov	r3, r5
 236              	.LBE37:
 237              	.LBE41:
 238              		.loc 1 74 0
 239 00cc BDE8F041 		pop	{r4, r5, r6, r7, r8, lr}
 240              		.cfi_restore 14
 241              		.cfi_restore 8
 242              		.cfi_restore 7
 243              		.cfi_restore 6
 244              		.cfi_restore 5
 245              		.cfi_restore 4
 246              		.cfi_def_cfa_offset 0
 247              	.LBB42:
 248              	.LBB38:
 249              		.loc 1 67 0
 250 00d0 8168     		ldr	r1, [r0, #8]
 251              	.LVL15:
 252 00d2 1847     		bx	r3	@ indirect register sibling call
 253              	.LVL16:
 254              	.LBE38:
 255              	.LBE42:
 256              		.cfi_endproc
 257              	.LFE207:
 258              		.size	adc_lld_serve_rx_interrupt, .-adc_lld_serve_rx_interrupt
 259              		.section	.text.adc_lld_init,"ax",%progbits
 260              		.align	2
 261              		.p2align 4,,15
 262              		.global	adc_lld_init
 263              		.thumb
 264              		.thumb_func
 265              		.type	adc_lld_init, %function
 266              	adc_lld_init:
 267              	.LFB208:
 268              		.loc 1 89 0
 269              		.cfi_startproc
 270              		@ args = 0, pretend = 0, frame = 0
 271              		@ frame_needed = 0, uses_anonymous_args = 0
 272 0000 F8B5     		push	{r3, r4, r5, r6, r7, lr}
 273              		.cfi_def_cfa_offset 24
 274              		.cfi_offset 3, -24
 275              		.cfi_offset 4, -20
 276              		.cfi_offset 5, -16
 277              		.cfi_offset 6, -12
 278              		.cfi_offset 7, -8
 279              		.cfi_offset 14, -4
 280              		.loc 1 93 0
 281 0002 164C     		ldr	r4, .L34
 282              		.loc 1 103 0
 283 0004 0027     		movs	r7, #0
 284              		.loc 1 93 0
 285 0006 2046     		mov	r0, r4
ARM GAS  /tmp/ccT0wPuQ.s 			page 6


 286 0008 FFF7FEFF 		bl	adcObjectInit
 287              	.LVL17:
 288              		.loc 1 94 0
 289 000c 144B     		ldr	r3, .L34+4
 290              		.loc 1 96 0
 291 000e 42F28A5E 		movw	lr, #9610
 292              		.loc 1 108 0
 293 0012 1946     		mov	r1, r3
 294              		.loc 1 102 0
 295 0014 1348     		ldr	r0, .L34+8
 296              		.loc 1 95 0
 297 0016 DFF850C0 		ldr	ip, .L34+12
 298              		.loc 1 102 0
 299 001a 8269     		ldr	r2, [r0, #24]
 300              		.loc 1 104 0
 301 001c 0126     		movs	r6, #1
 302              		.loc 1 102 0
 303 001e 42F40072 		orr	r2, r2, #512
 304              		.loc 1 107 0
 305 0022 0925     		movs	r5, #9
 306              		.loc 1 95 0
 307 0024 C4F818C0 		str	ip, [r4, #24]
 308              		.loc 1 96 0
 309 0028 C4F81CE0 		str	lr, [r4, #28]
 310              		.loc 1 94 0
 311 002c 6361     		str	r3, [r4, #20]
 312              		.loc 1 102 0
 313 002e 8261     		str	r2, [r0, #24]
 314              		.loc 1 103 0
 315 0030 5F60     		str	r7, [r3, #4]
 316              		.loc 1 104 0
 317 0032 9E60     		str	r6, [r3, #8]
 318              		.loc 1 107 0
 319 0034 9D60     		str	r5, [r3, #8]
 320              	.L29:
 321              		.loc 1 108 0 discriminator 1
 322 0036 8B68     		ldr	r3, [r1, #8]
 323 0038 094A     		ldr	r2, .L34+4
 324 003a 1B07     		lsls	r3, r3, #28
 325 003c FBD4     		bmi	.L29
 326              		.loc 1 113 0
 327 003e 1146     		mov	r1, r2
 328              		.loc 1 112 0
 329 0040 0523     		movs	r3, #5
 330 0042 9360     		str	r3, [r2, #8]
 331              	.L30:
 332              		.loc 1 113 0 discriminator 1
 333 0044 8B68     		ldr	r3, [r1, #8]
 334 0046 064A     		ldr	r2, .L34+4
 335 0048 13F00403 		ands	r3, r3, #4
 336 004c FAD1     		bne	.L30
 337              		.loc 1 118 0
 338 004e 0549     		ldr	r1, .L34+8
 339              		.loc 1 117 0
 340 0050 9360     		str	r3, [r2, #8]
 341              		.loc 1 118 0
 342 0052 8B69     		ldr	r3, [r1, #24]
ARM GAS  /tmp/ccT0wPuQ.s 			page 7


 343 0054 23F40073 		bic	r3, r3, #512
 344 0058 8B61     		str	r3, [r1, #24]
 345 005a F8BD     		pop	{r3, r4, r5, r6, r7, pc}
 346              	.L35:
 347              		.align	2
 348              	.L34:
 349 005c 00000000 		.word	.LANCHOR0
 350 0060 00240140 		.word	1073816576
 351 0064 00100240 		.word	1073876992
 352 0068 00000000 		.word	_stm32_dma_streams
 353              		.cfi_endproc
 354              	.LFE208:
 355              		.size	adc_lld_init, .-adc_lld_init
 356              		.section	.text.adc_lld_start,"ax",%progbits
 357              		.align	2
 358              		.p2align 4,,15
 359              		.global	adc_lld_start
 360              		.thumb
 361              		.thumb_func
 362              		.type	adc_lld_start, %function
 363              	adc_lld_start:
 364              	.LFB209:
 365              		.loc 1 129 0
 366              		.cfi_startproc
 367              		@ args = 0, pretend = 0, frame = 0
 368              		@ frame_needed = 0, uses_anonymous_args = 0
 369              	.LVL18:
 370              		.loc 1 132 0
 371 0000 0378     		ldrb	r3, [r0]	@ zero_extendqisi2
 372 0002 012B     		cmp	r3, #1
 373 0004 00D0     		beq	.L41
 374 0006 7047     		bx	lr
 375              	.L41:
 376              		.loc 1 134 0
 377 0008 0C4B     		ldr	r3, .L43
 378              		.loc 1 129 0
 379 000a 10B5     		push	{r4, lr}
 380              		.cfi_def_cfa_offset 8
 381              		.cfi_offset 4, -8
 382              		.cfi_offset 14, -4
 383              		.loc 1 134 0
 384 000c 9842     		cmp	r0, r3
 385 000e 0446     		mov	r4, r0
 386 0010 04D0     		beq	.L42
 387              	.LVL19:
 388              	.L38:
 389              		.loc 1 148 0
 390 0012 6369     		ldr	r3, [r4, #20]
 391 0014 0022     		movs	r2, #0
 392 0016 5A60     		str	r2, [r3, #4]
 393              		.loc 1 149 0
 394 0018 9A60     		str	r2, [r3, #8]
 395 001a 10BD     		pop	{r4, pc}
 396              	.LVL20:
 397              	.L42:
 398              	.LBB43:
 399              		.loc 1 136 0
ARM GAS  /tmp/ccT0wPuQ.s 			page 8


 400 001c 0621     		movs	r1, #6
 401 001e 084A     		ldr	r2, .L43+4
 402 0020 2346     		mov	r3, r4
 403 0022 8069     		ldr	r0, [r0, #24]
 404              	.LVL21:
 405 0024 FFF7FEFF 		bl	dmaStreamAllocate
 406              	.LVL22:
 407              		.loc 1 141 0
 408 0028 A369     		ldr	r3, [r4, #24]
 409 002a 0649     		ldr	r1, .L43+8
 410 002c 5B68     		ldr	r3, [r3, #4]
 411              		.loc 1 142 0
 412 002e 064A     		ldr	r2, .L43+12
 413              		.loc 1 141 0
 414 0030 9960     		str	r1, [r3, #8]
 415              		.loc 1 142 0
 416 0032 9369     		ldr	r3, [r2, #24]
 417 0034 43F40073 		orr	r3, r3, #512
 418 0038 9361     		str	r3, [r2, #24]
 419 003a EAE7     		b	.L38
 420              	.L44:
 421              		.align	2
 422              	.L43:
 423 003c 00000000 		.word	.LANCHOR0
 424 0040 00000000 		.word	adc_lld_serve_rx_interrupt
 425 0044 4C240140 		.word	1073816652
 426 0048 00100240 		.word	1073876992
 427              	.LBE43:
 428              		.cfi_endproc
 429              	.LFE209:
 430              		.size	adc_lld_start, .-adc_lld_start
 431              		.section	.text.adc_lld_stop,"ax",%progbits
 432              		.align	2
 433              		.p2align 4,,15
 434              		.global	adc_lld_stop
 435              		.thumb
 436              		.thumb_func
 437              		.type	adc_lld_stop, %function
 438              	adc_lld_stop:
 439              	.LFB210:
 440              		.loc 1 160 0
 441              		.cfi_startproc
 442              		@ args = 0, pretend = 0, frame = 0
 443              		@ frame_needed = 0, uses_anonymous_args = 0
 444              	.LVL23:
 445 0000 08B5     		push	{r3, lr}
 446              		.cfi_def_cfa_offset 8
 447              		.cfi_offset 3, -8
 448              		.cfi_offset 14, -4
 449              		.loc 1 163 0
 450 0002 0378     		ldrb	r3, [r0]	@ zero_extendqisi2
 451 0004 022B     		cmp	r3, #2
 452 0006 00D0     		beq	.L48
 453              	.LVL24:
 454              	.L45:
 455 0008 08BD     		pop	{r3, pc}
 456              	.LVL25:
ARM GAS  /tmp/ccT0wPuQ.s 			page 9


 457              	.L48:
 458              		.loc 1 165 0
 459 000a 084B     		ldr	r3, .L49
 460 000c 9842     		cmp	r0, r3
 461 000e FBD1     		bne	.L45
 462              		.loc 1 166 0
 463 0010 074B     		ldr	r3, .L49+4
 464 0012 0022     		movs	r2, #0
 465              		.loc 1 168 0
 466 0014 8069     		ldr	r0, [r0, #24]
 467              	.LVL26:
 468              		.loc 1 166 0
 469 0016 5A60     		str	r2, [r3, #4]
 470              		.loc 1 167 0
 471 0018 9A60     		str	r2, [r3, #8]
 472              		.loc 1 168 0
 473 001a FFF7FEFF 		bl	dmaStreamRelease
 474              	.LVL27:
 475              		.loc 1 169 0
 476 001e 054A     		ldr	r2, .L49+8
 477 0020 9369     		ldr	r3, [r2, #24]
 478 0022 23F40073 		bic	r3, r3, #512
 479 0026 9361     		str	r3, [r2, #24]
 480 0028 EEE7     		b	.L45
 481              	.L50:
 482 002a 00BF     		.align	2
 483              	.L49:
 484 002c 00000000 		.word	.LANCHOR0
 485 0030 00240140 		.word	1073816576
 486 0034 00100240 		.word	1073876992
 487              		.cfi_endproc
 488              	.LFE210:
 489              		.size	adc_lld_stop, .-adc_lld_stop
 490              		.section	.text.adc_lld_start_conversion,"ax",%progbits
 491              		.align	2
 492              		.p2align 4,,15
 493              		.global	adc_lld_start_conversion
 494              		.thumb
 495              		.thumb_func
 496              		.type	adc_lld_start_conversion, %function
 497              	adc_lld_start_conversion:
 498              	.LFB211:
 499              		.loc 1 182 0
 500              		.cfi_startproc
 501              		@ args = 0, pretend = 0, frame = 0
 502              		@ frame_needed = 0, uses_anonymous_args = 0
 503              		@ link register save eliminated.
 504              	.LVL28:
 505              		.loc 1 184 0
 506 0000 0369     		ldr	r3, [r0, #16]
 507              	.LVL29:
 508              		.loc 1 182 0
 509 0002 F0B4     		push	{r4, r5, r6, r7}
 510              		.cfi_def_cfa_offset 16
 511              		.cfi_offset 4, -16
 512              		.cfi_offset 5, -12
 513              		.cfi_offset 6, -8
ARM GAS  /tmp/ccT0wPuQ.s 			page 10


 514              		.cfi_offset 7, -4
 515              		.loc 1 188 0
 516 0004 1A78     		ldrb	r2, [r3]	@ zero_extendqisi2
 517              		.loc 1 187 0
 518 0006 C169     		ldr	r1, [r0, #28]
 519              	.LVL30:
 520              		.loc 1 190 0
 521 0008 C468     		ldr	r4, [r0, #12]
 522              		.loc 1 188 0
 523 000a 2AB1     		cbz	r2, .L53
 524              	.LVL31:
 525              		.loc 1 190 0
 526 000c 012C     		cmp	r4, #1
 527              		.loc 1 189 0
 528 000e 94BF     		ite	ls
 529 0010 41F02001 		orrls	r1, r1, #32
 530              	.LVL32:
 531              		.loc 1 193 0
 532 0014 41F02401 		orrhi	r1, r1, #36
 533              	.LVL33:
 534              	.L53:
 535              		.loc 1 197 0
 536 0018 5A88     		ldrh	r2, [r3, #2]
 537              		.loc 1 196 0
 538 001a 8569     		ldr	r5, [r0, #24]
 539              		.loc 1 197 0
 540 001c 02FB04F2 		mul	r2, r2, r4
 541              		.loc 1 196 0
 542 0020 8668     		ldr	r6, [r0, #8]
 543 0022 6C68     		ldr	r4, [r5, #4]
 544              		.loc 1 203 0
 545 0024 DD68     		ldr	r5, [r3, #12]
 546              		.loc 1 196 0
 547 0026 E660     		str	r6, [r4, #12]
 548              		.loc 1 197 0
 549 0028 6260     		str	r2, [r4, #4]
 550              		.loc 1 199 0
 551 002a 2160     		str	r1, [r4]
 552              		.loc 1 200 0
 553 002c 2668     		ldr	r6, [r4]
 554              		.loc 1 204 0
 555 002e 1969     		ldr	r1, [r3, #16]
 556              	.LVL34:
 557              		.loc 1 203 0
 558 0030 4269     		ldr	r2, [r0, #20]
 559              		.loc 1 205 0
 560 0032 11F4841F 		tst	r1, #1081344
 561              		.loc 1 203 0
 562 0036 45F48070 		orr	r0, r5, #256
 563              	.LVL35:
 564              		.loc 1 200 0
 565 003a 46F00106 		orr	r6, r6, #1
 566 003e 2660     		str	r6, [r4]
 567              	.LVL36:
 568              		.loc 1 203 0
 569 0040 5060     		str	r0, [r2, #4]
 570              		.loc 1 204 0
ARM GAS  /tmp/ccT0wPuQ.s 			page 11


 571 0042 14BF     		ite	ne
 572 0044 41F48070 		orrne	r0, r1, #256
 573              		.loc 1 206 0
 574 0048 41F48170 		orreq	r0, r1, #258
 575              		.loc 1 208 0
 576 004c 5F69     		ldr	r7, [r3, #20]
 577              		.loc 1 209 0
 578 004e 9E69     		ldr	r6, [r3, #24]
 579              		.loc 1 210 0
 580 0050 DD69     		ldr	r5, [r3, #28]
 581              		.loc 1 211 0
 582 0052 1C6A     		ldr	r4, [r3, #32]
 583              		.loc 1 206 0
 584 0054 40F00100 		orr	r0, r0, #1
 585              	.LVL37:
 586              		.loc 1 212 0
 587 0058 5B6A     		ldr	r3, [r3, #36]
 588              	.LVL38:
 589              		.loc 1 207 0
 590 005a 0143     		orrs	r1, r1, r0
 591 005c 9160     		str	r1, [r2, #8]
 592              		.loc 1 208 0
 593 005e D760     		str	r7, [r2, #12]
 594              		.loc 1 209 0
 595 0060 1661     		str	r6, [r2, #16]
 596              		.loc 1 210 0
 597 0062 D562     		str	r5, [r2, #44]
 598              		.loc 1 211 0
 599 0064 1463     		str	r4, [r2, #48]
 600              		.loc 1 212 0
 601 0066 5363     		str	r3, [r2, #52]
 602              		.loc 1 216 0
 603 0068 F0BC     		pop	{r4, r5, r6, r7}
 604              		.cfi_restore 7
 605              		.cfi_restore 6
 606              		.cfi_restore 5
 607              		.cfi_restore 4
 608              		.cfi_def_cfa_offset 0
 609              		.loc 1 215 0
 610 006a 9060     		str	r0, [r2, #8]
 611              		.loc 1 216 0
 612 006c 7047     		bx	lr
 613              		.cfi_endproc
 614              	.LFE211:
 615              		.size	adc_lld_start_conversion, .-adc_lld_start_conversion
 616 006e 00BF     		.section	.text.adc_lld_stop_conversion,"ax",%progbits
 617              		.align	2
 618              		.p2align 4,,15
 619              		.global	adc_lld_stop_conversion
 620              		.thumb
 621              		.thumb_func
 622              		.type	adc_lld_stop_conversion, %function
 623              	adc_lld_stop_conversion:
 624              	.LFB212:
 625              		.loc 1 225 0
 626              		.cfi_startproc
 627              		@ args = 0, pretend = 0, frame = 0
ARM GAS  /tmp/ccT0wPuQ.s 			page 12


 628              		@ frame_needed = 0, uses_anonymous_args = 0
 629              		@ link register save eliminated.
 630              	.LVL39:
 631              		.loc 1 227 0
 632 0000 8269     		ldr	r2, [r0, #24]
 633              		.loc 1 225 0
 634 0002 30B4     		push	{r4, r5}
 635              		.cfi_def_cfa_offset 8
 636              		.cfi_offset 4, -8
 637              		.cfi_offset 5, -4
 638              		.loc 1 228 0
 639 0004 4469     		ldr	r4, [r0, #20]
 640              		.loc 1 227 0
 641 0006 5068     		ldr	r0, [r2, #4]
 642              	.LVL40:
 643 0008 1568     		ldr	r5, [r2]
 644 000a 0168     		ldr	r1, [r0]
 645 000c 0F23     		movs	r3, #15
 646 000e 21F00F01 		bic	r1, r1, #15
 647 0012 0160     		str	r1, [r0]
 648 0014 117C     		ldrb	r1, [r2, #16]	@ zero_extendqisi2
 649              		.loc 1 228 0
 650 0016 0022     		movs	r2, #0
 651              		.loc 1 227 0
 652 0018 8B40     		lsls	r3, r3, r1
 653 001a 6B60     		str	r3, [r5, #4]
 654              		.loc 1 228 0
 655 001c A260     		str	r2, [r4, #8]
 656              		.loc 1 229 0
 657 001e 30BC     		pop	{r4, r5}
 658              		.cfi_restore 5
 659              		.cfi_restore 4
 660              		.cfi_def_cfa_offset 0
 661 0020 7047     		bx	lr
 662              		.cfi_endproc
 663              	.LFE212:
 664              		.size	adc_lld_stop_conversion, .-adc_lld_stop_conversion
 665              		.global	ADCD1
 666 0022 00BF     		.section	.bss.ADCD1,"aw",%nobits
 667              		.align	2
 668              		.set	.LANCHOR0,. + 0
 669              		.type	ADCD1, %object
 670              		.size	ADCD1, 32
 671              	ADCD1:
 672 0000 00000000 		.space	32
 672      00000000 
 672      00000000 
 672      00000000 
 672      00000000 
 673              		.text
 674              	.Letext0:
 675              		.file 2 "/opt/stm32/gcc/gcc-arm-none-eabi-4_9-2015q2/lib/gcc/arm-none-eabi/4.9.3/include/stddef.h"
 676              		.file 3 "/opt/stm32/gcc/gcc-arm-none-eabi-4_9-2015q2/arm-none-eabi/include/machine/_default_types.
 677              		.file 4 "/opt/stm32/gcc/gcc-arm-none-eabi-4_9-2015q2/arm-none-eabi/include/sys/_stdint.h"
 678              		.file 5 "/home/maciek/ChibiOS_16.1.5/os/rt/ports/ARMCMx/compilers/GCC/chtypes.h"
 679              		.file 6 "/home/maciek/ChibiOS_16.1.5/os/rt/include/chsystypes.h"
 680              		.file 7 "/home/maciek/ChibiOS_16.1.5/os/rt/include/chschd.h"
ARM GAS  /tmp/ccT0wPuQ.s 			page 13


 681              		.file 8 "/home/maciek/ChibiOS_16.1.5/os/ext/CMSIS/ST/STM32F1xx/stm32f103xe.h"
 682              		.file 9 "/home/maciek/ChibiOS_16.1.5/os/rt/ports/ARMCMx/chcore.h"
 683              		.file 10 "/home/maciek/ChibiOS_16.1.5/os/rt/ports/ARMCMx/chcore_v7m.h"
 684              		.file 11 "/home/maciek/ChibiOS_16.1.5/os/rt/include/chtm.h"
 685              		.file 12 "/home/maciek/ChibiOS_16.1.5/os/rt/include/chsem.h"
 686              		.file 13 "/home/maciek/ChibiOS_16.1.5/os/rt/include/chmtx.h"
 687              		.file 14 "/home/maciek/ChibiOS_16.1.5/os/hal/ports/STM32/LLD/DMAv1/stm32_dma.h"
 688              		.file 15 "/home/maciek/ChibiOS_16.1.5/os/hal/include/adc.h"
 689              		.file 16 "/home/maciek/ChibiOS_16.1.5/os/hal/ports/STM32/STM32F1xx/adc_lld.h"
 690              		.file 17 "/home/maciek/ChibiOS_16.1.5/os/ext/CMSIS/include/core_cm3.h"
 691              		.section	.debug_info,"",%progbits
 692              	.Ldebug_info0:
 693 0000 CE0D0000 		.4byte	0xdce
 694 0004 0400     		.2byte	0x4
 695 0006 00000000 		.4byte	.Ldebug_abbrev0
 696 000a 04       		.byte	0x4
 697 000b 01       		.uleb128 0x1
 698 000c 31010000 		.4byte	.LASF184
 699 0010 01       		.byte	0x1
 700 0011 8D020000 		.4byte	.LASF185
 701 0015 80000000 		.4byte	.Ldebug_ranges0+0x80
 702 0019 00000000 		.4byte	0
 703 001d 00000000 		.4byte	.Ldebug_line0
 704 0021 02       		.uleb128 0x2
 705 0022 04       		.byte	0x4
 706 0023 05       		.byte	0x5
 707 0024 696E7400 		.ascii	"int\000"
 708 0028 03       		.uleb128 0x3
 709 0029 0D000000 		.4byte	.LASF2
 710 002d 02       		.byte	0x2
 711 002e D4       		.byte	0xd4
 712 002f 33000000 		.4byte	0x33
 713 0033 04       		.uleb128 0x4
 714 0034 04       		.byte	0x4
 715 0035 07       		.byte	0x7
 716 0036 7C030000 		.4byte	.LASF0
 717 003a 04       		.uleb128 0x4
 718 003b 01       		.byte	0x1
 719 003c 06       		.byte	0x6
 720 003d FE000000 		.4byte	.LASF1
 721 0041 03       		.uleb128 0x3
 722 0042 26000000 		.4byte	.LASF3
 723 0046 03       		.byte	0x3
 724 0047 1D       		.byte	0x1d
 725 0048 4C000000 		.4byte	0x4c
 726 004c 04       		.uleb128 0x4
 727 004d 01       		.byte	0x1
 728 004e 08       		.byte	0x8
 729 004f E1050000 		.4byte	.LASF4
 730 0053 04       		.uleb128 0x4
 731 0054 02       		.byte	0x2
 732 0055 05       		.byte	0x5
 733 0056 6D040000 		.4byte	.LASF5
 734 005a 03       		.uleb128 0x3
 735 005b 03070000 		.4byte	.LASF6
 736 005f 03       		.byte	0x3
 737 0060 2B       		.byte	0x2b
ARM GAS  /tmp/ccT0wPuQ.s 			page 14


 738 0061 65000000 		.4byte	0x65
 739 0065 04       		.uleb128 0x4
 740 0066 02       		.byte	0x2
 741 0067 07       		.byte	0x7
 742 0068 F5030000 		.4byte	.LASF7
 743 006c 03       		.uleb128 0x3
 744 006d 77040000 		.4byte	.LASF8
 745 0071 03       		.byte	0x3
 746 0072 3F       		.byte	0x3f
 747 0073 77000000 		.4byte	0x77
 748 0077 04       		.uleb128 0x4
 749 0078 04       		.byte	0x4
 750 0079 05       		.byte	0x5
 751 007a 3C020000 		.4byte	.LASF9
 752 007e 03       		.uleb128 0x3
 753 007f 0C030000 		.4byte	.LASF10
 754 0083 03       		.byte	0x3
 755 0084 41       		.byte	0x41
 756 0085 89000000 		.4byte	0x89
 757 0089 04       		.uleb128 0x4
 758 008a 04       		.byte	0x4
 759 008b 07       		.byte	0x7
 760 008c 0A010000 		.4byte	.LASF11
 761 0090 04       		.uleb128 0x4
 762 0091 08       		.byte	0x8
 763 0092 05       		.byte	0x5
 764 0093 F0000000 		.4byte	.LASF12
 765 0097 03       		.uleb128 0x3
 766 0098 7E050000 		.4byte	.LASF13
 767 009c 03       		.byte	0x3
 768 009d 5B       		.byte	0x5b
 769 009e A2000000 		.4byte	0xa2
 770 00a2 04       		.uleb128 0x4
 771 00a3 08       		.byte	0x8
 772 00a4 07       		.byte	0x7
 773 00a5 5F000000 		.4byte	.LASF14
 774 00a9 03       		.uleb128 0x3
 775 00aa CA070000 		.4byte	.LASF15
 776 00ae 04       		.byte	0x4
 777 00af 14       		.byte	0x14
 778 00b0 41000000 		.4byte	0x41
 779 00b4 03       		.uleb128 0x3
 780 00b5 D0020000 		.4byte	.LASF16
 781 00b9 04       		.byte	0x4
 782 00ba 1A       		.byte	0x1a
 783 00bb 5A000000 		.4byte	0x5a
 784 00bf 03       		.uleb128 0x3
 785 00c0 D9050000 		.4byte	.LASF17
 786 00c4 04       		.byte	0x4
 787 00c5 1F       		.byte	0x1f
 788 00c6 6C000000 		.4byte	0x6c
 789 00ca 03       		.uleb128 0x3
 790 00cb 9F060000 		.4byte	.LASF18
 791 00cf 04       		.byte	0x4
 792 00d0 20       		.byte	0x20
 793 00d1 7E000000 		.4byte	0x7e
 794 00d5 03       		.uleb128 0x3
ARM GAS  /tmp/ccT0wPuQ.s 			page 15


 795 00d6 35050000 		.4byte	.LASF19
 796 00da 04       		.byte	0x4
 797 00db 26       		.byte	0x26
 798 00dc 97000000 		.4byte	0x97
 799 00e0 03       		.uleb128 0x3
 800 00e1 76070000 		.4byte	.LASF20
 801 00e5 05       		.byte	0x5
 802 00e6 39       		.byte	0x39
 803 00e7 CA000000 		.4byte	0xca
 804 00eb 03       		.uleb128 0x3
 805 00ec 3E040000 		.4byte	.LASF21
 806 00f0 05       		.byte	0x5
 807 00f1 3C       		.byte	0x3c
 808 00f2 A9000000 		.4byte	0xa9
 809 00f6 03       		.uleb128 0x3
 810 00f7 84020000 		.4byte	.LASF22
 811 00fb 05       		.byte	0x5
 812 00fc 3D       		.byte	0x3d
 813 00fd A9000000 		.4byte	0xa9
 814 0101 03       		.uleb128 0x3
 815 0102 89050000 		.4byte	.LASF23
 816 0106 05       		.byte	0x5
 817 0107 3E       		.byte	0x3e
 818 0108 A9000000 		.4byte	0xa9
 819 010c 03       		.uleb128 0x3
 820 010d BB050000 		.4byte	.LASF24
 821 0111 05       		.byte	0x5
 822 0112 40       		.byte	0x40
 823 0113 CA000000 		.4byte	0xca
 824 0117 03       		.uleb128 0x3
 825 0118 22040000 		.4byte	.LASF25
 826 011c 05       		.byte	0x5
 827 011d 41       		.byte	0x41
 828 011e BF000000 		.4byte	0xbf
 829 0122 03       		.uleb128 0x3
 830 0123 61040000 		.4byte	.LASF26
 831 0127 05       		.byte	0x5
 832 0128 43       		.byte	0x43
 833 0129 CA000000 		.4byte	0xca
 834 012d 03       		.uleb128 0x3
 835 012e 76030000 		.4byte	.LASF27
 836 0132 05       		.byte	0x5
 837 0133 45       		.byte	0x45
 838 0134 BF000000 		.4byte	0xbf
 839 0138 03       		.uleb128 0x3
 840 0139 26070000 		.4byte	.LASF28
 841 013d 06       		.byte	0x6
 842 013e 35       		.byte	0x35
 843 013f B4000000 		.4byte	0xb4
 844 0143 03       		.uleb128 0x3
 845 0144 0E070000 		.4byte	.LASF29
 846 0148 06       		.byte	0x6
 847 0149 3F       		.byte	0x3f
 848 014a 4E010000 		.4byte	0x14e
 849 014e 05       		.uleb128 0x5
 850 014f 08040000 		.4byte	.LASF46
 851 0153 38       		.byte	0x38
ARM GAS  /tmp/ccT0wPuQ.s 			page 16


 852 0154 07       		.byte	0x7
 853 0155 C2       		.byte	0xc2
 854 0156 17020000 		.4byte	0x217
 855 015a 06       		.uleb128 0x6
 856 015b 14050000 		.4byte	.LASF30
 857 015f 07       		.byte	0x7
 858 0160 C3       		.byte	0xc3
 859 0161 22020000 		.4byte	0x222
 860 0165 00       		.byte	0
 861 0166 06       		.uleb128 0x6
 862 0167 A1050000 		.4byte	.LASF31
 863 016b 07       		.byte	0x7
 864 016c C5       		.byte	0xc5
 865 016d 22020000 		.4byte	0x222
 866 0171 04       		.byte	0x4
 867 0172 06       		.uleb128 0x6
 868 0173 D9000000 		.4byte	.LASF32
 869 0177 07       		.byte	0x7
 870 0178 C7       		.byte	0xc7
 871 0179 0C010000 		.4byte	0x10c
 872 017d 08       		.byte	0x8
 873 017e 06       		.uleb128 0x6
 874 017f 5F080000 		.4byte	.LASF33
 875 0183 07       		.byte	0x7
 876 0184 C8       		.byte	0xc8
 877 0185 50060000 		.4byte	0x650
 878 0189 0C       		.byte	0xc
 879 018a 06       		.uleb128 0x6
 880 018b EF050000 		.4byte	.LASF34
 881 018f 07       		.byte	0x7
 882 0190 DD       		.byte	0xdd
 883 0191 F6000000 		.4byte	0xf6
 884 0195 10       		.byte	0x10
 885 0196 06       		.uleb128 0x6
 886 0197 4B060000 		.4byte	.LASF35
 887 019b 07       		.byte	0x7
 888 019c E1       		.byte	0xe1
 889 019d EB000000 		.4byte	0xeb
 890 01a1 11       		.byte	0x11
 891 01a2 06       		.uleb128 0x6
 892 01a3 AC070000 		.4byte	.LASF36
 893 01a7 07       		.byte	0x7
 894 01a8 E6       		.byte	0xe6
 895 01a9 01010000 		.4byte	0x101
 896 01ad 12       		.byte	0x12
 897 01ae 07       		.uleb128 0x7
 898 01af 705F7500 		.ascii	"p_u\000"
 899 01b3 07       		.byte	0x7
 900 01b4 3101     		.2byte	0x131
 901 01b6 0A070000 		.4byte	0x70a
 902 01ba 14       		.byte	0x14
 903 01bb 08       		.uleb128 0x8
 904 01bc D1040000 		.4byte	.LASF37
 905 01c0 07       		.byte	0x7
 906 01c1 3601     		.2byte	0x136
 907 01c3 28020000 		.4byte	0x228
 908 01c7 18       		.byte	0x18
ARM GAS  /tmp/ccT0wPuQ.s 			page 17


 909 01c8 08       		.uleb128 0x8
 910 01c9 BA030000 		.4byte	.LASF38
 911 01cd 07       		.byte	0x7
 912 01ce 3C01     		.2byte	0x13c
 913 01d0 4C020000 		.4byte	0x24c
 914 01d4 1C       		.byte	0x1c
 915 01d5 08       		.uleb128 0x8
 916 01d6 2F080000 		.4byte	.LASF39
 917 01da 07       		.byte	0x7
 918 01db 4001     		.2byte	0x140
 919 01dd 17010000 		.4byte	0x117
 920 01e1 24       		.byte	0x24
 921 01e2 08       		.uleb128 0x8
 922 01e3 8A060000 		.4byte	.LASF40
 923 01e7 07       		.byte	0x7
 924 01e8 4601     		.2byte	0x146
 925 01ea 22010000 		.4byte	0x122
 926 01ee 28       		.byte	0x28
 927 01ef 08       		.uleb128 0x8
 928 01f0 12060000 		.4byte	.LASF41
 929 01f4 07       		.byte	0x7
 930 01f5 4D01     		.2byte	0x14d
 931 01f7 C9070000 		.4byte	0x7c9
 932 01fb 2C       		.byte	0x2c
 933 01fc 08       		.uleb128 0x8
 934 01fd 30070000 		.4byte	.LASF42
 935 0201 07       		.byte	0x7
 936 0202 5101     		.2byte	0x151
 937 0204 0C010000 		.4byte	0x10c
 938 0208 30       		.byte	0x30
 939 0209 08       		.uleb128 0x8
 940 020a 21010000 		.4byte	.LASF43
 941 020e 07       		.byte	0x7
 942 020f 5801     		.2byte	0x158
 943 0211 E5020000 		.4byte	0x2e5
 944 0215 34       		.byte	0x34
 945 0216 00       		.byte	0
 946 0217 03       		.uleb128 0x3
 947 0218 E4040000 		.4byte	.LASF44
 948 021c 06       		.byte	0x6
 949 021d 44       		.byte	0x44
 950 021e 22020000 		.4byte	0x222
 951 0222 09       		.uleb128 0x9
 952 0223 04       		.byte	0x4
 953 0224 43010000 		.4byte	0x143
 954 0228 03       		.uleb128 0x3
 955 0229 96040000 		.4byte	.LASF45
 956 022d 06       		.byte	0x6
 957 022e 49       		.byte	0x49
 958 022f 33020000 		.4byte	0x233
 959 0233 05       		.uleb128 0x5
 960 0234 C0060000 		.4byte	.LASF47
 961 0238 04       		.byte	0x4
 962 0239 07       		.byte	0x7
 963 023a B0       		.byte	0xb0
 964 023b 4C020000 		.4byte	0x24c
 965 023f 06       		.uleb128 0x6
ARM GAS  /tmp/ccT0wPuQ.s 			page 18


 966 0240 14050000 		.4byte	.LASF30
 967 0244 07       		.byte	0x7
 968 0245 B1       		.byte	0xb1
 969 0246 22020000 		.4byte	0x222
 970 024a 00       		.byte	0
 971 024b 00       		.byte	0
 972 024c 03       		.uleb128 0x3
 973 024d 93070000 		.4byte	.LASF48
 974 0251 06       		.byte	0x6
 975 0252 50       		.byte	0x50
 976 0253 57020000 		.4byte	0x257
 977 0257 05       		.uleb128 0x5
 978 0258 C8000000 		.4byte	.LASF49
 979 025c 08       		.byte	0x8
 980 025d 07       		.byte	0x7
 981 025e B7       		.byte	0xb7
 982 025f 7C020000 		.4byte	0x27c
 983 0263 06       		.uleb128 0x6
 984 0264 14050000 		.4byte	.LASF30
 985 0268 07       		.byte	0x7
 986 0269 B8       		.byte	0xb8
 987 026a 22020000 		.4byte	0x222
 988 026e 00       		.byte	0
 989 026f 06       		.uleb128 0x6
 990 0270 A1050000 		.4byte	.LASF31
 991 0274 07       		.byte	0x7
 992 0275 B9       		.byte	0xb9
 993 0276 22020000 		.4byte	0x222
 994 027a 04       		.byte	0x4
 995 027b 00       		.byte	0
 996 027c 03       		.uleb128 0x3
 997 027d 00000000 		.4byte	.LASF50
 998 0281 06       		.byte	0x6
 999 0282 57       		.byte	0x57
 1000 0283 87020000 		.4byte	0x287
 1001 0287 0A       		.uleb128 0xa
 1002 0288 53040000 		.4byte	.LASF51
 1003 028c 14       		.byte	0x14
 1004 028d 07       		.byte	0x7
 1005 028e 9001     		.2byte	0x190
 1006 0290 C9020000 		.4byte	0x2c9
 1007 0294 08       		.uleb128 0x8
 1008 0295 AF060000 		.4byte	.LASF52
 1009 0299 07       		.byte	0x7
 1010 029a 9101     		.2byte	0x191
 1011 029c 4C020000 		.4byte	0x24c
 1012 02a0 00       		.byte	0
 1013 02a1 08       		.uleb128 0x8
 1014 02a2 3D060000 		.4byte	.LASF53
 1015 02a6 07       		.byte	0x7
 1016 02a7 9201     		.2byte	0x192
 1017 02a9 0C010000 		.4byte	0x10c
 1018 02ad 08       		.byte	0x8
 1019 02ae 08       		.uleb128 0x8
 1020 02af 43050000 		.4byte	.LASF54
 1021 02b3 07       		.byte	0x7
 1022 02b4 9401     		.2byte	0x194
ARM GAS  /tmp/ccT0wPuQ.s 			page 19


 1023 02b6 50060000 		.4byte	0x650
 1024 02ba 0C       		.byte	0xc
 1025 02bb 08       		.uleb128 0x8
 1026 02bc 5C050000 		.4byte	.LASF55
 1027 02c0 07       		.byte	0x7
 1028 02c1 9B01     		.2byte	0x19b
 1029 02c3 22020000 		.4byte	0x222
 1030 02c7 10       		.byte	0x10
 1031 02c8 00       		.byte	0
 1032 02c9 03       		.uleb128 0x3
 1033 02ca 3B070000 		.4byte	.LASF56
 1034 02ce 06       		.byte	0x6
 1035 02cf 5C       		.byte	0x5c
 1036 02d0 D4020000 		.4byte	0x2d4
 1037 02d4 09       		.uleb128 0x9
 1038 02d5 04       		.byte	0x4
 1039 02d6 DA020000 		.4byte	0x2da
 1040 02da 0B       		.uleb128 0xb
 1041 02db E5020000 		.4byte	0x2e5
 1042 02df 0C       		.uleb128 0xc
 1043 02e0 E5020000 		.4byte	0x2e5
 1044 02e4 00       		.byte	0
 1045 02e5 0D       		.uleb128 0xd
 1046 02e6 04       		.byte	0x4
 1047 02e7 03       		.uleb128 0x3
 1048 02e8 91050000 		.4byte	.LASF57
 1049 02ec 06       		.byte	0x6
 1050 02ed 61       		.byte	0x61
 1051 02ee F2020000 		.4byte	0x2f2
 1052 02f2 0A       		.uleb128 0xa
 1053 02f3 65070000 		.4byte	.LASF58
 1054 02f7 14       		.byte	0x14
 1055 02f8 07       		.byte	0x7
 1056 02f9 6B01     		.2byte	0x16b
 1057 02fb 41030000 		.4byte	0x341
 1058 02ff 08       		.uleb128 0x8
 1059 0300 89030000 		.4byte	.LASF59
 1060 0304 07       		.byte	0x7
 1061 0305 6C01     		.2byte	0x16c
 1062 0307 CF070000 		.4byte	0x7cf
 1063 030b 00       		.byte	0
 1064 030c 08       		.uleb128 0x8
 1065 030d 2A030000 		.4byte	.LASF60
 1066 0311 07       		.byte	0x7
 1067 0312 6D01     		.2byte	0x16d
 1068 0314 CF070000 		.4byte	0x7cf
 1069 0318 04       		.byte	0x4
 1070 0319 08       		.uleb128 0x8
 1071 031a B7060000 		.4byte	.LASF61
 1072 031e 07       		.byte	0x7
 1073 031f 6E01     		.2byte	0x16e
 1074 0321 38010000 		.4byte	0x138
 1075 0325 08       		.byte	0x8
 1076 0326 08       		.uleb128 0x8
 1077 0327 65080000 		.4byte	.LASF62
 1078 032b 07       		.byte	0x7
 1079 032c 6F01     		.2byte	0x16f
ARM GAS  /tmp/ccT0wPuQ.s 			page 20


 1080 032e C9020000 		.4byte	0x2c9
 1081 0332 0C       		.byte	0xc
 1082 0333 08       		.uleb128 0x8
 1083 0334 8C070000 		.4byte	.LASF63
 1084 0338 07       		.byte	0x7
 1085 0339 7101     		.2byte	0x171
 1086 033b E5020000 		.4byte	0x2e5
 1087 033f 10       		.byte	0x10
 1088 0340 00       		.byte	0
 1089 0341 03       		.uleb128 0x3
 1090 0342 A5000000 		.4byte	.LASF64
 1091 0346 06       		.byte	0x6
 1092 0347 66       		.byte	0x66
 1093 0348 4C030000 		.4byte	0x34c
 1094 034c 0A       		.uleb128 0xa
 1095 034d F7040000 		.4byte	.LASF65
 1096 0351 0C       		.byte	0xc
 1097 0352 07       		.byte	0x7
 1098 0353 7B01     		.2byte	0x17b
 1099 0355 8E030000 		.4byte	0x38e
 1100 0359 08       		.uleb128 0x8
 1101 035a 89030000 		.4byte	.LASF59
 1102 035e 07       		.byte	0x7
 1103 035f 7C01     		.2byte	0x17c
 1104 0361 CF070000 		.4byte	0x7cf
 1105 0365 00       		.byte	0
 1106 0366 08       		.uleb128 0x8
 1107 0367 2A030000 		.4byte	.LASF60
 1108 036b 07       		.byte	0x7
 1109 036c 7E01     		.2byte	0x17e
 1110 036e CF070000 		.4byte	0x7cf
 1111 0372 04       		.byte	0x4
 1112 0373 08       		.uleb128 0x8
 1113 0374 B7060000 		.4byte	.LASF61
 1114 0378 07       		.byte	0x7
 1115 0379 8001     		.2byte	0x180
 1116 037b 38010000 		.4byte	0x138
 1117 037f 08       		.byte	0x8
 1118 0380 08       		.uleb128 0x8
 1119 0381 E5000000 		.4byte	.LASF66
 1120 0385 07       		.byte	0x7
 1121 0386 8201     		.2byte	0x182
 1122 0388 D5070000 		.4byte	0x7d5
 1123 038c 0A       		.byte	0xa
 1124 038d 00       		.byte	0
 1125 038e 03       		.uleb128 0x3
 1126 038f 3C000000 		.4byte	.LASF67
 1127 0393 06       		.byte	0x6
 1128 0394 6B       		.byte	0x6b
 1129 0395 99030000 		.4byte	0x399
 1130 0399 0A       		.uleb128 0xa
 1131 039a C3050000 		.4byte	.LASF68
 1132 039e 04       		.byte	0x4
 1133 039f 07       		.byte	0x7
 1134 03a0 A201     		.2byte	0x1a2
 1135 03a2 B4030000 		.4byte	0x3b4
 1136 03a6 08       		.uleb128 0x8
ARM GAS  /tmp/ccT0wPuQ.s 			page 21


 1137 03a7 44070000 		.4byte	.LASF69
 1138 03ab 07       		.byte	0x7
 1139 03ac AA01     		.2byte	0x1aa
 1140 03ae DA070000 		.4byte	0x7da
 1141 03b2 00       		.byte	0
 1142 03b3 00       		.byte	0
 1143 03b4 03       		.uleb128 0x3
 1144 03b5 32040000 		.4byte	.LASF70
 1145 03b9 06       		.byte	0x6
 1146 03ba 70       		.byte	0x70
 1147 03bb BF030000 		.4byte	0x3bf
 1148 03bf 0E       		.uleb128 0xe
 1149 03c0 95060000 		.4byte	.LASF71
 1150 03c4 3001     		.2byte	0x130
 1151 03c6 07       		.byte	0x7
 1152 03c7 C201     		.2byte	0x1c2
 1153 03c9 1B040000 		.4byte	0x41b
 1154 03cd 08       		.uleb128 0x8
 1155 03ce C4070000 		.4byte	.LASF72
 1156 03d2 07       		.byte	0x7
 1157 03d3 C601     		.2byte	0x1c6
 1158 03d5 7C020000 		.4byte	0x27c
 1159 03d9 00       		.byte	0
 1160 03da 08       		.uleb128 0x8
 1161 03db 32030000 		.4byte	.LASF73
 1162 03df 07       		.byte	0x7
 1163 03e0 CA01     		.2byte	0x1ca
 1164 03e2 41030000 		.4byte	0x341
 1165 03e6 14       		.byte	0x14
 1166 03e7 07       		.uleb128 0x7
 1167 03e8 64626700 		.ascii	"dbg\000"
 1168 03ec 07       		.byte	0x7
 1169 03ed CE01     		.2byte	0x1ce
 1170 03ef 8E030000 		.4byte	0x38e
 1171 03f3 20       		.byte	0x20
 1172 03f4 08       		.uleb128 0x8
 1173 03f5 62060000 		.4byte	.LASF74
 1174 03f9 07       		.byte	0x7
 1175 03fa D201     		.2byte	0x1d2
 1176 03fc 43010000 		.4byte	0x143
 1177 0400 24       		.byte	0x24
 1178 0401 07       		.uleb128 0x7
 1179 0402 746D00   		.ascii	"tm\000"
 1180 0405 07       		.byte	0x7
 1181 0406 D701     		.2byte	0x1d7
 1182 0408 FF060000 		.4byte	0x6ff
 1183 040c 5C       		.byte	0x5c
 1184 040d 08       		.uleb128 0x8
 1185 040e 5B030000 		.4byte	.LASF75
 1186 0412 07       		.byte	0x7
 1187 0413 E301     		.2byte	0x1e3
 1188 0415 F1070000 		.4byte	0x7f1
 1189 0419 60       		.byte	0x60
 1190 041a 00       		.byte	0
 1191 041b 04       		.uleb128 0x4
 1192 041c 04       		.byte	0x4
 1193 041d 07       		.byte	0x7
ARM GAS  /tmp/ccT0wPuQ.s 			page 22


 1194 041e DB040000 		.4byte	.LASF76
 1195 0422 0F       		.uleb128 0xf
 1196 0423 CA000000 		.4byte	0xca
 1197 0427 10       		.uleb128 0x10
 1198 0428 50       		.byte	0x50
 1199 0429 08       		.byte	0x8
 1200 042a B3       		.byte	0xb3
 1201 042b 1E050000 		.4byte	0x51e
 1202 042f 11       		.uleb128 0x11
 1203 0430 535200   		.ascii	"SR\000"
 1204 0433 08       		.byte	0x8
 1205 0434 B5       		.byte	0xb5
 1206 0435 22040000 		.4byte	0x422
 1207 0439 00       		.byte	0
 1208 043a 11       		.uleb128 0x11
 1209 043b 43523100 		.ascii	"CR1\000"
 1210 043f 08       		.byte	0x8
 1211 0440 B6       		.byte	0xb6
 1212 0441 22040000 		.4byte	0x422
 1213 0445 04       		.byte	0x4
 1214 0446 11       		.uleb128 0x11
 1215 0447 43523200 		.ascii	"CR2\000"
 1216 044b 08       		.byte	0x8
 1217 044c B7       		.byte	0xb7
 1218 044d 22040000 		.4byte	0x422
 1219 0451 08       		.byte	0x8
 1220 0452 06       		.uleb128 0x6
 1221 0453 49050000 		.4byte	.LASF77
 1222 0457 08       		.byte	0x8
 1223 0458 B8       		.byte	0xb8
 1224 0459 22040000 		.4byte	0x422
 1225 045d 0C       		.byte	0xc
 1226 045e 06       		.uleb128 0x6
 1227 045f 4F050000 		.4byte	.LASF78
 1228 0463 08       		.byte	0x8
 1229 0464 B9       		.byte	0xb9
 1230 0465 22040000 		.4byte	0x422
 1231 0469 10       		.byte	0x10
 1232 046a 06       		.uleb128 0x6
 1233 046b B0040000 		.4byte	.LASF79
 1234 046f 08       		.byte	0x8
 1235 0470 BA       		.byte	0xba
 1236 0471 22040000 		.4byte	0x422
 1237 0475 14       		.byte	0x14
 1238 0476 06       		.uleb128 0x6
 1239 0477 B6040000 		.4byte	.LASF80
 1240 047b 08       		.byte	0x8
 1241 047c BB       		.byte	0xbb
 1242 047d 22040000 		.4byte	0x422
 1243 0481 18       		.byte	0x18
 1244 0482 06       		.uleb128 0x6
 1245 0483 5C060000 		.4byte	.LASF81
 1246 0487 08       		.byte	0x8
 1247 0488 BC       		.byte	0xbc
 1248 0489 22040000 		.4byte	0x422
 1249 048d 1C       		.byte	0x1c
 1250 048e 06       		.uleb128 0x6
ARM GAS  /tmp/ccT0wPuQ.s 			page 23


 1251 048f E5070000 		.4byte	.LASF82
 1252 0493 08       		.byte	0x8
 1253 0494 BD       		.byte	0xbd
 1254 0495 22040000 		.4byte	0x422
 1255 0499 20       		.byte	0x20
 1256 049a 11       		.uleb128 0x11
 1257 049b 48545200 		.ascii	"HTR\000"
 1258 049f 08       		.byte	0x8
 1259 04a0 BE       		.byte	0xbe
 1260 04a1 22040000 		.4byte	0x422
 1261 04a5 24       		.byte	0x24
 1262 04a6 11       		.uleb128 0x11
 1263 04a7 4C545200 		.ascii	"LTR\000"
 1264 04ab 08       		.byte	0x8
 1265 04ac BF       		.byte	0xbf
 1266 04ad 22040000 		.4byte	0x422
 1267 04b1 28       		.byte	0x28
 1268 04b2 06       		.uleb128 0x6
 1269 04b3 6F050000 		.4byte	.LASF83
 1270 04b7 08       		.byte	0x8
 1271 04b8 C0       		.byte	0xc0
 1272 04b9 22040000 		.4byte	0x422
 1273 04bd 2C       		.byte	0x2c
 1274 04be 06       		.uleb128 0x6
 1275 04bf 74050000 		.4byte	.LASF84
 1276 04c3 08       		.byte	0x8
 1277 04c4 C1       		.byte	0xc1
 1278 04c5 22040000 		.4byte	0x422
 1279 04c9 30       		.byte	0x30
 1280 04ca 06       		.uleb128 0x6
 1281 04cb 79050000 		.4byte	.LASF85
 1282 04cf 08       		.byte	0x8
 1283 04d0 C2       		.byte	0xc2
 1284 04d1 22040000 		.4byte	0x422
 1285 04d5 34       		.byte	0x34
 1286 04d6 06       		.uleb128 0x6
 1287 04d7 E0000000 		.4byte	.LASF86
 1288 04db 08       		.byte	0x8
 1289 04dc C3       		.byte	0xc3
 1290 04dd 22040000 		.4byte	0x422
 1291 04e1 38       		.byte	0x38
 1292 04e2 06       		.uleb128 0x6
 1293 04e3 F1070000 		.4byte	.LASF87
 1294 04e7 08       		.byte	0x8
 1295 04e8 C4       		.byte	0xc4
 1296 04e9 22040000 		.4byte	0x422
 1297 04ed 3C       		.byte	0x3c
 1298 04ee 06       		.uleb128 0x6
 1299 04ef 1C010000 		.4byte	.LASF88
 1300 04f3 08       		.byte	0x8
 1301 04f4 C5       		.byte	0xc5
 1302 04f5 22040000 		.4byte	0x422
 1303 04f9 40       		.byte	0x40
 1304 04fa 06       		.uleb128 0x6
 1305 04fb F6070000 		.4byte	.LASF89
 1306 04ff 08       		.byte	0x8
 1307 0500 C6       		.byte	0xc6
ARM GAS  /tmp/ccT0wPuQ.s 			page 24


 1308 0501 22040000 		.4byte	0x422
 1309 0505 44       		.byte	0x44
 1310 0506 06       		.uleb128 0x6
 1311 0507 3E050000 		.4byte	.LASF90
 1312 050b 08       		.byte	0x8
 1313 050c C7       		.byte	0xc7
 1314 050d 22040000 		.4byte	0x422
 1315 0511 48       		.byte	0x48
 1316 0512 11       		.uleb128 0x11
 1317 0513 445200   		.ascii	"DR\000"
 1318 0516 08       		.byte	0x8
 1319 0517 C8       		.byte	0xc8
 1320 0518 22040000 		.4byte	0x422
 1321 051c 4C       		.byte	0x4c
 1322 051d 00       		.byte	0
 1323 051e 03       		.uleb128 0x3
 1324 051f D9020000 		.4byte	.LASF91
 1325 0523 08       		.byte	0x8
 1326 0524 C9       		.byte	0xc9
 1327 0525 27040000 		.4byte	0x427
 1328 0529 12       		.uleb128 0x12
 1329 052a 10       		.byte	0x10
 1330 052b 08       		.byte	0x8
 1331 052c 7201     		.2byte	0x172
 1332 052e 67050000 		.4byte	0x567
 1333 0532 07       		.uleb128 0x7
 1334 0533 43435200 		.ascii	"CCR\000"
 1335 0537 08       		.byte	0x8
 1336 0538 7401     		.2byte	0x174
 1337 053a 22040000 		.4byte	0x422
 1338 053e 00       		.byte	0
 1339 053f 08       		.uleb128 0x8
 1340 0540 B3070000 		.4byte	.LASF92
 1341 0544 08       		.byte	0x8
 1342 0545 7501     		.2byte	0x175
 1343 0547 22040000 		.4byte	0x422
 1344 054b 04       		.byte	0x4
 1345 054c 08       		.uleb128 0x8
 1346 054d A6030000 		.4byte	.LASF93
 1347 0551 08       		.byte	0x8
 1348 0552 7601     		.2byte	0x176
 1349 0554 22040000 		.4byte	0x422
 1350 0558 08       		.byte	0x8
 1351 0559 08       		.uleb128 0x8
 1352 055a 86040000 		.4byte	.LASF94
 1353 055e 08       		.byte	0x8
 1354 055f 7701     		.2byte	0x177
 1355 0561 22040000 		.4byte	0x422
 1356 0565 0C       		.byte	0xc
 1357 0566 00       		.byte	0
 1358 0567 13       		.uleb128 0x13
 1359 0568 DB030000 		.4byte	.LASF95
 1360 056c 08       		.byte	0x8
 1361 056d 7801     		.2byte	0x178
 1362 056f 29050000 		.4byte	0x529
 1363 0573 12       		.uleb128 0x12
 1364 0574 08       		.byte	0x8
ARM GAS  /tmp/ccT0wPuQ.s 			page 25


 1365 0575 08       		.byte	0x8
 1366 0576 7A01     		.2byte	0x17a
 1367 0578 97050000 		.4byte	0x597
 1368 057c 07       		.uleb128 0x7
 1369 057d 49535200 		.ascii	"ISR\000"
 1370 0581 08       		.byte	0x8
 1371 0582 7C01     		.2byte	0x17c
 1372 0584 22040000 		.4byte	0x422
 1373 0588 00       		.byte	0
 1374 0589 08       		.uleb128 0x8
 1375 058a D6060000 		.4byte	.LASF96
 1376 058e 08       		.byte	0x8
 1377 058f 7D01     		.2byte	0x17d
 1378 0591 22040000 		.4byte	0x422
 1379 0595 04       		.byte	0x4
 1380 0596 00       		.byte	0
 1381 0597 13       		.uleb128 0x13
 1382 0598 6A030000 		.4byte	.LASF97
 1383 059c 08       		.byte	0x8
 1384 059d 7E01     		.2byte	0x17e
 1385 059f 73050000 		.4byte	0x573
 1386 05a3 12       		.uleb128 0x12
 1387 05a4 28       		.byte	0x28
 1388 05a5 08       		.byte	0x8
 1389 05a6 2C02     		.2byte	0x22c
 1390 05a8 2E060000 		.4byte	0x62e
 1391 05ac 07       		.uleb128 0x7
 1392 05ad 435200   		.ascii	"CR\000"
 1393 05b0 08       		.byte	0x8
 1394 05b1 2E02     		.2byte	0x22e
 1395 05b3 22040000 		.4byte	0x422
 1396 05b7 00       		.byte	0
 1397 05b8 08       		.uleb128 0x8
 1398 05b9 2A080000 		.4byte	.LASF98
 1399 05bd 08       		.byte	0x8
 1400 05be 2F02     		.2byte	0x22f
 1401 05c0 22040000 		.4byte	0x422
 1402 05c4 04       		.byte	0x4
 1403 05c5 07       		.uleb128 0x7
 1404 05c6 43495200 		.ascii	"CIR\000"
 1405 05ca 08       		.byte	0x8
 1406 05cb 3002     		.2byte	0x230
 1407 05cd 22040000 		.4byte	0x422
 1408 05d1 08       		.byte	0x8
 1409 05d2 08       		.uleb128 0x8
 1410 05d3 3F030000 		.4byte	.LASF99
 1411 05d7 08       		.byte	0x8
 1412 05d8 3102     		.2byte	0x231
 1413 05da 22040000 		.4byte	0x422
 1414 05de 0C       		.byte	0xc
 1415 05df 08       		.uleb128 0x8
 1416 05e0 66050000 		.4byte	.LASF100
 1417 05e4 08       		.byte	0x8
 1418 05e5 3202     		.2byte	0x232
 1419 05e7 22040000 		.4byte	0x422
 1420 05eb 10       		.byte	0x10
 1421 05ec 08       		.uleb128 0x8
ARM GAS  /tmp/ccT0wPuQ.s 			page 26


 1422 05ed 6D080000 		.4byte	.LASF101
 1423 05f1 08       		.byte	0x8
 1424 05f2 3302     		.2byte	0x233
 1425 05f4 22040000 		.4byte	0x422
 1426 05f8 14       		.byte	0x14
 1427 05f9 08       		.uleb128 0x8
 1428 05fa 6D060000 		.4byte	.LASF102
 1429 05fe 08       		.byte	0x8
 1430 05ff 3402     		.2byte	0x234
 1431 0601 22040000 		.4byte	0x422
 1432 0605 18       		.byte	0x18
 1433 0606 08       		.uleb128 0x8
 1434 0607 55070000 		.4byte	.LASF103
 1435 060b 08       		.byte	0x8
 1436 060c 3502     		.2byte	0x235
 1437 060e 22040000 		.4byte	0x422
 1438 0612 1C       		.byte	0x1c
 1439 0613 08       		.uleb128 0x8
 1440 0614 B9070000 		.4byte	.LASF104
 1441 0618 08       		.byte	0x8
 1442 0619 3602     		.2byte	0x236
 1443 061b 22040000 		.4byte	0x422
 1444 061f 20       		.byte	0x20
 1445 0620 07       		.uleb128 0x7
 1446 0621 43535200 		.ascii	"CSR\000"
 1447 0625 08       		.byte	0x8
 1448 0626 3702     		.2byte	0x237
 1449 0628 22040000 		.4byte	0x422
 1450 062c 24       		.byte	0x24
 1451 062d 00       		.byte	0
 1452 062e 13       		.uleb128 0x13
 1453 062f CF030000 		.4byte	.LASF105
 1454 0633 08       		.byte	0x8
 1455 0634 3A02     		.2byte	0x23a
 1456 0636 A3050000 		.4byte	0x5a3
 1457 063a 03       		.uleb128 0x3
 1458 063b 21030000 		.4byte	.LASF106
 1459 063f 09       		.byte	0x9
 1460 0640 65       		.byte	0x65
 1461 0641 E5020000 		.4byte	0x2e5
 1462 0645 03       		.uleb128 0x3
 1463 0646 8B040000 		.4byte	.LASF107
 1464 064a 09       		.byte	0x9
 1465 064b 6D       		.byte	0x6d
 1466 064c D5000000 		.4byte	0xd5
 1467 0650 05       		.uleb128 0x5
 1468 0651 5D070000 		.4byte	.LASF108
 1469 0655 04       		.byte	0x4
 1470 0656 09       		.byte	0x9
 1471 0657 89       		.byte	0x89
 1472 0658 69060000 		.4byte	0x669
 1473 065c 11       		.uleb128 0x11
 1474 065d 72313300 		.ascii	"r13\000"
 1475 0661 09       		.byte	0x9
 1476 0662 8A       		.byte	0x8a
 1477 0663 E4060000 		.4byte	0x6e4
 1478 0667 00       		.byte	0
ARM GAS  /tmp/ccT0wPuQ.s 			page 27


 1479 0668 00       		.byte	0
 1480 0669 05       		.uleb128 0x5
 1481 066a 30000000 		.4byte	.LASF109
 1482 066e 24       		.byte	0x24
 1483 066f 0A       		.byte	0xa
 1484 0670 FD       		.byte	0xfd
 1485 0671 E4060000 		.4byte	0x6e4
 1486 0675 07       		.uleb128 0x7
 1487 0676 723400   		.ascii	"r4\000"
 1488 0679 0A       		.byte	0xa
 1489 067a 1001     		.2byte	0x110
 1490 067c 3A060000 		.4byte	0x63a
 1491 0680 00       		.byte	0
 1492 0681 07       		.uleb128 0x7
 1493 0682 723500   		.ascii	"r5\000"
 1494 0685 0A       		.byte	0xa
 1495 0686 1101     		.2byte	0x111
 1496 0688 3A060000 		.4byte	0x63a
 1497 068c 04       		.byte	0x4
 1498 068d 07       		.uleb128 0x7
 1499 068e 723600   		.ascii	"r6\000"
 1500 0691 0A       		.byte	0xa
 1501 0692 1201     		.2byte	0x112
 1502 0694 3A060000 		.4byte	0x63a
 1503 0698 08       		.byte	0x8
 1504 0699 07       		.uleb128 0x7
 1505 069a 723700   		.ascii	"r7\000"
 1506 069d 0A       		.byte	0xa
 1507 069e 1301     		.2byte	0x113
 1508 06a0 3A060000 		.4byte	0x63a
 1509 06a4 0C       		.byte	0xc
 1510 06a5 07       		.uleb128 0x7
 1511 06a6 723800   		.ascii	"r8\000"
 1512 06a9 0A       		.byte	0xa
 1513 06aa 1401     		.2byte	0x114
 1514 06ac 3A060000 		.4byte	0x63a
 1515 06b0 10       		.byte	0x10
 1516 06b1 07       		.uleb128 0x7
 1517 06b2 723900   		.ascii	"r9\000"
 1518 06b5 0A       		.byte	0xa
 1519 06b6 1501     		.2byte	0x115
 1520 06b8 3A060000 		.4byte	0x63a
 1521 06bc 14       		.byte	0x14
 1522 06bd 07       		.uleb128 0x7
 1523 06be 72313000 		.ascii	"r10\000"
 1524 06c2 0A       		.byte	0xa
 1525 06c3 1601     		.2byte	0x116
 1526 06c5 3A060000 		.4byte	0x63a
 1527 06c9 18       		.byte	0x18
 1528 06ca 07       		.uleb128 0x7
 1529 06cb 72313100 		.ascii	"r11\000"
 1530 06cf 0A       		.byte	0xa
 1531 06d0 1701     		.2byte	0x117
 1532 06d2 3A060000 		.4byte	0x63a
 1533 06d6 1C       		.byte	0x1c
 1534 06d7 07       		.uleb128 0x7
 1535 06d8 6C7200   		.ascii	"lr\000"
ARM GAS  /tmp/ccT0wPuQ.s 			page 28


 1536 06db 0A       		.byte	0xa
 1537 06dc 1801     		.2byte	0x118
 1538 06de 3A060000 		.4byte	0x63a
 1539 06e2 20       		.byte	0x20
 1540 06e3 00       		.byte	0
 1541 06e4 09       		.uleb128 0x9
 1542 06e5 04       		.byte	0x4
 1543 06e6 69060000 		.4byte	0x669
 1544 06ea 10       		.uleb128 0x10
 1545 06eb 04       		.byte	0x4
 1546 06ec 0B       		.byte	0xb
 1547 06ed 38       		.byte	0x38
 1548 06ee FF060000 		.4byte	0x6ff
 1549 06f2 06       		.uleb128 0x6
 1550 06f3 4E070000 		.4byte	.LASF110
 1551 06f7 0B       		.byte	0xb
 1552 06f8 3C       		.byte	0x3c
 1553 06f9 E0000000 		.4byte	0xe0
 1554 06fd 00       		.byte	0
 1555 06fe 00       		.byte	0
 1556 06ff 03       		.uleb128 0x3
 1557 0700 1B050000 		.4byte	.LASF111
 1558 0704 0B       		.byte	0xb
 1559 0705 3D       		.byte	0x3d
 1560 0706 EA060000 		.4byte	0x6ea
 1561 070a 14       		.uleb128 0x14
 1562 070b 04       		.byte	0x4
 1563 070c 07       		.byte	0x7
 1564 070d FA       		.byte	0xfa
 1565 070e 67070000 		.4byte	0x767
 1566 0712 15       		.uleb128 0x15
 1567 0713 14000000 		.4byte	.LASF112
 1568 0717 07       		.byte	0x7
 1569 0718 0101     		.2byte	0x101
 1570 071a 17010000 		.4byte	0x117
 1571 071e 15       		.uleb128 0x15
 1572 071f 7E000000 		.4byte	.LASF113
 1573 0723 07       		.byte	0x7
 1574 0724 0801     		.2byte	0x108
 1575 0726 17010000 		.4byte	0x117
 1576 072a 15       		.uleb128 0x15
 1577 072b 03080000 		.4byte	.LASF114
 1578 072f 07       		.byte	0x7
 1579 0730 0F01     		.2byte	0x10f
 1580 0732 E5020000 		.4byte	0x2e5
 1581 0736 15       		.uleb128 0x15
 1582 0737 0E050000 		.4byte	.LASF115
 1583 073b 07       		.byte	0x7
 1584 073c 1601     		.2byte	0x116
 1585 073e 67070000 		.4byte	0x767
 1586 0742 15       		.uleb128 0x15
 1587 0743 9F030000 		.4byte	.LASF116
 1588 0747 07       		.byte	0x7
 1589 0748 1E01     		.2byte	0x11e
 1590 074a 92070000 		.4byte	0x792
 1591 074e 15       		.uleb128 0x15
 1592 074f A8060000 		.4byte	.LASF117
ARM GAS  /tmp/ccT0wPuQ.s 			page 29


 1593 0753 07       		.byte	0x7
 1594 0754 2701     		.2byte	0x127
 1595 0756 C9070000 		.4byte	0x7c9
 1596 075a 15       		.uleb128 0x15
 1597 075b 44060000 		.4byte	.LASF118
 1598 075f 07       		.byte	0x7
 1599 0760 2F01     		.2byte	0x12f
 1600 0762 22010000 		.4byte	0x122
 1601 0766 00       		.byte	0
 1602 0767 09       		.uleb128 0x9
 1603 0768 04       		.byte	0x4
 1604 0769 17020000 		.4byte	0x217
 1605 076d 05       		.uleb128 0x5
 1606 076e 7D060000 		.4byte	.LASF119
 1607 0772 0C       		.byte	0xc
 1608 0773 0C       		.byte	0xc
 1609 0774 34       		.byte	0x34
 1610 0775 92070000 		.4byte	0x792
 1611 0779 06       		.uleb128 0x6
 1612 077a 76000000 		.4byte	.LASF120
 1613 077e 0C       		.byte	0xc
 1614 077f 35       		.byte	0x35
 1615 0780 4C020000 		.4byte	0x24c
 1616 0784 00       		.byte	0
 1617 0785 06       		.uleb128 0x6
 1618 0786 EF030000 		.4byte	.LASF121
 1619 078a 0C       		.byte	0xc
 1620 078b 37       		.byte	0x37
 1621 078c 2D010000 		.4byte	0x12d
 1622 0790 08       		.byte	0x8
 1623 0791 00       		.byte	0
 1624 0792 09       		.uleb128 0x9
 1625 0793 04       		.byte	0x4
 1626 0794 6D070000 		.4byte	0x76d
 1627 0798 05       		.uleb128 0x5
 1628 0799 A3070000 		.4byte	.LASF122
 1629 079d 10       		.byte	0x10
 1630 079e 0D       		.byte	0xd
 1631 079f 39       		.byte	0x39
 1632 07a0 C9070000 		.4byte	0x7c9
 1633 07a4 06       		.uleb128 0x6
 1634 07a5 29010000 		.4byte	.LASF123
 1635 07a9 0D       		.byte	0xd
 1636 07aa 3A       		.byte	0x3a
 1637 07ab 4C020000 		.4byte	0x24c
 1638 07af 00       		.byte	0
 1639 07b0 06       		.uleb128 0x6
 1640 07b1 3A080000 		.4byte	.LASF124
 1641 07b5 0D       		.byte	0xd
 1642 07b6 3C       		.byte	0x3c
 1643 07b7 22020000 		.4byte	0x222
 1644 07bb 08       		.byte	0x8
 1645 07bc 06       		.uleb128 0x6
 1646 07bd 55050000 		.4byte	.LASF125
 1647 07c1 0D       		.byte	0xd
 1648 07c2 3E       		.byte	0x3e
 1649 07c3 0C080000 		.4byte	0x80c
ARM GAS  /tmp/ccT0wPuQ.s 			page 30


 1650 07c7 0C       		.byte	0xc
 1651 07c8 00       		.byte	0
 1652 07c9 09       		.uleb128 0x9
 1653 07ca 04       		.byte	0x4
 1654 07cb 98070000 		.4byte	0x798
 1655 07cf 09       		.uleb128 0x9
 1656 07d0 04       		.byte	0x4
 1657 07d1 E7020000 		.4byte	0x2e7
 1658 07d5 0F       		.uleb128 0xf
 1659 07d6 38010000 		.4byte	0x138
 1660 07da 0F       		.uleb128 0xf
 1661 07db DF070000 		.4byte	0x7df
 1662 07df 09       		.uleb128 0x9
 1663 07e0 04       		.byte	0x4
 1664 07e1 E5070000 		.4byte	0x7e5
 1665 07e5 16       		.uleb128 0x16
 1666 07e6 EA070000 		.4byte	0x7ea
 1667 07ea 04       		.uleb128 0x4
 1668 07eb 01       		.byte	0x1
 1669 07ec 08       		.byte	0x8
 1670 07ed E1060000 		.4byte	.LASF126
 1671 07f1 17       		.uleb128 0x17
 1672 07f2 45060000 		.4byte	0x645
 1673 07f6 01080000 		.4byte	0x801
 1674 07fa 18       		.uleb128 0x18
 1675 07fb 1B040000 		.4byte	0x41b
 1676 07ff 19       		.byte	0x19
 1677 0800 00       		.byte	0
 1678 0801 03       		.uleb128 0x3
 1679 0802 48030000 		.4byte	.LASF127
 1680 0806 0D       		.byte	0xd
 1681 0807 34       		.byte	0x34
 1682 0808 98070000 		.4byte	0x798
 1683 080c 09       		.uleb128 0x9
 1684 080d 04       		.byte	0x4
 1685 080e 01080000 		.4byte	0x801
 1686 0812 10       		.uleb128 0x10
 1687 0813 14       		.byte	0x14
 1688 0814 0E       		.byte	0xe
 1689 0815 E4       		.byte	0xe4
 1690 0816 6F080000 		.4byte	0x86f
 1691 081a 11       		.uleb128 0x11
 1692 081b 646D6100 		.ascii	"dma\000"
 1693 081f 0E       		.byte	0xe
 1694 0820 E5       		.byte	0xe5
 1695 0821 6F080000 		.4byte	0x86f
 1696 0825 00       		.byte	0
 1697 0826 06       		.uleb128 0x6
 1698 0827 75060000 		.4byte	.LASF128
 1699 082b 0E       		.byte	0xe
 1700 082c E6       		.byte	0xe6
 1701 082d 75080000 		.4byte	0x875
 1702 0831 04       		.byte	0x4
 1703 0832 06       		.uleb128 0x6
 1704 0833 A5040000 		.4byte	.LASF129
 1705 0837 0E       		.byte	0xe
 1706 0838 E7       		.byte	0xe7
ARM GAS  /tmp/ccT0wPuQ.s 			page 31


 1707 0839 CA000000 		.4byte	0xca
 1708 083d 08       		.byte	0x8
 1709 083e 06       		.uleb128 0x6
 1710 083f 27020000 		.4byte	.LASF130
 1711 0843 0E       		.byte	0xe
 1712 0844 E9       		.byte	0xe9
 1713 0845 7B080000 		.4byte	0x87b
 1714 0849 0C       		.byte	0xc
 1715 084a 06       		.uleb128 0x6
 1716 084b E5020000 		.4byte	.LASF131
 1717 084f 0E       		.byte	0xe
 1718 0850 EA       		.byte	0xea
 1719 0851 A9000000 		.4byte	0xa9
 1720 0855 10       		.byte	0x10
 1721 0856 06       		.uleb128 0x6
 1722 0857 28040000 		.4byte	.LASF132
 1723 085b 0E       		.byte	0xe
 1724 085c EC       		.byte	0xec
 1725 085d A9000000 		.4byte	0xa9
 1726 0861 11       		.byte	0x11
 1727 0862 06       		.uleb128 0x6
 1728 0863 4B000000 		.4byte	.LASF133
 1729 0867 0E       		.byte	0xe
 1730 0868 ED       		.byte	0xed
 1731 0869 A9000000 		.4byte	0xa9
 1732 086d 12       		.byte	0x12
 1733 086e 00       		.byte	0
 1734 086f 09       		.uleb128 0x9
 1735 0870 04       		.byte	0x4
 1736 0871 97050000 		.4byte	0x597
 1737 0875 09       		.uleb128 0x9
 1738 0876 04       		.byte	0x4
 1739 0877 67050000 		.4byte	0x567
 1740 087b 09       		.uleb128 0x9
 1741 087c 04       		.byte	0x4
 1742 087d 22040000 		.4byte	0x422
 1743 0881 03       		.uleb128 0x3
 1744 0882 A8050000 		.4byte	.LASF134
 1745 0886 0E       		.byte	0xe
 1746 0887 EE       		.byte	0xee
 1747 0888 12080000 		.4byte	0x812
 1748 088c 03       		.uleb128 0x3
 1749 088d AB030000 		.4byte	.LASF135
 1750 0891 0E       		.byte	0xe
 1751 0892 F7       		.byte	0xf7
 1752 0893 97080000 		.4byte	0x897
 1753 0897 09       		.uleb128 0x9
 1754 0898 04       		.byte	0x4
 1755 0899 9D080000 		.4byte	0x89d
 1756 089d 0B       		.uleb128 0xb
 1757 089e AD080000 		.4byte	0x8ad
 1758 08a2 0C       		.uleb128 0xc
 1759 08a3 E5020000 		.4byte	0x2e5
 1760 08a7 0C       		.uleb128 0xc
 1761 08a8 CA000000 		.4byte	0xca
 1762 08ac 00       		.byte	0
 1763 08ad 04       		.uleb128 0x4
ARM GAS  /tmp/ccT0wPuQ.s 			page 32


 1764 08ae 01       		.byte	0x1
 1765 08af 02       		.byte	0x2
 1766 08b0 D3050000 		.4byte	.LASF136
 1767 08b4 19       		.uleb128 0x19
 1768 08b5 01       		.byte	0x1
 1769 08b6 0F       		.byte	0xf
 1770 08b7 46       		.byte	0x46
 1771 08b8 E1080000 		.4byte	0x8e1
 1772 08bc 1A       		.uleb128 0x1a
 1773 08bd 87000000 		.4byte	.LASF137
 1774 08c1 00       		.sleb128 0
 1775 08c2 1A       		.uleb128 0x1a
 1776 08c3 2C050000 		.4byte	.LASF138
 1777 08c7 01       		.sleb128 1
 1778 08c8 1A       		.uleb128 0x1a
 1779 08c9 12040000 		.4byte	.LASF139
 1780 08cd 02       		.sleb128 2
 1781 08ce 1A       		.uleb128 0x1a
 1782 08cf 50030000 		.4byte	.LASF140
 1783 08d3 03       		.sleb128 3
 1784 08d4 1A       		.uleb128 0x1a
 1785 08d5 0A080000 		.4byte	.LASF141
 1786 08d9 04       		.sleb128 4
 1787 08da 1A       		.uleb128 0x1a
 1788 08db 1D020000 		.4byte	.LASF142
 1789 08df 05       		.sleb128 5
 1790 08e0 00       		.byte	0
 1791 08e1 03       		.uleb128 0x3
 1792 08e2 1B000000 		.4byte	.LASF143
 1793 08e6 0F       		.byte	0xf
 1794 08e7 4D       		.byte	0x4d
 1795 08e8 B4080000 		.4byte	0x8b4
 1796 08ec 03       		.uleb128 0x3
 1797 08ed 00030000 		.4byte	.LASF144
 1798 08f1 10       		.byte	0x10
 1799 08f2 87       		.byte	0x87
 1800 08f3 B4000000 		.4byte	0xb4
 1801 08f7 03       		.uleb128 0x3
 1802 08f8 17080000 		.4byte	.LASF145
 1803 08fc 10       		.byte	0x10
 1804 08fd 8C       		.byte	0x8c
 1805 08fe B4000000 		.4byte	0xb4
 1806 0902 19       		.uleb128 0x19
 1807 0903 01       		.byte	0x1
 1808 0904 10       		.byte	0x10
 1809 0905 93       		.byte	0x93
 1810 0906 11090000 		.4byte	0x911
 1811 090a 1A       		.uleb128 0x1a
 1812 090b 45020000 		.4byte	.LASF146
 1813 090f 00       		.sleb128 0
 1814 0910 00       		.byte	0
 1815 0911 03       		.uleb128 0x3
 1816 0912 0B020000 		.4byte	.LASF147
 1817 0916 10       		.byte	0x10
 1818 0917 95       		.byte	0x95
 1819 0918 02090000 		.4byte	0x902
 1820 091c 03       		.uleb128 0x3
ARM GAS  /tmp/ccT0wPuQ.s 			page 33


 1821 091d C5030000 		.4byte	.LASF148
 1822 0921 10       		.byte	0x10
 1823 0922 9A       		.byte	0x9a
 1824 0923 27090000 		.4byte	0x927
 1825 0927 05       		.uleb128 0x5
 1826 0928 C5030000 		.4byte	.LASF148
 1827 092c 20       		.byte	0x20
 1828 092d 10       		.byte	0x10
 1829 092e FE       		.byte	0xfe
 1830 092f 9C090000 		.4byte	0x99c
 1831 0933 08       		.uleb128 0x8
 1832 0934 2D020000 		.4byte	.LASF149
 1833 0938 10       		.byte	0x10
 1834 0939 0201     		.2byte	0x102
 1835 093b E1080000 		.4byte	0x8e1
 1836 093f 00       		.byte	0
 1837 0940 08       		.uleb128 0x8
 1838 0941 FC060000 		.4byte	.LASF150
 1839 0945 10       		.byte	0x10
 1840 0946 0601     		.2byte	0x106
 1841 0948 A70A0000 		.4byte	0xaa7
 1842 094c 04       		.byte	0x4
 1843 094d 08       		.uleb128 0x8
 1844 094e C9040000 		.4byte	.LASF151
 1845 0952 10       		.byte	0x10
 1846 0953 0A01     		.2byte	0x10a
 1847 0955 C8090000 		.4byte	0x9c8
 1848 0959 08       		.byte	0x8
 1849 095a 08       		.uleb128 0x8
 1850 095b 1C040000 		.4byte	.LASF152
 1851 095f 10       		.byte	0x10
 1852 0960 0E01     		.2byte	0x10e
 1853 0962 28000000 		.4byte	0x28
 1854 0966 0C       		.byte	0xc
 1855 0967 08       		.uleb128 0x8
 1856 0968 AB040000 		.4byte	.LASF153
 1857 096c 10       		.byte	0x10
 1858 096d 1201     		.2byte	0x112
 1859 096f B20A0000 		.4byte	0xab2
 1860 0973 10       		.byte	0x10
 1861 0974 07       		.uleb128 0x7
 1862 0975 61646300 		.ascii	"adc\000"
 1863 0979 10       		.byte	0x10
 1864 097a 2601     		.2byte	0x126
 1865 097c BD0A0000 		.4byte	0xabd
 1866 0980 14       		.byte	0x14
 1867 0981 08       		.uleb128 0x8
 1868 0982 16020000 		.4byte	.LASF154
 1869 0986 10       		.byte	0x10
 1870 0987 2A01     		.2byte	0x12a
 1871 0989 C30A0000 		.4byte	0xac3
 1872 098d 18       		.byte	0x18
 1873 098e 08       		.uleb128 0x8
 1874 098f FB070000 		.4byte	.LASF155
 1875 0993 10       		.byte	0x10
 1876 0994 2E01     		.2byte	0x12e
 1877 0996 CA000000 		.4byte	0xca
ARM GAS  /tmp/ccT0wPuQ.s 			page 34


 1878 099a 1C       		.byte	0x1c
 1879 099b 00       		.byte	0
 1880 099c 03       		.uleb128 0x3
 1881 099d F2020000 		.4byte	.LASF156
 1882 09a1 10       		.byte	0x10
 1883 09a2 A4       		.byte	0xa4
 1884 09a3 A7090000 		.4byte	0x9a7
 1885 09a7 09       		.uleb128 0x9
 1886 09a8 04       		.byte	0x4
 1887 09a9 AD090000 		.4byte	0x9ad
 1888 09ad 0B       		.uleb128 0xb
 1889 09ae C2090000 		.4byte	0x9c2
 1890 09b2 0C       		.uleb128 0xc
 1891 09b3 C2090000 		.4byte	0x9c2
 1892 09b7 0C       		.uleb128 0xc
 1893 09b8 C8090000 		.4byte	0x9c8
 1894 09bc 0C       		.uleb128 0xc
 1895 09bd 28000000 		.4byte	0x28
 1896 09c1 00       		.byte	0
 1897 09c2 09       		.uleb128 0x9
 1898 09c3 04       		.byte	0x4
 1899 09c4 1C090000 		.4byte	0x91c
 1900 09c8 09       		.uleb128 0x9
 1901 09c9 04       		.byte	0x4
 1902 09ca EC080000 		.4byte	0x8ec
 1903 09ce 03       		.uleb128 0x3
 1904 09cf 71020000 		.4byte	.LASF157
 1905 09d3 10       		.byte	0x10
 1906 09d4 AD       		.byte	0xad
 1907 09d5 D9090000 		.4byte	0x9d9
 1908 09d9 09       		.uleb128 0x9
 1909 09da 04       		.byte	0x4
 1910 09db DF090000 		.4byte	0x9df
 1911 09df 0B       		.uleb128 0xb
 1912 09e0 EF090000 		.4byte	0x9ef
 1913 09e4 0C       		.uleb128 0xc
 1914 09e5 C2090000 		.4byte	0x9c2
 1915 09e9 0C       		.uleb128 0xc
 1916 09ea 11090000 		.4byte	0x911
 1917 09ee 00       		.byte	0
 1918 09ef 10       		.uleb128 0x10
 1919 09f0 28       		.byte	0x28
 1920 09f1 10       		.byte	0x10
 1921 09f2 B7       		.byte	0xb7
 1922 09f3 7C0A0000 		.4byte	0xa7c
 1923 09f7 06       		.uleb128 0x6
 1924 09f8 33020000 		.4byte	.LASF158
 1925 09fc 10       		.byte	0x10
 1926 09fd BB       		.byte	0xbb
 1927 09fe AD080000 		.4byte	0x8ad
 1928 0a02 00       		.byte	0
 1929 0a03 06       		.uleb128 0x6
 1930 0a04 46040000 		.4byte	.LASF159
 1931 0a08 10       		.byte	0x10
 1932 0a09 BF       		.byte	0xbf
 1933 0a0a F7080000 		.4byte	0x8f7
 1934 0a0e 02       		.byte	0x2
ARM GAS  /tmp/ccT0wPuQ.s 			page 35


 1935 0a0f 06       		.uleb128 0x6
 1936 0a10 EB020000 		.4byte	.LASF160
 1937 0a14 10       		.byte	0x10
 1938 0a15 C3       		.byte	0xc3
 1939 0a16 9C090000 		.4byte	0x99c
 1940 0a1a 04       		.byte	0x4
 1941 0a1b 06       		.uleb128 0x6
 1942 0a1c 34060000 		.4byte	.LASF161
 1943 0a20 10       		.byte	0x10
 1944 0a21 C7       		.byte	0xc7
 1945 0a22 CE090000 		.4byte	0x9ce
 1946 0a26 08       		.byte	0x8
 1947 0a27 11       		.uleb128 0x11
 1948 0a28 63723100 		.ascii	"cr1\000"
 1949 0a2c 10       		.byte	0x10
 1950 0a2d CE       		.byte	0xce
 1951 0a2e CA000000 		.4byte	0xca
 1952 0a32 0C       		.byte	0xc
 1953 0a33 11       		.uleb128 0x11
 1954 0a34 63723200 		.ascii	"cr2\000"
 1955 0a38 10       		.byte	0x10
 1956 0a39 D5       		.byte	0xd5
 1957 0a3a CA000000 		.4byte	0xca
 1958 0a3e 10       		.byte	0x10
 1959 0a3f 06       		.uleb128 0x6
 1960 0a40 D0060000 		.4byte	.LASF162
 1961 0a44 10       		.byte	0x10
 1962 0a45 DB       		.byte	0xdb
 1963 0a46 CA000000 		.4byte	0xca
 1964 0a4a 14       		.byte	0x14
 1965 0a4b 06       		.uleb128 0x6
 1966 0a4c DB060000 		.4byte	.LASF163
 1967 0a50 10       		.byte	0x10
 1968 0a51 E1       		.byte	0xe1
 1969 0a52 CA000000 		.4byte	0xca
 1970 0a56 18       		.byte	0x18
 1971 0a57 06       		.uleb128 0x6
 1972 0a58 17070000 		.4byte	.LASF164
 1973 0a5c 10       		.byte	0x10
 1974 0a5d E6       		.byte	0xe6
 1975 0a5e CA000000 		.4byte	0xca
 1976 0a62 1C       		.byte	0x1c
 1977 0a63 06       		.uleb128 0x6
 1978 0a64 1C070000 		.4byte	.LASF165
 1979 0a68 10       		.byte	0x10
 1980 0a69 EB       		.byte	0xeb
 1981 0a6a CA000000 		.4byte	0xca
 1982 0a6e 20       		.byte	0x20
 1983 0a6f 06       		.uleb128 0x6
 1984 0a70 21070000 		.4byte	.LASF166
 1985 0a74 10       		.byte	0x10
 1986 0a75 F0       		.byte	0xf0
 1987 0a76 CA000000 		.4byte	0xca
 1988 0a7a 24       		.byte	0x24
 1989 0a7b 00       		.byte	0
 1990 0a7c 03       		.uleb128 0x3
 1991 0a7d D2070000 		.4byte	.LASF167
ARM GAS  /tmp/ccT0wPuQ.s 			page 36


 1992 0a81 10       		.byte	0x10
 1993 0a82 F1       		.byte	0xf1
 1994 0a83 EF090000 		.4byte	0x9ef
 1995 0a87 10       		.uleb128 0x10
 1996 0a88 04       		.byte	0x4
 1997 0a89 10       		.byte	0x10
 1998 0a8a F7       		.byte	0xf7
 1999 0a8b 9C0A0000 		.4byte	0xa9c
 2000 0a8f 06       		.uleb128 0x6
 2001 0a90 39030000 		.4byte	.LASF168
 2002 0a94 10       		.byte	0x10
 2003 0a95 F8       		.byte	0xf8
 2004 0a96 CA000000 		.4byte	0xca
 2005 0a9a 00       		.byte	0
 2006 0a9b 00       		.byte	0
 2007 0a9c 03       		.uleb128 0x3
 2008 0a9d 17030000 		.4byte	.LASF169
 2009 0aa1 10       		.byte	0x10
 2010 0aa2 F9       		.byte	0xf9
 2011 0aa3 870A0000 		.4byte	0xa87
 2012 0aa7 09       		.uleb128 0x9
 2013 0aa8 04       		.byte	0x4
 2014 0aa9 AD0A0000 		.4byte	0xaad
 2015 0aad 16       		.uleb128 0x16
 2016 0aae 9C0A0000 		.4byte	0xa9c
 2017 0ab2 09       		.uleb128 0x9
 2018 0ab3 04       		.byte	0x4
 2019 0ab4 B80A0000 		.4byte	0xab8
 2020 0ab8 16       		.uleb128 0x16
 2021 0ab9 7C0A0000 		.4byte	0xa7c
 2022 0abd 09       		.uleb128 0x9
 2023 0abe 04       		.byte	0x4
 2024 0abf 1E050000 		.4byte	0x51e
 2025 0ac3 09       		.uleb128 0x9
 2026 0ac4 04       		.byte	0x4
 2027 0ac5 C90A0000 		.4byte	0xac9
 2028 0ac9 16       		.uleb128 0x16
 2029 0aca 81080000 		.4byte	0x881
 2030 0ace 1B       		.uleb128 0x1b
 2031 0acf 1C060000 		.4byte	.LASF182
 2032 0ad3 01       		.byte	0x1
 2033 0ad4 E1       		.byte	0xe1
 2034 0ad5 01       		.byte	0x1
 2035 0ad6 E60A0000 		.4byte	0xae6
 2036 0ada 1C       		.uleb128 0x1c
 2037 0adb 35080000 		.4byte	.LASF170
 2038 0adf 01       		.byte	0x1
 2039 0ae0 E1       		.byte	0xe1
 2040 0ae1 C2090000 		.4byte	0x9c2
 2041 0ae5 00       		.byte	0
 2042 0ae6 1D       		.uleb128 0x1d
 2043 0ae7 F7050000 		.4byte	.LASF186
 2044 0aeb 01       		.byte	0x1
 2045 0aec 38       		.byte	0x38
 2046 0aed 01       		.byte	0x1
 2047 0aee 210B0000 		.4byte	0xb21
 2048 0af2 1C       		.uleb128 0x1c
ARM GAS  /tmp/ccT0wPuQ.s 			page 37


 2049 0af3 35080000 		.4byte	.LASF170
 2050 0af7 01       		.byte	0x1
 2051 0af8 38       		.byte	0x38
 2052 0af9 C2090000 		.4byte	0x9c2
 2053 0afd 1C       		.uleb128 0x1c
 2054 0afe EB070000 		.4byte	.LASF171
 2055 0b02 01       		.byte	0x1
 2056 0b03 38       		.byte	0x38
 2057 0b04 CA000000 		.4byte	0xca
 2058 0b08 1E       		.uleb128 0x1e
 2059 0b09 1F       		.uleb128 0x1f
 2060 0b0a 81040000 		.4byte	.LASF172
 2061 0b0e 01       		.byte	0x1
 2062 0b0f 43       		.byte	0x43
 2063 0b10 28000000 		.4byte	0x28
 2064 0b14 1F       		.uleb128 0x1f
 2065 0b15 54080000 		.4byte	.LASF173
 2066 0b19 01       		.byte	0x1
 2067 0b1a 43       		.byte	0x43
 2068 0b1b 28000000 		.4byte	0x28
 2069 0b1f 00       		.byte	0
 2070 0b20 00       		.byte	0
 2071 0b21 20       		.uleb128 0x20
 2072 0b22 E60A0000 		.4byte	0xae6
 2073 0b26 00000000 		.4byte	.LFB207
 2074 0b2a D4000000 		.4byte	.LFE207-.LFB207
 2075 0b2e 01       		.uleb128 0x1
 2076 0b2f 9C       		.byte	0x9c
 2077 0b30 080C0000 		.4byte	0xc08
 2078 0b34 21       		.uleb128 0x21
 2079 0b35 F20A0000 		.4byte	0xaf2
 2080 0b39 00000000 		.4byte	.LLST0
 2081 0b3d 21       		.uleb128 0x21
 2082 0b3e FD0A0000 		.4byte	0xafd
 2083 0b42 7F000000 		.4byte	.LLST1
 2084 0b46 22       		.uleb128 0x22
 2085 0b47 CE0A0000 		.4byte	0xace
 2086 0b4b 0A000000 		.4byte	.LBB21
 2087 0b4f 00000000 		.4byte	.Ldebug_ranges0+0
 2088 0b53 01       		.byte	0x1
 2089 0b54 3E       		.byte	0x3e
 2090 0b55 630B0000 		.4byte	0xb63
 2091 0b59 21       		.uleb128 0x21
 2092 0b5a DA0A0000 		.4byte	0xada
 2093 0b5e 04010000 		.4byte	.LLST2
 2094 0b62 00       		.byte	0
 2095 0b63 23       		.uleb128 0x23
 2096 0b64 20000000 		.4byte	.Ldebug_ranges0+0x20
 2097 0b68 F60B0000 		.4byte	0xbf6
 2098 0b6c 21       		.uleb128 0x21
 2099 0b6d FD0A0000 		.4byte	0xafd
 2100 0b71 22010000 		.4byte	.LLST3
 2101 0b75 21       		.uleb128 0x21
 2102 0b76 F20A0000 		.4byte	0xaf2
 2103 0b7a 8E010000 		.4byte	.LLST4
 2104 0b7e 23       		.uleb128 0x23
 2105 0b7f 50000000 		.4byte	.Ldebug_ranges0+0x50
ARM GAS  /tmp/ccT0wPuQ.s 			page 38


 2106 0b83 A70B0000 		.4byte	0xba7
 2107 0b87 24       		.uleb128 0x24
 2108 0b88 090B0000 		.4byte	0xb09
 2109 0b8c F7010000 		.4byte	.LLST5
 2110 0b90 24       		.uleb128 0x24
 2111 0b91 140B0000 		.4byte	0xb14
 2112 0b95 0A020000 		.4byte	.LLST6
 2113 0b99 25       		.uleb128 0x25
 2114 0b9a 72000000 		.4byte	.LVL7
 2115 0b9e 26       		.uleb128 0x26
 2116 0b9f 01       		.uleb128 0x1
 2117 0ba0 50       		.byte	0x50
 2118 0ba1 03       		.uleb128 0x3
 2119 0ba2 F3       		.byte	0xf3
 2120 0ba3 01       		.uleb128 0x1
 2121 0ba4 50       		.byte	0x50
 2122 0ba5 00       		.byte	0
 2123 0ba6 00       		.byte	0
 2124 0ba7 22       		.uleb128 0x22
 2125 0ba8 CE0A0000 		.4byte	0xace
 2126 0bac 88000000 		.4byte	.LBB31
 2127 0bb0 68000000 		.4byte	.Ldebug_ranges0+0x68
 2128 0bb4 01       		.byte	0x1
 2129 0bb5 43       		.byte	0x43
 2130 0bb6 C40B0000 		.4byte	0xbc4
 2131 0bba 21       		.uleb128 0x21
 2132 0bbb DA0A0000 		.4byte	0xada
 2133 0bbf 2B020000 		.4byte	.LLST7
 2134 0bc3 00       		.byte	0
 2135 0bc4 27       		.uleb128 0x27
 2136 0bc5 88000000 		.4byte	.LVL9
 2137 0bc9 D50B0000 		.4byte	0xbd5
 2138 0bcd 26       		.uleb128 0x26
 2139 0bce 01       		.uleb128 0x1
 2140 0bcf 50       		.byte	0x50
 2141 0bd0 03       		.uleb128 0x3
 2142 0bd1 F3       		.byte	0xf3
 2143 0bd2 01       		.uleb128 0x1
 2144 0bd3 50       		.byte	0x50
 2145 0bd4 00       		.byte	0
 2146 0bd5 28       		.uleb128 0x28
 2147 0bd6 B4000000 		.4byte	.LVL11
 2148 0bda 02       		.uleb128 0x2
 2149 0bdb 77       		.byte	0x77
 2150 0bdc 00       		.sleb128 0
 2151 0bdd E80B0000 		.4byte	0xbe8
 2152 0be1 26       		.uleb128 0x26
 2153 0be2 01       		.uleb128 0x1
 2154 0be3 50       		.byte	0x50
 2155 0be4 02       		.uleb128 0x2
 2156 0be5 74       		.byte	0x74
 2157 0be6 00       		.sleb128 0
 2158 0be7 00       		.byte	0
 2159 0be8 25       		.uleb128 0x25
 2160 0be9 D4000000 		.4byte	.LVL16
 2161 0bed 26       		.uleb128 0x26
 2162 0bee 01       		.uleb128 0x1
ARM GAS  /tmp/ccT0wPuQ.s 			page 39


 2163 0bef 50       		.byte	0x50
 2164 0bf0 03       		.uleb128 0x3
 2165 0bf1 F3       		.byte	0xf3
 2166 0bf2 01       		.uleb128 0x1
 2167 0bf3 50       		.byte	0x50
 2168 0bf4 00       		.byte	0
 2169 0bf5 00       		.byte	0
 2170 0bf6 29       		.uleb128 0x29
 2171 0bf7 34000000 		.4byte	.LVL3
 2172 0bfb 26       		.uleb128 0x26
 2173 0bfc 01       		.uleb128 0x1
 2174 0bfd 51       		.byte	0x51
 2175 0bfe 01       		.uleb128 0x1
 2176 0bff 30       		.byte	0x30
 2177 0c00 26       		.uleb128 0x26
 2178 0c01 01       		.uleb128 0x1
 2179 0c02 50       		.byte	0x50
 2180 0c03 02       		.uleb128 0x2
 2181 0c04 74       		.byte	0x74
 2182 0c05 00       		.sleb128 0
 2183 0c06 00       		.byte	0
 2184 0c07 00       		.byte	0
 2185 0c08 2A       		.uleb128 0x2a
 2186 0c09 BC040000 		.4byte	.LASF174
 2187 0c0d 01       		.byte	0x1
 2188 0c0e 59       		.byte	0x59
 2189 0c0f 00000000 		.4byte	.LFB208
 2190 0c13 6C000000 		.4byte	.LFE208-.LFB208
 2191 0c17 01       		.uleb128 0x1
 2192 0c18 9C       		.byte	0x9c
 2193 0c19 2E0C0000 		.4byte	0xc2e
 2194 0c1d 2B       		.uleb128 0x2b
 2195 0c1e 0C000000 		.4byte	.LVL17
 2196 0c22 8D0D0000 		.4byte	0xd8d
 2197 0c26 26       		.uleb128 0x26
 2198 0c27 01       		.uleb128 0x1
 2199 0c28 50       		.byte	0x50
 2200 0c29 02       		.uleb128 0x2
 2201 0c2a 74       		.byte	0x74
 2202 0c2b 00       		.sleb128 0
 2203 0c2c 00       		.byte	0
 2204 0c2d 00       		.byte	0
 2205 0c2e 2A       		.uleb128 0x2a
 2206 0c2f 7E070000 		.4byte	.LASF175
 2207 0c33 01       		.byte	0x1
 2208 0c34 81       		.byte	0x81
 2209 0c35 00000000 		.4byte	.LFB209
 2210 0c39 4C000000 		.4byte	.LFE209-.LFB209
 2211 0c3d 01       		.uleb128 0x1
 2212 0c3e 9C       		.byte	0x9c
 2213 0c3f 8D0C0000 		.4byte	0xc8d
 2214 0c43 2C       		.uleb128 0x2c
 2215 0c44 35080000 		.4byte	.LASF170
 2216 0c48 01       		.byte	0x1
 2217 0c49 81       		.byte	0x81
 2218 0c4a C2090000 		.4byte	0x9c2
 2219 0c4e 49020000 		.4byte	.LLST8
ARM GAS  /tmp/ccT0wPuQ.s 			page 40


 2220 0c52 2D       		.uleb128 0x2d
 2221 0c53 53060000 		.4byte	.LASF187
 2222 0c57 9D0C0000 		.4byte	0xc9d
 2223 0c5b 2E       		.uleb128 0x2e
 2224 0c5c 1C000000 		.4byte	.LBB43
 2225 0c60 30000000 		.4byte	.LBE43-.LBB43
 2226 0c64 2F       		.uleb128 0x2f
 2227 0c65 6200     		.ascii	"b\000"
 2228 0c67 01       		.byte	0x1
 2229 0c68 87       		.byte	0x87
 2230 0c69 AD080000 		.4byte	0x8ad
 2231 0c6d 2B       		.uleb128 0x2b
 2232 0c6e 28000000 		.4byte	.LVL22
 2233 0c72 9E0D0000 		.4byte	0xd9e
 2234 0c76 26       		.uleb128 0x26
 2235 0c77 01       		.uleb128 0x1
 2236 0c78 53       		.byte	0x53
 2237 0c79 02       		.uleb128 0x2
 2238 0c7a 74       		.byte	0x74
 2239 0c7b 00       		.sleb128 0
 2240 0c7c 26       		.uleb128 0x26
 2241 0c7d 01       		.uleb128 0x1
 2242 0c7e 52       		.byte	0x52
 2243 0c7f 05       		.uleb128 0x5
 2244 0c80 03       		.byte	0x3
 2245 0c81 00000000 		.4byte	adc_lld_serve_rx_interrupt
 2246 0c85 26       		.uleb128 0x26
 2247 0c86 01       		.uleb128 0x1
 2248 0c87 51       		.byte	0x51
 2249 0c88 01       		.uleb128 0x1
 2250 0c89 36       		.byte	0x36
 2251 0c8a 00       		.byte	0
 2252 0c8b 00       		.byte	0
 2253 0c8c 00       		.byte	0
 2254 0c8d 17       		.uleb128 0x17
 2255 0c8e EA070000 		.4byte	0x7ea
 2256 0c92 9D0C0000 		.4byte	0xc9d
 2257 0c96 18       		.uleb128 0x18
 2258 0c97 1B040000 		.4byte	0x41b
 2259 0c9b 0D       		.byte	0xd
 2260 0c9c 00       		.byte	0
 2261 0c9d 16       		.uleb128 0x16
 2262 0c9e 8D0C0000 		.4byte	0xc8d
 2263 0ca2 2A       		.uleb128 0x2a
 2264 0ca3 52000000 		.4byte	.LASF176
 2265 0ca7 01       		.byte	0x1
 2266 0ca8 A0       		.byte	0xa0
 2267 0ca9 00000000 		.4byte	.LFB210
 2268 0cad 38000000 		.4byte	.LFE210-.LFB210
 2269 0cb1 01       		.uleb128 0x1
 2270 0cb2 9C       		.byte	0x9c
 2271 0cb3 D00C0000 		.4byte	0xcd0
 2272 0cb7 2C       		.uleb128 0x2c
 2273 0cb8 35080000 		.4byte	.LASF170
 2274 0cbc 01       		.byte	0x1
 2275 0cbd A0       		.byte	0xa0
 2276 0cbe C2090000 		.4byte	0x9c2
ARM GAS  /tmp/ccT0wPuQ.s 			page 41


 2277 0cc2 7D020000 		.4byte	.LLST9
 2278 0cc6 30       		.uleb128 0x30
 2279 0cc7 1E000000 		.4byte	.LVL27
 2280 0ccb C30D0000 		.4byte	0xdc3
 2281 0ccf 00       		.byte	0
 2282 0cd0 2A       		.uleb128 0x2a
 2283 0cd1 58020000 		.4byte	.LASF177
 2284 0cd5 01       		.byte	0x1
 2285 0cd6 B6       		.byte	0xb6
 2286 0cd7 00000000 		.4byte	.LFB211
 2287 0cdb 6E000000 		.4byte	.LFE211-.LFB211
 2288 0cdf 01       		.uleb128 0x1
 2289 0ce0 9C       		.byte	0x9c
 2290 0ce1 220D0000 		.4byte	0xd22
 2291 0ce5 2C       		.uleb128 0x2c
 2292 0ce6 35080000 		.4byte	.LASF170
 2293 0cea 01       		.byte	0x1
 2294 0ceb B6       		.byte	0xb6
 2295 0cec C2090000 		.4byte	0x9c2
 2296 0cf0 B7020000 		.4byte	.LLST10
 2297 0cf4 31       		.uleb128 0x31
 2298 0cf5 F7060000 		.4byte	.LASF178
 2299 0cf9 01       		.byte	0x1
 2300 0cfa B7       		.byte	0xb7
 2301 0cfb CA000000 		.4byte	0xca
 2302 0cff D8020000 		.4byte	.LLST11
 2303 0d03 32       		.uleb128 0x32
 2304 0d04 63723200 		.ascii	"cr2\000"
 2305 0d08 01       		.byte	0x1
 2306 0d09 B7       		.byte	0xb7
 2307 0d0a CA000000 		.4byte	0xca
 2308 0d0e 23030000 		.4byte	.LLST12
 2309 0d12 31       		.uleb128 0x31
 2310 0d13 AB040000 		.4byte	.LASF153
 2311 0d17 01       		.byte	0x1
 2312 0d18 B8       		.byte	0xb8
 2313 0d19 B20A0000 		.4byte	0xab2
 2314 0d1d 47030000 		.4byte	.LLST13
 2315 0d21 00       		.byte	0
 2316 0d22 20       		.uleb128 0x20
 2317 0d23 CE0A0000 		.4byte	0xace
 2318 0d27 00000000 		.4byte	.LFB212
 2319 0d2b 22000000 		.4byte	.LFE212-.LFB212
 2320 0d2f 01       		.uleb128 0x1
 2321 0d30 9C       		.byte	0x9c
 2322 0d31 3F0D0000 		.4byte	0xd3f
 2323 0d35 21       		.uleb128 0x21
 2324 0d36 DA0A0000 		.4byte	0xada
 2325 0d3a 69030000 		.4byte	.LLST14
 2326 0d3e 00       		.byte	0
 2327 0d3f 33       		.uleb128 0x33
 2328 0d40 BB000000 		.4byte	.LASF179
 2329 0d44 11       		.byte	0x11
 2330 0d45 5506     		.2byte	0x655
 2331 0d47 4B0D0000 		.4byte	0xd4b
 2332 0d4b 0F       		.uleb128 0xf
 2333 0d4c BF000000 		.4byte	0xbf
ARM GAS  /tmp/ccT0wPuQ.s 			page 42


 2334 0d50 34       		.uleb128 0x34
 2335 0d51 636800   		.ascii	"ch\000"
 2336 0d54 07       		.byte	0x7
 2337 0d55 0902     		.2byte	0x209
 2338 0d57 B4030000 		.4byte	0x3b4
 2339 0d5b 17       		.uleb128 0x17
 2340 0d5c 81080000 		.4byte	0x881
 2341 0d60 6B0D0000 		.4byte	0xd6b
 2342 0d64 18       		.uleb128 0x18
 2343 0d65 1B040000 		.4byte	0x41b
 2344 0d69 0B       		.byte	0xb
 2345 0d6a 00       		.byte	0
 2346 0d6b 33       		.uleb128 0x33
 2347 0d6c 92000000 		.4byte	.LASF180
 2348 0d70 0E       		.byte	0xe
 2349 0d71 CD01     		.2byte	0x1cd
 2350 0d73 770D0000 		.4byte	0xd77
 2351 0d77 16       		.uleb128 0x16
 2352 0d78 5B0D0000 		.4byte	0xd5b
 2353 0d7c 35       		.uleb128 0x35
 2354 0d7d BE070000 		.4byte	.LASF181
 2355 0d81 01       		.byte	0x1
 2356 0d82 27       		.byte	0x27
 2357 0d83 1C090000 		.4byte	0x91c
 2358 0d87 05       		.uleb128 0x5
 2359 0d88 03       		.byte	0x3
 2360 0d89 00000000 		.4byte	ADCD1
 2361 0d8d 36       		.uleb128 0x36
 2362 0d8e 91030000 		.4byte	.LASF183
 2363 0d92 0F       		.byte	0xf
 2364 0d93 FB       		.byte	0xfb
 2365 0d94 9E0D0000 		.4byte	0xd9e
 2366 0d98 0C       		.uleb128 0xc
 2367 0d99 C2090000 		.4byte	0x9c2
 2368 0d9d 00       		.byte	0
 2369 0d9e 37       		.uleb128 0x37
 2370 0d9f 42080000 		.4byte	.LASF188
 2371 0da3 0E       		.byte	0xe
 2372 0da4 D501     		.2byte	0x1d5
 2373 0da6 AD080000 		.4byte	0x8ad
 2374 0daa C30D0000 		.4byte	0xdc3
 2375 0dae 0C       		.uleb128 0xc
 2376 0daf C30A0000 		.4byte	0xac3
 2377 0db3 0C       		.uleb128 0xc
 2378 0db4 CA000000 		.4byte	0xca
 2379 0db8 0C       		.uleb128 0xc
 2380 0db9 8C080000 		.4byte	0x88c
 2381 0dbd 0C       		.uleb128 0xc
 2382 0dbe E5020000 		.4byte	0x2e5
 2383 0dc2 00       		.byte	0
 2384 0dc3 38       		.uleb128 0x38
 2385 0dc4 E6060000 		.4byte	.LASF189
 2386 0dc8 0E       		.byte	0xe
 2387 0dc9 D901     		.2byte	0x1d9
 2388 0dcb 0C       		.uleb128 0xc
 2389 0dcc C30A0000 		.4byte	0xac3
 2390 0dd0 00       		.byte	0
ARM GAS  /tmp/ccT0wPuQ.s 			page 43


 2391 0dd1 00       		.byte	0
 2392              		.section	.debug_abbrev,"",%progbits
 2393              	.Ldebug_abbrev0:
 2394 0000 01       		.uleb128 0x1
 2395 0001 11       		.uleb128 0x11
 2396 0002 01       		.byte	0x1
 2397 0003 25       		.uleb128 0x25
 2398 0004 0E       		.uleb128 0xe
 2399 0005 13       		.uleb128 0x13
 2400 0006 0B       		.uleb128 0xb
 2401 0007 03       		.uleb128 0x3
 2402 0008 0E       		.uleb128 0xe
 2403 0009 55       		.uleb128 0x55
 2404 000a 17       		.uleb128 0x17
 2405 000b 11       		.uleb128 0x11
 2406 000c 01       		.uleb128 0x1
 2407 000d 10       		.uleb128 0x10
 2408 000e 17       		.uleb128 0x17
 2409 000f 00       		.byte	0
 2410 0010 00       		.byte	0
 2411 0011 02       		.uleb128 0x2
 2412 0012 24       		.uleb128 0x24
 2413 0013 00       		.byte	0
 2414 0014 0B       		.uleb128 0xb
 2415 0015 0B       		.uleb128 0xb
 2416 0016 3E       		.uleb128 0x3e
 2417 0017 0B       		.uleb128 0xb
 2418 0018 03       		.uleb128 0x3
 2419 0019 08       		.uleb128 0x8
 2420 001a 00       		.byte	0
 2421 001b 00       		.byte	0
 2422 001c 03       		.uleb128 0x3
 2423 001d 16       		.uleb128 0x16
 2424 001e 00       		.byte	0
 2425 001f 03       		.uleb128 0x3
 2426 0020 0E       		.uleb128 0xe
 2427 0021 3A       		.uleb128 0x3a
 2428 0022 0B       		.uleb128 0xb
 2429 0023 3B       		.uleb128 0x3b
 2430 0024 0B       		.uleb128 0xb
 2431 0025 49       		.uleb128 0x49
 2432 0026 13       		.uleb128 0x13
 2433 0027 00       		.byte	0
 2434 0028 00       		.byte	0
 2435 0029 04       		.uleb128 0x4
 2436 002a 24       		.uleb128 0x24
 2437 002b 00       		.byte	0
 2438 002c 0B       		.uleb128 0xb
 2439 002d 0B       		.uleb128 0xb
 2440 002e 3E       		.uleb128 0x3e
 2441 002f 0B       		.uleb128 0xb
 2442 0030 03       		.uleb128 0x3
 2443 0031 0E       		.uleb128 0xe
 2444 0032 00       		.byte	0
 2445 0033 00       		.byte	0
 2446 0034 05       		.uleb128 0x5
 2447 0035 13       		.uleb128 0x13
ARM GAS  /tmp/ccT0wPuQ.s 			page 44


 2448 0036 01       		.byte	0x1
 2449 0037 03       		.uleb128 0x3
 2450 0038 0E       		.uleb128 0xe
 2451 0039 0B       		.uleb128 0xb
 2452 003a 0B       		.uleb128 0xb
 2453 003b 3A       		.uleb128 0x3a
 2454 003c 0B       		.uleb128 0xb
 2455 003d 3B       		.uleb128 0x3b
 2456 003e 0B       		.uleb128 0xb
 2457 003f 01       		.uleb128 0x1
 2458 0040 13       		.uleb128 0x13
 2459 0041 00       		.byte	0
 2460 0042 00       		.byte	0
 2461 0043 06       		.uleb128 0x6
 2462 0044 0D       		.uleb128 0xd
 2463 0045 00       		.byte	0
 2464 0046 03       		.uleb128 0x3
 2465 0047 0E       		.uleb128 0xe
 2466 0048 3A       		.uleb128 0x3a
 2467 0049 0B       		.uleb128 0xb
 2468 004a 3B       		.uleb128 0x3b
 2469 004b 0B       		.uleb128 0xb
 2470 004c 49       		.uleb128 0x49
 2471 004d 13       		.uleb128 0x13
 2472 004e 38       		.uleb128 0x38
 2473 004f 0B       		.uleb128 0xb
 2474 0050 00       		.byte	0
 2475 0051 00       		.byte	0
 2476 0052 07       		.uleb128 0x7
 2477 0053 0D       		.uleb128 0xd
 2478 0054 00       		.byte	0
 2479 0055 03       		.uleb128 0x3
 2480 0056 08       		.uleb128 0x8
 2481 0057 3A       		.uleb128 0x3a
 2482 0058 0B       		.uleb128 0xb
 2483 0059 3B       		.uleb128 0x3b
 2484 005a 05       		.uleb128 0x5
 2485 005b 49       		.uleb128 0x49
 2486 005c 13       		.uleb128 0x13
 2487 005d 38       		.uleb128 0x38
 2488 005e 0B       		.uleb128 0xb
 2489 005f 00       		.byte	0
 2490 0060 00       		.byte	0
 2491 0061 08       		.uleb128 0x8
 2492 0062 0D       		.uleb128 0xd
 2493 0063 00       		.byte	0
 2494 0064 03       		.uleb128 0x3
 2495 0065 0E       		.uleb128 0xe
 2496 0066 3A       		.uleb128 0x3a
 2497 0067 0B       		.uleb128 0xb
 2498 0068 3B       		.uleb128 0x3b
 2499 0069 05       		.uleb128 0x5
 2500 006a 49       		.uleb128 0x49
 2501 006b 13       		.uleb128 0x13
 2502 006c 38       		.uleb128 0x38
 2503 006d 0B       		.uleb128 0xb
 2504 006e 00       		.byte	0
ARM GAS  /tmp/ccT0wPuQ.s 			page 45


 2505 006f 00       		.byte	0
 2506 0070 09       		.uleb128 0x9
 2507 0071 0F       		.uleb128 0xf
 2508 0072 00       		.byte	0
 2509 0073 0B       		.uleb128 0xb
 2510 0074 0B       		.uleb128 0xb
 2511 0075 49       		.uleb128 0x49
 2512 0076 13       		.uleb128 0x13
 2513 0077 00       		.byte	0
 2514 0078 00       		.byte	0
 2515 0079 0A       		.uleb128 0xa
 2516 007a 13       		.uleb128 0x13
 2517 007b 01       		.byte	0x1
 2518 007c 03       		.uleb128 0x3
 2519 007d 0E       		.uleb128 0xe
 2520 007e 0B       		.uleb128 0xb
 2521 007f 0B       		.uleb128 0xb
 2522 0080 3A       		.uleb128 0x3a
 2523 0081 0B       		.uleb128 0xb
 2524 0082 3B       		.uleb128 0x3b
 2525 0083 05       		.uleb128 0x5
 2526 0084 01       		.uleb128 0x1
 2527 0085 13       		.uleb128 0x13
 2528 0086 00       		.byte	0
 2529 0087 00       		.byte	0
 2530 0088 0B       		.uleb128 0xb
 2531 0089 15       		.uleb128 0x15
 2532 008a 01       		.byte	0x1
 2533 008b 27       		.uleb128 0x27
 2534 008c 19       		.uleb128 0x19
 2535 008d 01       		.uleb128 0x1
 2536 008e 13       		.uleb128 0x13
 2537 008f 00       		.byte	0
 2538 0090 00       		.byte	0
 2539 0091 0C       		.uleb128 0xc
 2540 0092 05       		.uleb128 0x5
 2541 0093 00       		.byte	0
 2542 0094 49       		.uleb128 0x49
 2543 0095 13       		.uleb128 0x13
 2544 0096 00       		.byte	0
 2545 0097 00       		.byte	0
 2546 0098 0D       		.uleb128 0xd
 2547 0099 0F       		.uleb128 0xf
 2548 009a 00       		.byte	0
 2549 009b 0B       		.uleb128 0xb
 2550 009c 0B       		.uleb128 0xb
 2551 009d 00       		.byte	0
 2552 009e 00       		.byte	0
 2553 009f 0E       		.uleb128 0xe
 2554 00a0 13       		.uleb128 0x13
 2555 00a1 01       		.byte	0x1
 2556 00a2 03       		.uleb128 0x3
 2557 00a3 0E       		.uleb128 0xe
 2558 00a4 0B       		.uleb128 0xb
 2559 00a5 05       		.uleb128 0x5
 2560 00a6 3A       		.uleb128 0x3a
 2561 00a7 0B       		.uleb128 0xb
ARM GAS  /tmp/ccT0wPuQ.s 			page 46


 2562 00a8 3B       		.uleb128 0x3b
 2563 00a9 05       		.uleb128 0x5
 2564 00aa 01       		.uleb128 0x1
 2565 00ab 13       		.uleb128 0x13
 2566 00ac 00       		.byte	0
 2567 00ad 00       		.byte	0
 2568 00ae 0F       		.uleb128 0xf
 2569 00af 35       		.uleb128 0x35
 2570 00b0 00       		.byte	0
 2571 00b1 49       		.uleb128 0x49
 2572 00b2 13       		.uleb128 0x13
 2573 00b3 00       		.byte	0
 2574 00b4 00       		.byte	0
 2575 00b5 10       		.uleb128 0x10
 2576 00b6 13       		.uleb128 0x13
 2577 00b7 01       		.byte	0x1
 2578 00b8 0B       		.uleb128 0xb
 2579 00b9 0B       		.uleb128 0xb
 2580 00ba 3A       		.uleb128 0x3a
 2581 00bb 0B       		.uleb128 0xb
 2582 00bc 3B       		.uleb128 0x3b
 2583 00bd 0B       		.uleb128 0xb
 2584 00be 01       		.uleb128 0x1
 2585 00bf 13       		.uleb128 0x13
 2586 00c0 00       		.byte	0
 2587 00c1 00       		.byte	0
 2588 00c2 11       		.uleb128 0x11
 2589 00c3 0D       		.uleb128 0xd
 2590 00c4 00       		.byte	0
 2591 00c5 03       		.uleb128 0x3
 2592 00c6 08       		.uleb128 0x8
 2593 00c7 3A       		.uleb128 0x3a
 2594 00c8 0B       		.uleb128 0xb
 2595 00c9 3B       		.uleb128 0x3b
 2596 00ca 0B       		.uleb128 0xb
 2597 00cb 49       		.uleb128 0x49
 2598 00cc 13       		.uleb128 0x13
 2599 00cd 38       		.uleb128 0x38
 2600 00ce 0B       		.uleb128 0xb
 2601 00cf 00       		.byte	0
 2602 00d0 00       		.byte	0
 2603 00d1 12       		.uleb128 0x12
 2604 00d2 13       		.uleb128 0x13
 2605 00d3 01       		.byte	0x1
 2606 00d4 0B       		.uleb128 0xb
 2607 00d5 0B       		.uleb128 0xb
 2608 00d6 3A       		.uleb128 0x3a
 2609 00d7 0B       		.uleb128 0xb
 2610 00d8 3B       		.uleb128 0x3b
 2611 00d9 05       		.uleb128 0x5
 2612 00da 01       		.uleb128 0x1
 2613 00db 13       		.uleb128 0x13
 2614 00dc 00       		.byte	0
 2615 00dd 00       		.byte	0
 2616 00de 13       		.uleb128 0x13
 2617 00df 16       		.uleb128 0x16
 2618 00e0 00       		.byte	0
ARM GAS  /tmp/ccT0wPuQ.s 			page 47


 2619 00e1 03       		.uleb128 0x3
 2620 00e2 0E       		.uleb128 0xe
 2621 00e3 3A       		.uleb128 0x3a
 2622 00e4 0B       		.uleb128 0xb
 2623 00e5 3B       		.uleb128 0x3b
 2624 00e6 05       		.uleb128 0x5
 2625 00e7 49       		.uleb128 0x49
 2626 00e8 13       		.uleb128 0x13
 2627 00e9 00       		.byte	0
 2628 00ea 00       		.byte	0
 2629 00eb 14       		.uleb128 0x14
 2630 00ec 17       		.uleb128 0x17
 2631 00ed 01       		.byte	0x1
 2632 00ee 0B       		.uleb128 0xb
 2633 00ef 0B       		.uleb128 0xb
 2634 00f0 3A       		.uleb128 0x3a
 2635 00f1 0B       		.uleb128 0xb
 2636 00f2 3B       		.uleb128 0x3b
 2637 00f3 0B       		.uleb128 0xb
 2638 00f4 01       		.uleb128 0x1
 2639 00f5 13       		.uleb128 0x13
 2640 00f6 00       		.byte	0
 2641 00f7 00       		.byte	0
 2642 00f8 15       		.uleb128 0x15
 2643 00f9 0D       		.uleb128 0xd
 2644 00fa 00       		.byte	0
 2645 00fb 03       		.uleb128 0x3
 2646 00fc 0E       		.uleb128 0xe
 2647 00fd 3A       		.uleb128 0x3a
 2648 00fe 0B       		.uleb128 0xb
 2649 00ff 3B       		.uleb128 0x3b
 2650 0100 05       		.uleb128 0x5
 2651 0101 49       		.uleb128 0x49
 2652 0102 13       		.uleb128 0x13
 2653 0103 00       		.byte	0
 2654 0104 00       		.byte	0
 2655 0105 16       		.uleb128 0x16
 2656 0106 26       		.uleb128 0x26
 2657 0107 00       		.byte	0
 2658 0108 49       		.uleb128 0x49
 2659 0109 13       		.uleb128 0x13
 2660 010a 00       		.byte	0
 2661 010b 00       		.byte	0
 2662 010c 17       		.uleb128 0x17
 2663 010d 01       		.uleb128 0x1
 2664 010e 01       		.byte	0x1
 2665 010f 49       		.uleb128 0x49
 2666 0110 13       		.uleb128 0x13
 2667 0111 01       		.uleb128 0x1
 2668 0112 13       		.uleb128 0x13
 2669 0113 00       		.byte	0
 2670 0114 00       		.byte	0
 2671 0115 18       		.uleb128 0x18
 2672 0116 21       		.uleb128 0x21
 2673 0117 00       		.byte	0
 2674 0118 49       		.uleb128 0x49
 2675 0119 13       		.uleb128 0x13
ARM GAS  /tmp/ccT0wPuQ.s 			page 48


 2676 011a 2F       		.uleb128 0x2f
 2677 011b 0B       		.uleb128 0xb
 2678 011c 00       		.byte	0
 2679 011d 00       		.byte	0
 2680 011e 19       		.uleb128 0x19
 2681 011f 04       		.uleb128 0x4
 2682 0120 01       		.byte	0x1
 2683 0121 0B       		.uleb128 0xb
 2684 0122 0B       		.uleb128 0xb
 2685 0123 3A       		.uleb128 0x3a
 2686 0124 0B       		.uleb128 0xb
 2687 0125 3B       		.uleb128 0x3b
 2688 0126 0B       		.uleb128 0xb
 2689 0127 01       		.uleb128 0x1
 2690 0128 13       		.uleb128 0x13
 2691 0129 00       		.byte	0
 2692 012a 00       		.byte	0
 2693 012b 1A       		.uleb128 0x1a
 2694 012c 28       		.uleb128 0x28
 2695 012d 00       		.byte	0
 2696 012e 03       		.uleb128 0x3
 2697 012f 0E       		.uleb128 0xe
 2698 0130 1C       		.uleb128 0x1c
 2699 0131 0D       		.uleb128 0xd
 2700 0132 00       		.byte	0
 2701 0133 00       		.byte	0
 2702 0134 1B       		.uleb128 0x1b
 2703 0135 2E       		.uleb128 0x2e
 2704 0136 01       		.byte	0x1
 2705 0137 3F       		.uleb128 0x3f
 2706 0138 19       		.uleb128 0x19
 2707 0139 03       		.uleb128 0x3
 2708 013a 0E       		.uleb128 0xe
 2709 013b 3A       		.uleb128 0x3a
 2710 013c 0B       		.uleb128 0xb
 2711 013d 3B       		.uleb128 0x3b
 2712 013e 0B       		.uleb128 0xb
 2713 013f 27       		.uleb128 0x27
 2714 0140 19       		.uleb128 0x19
 2715 0141 20       		.uleb128 0x20
 2716 0142 0B       		.uleb128 0xb
 2717 0143 01       		.uleb128 0x1
 2718 0144 13       		.uleb128 0x13
 2719 0145 00       		.byte	0
 2720 0146 00       		.byte	0
 2721 0147 1C       		.uleb128 0x1c
 2722 0148 05       		.uleb128 0x5
 2723 0149 00       		.byte	0
 2724 014a 03       		.uleb128 0x3
 2725 014b 0E       		.uleb128 0xe
 2726 014c 3A       		.uleb128 0x3a
 2727 014d 0B       		.uleb128 0xb
 2728 014e 3B       		.uleb128 0x3b
 2729 014f 0B       		.uleb128 0xb
 2730 0150 49       		.uleb128 0x49
 2731 0151 13       		.uleb128 0x13
 2732 0152 00       		.byte	0
ARM GAS  /tmp/ccT0wPuQ.s 			page 49


 2733 0153 00       		.byte	0
 2734 0154 1D       		.uleb128 0x1d
 2735 0155 2E       		.uleb128 0x2e
 2736 0156 01       		.byte	0x1
 2737 0157 03       		.uleb128 0x3
 2738 0158 0E       		.uleb128 0xe
 2739 0159 3A       		.uleb128 0x3a
 2740 015a 0B       		.uleb128 0xb
 2741 015b 3B       		.uleb128 0x3b
 2742 015c 0B       		.uleb128 0xb
 2743 015d 27       		.uleb128 0x27
 2744 015e 19       		.uleb128 0x19
 2745 015f 20       		.uleb128 0x20
 2746 0160 0B       		.uleb128 0xb
 2747 0161 01       		.uleb128 0x1
 2748 0162 13       		.uleb128 0x13
 2749 0163 00       		.byte	0
 2750 0164 00       		.byte	0
 2751 0165 1E       		.uleb128 0x1e
 2752 0166 0B       		.uleb128 0xb
 2753 0167 01       		.byte	0x1
 2754 0168 00       		.byte	0
 2755 0169 00       		.byte	0
 2756 016a 1F       		.uleb128 0x1f
 2757 016b 34       		.uleb128 0x34
 2758 016c 00       		.byte	0
 2759 016d 03       		.uleb128 0x3
 2760 016e 0E       		.uleb128 0xe
 2761 016f 3A       		.uleb128 0x3a
 2762 0170 0B       		.uleb128 0xb
 2763 0171 3B       		.uleb128 0x3b
 2764 0172 0B       		.uleb128 0xb
 2765 0173 49       		.uleb128 0x49
 2766 0174 13       		.uleb128 0x13
 2767 0175 00       		.byte	0
 2768 0176 00       		.byte	0
 2769 0177 20       		.uleb128 0x20
 2770 0178 2E       		.uleb128 0x2e
 2771 0179 01       		.byte	0x1
 2772 017a 31       		.uleb128 0x31
 2773 017b 13       		.uleb128 0x13
 2774 017c 11       		.uleb128 0x11
 2775 017d 01       		.uleb128 0x1
 2776 017e 12       		.uleb128 0x12
 2777 017f 06       		.uleb128 0x6
 2778 0180 40       		.uleb128 0x40
 2779 0181 18       		.uleb128 0x18
 2780 0182 9742     		.uleb128 0x2117
 2781 0184 19       		.uleb128 0x19
 2782 0185 01       		.uleb128 0x1
 2783 0186 13       		.uleb128 0x13
 2784 0187 00       		.byte	0
 2785 0188 00       		.byte	0
 2786 0189 21       		.uleb128 0x21
 2787 018a 05       		.uleb128 0x5
 2788 018b 00       		.byte	0
 2789 018c 31       		.uleb128 0x31
ARM GAS  /tmp/ccT0wPuQ.s 			page 50


 2790 018d 13       		.uleb128 0x13
 2791 018e 02       		.uleb128 0x2
 2792 018f 17       		.uleb128 0x17
 2793 0190 00       		.byte	0
 2794 0191 00       		.byte	0
 2795 0192 22       		.uleb128 0x22
 2796 0193 1D       		.uleb128 0x1d
 2797 0194 01       		.byte	0x1
 2798 0195 31       		.uleb128 0x31
 2799 0196 13       		.uleb128 0x13
 2800 0197 52       		.uleb128 0x52
 2801 0198 01       		.uleb128 0x1
 2802 0199 55       		.uleb128 0x55
 2803 019a 17       		.uleb128 0x17
 2804 019b 58       		.uleb128 0x58
 2805 019c 0B       		.uleb128 0xb
 2806 019d 59       		.uleb128 0x59
 2807 019e 0B       		.uleb128 0xb
 2808 019f 01       		.uleb128 0x1
 2809 01a0 13       		.uleb128 0x13
 2810 01a1 00       		.byte	0
 2811 01a2 00       		.byte	0
 2812 01a3 23       		.uleb128 0x23
 2813 01a4 0B       		.uleb128 0xb
 2814 01a5 01       		.byte	0x1
 2815 01a6 55       		.uleb128 0x55
 2816 01a7 17       		.uleb128 0x17
 2817 01a8 01       		.uleb128 0x1
 2818 01a9 13       		.uleb128 0x13
 2819 01aa 00       		.byte	0
 2820 01ab 00       		.byte	0
 2821 01ac 24       		.uleb128 0x24
 2822 01ad 34       		.uleb128 0x34
 2823 01ae 00       		.byte	0
 2824 01af 31       		.uleb128 0x31
 2825 01b0 13       		.uleb128 0x13
 2826 01b1 02       		.uleb128 0x2
 2827 01b2 17       		.uleb128 0x17
 2828 01b3 00       		.byte	0
 2829 01b4 00       		.byte	0
 2830 01b5 25       		.uleb128 0x25
 2831 01b6 898201   		.uleb128 0x4109
 2832 01b9 01       		.byte	0x1
 2833 01ba 11       		.uleb128 0x11
 2834 01bb 01       		.uleb128 0x1
 2835 01bc 9542     		.uleb128 0x2115
 2836 01be 19       		.uleb128 0x19
 2837 01bf 00       		.byte	0
 2838 01c0 00       		.byte	0
 2839 01c1 26       		.uleb128 0x26
 2840 01c2 8A8201   		.uleb128 0x410a
 2841 01c5 00       		.byte	0
 2842 01c6 02       		.uleb128 0x2
 2843 01c7 18       		.uleb128 0x18
 2844 01c8 9142     		.uleb128 0x2111
 2845 01ca 18       		.uleb128 0x18
 2846 01cb 00       		.byte	0
ARM GAS  /tmp/ccT0wPuQ.s 			page 51


 2847 01cc 00       		.byte	0
 2848 01cd 27       		.uleb128 0x27
 2849 01ce 898201   		.uleb128 0x4109
 2850 01d1 01       		.byte	0x1
 2851 01d2 11       		.uleb128 0x11
 2852 01d3 01       		.uleb128 0x1
 2853 01d4 9542     		.uleb128 0x2115
 2854 01d6 19       		.uleb128 0x19
 2855 01d7 01       		.uleb128 0x1
 2856 01d8 13       		.uleb128 0x13
 2857 01d9 00       		.byte	0
 2858 01da 00       		.byte	0
 2859 01db 28       		.uleb128 0x28
 2860 01dc 898201   		.uleb128 0x4109
 2861 01df 01       		.byte	0x1
 2862 01e0 11       		.uleb128 0x11
 2863 01e1 01       		.uleb128 0x1
 2864 01e2 9342     		.uleb128 0x2113
 2865 01e4 18       		.uleb128 0x18
 2866 01e5 01       		.uleb128 0x1
 2867 01e6 13       		.uleb128 0x13
 2868 01e7 00       		.byte	0
 2869 01e8 00       		.byte	0
 2870 01e9 29       		.uleb128 0x29
 2871 01ea 898201   		.uleb128 0x4109
 2872 01ed 01       		.byte	0x1
 2873 01ee 11       		.uleb128 0x11
 2874 01ef 01       		.uleb128 0x1
 2875 01f0 00       		.byte	0
 2876 01f1 00       		.byte	0
 2877 01f2 2A       		.uleb128 0x2a
 2878 01f3 2E       		.uleb128 0x2e
 2879 01f4 01       		.byte	0x1
 2880 01f5 3F       		.uleb128 0x3f
 2881 01f6 19       		.uleb128 0x19
 2882 01f7 03       		.uleb128 0x3
 2883 01f8 0E       		.uleb128 0xe
 2884 01f9 3A       		.uleb128 0x3a
 2885 01fa 0B       		.uleb128 0xb
 2886 01fb 3B       		.uleb128 0x3b
 2887 01fc 0B       		.uleb128 0xb
 2888 01fd 27       		.uleb128 0x27
 2889 01fe 19       		.uleb128 0x19
 2890 01ff 11       		.uleb128 0x11
 2891 0200 01       		.uleb128 0x1
 2892 0201 12       		.uleb128 0x12
 2893 0202 06       		.uleb128 0x6
 2894 0203 40       		.uleb128 0x40
 2895 0204 18       		.uleb128 0x18
 2896 0205 9742     		.uleb128 0x2117
 2897 0207 19       		.uleb128 0x19
 2898 0208 01       		.uleb128 0x1
 2899 0209 13       		.uleb128 0x13
 2900 020a 00       		.byte	0
 2901 020b 00       		.byte	0
 2902 020c 2B       		.uleb128 0x2b
 2903 020d 898201   		.uleb128 0x4109
ARM GAS  /tmp/ccT0wPuQ.s 			page 52


 2904 0210 01       		.byte	0x1
 2905 0211 11       		.uleb128 0x11
 2906 0212 01       		.uleb128 0x1
 2907 0213 31       		.uleb128 0x31
 2908 0214 13       		.uleb128 0x13
 2909 0215 00       		.byte	0
 2910 0216 00       		.byte	0
 2911 0217 2C       		.uleb128 0x2c
 2912 0218 05       		.uleb128 0x5
 2913 0219 00       		.byte	0
 2914 021a 03       		.uleb128 0x3
 2915 021b 0E       		.uleb128 0xe
 2916 021c 3A       		.uleb128 0x3a
 2917 021d 0B       		.uleb128 0xb
 2918 021e 3B       		.uleb128 0x3b
 2919 021f 0B       		.uleb128 0xb
 2920 0220 49       		.uleb128 0x49
 2921 0221 13       		.uleb128 0x13
 2922 0222 02       		.uleb128 0x2
 2923 0223 17       		.uleb128 0x17
 2924 0224 00       		.byte	0
 2925 0225 00       		.byte	0
 2926 0226 2D       		.uleb128 0x2d
 2927 0227 34       		.uleb128 0x34
 2928 0228 00       		.byte	0
 2929 0229 03       		.uleb128 0x3
 2930 022a 0E       		.uleb128 0xe
 2931 022b 49       		.uleb128 0x49
 2932 022c 13       		.uleb128 0x13
 2933 022d 34       		.uleb128 0x34
 2934 022e 19       		.uleb128 0x19
 2935 022f 00       		.byte	0
 2936 0230 00       		.byte	0
 2937 0231 2E       		.uleb128 0x2e
 2938 0232 0B       		.uleb128 0xb
 2939 0233 01       		.byte	0x1
 2940 0234 11       		.uleb128 0x11
 2941 0235 01       		.uleb128 0x1
 2942 0236 12       		.uleb128 0x12
 2943 0237 06       		.uleb128 0x6
 2944 0238 00       		.byte	0
 2945 0239 00       		.byte	0
 2946 023a 2F       		.uleb128 0x2f
 2947 023b 34       		.uleb128 0x34
 2948 023c 00       		.byte	0
 2949 023d 03       		.uleb128 0x3
 2950 023e 08       		.uleb128 0x8
 2951 023f 3A       		.uleb128 0x3a
 2952 0240 0B       		.uleb128 0xb
 2953 0241 3B       		.uleb128 0x3b
 2954 0242 0B       		.uleb128 0xb
 2955 0243 49       		.uleb128 0x49
 2956 0244 13       		.uleb128 0x13
 2957 0245 00       		.byte	0
 2958 0246 00       		.byte	0
 2959 0247 30       		.uleb128 0x30
 2960 0248 898201   		.uleb128 0x4109
ARM GAS  /tmp/ccT0wPuQ.s 			page 53


 2961 024b 00       		.byte	0
 2962 024c 11       		.uleb128 0x11
 2963 024d 01       		.uleb128 0x1
 2964 024e 31       		.uleb128 0x31
 2965 024f 13       		.uleb128 0x13
 2966 0250 00       		.byte	0
 2967 0251 00       		.byte	0
 2968 0252 31       		.uleb128 0x31
 2969 0253 34       		.uleb128 0x34
 2970 0254 00       		.byte	0
 2971 0255 03       		.uleb128 0x3
 2972 0256 0E       		.uleb128 0xe
 2973 0257 3A       		.uleb128 0x3a
 2974 0258 0B       		.uleb128 0xb
 2975 0259 3B       		.uleb128 0x3b
 2976 025a 0B       		.uleb128 0xb
 2977 025b 49       		.uleb128 0x49
 2978 025c 13       		.uleb128 0x13
 2979 025d 02       		.uleb128 0x2
 2980 025e 17       		.uleb128 0x17
 2981 025f 00       		.byte	0
 2982 0260 00       		.byte	0
 2983 0261 32       		.uleb128 0x32
 2984 0262 34       		.uleb128 0x34
 2985 0263 00       		.byte	0
 2986 0264 03       		.uleb128 0x3
 2987 0265 08       		.uleb128 0x8
 2988 0266 3A       		.uleb128 0x3a
 2989 0267 0B       		.uleb128 0xb
 2990 0268 3B       		.uleb128 0x3b
 2991 0269 0B       		.uleb128 0xb
 2992 026a 49       		.uleb128 0x49
 2993 026b 13       		.uleb128 0x13
 2994 026c 02       		.uleb128 0x2
 2995 026d 17       		.uleb128 0x17
 2996 026e 00       		.byte	0
 2997 026f 00       		.byte	0
 2998 0270 33       		.uleb128 0x33
 2999 0271 34       		.uleb128 0x34
 3000 0272 00       		.byte	0
 3001 0273 03       		.uleb128 0x3
 3002 0274 0E       		.uleb128 0xe
 3003 0275 3A       		.uleb128 0x3a
 3004 0276 0B       		.uleb128 0xb
 3005 0277 3B       		.uleb128 0x3b
 3006 0278 05       		.uleb128 0x5
 3007 0279 49       		.uleb128 0x49
 3008 027a 13       		.uleb128 0x13
 3009 027b 3F       		.uleb128 0x3f
 3010 027c 19       		.uleb128 0x19
 3011 027d 3C       		.uleb128 0x3c
 3012 027e 19       		.uleb128 0x19
 3013 027f 00       		.byte	0
 3014 0280 00       		.byte	0
 3015 0281 34       		.uleb128 0x34
 3016 0282 34       		.uleb128 0x34
 3017 0283 00       		.byte	0
ARM GAS  /tmp/ccT0wPuQ.s 			page 54


 3018 0284 03       		.uleb128 0x3
 3019 0285 08       		.uleb128 0x8
 3020 0286 3A       		.uleb128 0x3a
 3021 0287 0B       		.uleb128 0xb
 3022 0288 3B       		.uleb128 0x3b
 3023 0289 05       		.uleb128 0x5
 3024 028a 49       		.uleb128 0x49
 3025 028b 13       		.uleb128 0x13
 3026 028c 3F       		.uleb128 0x3f
 3027 028d 19       		.uleb128 0x19
 3028 028e 3C       		.uleb128 0x3c
 3029 028f 19       		.uleb128 0x19
 3030 0290 00       		.byte	0
 3031 0291 00       		.byte	0
 3032 0292 35       		.uleb128 0x35
 3033 0293 34       		.uleb128 0x34
 3034 0294 00       		.byte	0
 3035 0295 03       		.uleb128 0x3
 3036 0296 0E       		.uleb128 0xe
 3037 0297 3A       		.uleb128 0x3a
 3038 0298 0B       		.uleb128 0xb
 3039 0299 3B       		.uleb128 0x3b
 3040 029a 0B       		.uleb128 0xb
 3041 029b 49       		.uleb128 0x49
 3042 029c 13       		.uleb128 0x13
 3043 029d 3F       		.uleb128 0x3f
 3044 029e 19       		.uleb128 0x19
 3045 029f 02       		.uleb128 0x2
 3046 02a0 18       		.uleb128 0x18
 3047 02a1 00       		.byte	0
 3048 02a2 00       		.byte	0
 3049 02a3 36       		.uleb128 0x36
 3050 02a4 2E       		.uleb128 0x2e
 3051 02a5 01       		.byte	0x1
 3052 02a6 3F       		.uleb128 0x3f
 3053 02a7 19       		.uleb128 0x19
 3054 02a8 03       		.uleb128 0x3
 3055 02a9 0E       		.uleb128 0xe
 3056 02aa 3A       		.uleb128 0x3a
 3057 02ab 0B       		.uleb128 0xb
 3058 02ac 3B       		.uleb128 0x3b
 3059 02ad 0B       		.uleb128 0xb
 3060 02ae 27       		.uleb128 0x27
 3061 02af 19       		.uleb128 0x19
 3062 02b0 3C       		.uleb128 0x3c
 3063 02b1 19       		.uleb128 0x19
 3064 02b2 01       		.uleb128 0x1
 3065 02b3 13       		.uleb128 0x13
 3066 02b4 00       		.byte	0
 3067 02b5 00       		.byte	0
 3068 02b6 37       		.uleb128 0x37
 3069 02b7 2E       		.uleb128 0x2e
 3070 02b8 01       		.byte	0x1
 3071 02b9 3F       		.uleb128 0x3f
 3072 02ba 19       		.uleb128 0x19
 3073 02bb 03       		.uleb128 0x3
 3074 02bc 0E       		.uleb128 0xe
ARM GAS  /tmp/ccT0wPuQ.s 			page 55


 3075 02bd 3A       		.uleb128 0x3a
 3076 02be 0B       		.uleb128 0xb
 3077 02bf 3B       		.uleb128 0x3b
 3078 02c0 05       		.uleb128 0x5
 3079 02c1 27       		.uleb128 0x27
 3080 02c2 19       		.uleb128 0x19
 3081 02c3 49       		.uleb128 0x49
 3082 02c4 13       		.uleb128 0x13
 3083 02c5 3C       		.uleb128 0x3c
 3084 02c6 19       		.uleb128 0x19
 3085 02c7 01       		.uleb128 0x1
 3086 02c8 13       		.uleb128 0x13
 3087 02c9 00       		.byte	0
 3088 02ca 00       		.byte	0
 3089 02cb 38       		.uleb128 0x38
 3090 02cc 2E       		.uleb128 0x2e
 3091 02cd 01       		.byte	0x1
 3092 02ce 3F       		.uleb128 0x3f
 3093 02cf 19       		.uleb128 0x19
 3094 02d0 03       		.uleb128 0x3
 3095 02d1 0E       		.uleb128 0xe
 3096 02d2 3A       		.uleb128 0x3a
 3097 02d3 0B       		.uleb128 0xb
 3098 02d4 3B       		.uleb128 0x3b
 3099 02d5 05       		.uleb128 0x5
 3100 02d6 27       		.uleb128 0x27
 3101 02d7 19       		.uleb128 0x19
 3102 02d8 3C       		.uleb128 0x3c
 3103 02d9 19       		.uleb128 0x19
 3104 02da 00       		.byte	0
 3105 02db 00       		.byte	0
 3106 02dc 00       		.byte	0
 3107              		.section	.debug_loc,"",%progbits
 3108              	.Ldebug_loc0:
 3109              	.LLST0:
 3110 0000 00000000 		.4byte	.LVL0
 3111 0004 33000000 		.4byte	.LVL3-1
 3112 0008 0100     		.2byte	0x1
 3113 000a 50       		.byte	0x50
 3114 000b 33000000 		.4byte	.LVL3-1
 3115 000f 46000000 		.4byte	.LVL4
 3116 0013 0100     		.2byte	0x1
 3117 0015 54       		.byte	0x54
 3118 0016 46000000 		.4byte	.LVL4
 3119 001a 71000000 		.4byte	.LVL7-1
 3120 001e 0100     		.2byte	0x1
 3121 0020 50       		.byte	0x50
 3122 0021 71000000 		.4byte	.LVL7-1
 3123 0025 72000000 		.4byte	.LVL7
 3124 0029 0400     		.2byte	0x4
 3125 002b F3       		.byte	0xf3
 3126 002c 01       		.uleb128 0x1
 3127 002d 50       		.byte	0x50
 3128 002e 9F       		.byte	0x9f
 3129 002f 72000000 		.4byte	.LVL7
 3130 0033 87000000 		.4byte	.LVL9-1
 3131 0037 0100     		.2byte	0x1
ARM GAS  /tmp/ccT0wPuQ.s 			page 56


 3132 0039 50       		.byte	0x50
 3133 003a 87000000 		.4byte	.LVL9-1
 3134 003e 88000000 		.4byte	.LVL9
 3135 0042 0400     		.2byte	0x4
 3136 0044 F3       		.byte	0xf3
 3137 0045 01       		.uleb128 0x1
 3138 0046 50       		.byte	0x50
 3139 0047 9F       		.byte	0x9f
 3140 0048 88000000 		.4byte	.LVL9
 3141 004c B3000000 		.4byte	.LVL11-1
 3142 0050 0100     		.2byte	0x1
 3143 0052 50       		.byte	0x50
 3144 0053 B3000000 		.4byte	.LVL11-1
 3145 0057 CA000000 		.4byte	.LVL14
 3146 005b 0100     		.2byte	0x1
 3147 005d 54       		.byte	0x54
 3148 005e CA000000 		.4byte	.LVL14
 3149 0062 D3000000 		.4byte	.LVL16-1
 3150 0066 0100     		.2byte	0x1
 3151 0068 50       		.byte	0x50
 3152 0069 D3000000 		.4byte	.LVL16-1
 3153 006d D4000000 		.4byte	.LFE207
 3154 0071 0400     		.2byte	0x4
 3155 0073 F3       		.byte	0xf3
 3156 0074 01       		.uleb128 0x1
 3157 0075 50       		.byte	0x50
 3158 0076 9F       		.byte	0x9f
 3159 0077 00000000 		.4byte	0
 3160 007b 00000000 		.4byte	0
 3161              	.LLST1:
 3162 007f 00000000 		.4byte	.LVL0
 3163 0083 14000000 		.4byte	.LVL2
 3164 0087 0100     		.2byte	0x1
 3165 0089 51       		.byte	0x51
 3166 008a 14000000 		.4byte	.LVL2
 3167 008e 46000000 		.4byte	.LVL4
 3168 0092 0400     		.2byte	0x4
 3169 0094 F3       		.byte	0xf3
 3170 0095 01       		.uleb128 0x1
 3171 0096 51       		.byte	0x51
 3172 0097 9F       		.byte	0x9f
 3173 0098 46000000 		.4byte	.LVL4
 3174 009c 66000000 		.4byte	.LVL6
 3175 00a0 0100     		.2byte	0x1
 3176 00a2 51       		.byte	0x51
 3177 00a3 66000000 		.4byte	.LVL6
 3178 00a7 72000000 		.4byte	.LVL7
 3179 00ab 0400     		.2byte	0x4
 3180 00ad F3       		.byte	0xf3
 3181 00ae 01       		.uleb128 0x1
 3182 00af 51       		.byte	0x51
 3183 00b0 9F       		.byte	0x9f
 3184 00b1 72000000 		.4byte	.LVL7
 3185 00b5 84000000 		.4byte	.LVL8
 3186 00b9 0100     		.2byte	0x1
 3187 00bb 51       		.byte	0x51
 3188 00bc 84000000 		.4byte	.LVL8
ARM GAS  /tmp/ccT0wPuQ.s 			page 57


 3189 00c0 88000000 		.4byte	.LVL9
 3190 00c4 0400     		.2byte	0x4
 3191 00c6 F3       		.byte	0xf3
 3192 00c7 01       		.uleb128 0x1
 3193 00c8 51       		.byte	0x51
 3194 00c9 9F       		.byte	0x9f
 3195 00ca 88000000 		.4byte	.LVL9
 3196 00ce 8A000000 		.4byte	.LVL10
 3197 00d2 0100     		.2byte	0x1
 3198 00d4 51       		.byte	0x51
 3199 00d5 8A000000 		.4byte	.LVL10
 3200 00d9 CA000000 		.4byte	.LVL14
 3201 00dd 0400     		.2byte	0x4
 3202 00df F3       		.byte	0xf3
 3203 00e0 01       		.uleb128 0x1
 3204 00e1 51       		.byte	0x51
 3205 00e2 9F       		.byte	0x9f
 3206 00e3 CA000000 		.4byte	.LVL14
 3207 00e7 D2000000 		.4byte	.LVL15
 3208 00eb 0100     		.2byte	0x1
 3209 00ed 51       		.byte	0x51
 3210 00ee D2000000 		.4byte	.LVL15
 3211 00f2 D4000000 		.4byte	.LFE207
 3212 00f6 0400     		.2byte	0x4
 3213 00f8 F3       		.byte	0xf3
 3214 00f9 01       		.uleb128 0x1
 3215 00fa 51       		.byte	0x51
 3216 00fb 9F       		.byte	0x9f
 3217 00fc 00000000 		.4byte	0
 3218 0100 00000000 		.4byte	0
 3219              	.LLST2:
 3220 0104 0A000000 		.4byte	.LVL1
 3221 0108 33000000 		.4byte	.LVL3-1
 3222 010c 0100     		.2byte	0x1
 3223 010e 50       		.byte	0x50
 3224 010f 33000000 		.4byte	.LVL3-1
 3225 0113 46000000 		.4byte	.LVL4
 3226 0117 0100     		.2byte	0x1
 3227 0119 54       		.byte	0x54
 3228 011a 00000000 		.4byte	0
 3229 011e 00000000 		.4byte	0
 3230              	.LLST3:
 3231 0122 46000000 		.4byte	.LVL4
 3232 0126 66000000 		.4byte	.LVL6
 3233 012a 0100     		.2byte	0x1
 3234 012c 51       		.byte	0x51
 3235 012d 66000000 		.4byte	.LVL6
 3236 0131 72000000 		.4byte	.LVL7
 3237 0135 0400     		.2byte	0x4
 3238 0137 F3       		.byte	0xf3
 3239 0138 01       		.uleb128 0x1
 3240 0139 51       		.byte	0x51
 3241 013a 9F       		.byte	0x9f
 3242 013b 72000000 		.4byte	.LVL7
 3243 013f 84000000 		.4byte	.LVL8
 3244 0143 0100     		.2byte	0x1
 3245 0145 51       		.byte	0x51
ARM GAS  /tmp/ccT0wPuQ.s 			page 58


 3246 0146 84000000 		.4byte	.LVL8
 3247 014a 88000000 		.4byte	.LVL9
 3248 014e 0400     		.2byte	0x4
 3249 0150 F3       		.byte	0xf3
 3250 0151 01       		.uleb128 0x1
 3251 0152 51       		.byte	0x51
 3252 0153 9F       		.byte	0x9f
 3253 0154 88000000 		.4byte	.LVL9
 3254 0158 8A000000 		.4byte	.LVL10
 3255 015c 0100     		.2byte	0x1
 3256 015e 51       		.byte	0x51
 3257 015f 8A000000 		.4byte	.LVL10
 3258 0163 BE000000 		.4byte	.LVL13
 3259 0167 0400     		.2byte	0x4
 3260 0169 F3       		.byte	0xf3
 3261 016a 01       		.uleb128 0x1
 3262 016b 51       		.byte	0x51
 3263 016c 9F       		.byte	0x9f
 3264 016d CA000000 		.4byte	.LVL14
 3265 0171 D2000000 		.4byte	.LVL15
 3266 0175 0100     		.2byte	0x1
 3267 0177 51       		.byte	0x51
 3268 0178 D2000000 		.4byte	.LVL15
 3269 017c D4000000 		.4byte	.LFE207
 3270 0180 0400     		.2byte	0x4
 3271 0182 F3       		.byte	0xf3
 3272 0183 01       		.uleb128 0x1
 3273 0184 51       		.byte	0x51
 3274 0185 9F       		.byte	0x9f
 3275 0186 00000000 		.4byte	0
 3276 018a 00000000 		.4byte	0
 3277              	.LLST4:
 3278 018e 46000000 		.4byte	.LVL4
 3279 0192 71000000 		.4byte	.LVL7-1
 3280 0196 0100     		.2byte	0x1
 3281 0198 50       		.byte	0x50
 3282 0199 71000000 		.4byte	.LVL7-1
 3283 019d 72000000 		.4byte	.LVL7
 3284 01a1 0400     		.2byte	0x4
 3285 01a3 F3       		.byte	0xf3
 3286 01a4 01       		.uleb128 0x1
 3287 01a5 50       		.byte	0x50
 3288 01a6 9F       		.byte	0x9f
 3289 01a7 72000000 		.4byte	.LVL7
 3290 01ab 87000000 		.4byte	.LVL9-1
 3291 01af 0100     		.2byte	0x1
 3292 01b1 50       		.byte	0x50
 3293 01b2 87000000 		.4byte	.LVL9-1
 3294 01b6 88000000 		.4byte	.LVL9
 3295 01ba 0400     		.2byte	0x4
 3296 01bc F3       		.byte	0xf3
 3297 01bd 01       		.uleb128 0x1
 3298 01be 50       		.byte	0x50
 3299 01bf 9F       		.byte	0x9f
 3300 01c0 88000000 		.4byte	.LVL9
 3301 01c4 B3000000 		.4byte	.LVL11-1
 3302 01c8 0100     		.2byte	0x1
ARM GAS  /tmp/ccT0wPuQ.s 			page 59


 3303 01ca 50       		.byte	0x50
 3304 01cb B3000000 		.4byte	.LVL11-1
 3305 01cf BE000000 		.4byte	.LVL13
 3306 01d3 0100     		.2byte	0x1
 3307 01d5 54       		.byte	0x54
 3308 01d6 CA000000 		.4byte	.LVL14
 3309 01da D3000000 		.4byte	.LVL16-1
 3310 01de 0100     		.2byte	0x1
 3311 01e0 50       		.byte	0x50
 3312 01e1 D3000000 		.4byte	.LVL16-1
 3313 01e5 D4000000 		.4byte	.LFE207
 3314 01e9 0400     		.2byte	0x4
 3315 01eb F3       		.byte	0xf3
 3316 01ec 01       		.uleb128 0x1
 3317 01ed 50       		.byte	0x50
 3318 01ee 9F       		.byte	0x9f
 3319 01ef 00000000 		.4byte	0
 3320 01f3 00000000 		.4byte	0
 3321              	.LLST5:
 3322 01f7 60000000 		.4byte	.LVL5
 3323 01fb 71000000 		.4byte	.LVL7-1
 3324 01ff 0100     		.2byte	0x1
 3325 0201 52       		.byte	0x52
 3326 0202 00000000 		.4byte	0
 3327 0206 00000000 		.4byte	0
 3328              	.LLST6:
 3329 020a 60000000 		.4byte	.LVL5
 3330 020e 71000000 		.4byte	.LVL7-1
 3331 0212 0F00     		.2byte	0xf
 3332 0214 70       		.byte	0x70
 3333 0215 10       		.sleb128 16
 3334 0216 06       		.byte	0x6
 3335 0217 23       		.byte	0x23
 3336 0218 02       		.uleb128 0x2
 3337 0219 94       		.byte	0x94
 3338 021a 02       		.byte	0x2
 3339 021b 0A       		.byte	0xa
 3340 021c FFFF     		.2byte	0xffff
 3341 021e 1A       		.byte	0x1a
 3342 021f 72       		.byte	0x72
 3343 0220 00       		.sleb128 0
 3344 0221 1E       		.byte	0x1e
 3345 0222 9F       		.byte	0x9f
 3346 0223 00000000 		.4byte	0
 3347 0227 00000000 		.4byte	0
 3348              	.LLST7:
 3349 022b 88000000 		.4byte	.LVL9
 3350 022f B3000000 		.4byte	.LVL11-1
 3351 0233 0100     		.2byte	0x1
 3352 0235 50       		.byte	0x50
 3353 0236 B3000000 		.4byte	.LVL11-1
 3354 023a BA000000 		.4byte	.LVL12
 3355 023e 0100     		.2byte	0x1
 3356 0240 54       		.byte	0x54
 3357 0241 00000000 		.4byte	0
 3358 0245 00000000 		.4byte	0
 3359              	.LLST8:
ARM GAS  /tmp/ccT0wPuQ.s 			page 60


 3360 0249 00000000 		.4byte	.LVL18
 3361 024d 12000000 		.4byte	.LVL19
 3362 0251 0100     		.2byte	0x1
 3363 0253 50       		.byte	0x50
 3364 0254 12000000 		.4byte	.LVL19
 3365 0258 1C000000 		.4byte	.LVL20
 3366 025c 0100     		.2byte	0x1
 3367 025e 54       		.byte	0x54
 3368 025f 1C000000 		.4byte	.LVL20
 3369 0263 24000000 		.4byte	.LVL21
 3370 0267 0100     		.2byte	0x1
 3371 0269 50       		.byte	0x50
 3372 026a 24000000 		.4byte	.LVL21
 3373 026e 4C000000 		.4byte	.LFE209
 3374 0272 0100     		.2byte	0x1
 3375 0274 54       		.byte	0x54
 3376 0275 00000000 		.4byte	0
 3377 0279 00000000 		.4byte	0
 3378              	.LLST9:
 3379 027d 00000000 		.4byte	.LVL23
 3380 0281 08000000 		.4byte	.LVL24
 3381 0285 0100     		.2byte	0x1
 3382 0287 50       		.byte	0x50
 3383 0288 08000000 		.4byte	.LVL24
 3384 028c 0A000000 		.4byte	.LVL25
 3385 0290 0400     		.2byte	0x4
 3386 0292 F3       		.byte	0xf3
 3387 0293 01       		.uleb128 0x1
 3388 0294 50       		.byte	0x50
 3389 0295 9F       		.byte	0x9f
 3390 0296 0A000000 		.4byte	.LVL25
 3391 029a 16000000 		.4byte	.LVL26
 3392 029e 0100     		.2byte	0x1
 3393 02a0 50       		.byte	0x50
 3394 02a1 16000000 		.4byte	.LVL26
 3395 02a5 38000000 		.4byte	.LFE210
 3396 02a9 0400     		.2byte	0x4
 3397 02ab F3       		.byte	0xf3
 3398 02ac 01       		.uleb128 0x1
 3399 02ad 50       		.byte	0x50
 3400 02ae 9F       		.byte	0x9f
 3401 02af 00000000 		.4byte	0
 3402 02b3 00000000 		.4byte	0
 3403              	.LLST10:
 3404 02b7 00000000 		.4byte	.LVL28
 3405 02bb 3A000000 		.4byte	.LVL35
 3406 02bf 0100     		.2byte	0x1
 3407 02c1 50       		.byte	0x50
 3408 02c2 3A000000 		.4byte	.LVL35
 3409 02c6 6E000000 		.4byte	.LFE211
 3410 02ca 0400     		.2byte	0x4
 3411 02cc F3       		.byte	0xf3
 3412 02cd 01       		.uleb128 0x1
 3413 02ce 50       		.byte	0x50
 3414 02cf 9F       		.byte	0x9f
 3415 02d0 00000000 		.4byte	0
 3416 02d4 00000000 		.4byte	0
ARM GAS  /tmp/ccT0wPuQ.s 			page 61


 3417              	.LLST11:
 3418 02d8 08000000 		.4byte	.LVL30
 3419 02dc 0C000000 		.4byte	.LVL31
 3420 02e0 0100     		.2byte	0x1
 3421 02e2 51       		.byte	0x51
 3422 02e3 0C000000 		.4byte	.LVL31
 3423 02e7 14000000 		.4byte	.LVL32
 3424 02eb 0600     		.2byte	0x6
 3425 02ed 71       		.byte	0x71
 3426 02ee 00       		.sleb128 0
 3427 02ef 08       		.byte	0x8
 3428 02f0 20       		.byte	0x20
 3429 02f1 21       		.byte	0x21
 3430 02f2 9F       		.byte	0x9f
 3431 02f3 14000000 		.4byte	.LVL32
 3432 02f7 18000000 		.4byte	.LVL33
 3433 02fb 0700     		.2byte	0x7
 3434 02fd 70       		.byte	0x70
 3435 02fe 1C       		.sleb128 28
 3436 02ff 06       		.byte	0x6
 3437 0300 08       		.byte	0x8
 3438 0301 20       		.byte	0x20
 3439 0302 21       		.byte	0x21
 3440 0303 9F       		.byte	0x9f
 3441 0304 18000000 		.4byte	.LVL33
 3442 0308 30000000 		.4byte	.LVL34
 3443 030c 0100     		.2byte	0x1
 3444 030e 51       		.byte	0x51
 3445 030f 30000000 		.4byte	.LVL34
 3446 0313 40000000 		.4byte	.LVL36
 3447 0317 0200     		.2byte	0x2
 3448 0319 74       		.byte	0x74
 3449 031a 00       		.sleb128 0
 3450 031b 00000000 		.4byte	0
 3451 031f 00000000 		.4byte	0
 3452              	.LLST12:
 3453 0323 30000000 		.4byte	.LVL34
 3454 0327 58000000 		.4byte	.LVL37
 3455 032b 0700     		.2byte	0x7
 3456 032d 71       		.byte	0x71
 3457 032e 00       		.sleb128 0
 3458 032f 0A       		.byte	0xa
 3459 0330 0101     		.2byte	0x101
 3460 0332 21       		.byte	0x21
 3461 0333 9F       		.byte	0x9f
 3462 0334 58000000 		.4byte	.LVL37
 3463 0338 6E000000 		.4byte	.LFE211
 3464 033c 0100     		.2byte	0x1
 3465 033e 50       		.byte	0x50
 3466 033f 00000000 		.4byte	0
 3467 0343 00000000 		.4byte	0
 3468              	.LLST13:
 3469 0347 02000000 		.4byte	.LVL29
 3470 034b 5A000000 		.4byte	.LVL38
 3471 034f 0100     		.2byte	0x1
 3472 0351 53       		.byte	0x53
 3473 0352 5A000000 		.4byte	.LVL38
ARM GAS  /tmp/ccT0wPuQ.s 			page 62


 3474 0356 6E000000 		.4byte	.LFE211
 3475 035a 0500     		.2byte	0x5
 3476 035c F3       		.byte	0xf3
 3477 035d 01       		.uleb128 0x1
 3478 035e 50       		.byte	0x50
 3479 035f 23       		.byte	0x23
 3480 0360 10       		.uleb128 0x10
 3481 0361 00000000 		.4byte	0
 3482 0365 00000000 		.4byte	0
 3483              	.LLST14:
 3484 0369 00000000 		.4byte	.LVL39
 3485 036d 08000000 		.4byte	.LVL40
 3486 0371 0100     		.2byte	0x1
 3487 0373 50       		.byte	0x50
 3488 0374 08000000 		.4byte	.LVL40
 3489 0378 22000000 		.4byte	.LFE212
 3490 037c 0400     		.2byte	0x4
 3491 037e F3       		.byte	0xf3
 3492 037f 01       		.uleb128 0x1
 3493 0380 50       		.byte	0x50
 3494 0381 9F       		.byte	0x9f
 3495 0382 00000000 		.4byte	0
 3496 0386 00000000 		.4byte	0
 3497              		.section	.debug_aranges,"",%progbits
 3498 0000 44000000 		.4byte	0x44
 3499 0004 0200     		.2byte	0x2
 3500 0006 00000000 		.4byte	.Ldebug_info0
 3501 000a 04       		.byte	0x4
 3502 000b 00       		.byte	0
 3503 000c 0000     		.2byte	0
 3504 000e 0000     		.2byte	0
 3505 0010 00000000 		.4byte	.LFB207
 3506 0014 D4000000 		.4byte	.LFE207-.LFB207
 3507 0018 00000000 		.4byte	.LFB208
 3508 001c 6C000000 		.4byte	.LFE208-.LFB208
 3509 0020 00000000 		.4byte	.LFB209
 3510 0024 4C000000 		.4byte	.LFE209-.LFB209
 3511 0028 00000000 		.4byte	.LFB210
 3512 002c 38000000 		.4byte	.LFE210-.LFB210
 3513 0030 00000000 		.4byte	.LFB211
 3514 0034 6E000000 		.4byte	.LFE211-.LFB211
 3515 0038 00000000 		.4byte	.LFB212
 3516 003c 22000000 		.4byte	.LFE212-.LFB212
 3517 0040 00000000 		.4byte	0
 3518 0044 00000000 		.4byte	0
 3519              		.section	.debug_ranges,"",%progbits
 3520              	.Ldebug_ranges0:
 3521 0000 0A000000 		.4byte	.LBB21
 3522 0004 0C000000 		.4byte	.LBE21
 3523 0008 0E000000 		.4byte	.LBB25
 3524 000c 20000000 		.4byte	.LBE25
 3525 0010 22000000 		.4byte	.LBB26
 3526 0014 2A000000 		.4byte	.LBE26
 3527 0018 00000000 		.4byte	0
 3528 001c 00000000 		.4byte	0
 3529 0020 46000000 		.4byte	.LBB27
 3530 0024 6C000000 		.4byte	.LBE27
ARM GAS  /tmp/ccT0wPuQ.s 			page 63


 3531 0028 70000000 		.4byte	.LBB39
 3532 002c 7C000000 		.4byte	.LBE39
 3533 0030 80000000 		.4byte	.LBB40
 3534 0034 BE000000 		.4byte	.LBE40
 3535 0038 CA000000 		.4byte	.LBB41
 3536 003c CC000000 		.4byte	.LBE41
 3537 0040 D0000000 		.4byte	.LBB42
 3538 0044 D4000000 		.4byte	.LBE42
 3539 0048 00000000 		.4byte	0
 3540 004c 00000000 		.4byte	0
 3541 0050 5C000000 		.4byte	.LBB29
 3542 0054 6C000000 		.4byte	.LBE29
 3543 0058 70000000 		.4byte	.LBB30
 3544 005c 72000000 		.4byte	.LBE30
 3545 0060 00000000 		.4byte	0
 3546 0064 00000000 		.4byte	0
 3547 0068 88000000 		.4byte	.LBB31
 3548 006c 8A000000 		.4byte	.LBE31
 3549 0070 8C000000 		.4byte	.LBB34
 3550 0074 A8000000 		.4byte	.LBE34
 3551 0078 00000000 		.4byte	0
 3552 007c 00000000 		.4byte	0
 3553 0080 00000000 		.4byte	.LFB207
 3554 0084 D4000000 		.4byte	.LFE207
 3555 0088 00000000 		.4byte	.LFB208
 3556 008c 6C000000 		.4byte	.LFE208
 3557 0090 00000000 		.4byte	.LFB209
 3558 0094 4C000000 		.4byte	.LFE209
 3559 0098 00000000 		.4byte	.LFB210
 3560 009c 38000000 		.4byte	.LFE210
 3561 00a0 00000000 		.4byte	.LFB211
 3562 00a4 6E000000 		.4byte	.LFE211
 3563 00a8 00000000 		.4byte	.LFB212
 3564 00ac 22000000 		.4byte	.LFE212
 3565 00b0 00000000 		.4byte	0
 3566 00b4 00000000 		.4byte	0
 3567              		.section	.debug_line,"",%progbits
 3568              	.Ldebug_line0:
 3569 0000 9B040000 		.section	.debug_str,"MS",%progbits,1
 3569      02007003 
 3569      00000201 
 3569      FB0E0D00 
 3569      01010101 
 3570              	.LASF50:
 3571 0000 72656164 		.ascii	"ready_list_t\000"
 3571      795F6C69 
 3571      73745F74 
 3571      00
 3572              	.LASF2:
 3573 000d 73697A65 		.ascii	"size_t\000"
 3573      5F7400
 3574              	.LASF112:
 3575 0014 7264796D 		.ascii	"rdymsg\000"
 3575      736700
 3576              	.LASF143:
 3577 001b 61646373 		.ascii	"adcstate_t\000"
 3577      74617465 
ARM GAS  /tmp/ccT0wPuQ.s 			page 64


 3577      5F7400
 3578              	.LASF3:
 3579 0026 5F5F7569 		.ascii	"__uint8_t\000"
 3579      6E74385F 
 3579      7400
 3580              	.LASF109:
 3581 0030 706F7274 		.ascii	"port_intctx\000"
 3581      5F696E74 
 3581      63747800 
 3582              	.LASF67:
 3583 003c 73797374 		.ascii	"system_debug_t\000"
 3583      656D5F64 
 3583      65627567 
 3583      5F7400
 3584              	.LASF133:
 3585 004b 76656374 		.ascii	"vector\000"
 3585      6F7200
 3586              	.LASF176:
 3587 0052 6164635F 		.ascii	"adc_lld_stop\000"
 3587      6C6C645F 
 3587      73746F70 
 3587      00
 3588              	.LASF14:
 3589 005f 6C6F6E67 		.ascii	"long long unsigned int\000"
 3589      206C6F6E 
 3589      6720756E 
 3589      7369676E 
 3589      65642069 
 3590              	.LASF120:
 3591 0076 735F7175 		.ascii	"s_queue\000"
 3591      65756500 
 3592              	.LASF113:
 3593 007e 65786974 		.ascii	"exitcode\000"
 3593      636F6465 
 3593      00
 3594              	.LASF137:
 3595 0087 4144435F 		.ascii	"ADC_UNINIT\000"
 3595      554E494E 
 3595      495400
 3596              	.LASF180:
 3597 0092 5F73746D 		.ascii	"_stm32_dma_streams\000"
 3597      33325F64 
 3597      6D615F73 
 3597      74726561 
 3597      6D7300
 3598              	.LASF64:
 3599 00a5 76697274 		.ascii	"virtual_timers_list_t\000"
 3599      75616C5F 
 3599      74696D65 
 3599      72735F6C 
 3599      6973745F 
 3600              	.LASF179:
 3601 00bb 49544D5F 		.ascii	"ITM_RxBuffer\000"
 3601      52784275 
 3601      66666572 
 3601      00
 3602              	.LASF49:
ARM GAS  /tmp/ccT0wPuQ.s 			page 65


 3603 00c8 63685F74 		.ascii	"ch_threads_queue\000"
 3603      68726561 
 3603      64735F71 
 3603      75657565 
 3603      00
 3604              	.LASF32:
 3605 00d9 705F7072 		.ascii	"p_prio\000"
 3605      696F00
 3606              	.LASF86:
 3607 00e0 4A535152 		.ascii	"JSQR\000"
 3607      00
 3608              	.LASF66:
 3609 00e5 76745F73 		.ascii	"vt_systime\000"
 3609      79737469 
 3609      6D6500
 3610              	.LASF12:
 3611 00f0 6C6F6E67 		.ascii	"long long int\000"
 3611      206C6F6E 
 3611      6720696E 
 3611      7400
 3612              	.LASF1:
 3613 00fe 7369676E 		.ascii	"signed char\000"
 3613      65642063 
 3613      68617200 
 3614              	.LASF11:
 3615 010a 6C6F6E67 		.ascii	"long unsigned int\000"
 3615      20756E73 
 3615      69676E65 
 3615      6420696E 
 3615      7400
 3616              	.LASF88:
 3617 011c 4A445232 		.ascii	"JDR2\000"
 3617      00
 3618              	.LASF43:
 3619 0121 705F6D70 		.ascii	"p_mpool\000"
 3619      6F6F6C00 
 3620              	.LASF123:
 3621 0129 6D5F7175 		.ascii	"m_queue\000"
 3621      65756500 
 3622              	.LASF184:
 3623 0131 474E5520 		.ascii	"GNU C 4.9.3 20150529 (release) [ARM/embedded-4_9-br"
 3623      4320342E 
 3623      392E3320 
 3623      32303135 
 3623      30353239 
 3624 0164 616E6368 		.ascii	"anch revision 224288] -mcpu=cortex-m3 -mno-thumb-in"
 3624      20726576 
 3624      6973696F 
 3624      6E203232 
 3624      34323838 
 3625 0197 74657277 		.ascii	"terwork -mthumb -ggdb -O2 -fomit-frame-pointer -fal"
 3625      6F726B20 
 3625      2D6D7468 
 3625      756D6220 
 3625      2D676764 
 3626 01ca 69676E2D 		.ascii	"ign-functions=16 -ffunction-sections -fdata-section"
 3626      66756E63 
ARM GAS  /tmp/ccT0wPuQ.s 			page 66


 3626      74696F6E 
 3626      733D3136 
 3626      202D6666 
 3627 01fd 73202D66 		.ascii	"s -fno-common\000"
 3627      6E6F2D63 
 3627      6F6D6D6F 
 3627      6E00
 3628              	.LASF147:
 3629 020b 61646365 		.ascii	"adcerror_t\000"
 3629      72726F72 
 3629      5F7400
 3630              	.LASF154:
 3631 0216 646D6173 		.ascii	"dmastp\000"
 3631      747000
 3632              	.LASF142:
 3633 021d 4144435F 		.ascii	"ADC_ERROR\000"
 3633      4552524F 
 3633      5200
 3634              	.LASF130:
 3635 0227 6373656C 		.ascii	"cselr\000"
 3635      7200
 3636              	.LASF149:
 3637 022d 73746174 		.ascii	"state\000"
 3637      6500
 3638              	.LASF158:
 3639 0233 63697263 		.ascii	"circular\000"
 3639      756C6172 
 3639      00
 3640              	.LASF9:
 3641 023c 6C6F6E67 		.ascii	"long int\000"
 3641      20696E74 
 3641      00
 3642              	.LASF146:
 3643 0245 4144435F 		.ascii	"ADC_ERR_DMAFAILURE\000"
 3643      4552525F 
 3643      444D4146 
 3643      41494C55 
 3643      524500
 3644              	.LASF177:
 3645 0258 6164635F 		.ascii	"adc_lld_start_conversion\000"
 3645      6C6C645F 
 3645      73746172 
 3645      745F636F 
 3645      6E766572 
 3646              	.LASF157:
 3647 0271 61646365 		.ascii	"adcerrorcallback_t\000"
 3647      72726F72 
 3647      63616C6C 
 3647      6261636B 
 3647      5F7400
 3648              	.LASF22:
 3649 0284 74737461 		.ascii	"tstate_t\000"
 3649      74655F74 
 3649      00
 3650              	.LASF185:
 3651 028d 2F686F6D 		.ascii	"/home/maciek/ChibiOS_16.1.5/os/hal/ports/STM32/STM3"
 3651      652F6D61 
ARM GAS  /tmp/ccT0wPuQ.s 			page 67


 3651      6369656B 
 3651      2F436869 
 3651      62694F53 
 3652 02c0 32463178 		.ascii	"2F1xx/adc_lld.c\000"
 3652      782F6164 
 3652      635F6C6C 
 3652      642E6300 
 3653              	.LASF16:
 3654 02d0 75696E74 		.ascii	"uint16_t\000"
 3654      31365F74 
 3654      00
 3655              	.LASF91:
 3656 02d9 4144435F 		.ascii	"ADC_TypeDef\000"
 3656      54797065 
 3656      44656600 
 3657              	.LASF131:
 3658 02e5 73686966 		.ascii	"shift\000"
 3658      7400
 3659              	.LASF160:
 3660 02eb 656E645F 		.ascii	"end_cb\000"
 3660      636200
 3661              	.LASF156:
 3662 02f2 61646363 		.ascii	"adccallback_t\000"
 3662      616C6C62 
 3662      61636B5F 
 3662      7400
 3663              	.LASF144:
 3664 0300 61646373 		.ascii	"adcsample_t\000"
 3664      616D706C 
 3664      655F7400 
 3665              	.LASF10:
 3666 030c 5F5F7569 		.ascii	"__uint32_t\000"
 3666      6E743332 
 3666      5F7400
 3667              	.LASF169:
 3668 0317 41444343 		.ascii	"ADCConfig\000"
 3668      6F6E6669 
 3668      6700
 3669              	.LASF106:
 3670 0321 72656761 		.ascii	"regarm_t\000"
 3670      726D5F74 
 3670      00
 3671              	.LASF60:
 3672 032a 76745F70 		.ascii	"vt_prev\000"
 3672      72657600 
 3673              	.LASF73:
 3674 0332 76746C69 		.ascii	"vtlist\000"
 3674      737400
 3675              	.LASF168:
 3676 0339 64756D6D 		.ascii	"dummy\000"
 3676      7900
 3677              	.LASF99:
 3678 033f 41504232 		.ascii	"APB2RSTR\000"
 3678      52535452 
 3678      00
 3679              	.LASF127:
 3680 0348 6D757465 		.ascii	"mutex_t\000"
ARM GAS  /tmp/ccT0wPuQ.s 			page 68


 3680      785F7400 
 3681              	.LASF140:
 3682 0350 4144435F 		.ascii	"ADC_ACTIVE\000"
 3682      41435449 
 3682      564500
 3683              	.LASF75:
 3684 035b 69646C65 		.ascii	"idle_thread_wa\000"
 3684      5F746872 
 3684      6561645F 
 3684      776100
 3685              	.LASF97:
 3686 036a 444D415F 		.ascii	"DMA_TypeDef\000"
 3686      54797065 
 3686      44656600 
 3687              	.LASF27:
 3688 0376 636E745F 		.ascii	"cnt_t\000"
 3688      7400
 3689              	.LASF0:
 3690 037c 756E7369 		.ascii	"unsigned int\000"
 3690      676E6564 
 3690      20696E74 
 3690      00
 3691              	.LASF59:
 3692 0389 76745F6E 		.ascii	"vt_next\000"
 3692      65787400 
 3693              	.LASF183:
 3694 0391 6164634F 		.ascii	"adcObjectInit\000"
 3694      626A6563 
 3694      74496E69 
 3694      7400
 3695              	.LASF116:
 3696 039f 77747365 		.ascii	"wtsemp\000"
 3696      6D7000
 3697              	.LASF93:
 3698 03a6 43504152 		.ascii	"CPAR\000"
 3698      00
 3699              	.LASF135:
 3700 03ab 73746D33 		.ascii	"stm32_dmaisr_t\000"
 3700      325F646D 
 3700      61697372 
 3700      5F7400
 3701              	.LASF38:
 3702 03ba 705F6D73 		.ascii	"p_msgqueue\000"
 3702      67717565 
 3702      756500
 3703              	.LASF148:
 3704 03c5 41444344 		.ascii	"ADCDriver\000"
 3704      72697665 
 3704      7200
 3705              	.LASF105:
 3706 03cf 5243435F 		.ascii	"RCC_TypeDef\000"
 3706      54797065 
 3706      44656600 
 3707              	.LASF95:
 3708 03db 444D415F 		.ascii	"DMA_Channel_TypeDef\000"
 3708      4368616E 
 3708      6E656C5F 
ARM GAS  /tmp/ccT0wPuQ.s 			page 69


 3708      54797065 
 3708      44656600 
 3709              	.LASF121:
 3710 03ef 735F636E 		.ascii	"s_cnt\000"
 3710      7400
 3711              	.LASF7:
 3712 03f5 73686F72 		.ascii	"short unsigned int\000"
 3712      7420756E 
 3712      7369676E 
 3712      65642069 
 3712      6E7400
 3713              	.LASF46:
 3714 0408 63685F74 		.ascii	"ch_thread\000"
 3714      68726561 
 3714      6400
 3715              	.LASF139:
 3716 0412 4144435F 		.ascii	"ADC_READY\000"
 3716      52454144 
 3716      5900
 3717              	.LASF152:
 3718 041c 64657074 		.ascii	"depth\000"
 3718      6800
 3719              	.LASF25:
 3720 0422 6D73675F 		.ascii	"msg_t\000"
 3720      7400
 3721              	.LASF132:
 3722 0428 73656C66 		.ascii	"selfindex\000"
 3722      696E6465 
 3722      7800
 3723              	.LASF70:
 3724 0432 63685F73 		.ascii	"ch_system_t\000"
 3724      79737465 
 3724      6D5F7400 
 3725              	.LASF21:
 3726 043e 746D6F64 		.ascii	"tmode_t\000"
 3726      655F7400 
 3727              	.LASF159:
 3728 0446 6E756D5F 		.ascii	"num_channels\000"
 3728      6368616E 
 3728      6E656C73 
 3728      00
 3729              	.LASF51:
 3730 0453 63685F72 		.ascii	"ch_ready_list\000"
 3730      65616479 
 3730      5F6C6973 
 3730      7400
 3731              	.LASF26:
 3732 0461 6576656E 		.ascii	"eventmask_t\000"
 3732      746D6173 
 3732      6B5F7400 
 3733              	.LASF5:
 3734 046d 73686F72 		.ascii	"short int\000"
 3734      7420696E 
 3734      7400
 3735              	.LASF8:
 3736 0477 5F5F696E 		.ascii	"__int32_t\000"
 3736      7433325F 
ARM GAS  /tmp/ccT0wPuQ.s 			page 70


 3736      7400
 3737              	.LASF172:
 3738 0481 68616C66 		.ascii	"half\000"
 3738      00
 3739              	.LASF94:
 3740 0486 434D4152 		.ascii	"CMAR\000"
 3740      00
 3741              	.LASF107:
 3742 048b 73746B61 		.ascii	"stkalign_t\000"
 3742      6C69676E 
 3742      5F7400
 3743              	.LASF45:
 3744 0496 74687265 		.ascii	"threads_list_t\000"
 3744      6164735F 
 3744      6C697374 
 3744      5F7400
 3745              	.LASF129:
 3746 04a5 636D6173 		.ascii	"cmask\000"
 3746      6B00
 3747              	.LASF153:
 3748 04ab 67727070 		.ascii	"grpp\000"
 3748      00
 3749              	.LASF79:
 3750 04b0 4A4F4652 		.ascii	"JOFR1\000"
 3750      3100
 3751              	.LASF80:
 3752 04b6 4A4F4652 		.ascii	"JOFR2\000"
 3752      3200
 3753              	.LASF174:
 3754 04bc 6164635F 		.ascii	"adc_lld_init\000"
 3754      6C6C645F 
 3754      696E6974 
 3754      00
 3755              	.LASF151:
 3756 04c9 73616D70 		.ascii	"samples\000"
 3756      6C657300 
 3757              	.LASF37:
 3758 04d1 705F7761 		.ascii	"p_waiting\000"
 3758      6974696E 
 3758      6700
 3759              	.LASF76:
 3760 04db 73697A65 		.ascii	"sizetype\000"
 3760      74797065 
 3760      00
 3761              	.LASF44:
 3762 04e4 74687265 		.ascii	"thread_reference_t\000"
 3762      61645F72 
 3762      65666572 
 3762      656E6365 
 3762      5F7400
 3763              	.LASF65:
 3764 04f7 63685F76 		.ascii	"ch_virtual_timers_list\000"
 3764      69727475 
 3764      616C5F74 
 3764      696D6572 
 3764      735F6C69 
 3765              	.LASF115:
ARM GAS  /tmp/ccT0wPuQ.s 			page 71


 3766 050e 77747472 		.ascii	"wttrp\000"
 3766      7000
 3767              	.LASF30:
 3768 0514 705F6E65 		.ascii	"p_next\000"
 3768      787400
 3769              	.LASF111:
 3770 051b 746D5F63 		.ascii	"tm_calibration_t\000"
 3770      616C6962 
 3770      72617469 
 3770      6F6E5F74 
 3770      00
 3771              	.LASF138:
 3772 052c 4144435F 		.ascii	"ADC_STOP\000"
 3772      53544F50 
 3772      00
 3773              	.LASF19:
 3774 0535 75696E74 		.ascii	"uint64_t\000"
 3774      36345F74 
 3774      00
 3775              	.LASF90:
 3776 053e 4A445234 		.ascii	"JDR4\000"
 3776      00
 3777              	.LASF54:
 3778 0543 725F6374 		.ascii	"r_ctx\000"
 3778      7800
 3779              	.LASF77:
 3780 0549 534D5052 		.ascii	"SMPR1\000"
 3780      3100
 3781              	.LASF78:
 3782 054f 534D5052 		.ascii	"SMPR2\000"
 3782      3200
 3783              	.LASF125:
 3784 0555 6D5F6E65 		.ascii	"m_next\000"
 3784      787400
 3785              	.LASF55:
 3786 055c 725F6375 		.ascii	"r_current\000"
 3786      7272656E 
 3786      7400
 3787              	.LASF100:
 3788 0566 41504231 		.ascii	"APB1RSTR\000"
 3788      52535452 
 3788      00
 3789              	.LASF83:
 3790 056f 53515231 		.ascii	"SQR1\000"
 3790      00
 3791              	.LASF84:
 3792 0574 53515232 		.ascii	"SQR2\000"
 3792      00
 3793              	.LASF85:
 3794 0579 53515233 		.ascii	"SQR3\000"
 3794      00
 3795              	.LASF13:
 3796 057e 5F5F7569 		.ascii	"__uint64_t\000"
 3796      6E743634 
 3796      5F7400
 3797              	.LASF23:
 3798 0589 74726566 		.ascii	"trefs_t\000"
ARM GAS  /tmp/ccT0wPuQ.s 			page 72


 3798      735F7400 
 3799              	.LASF57:
 3800 0591 76697274 		.ascii	"virtual_timer_t\000"
 3800      75616C5F 
 3800      74696D65 
 3800      725F7400 
 3801              	.LASF31:
 3802 05a1 705F7072 		.ascii	"p_prev\000"
 3802      657600
 3803              	.LASF134:
 3804 05a8 73746D33 		.ascii	"stm32_dma_stream_t\000"
 3804      325F646D 
 3804      615F7374 
 3804      7265616D 
 3804      5F7400
 3805              	.LASF24:
 3806 05bb 74707269 		.ascii	"tprio_t\000"
 3806      6F5F7400 
 3807              	.LASF68:
 3808 05c3 63685F73 		.ascii	"ch_system_debug\000"
 3808      79737465 
 3808      6D5F6465 
 3808      62756700 
 3809              	.LASF136:
 3810 05d3 5F426F6F 		.ascii	"_Bool\000"
 3810      6C00
 3811              	.LASF17:
 3812 05d9 696E7433 		.ascii	"int32_t\000"
 3812      325F7400 
 3813              	.LASF4:
 3814 05e1 756E7369 		.ascii	"unsigned char\000"
 3814      676E6564 
 3814      20636861 
 3814      7200
 3815              	.LASF34:
 3816 05ef 705F7374 		.ascii	"p_state\000"
 3816      61746500 
 3817              	.LASF186:
 3818 05f7 6164635F 		.ascii	"adc_lld_serve_rx_interrupt\000"
 3818      6C6C645F 
 3818      73657276 
 3818      655F7278 
 3818      5F696E74 
 3819              	.LASF41:
 3820 0612 705F6D74 		.ascii	"p_mtxlist\000"
 3820      786C6973 
 3820      7400
 3821              	.LASF182:
 3822 061c 6164635F 		.ascii	"adc_lld_stop_conversion\000"
 3822      6C6C645F 
 3822      73746F70 
 3822      5F636F6E 
 3822      76657273 
 3823              	.LASF161:
 3824 0634 6572726F 		.ascii	"error_cb\000"
 3824      725F6362 
 3824      00
ARM GAS  /tmp/ccT0wPuQ.s 			page 73


 3825              	.LASF53:
 3826 063d 725F7072 		.ascii	"r_prio\000"
 3826      696F00
 3827              	.LASF118:
 3828 0644 65776D61 		.ascii	"ewmask\000"
 3828      736B00
 3829              	.LASF35:
 3830 064b 705F666C 		.ascii	"p_flags\000"
 3830      61677300 
 3831              	.LASF187:
 3832 0653 5F5F6675 		.ascii	"__func__\000"
 3832      6E635F5F 
 3832      00
 3833              	.LASF81:
 3834 065c 4A4F4652 		.ascii	"JOFR3\000"
 3834      3300
 3835              	.LASF74:
 3836 0662 6D61696E 		.ascii	"mainthread\000"
 3836      74687265 
 3836      616400
 3837              	.LASF102:
 3838 066d 41504232 		.ascii	"APB2ENR\000"
 3838      454E5200 
 3839              	.LASF128:
 3840 0675 6368616E 		.ascii	"channel\000"
 3840      6E656C00 
 3841              	.LASF119:
 3842 067d 63685F73 		.ascii	"ch_semaphore\000"
 3842      656D6170 
 3842      686F7265 
 3842      00
 3843              	.LASF40:
 3844 068a 705F6570 		.ascii	"p_epending\000"
 3844      656E6469 
 3844      6E6700
 3845              	.LASF71:
 3846 0695 63685F73 		.ascii	"ch_system\000"
 3846      79737465 
 3846      6D00
 3847              	.LASF18:
 3848 069f 75696E74 		.ascii	"uint32_t\000"
 3848      33325F74 
 3848      00
 3849              	.LASF117:
 3850 06a8 77746D74 		.ascii	"wtmtxp\000"
 3850      787000
 3851              	.LASF52:
 3852 06af 725F7175 		.ascii	"r_queue\000"
 3852      65756500 
 3853              	.LASF61:
 3854 06b7 76745F64 		.ascii	"vt_delta\000"
 3854      656C7461 
 3854      00
 3855              	.LASF47:
 3856 06c0 63685F74 		.ascii	"ch_threads_list\000"
 3856      68726561 
 3856      64735F6C 
ARM GAS  /tmp/ccT0wPuQ.s 			page 74


 3856      69737400 
 3857              	.LASF162:
 3858 06d0 736D7072 		.ascii	"smpr1\000"
 3858      3100
 3859              	.LASF96:
 3860 06d6 49464352 		.ascii	"IFCR\000"
 3860      00
 3861              	.LASF163:
 3862 06db 736D7072 		.ascii	"smpr2\000"
 3862      3200
 3863              	.LASF126:
 3864 06e1 63686172 		.ascii	"char\000"
 3864      00
 3865              	.LASF189:
 3866 06e6 646D6153 		.ascii	"dmaStreamRelease\000"
 3866      74726561 
 3866      6D52656C 
 3866      65617365 
 3866      00
 3867              	.LASF178:
 3868 06f7 6D6F6465 		.ascii	"mode\000"
 3868      00
 3869              	.LASF150:
 3870 06fc 636F6E66 		.ascii	"config\000"
 3870      696700
 3871              	.LASF6:
 3872 0703 5F5F7569 		.ascii	"__uint16_t\000"
 3872      6E743136 
 3872      5F7400
 3873              	.LASF29:
 3874 070e 74687265 		.ascii	"thread_t\000"
 3874      61645F74 
 3874      00
 3875              	.LASF164:
 3876 0717 73717231 		.ascii	"sqr1\000"
 3876      00
 3877              	.LASF165:
 3878 071c 73717232 		.ascii	"sqr2\000"
 3878      00
 3879              	.LASF166:
 3880 0721 73717233 		.ascii	"sqr3\000"
 3880      00
 3881              	.LASF28:
 3882 0726 73797374 		.ascii	"systime_t\000"
 3882      696D655F 
 3882      7400
 3883              	.LASF42:
 3884 0730 705F7265 		.ascii	"p_realprio\000"
 3884      616C7072 
 3884      696F00
 3885              	.LASF56:
 3886 073b 76746675 		.ascii	"vtfunc_t\000"
 3886      6E635F74 
 3886      00
 3887              	.LASF69:
 3888 0744 70616E69 		.ascii	"panic_msg\000"
 3888      635F6D73 
ARM GAS  /tmp/ccT0wPuQ.s 			page 75


 3888      6700
 3889              	.LASF110:
 3890 074e 6F666673 		.ascii	"offset\000"
 3890      657400
 3891              	.LASF103:
 3892 0755 41504231 		.ascii	"APB1ENR\000"
 3892      454E5200 
 3893              	.LASF108:
 3894 075d 636F6E74 		.ascii	"context\000"
 3894      65787400 
 3895              	.LASF58:
 3896 0765 63685F76 		.ascii	"ch_virtual_timer\000"
 3896      69727475 
 3896      616C5F74 
 3896      696D6572 
 3896      00
 3897              	.LASF20:
 3898 0776 7274636E 		.ascii	"rtcnt_t\000"
 3898      745F7400 
 3899              	.LASF175:
 3900 077e 6164635F 		.ascii	"adc_lld_start\000"
 3900      6C6C645F 
 3900      73746172 
 3900      7400
 3901              	.LASF63:
 3902 078c 76745F70 		.ascii	"vt_par\000"
 3902      617200
 3903              	.LASF48:
 3904 0793 74687265 		.ascii	"threads_queue_t\000"
 3904      6164735F 
 3904      71756575 
 3904      655F7400 
 3905              	.LASF122:
 3906 07a3 63685F6D 		.ascii	"ch_mutex\000"
 3906      75746578 
 3906      00
 3907              	.LASF36:
 3908 07ac 705F7265 		.ascii	"p_refs\000"
 3908      667300
 3909              	.LASF92:
 3910 07b3 434E4454 		.ascii	"CNDTR\000"
 3910      5200
 3911              	.LASF104:
 3912 07b9 42444352 		.ascii	"BDCR\000"
 3912      00
 3913              	.LASF181:
 3914 07be 41444344 		.ascii	"ADCD1\000"
 3914      3100
 3915              	.LASF72:
 3916 07c4 726C6973 		.ascii	"rlist\000"
 3916      7400
 3917              	.LASF15:
 3918 07ca 75696E74 		.ascii	"uint8_t\000"
 3918      385F7400 
 3919              	.LASF167:
 3920 07d2 41444343 		.ascii	"ADCConversionGroup\000"
 3920      6F6E7665 
ARM GAS  /tmp/ccT0wPuQ.s 			page 76


 3920      7273696F 
 3920      6E47726F 
 3920      757000
 3921              	.LASF82:
 3922 07e5 4A4F4652 		.ascii	"JOFR4\000"
 3922      3400
 3923              	.LASF171:
 3924 07eb 666C6167 		.ascii	"flags\000"
 3924      7300
 3925              	.LASF87:
 3926 07f1 4A445231 		.ascii	"JDR1\000"
 3926      00
 3927              	.LASF89:
 3928 07f6 4A445233 		.ascii	"JDR3\000"
 3928      00
 3929              	.LASF155:
 3930 07fb 646D616D 		.ascii	"dmamode\000"
 3930      6F646500 
 3931              	.LASF114:
 3932 0803 77746F62 		.ascii	"wtobjp\000"
 3932      6A7000
 3933              	.LASF141:
 3934 080a 4144435F 		.ascii	"ADC_COMPLETE\000"
 3934      434F4D50 
 3934      4C455445 
 3934      00
 3935              	.LASF145:
 3936 0817 6164635F 		.ascii	"adc_channels_num_t\000"
 3936      6368616E 
 3936      6E656C73 
 3936      5F6E756D 
 3936      5F7400
 3937              	.LASF98:
 3938 082a 43464752 		.ascii	"CFGR\000"
 3938      00
 3939              	.LASF39:
 3940 082f 705F6D73 		.ascii	"p_msg\000"
 3940      6700
 3941              	.LASF170:
 3942 0835 61646370 		.ascii	"adcp\000"
 3942      00
 3943              	.LASF124:
 3944 083a 6D5F6F77 		.ascii	"m_owner\000"
 3944      6E657200 
 3945              	.LASF188:
 3946 0842 646D6153 		.ascii	"dmaStreamAllocate\000"
 3946      74726561 
 3946      6D416C6C 
 3946      6F636174 
 3946      6500
 3947              	.LASF173:
 3948 0854 68616C66 		.ascii	"half_index\000"
 3948      5F696E64 
 3948      657800
 3949              	.LASF33:
 3950 085f 705F6374 		.ascii	"p_ctx\000"
 3950      7800
ARM GAS  /tmp/ccT0wPuQ.s 			page 77


 3951              	.LASF62:
 3952 0865 76745F66 		.ascii	"vt_func\000"
 3952      756E6300 
 3953              	.LASF101:
 3954 086d 41484245 		.ascii	"AHBENR\000"
 3954      4E5200
 3955              		.ident	"GCC: (GNU Tools for ARM Embedded Processors) 4.9.3 20150529 (release) [ARM/embedded-4_9-br
ARM GAS  /tmp/ccT0wPuQ.s 			page 78


DEFINED SYMBOLS
                            *ABS*:00000000 adc_lld.c
     /tmp/ccT0wPuQ.s:19     .text.adc_lld_serve_rx_interrupt:00000000 $t
     /tmp/ccT0wPuQ.s:24     .text.adc_lld_serve_rx_interrupt:00000000 adc_lld_serve_rx_interrupt
     /tmp/ccT0wPuQ.s:260    .text.adc_lld_init:00000000 $t
     /tmp/ccT0wPuQ.s:266    .text.adc_lld_init:00000000 adc_lld_init
     /tmp/ccT0wPuQ.s:349    .text.adc_lld_init:0000005c $d
     /tmp/ccT0wPuQ.s:357    .text.adc_lld_start:00000000 $t
     /tmp/ccT0wPuQ.s:363    .text.adc_lld_start:00000000 adc_lld_start
     /tmp/ccT0wPuQ.s:423    .text.adc_lld_start:0000003c $d
     /tmp/ccT0wPuQ.s:432    .text.adc_lld_stop:00000000 $t
     /tmp/ccT0wPuQ.s:438    .text.adc_lld_stop:00000000 adc_lld_stop
     /tmp/ccT0wPuQ.s:484    .text.adc_lld_stop:0000002c $d
     /tmp/ccT0wPuQ.s:491    .text.adc_lld_start_conversion:00000000 $t
     /tmp/ccT0wPuQ.s:497    .text.adc_lld_start_conversion:00000000 adc_lld_start_conversion
     /tmp/ccT0wPuQ.s:617    .text.adc_lld_stop_conversion:00000000 $t
     /tmp/ccT0wPuQ.s:623    .text.adc_lld_stop_conversion:00000000 adc_lld_stop_conversion
     /tmp/ccT0wPuQ.s:671    .bss.ADCD1:00000000 ADCD1
     /tmp/ccT0wPuQ.s:667    .bss.ADCD1:00000000 $d
                     .debug_frame:00000010 $d

UNDEFINED SYMBOLS
adcObjectInit
_stm32_dma_streams
dmaStreamAllocate
dmaStreamRelease
