ARM GAS  /tmp/cc521724.s 			page 1


   1              		.syntax unified
   2              		.cpu cortex-m3
   3              		.fpu softvfp
   4              		.eabi_attribute 20, 1
   5              		.eabi_attribute 21, 1
   6              		.eabi_attribute 23, 3
   7              		.eabi_attribute 24, 1
   8              		.eabi_attribute 25, 1
   9              		.eabi_attribute 26, 1
  10              		.eabi_attribute 30, 2
  11              		.eabi_attribute 34, 1
  12              		.eabi_attribute 18, 4
  13              		.thumb
  14              		.file	"attitude.c"
  15              		.text
  16              	.Ltext0:
  17              		.cfi_sections	.debug_frame
  18              		.global	__aeabi_fmul
  19              		.global	__aeabi_fsub
  20              		.section	.text.QInvSqrtf,"ax",%progbits
  21              		.align	2
  22              		.p2align 4,,15
  23              		.thumb
  24              		.thumb_func
  25              		.type	QInvSqrtf, %function
  26              	QInvSqrtf:
  27              	.LFB207:
  28              		.file 1 "misc.h"
  29              		.loc 1 42 0
  30              		.cfi_startproc
  31              		@ args = 0, pretend = 0, frame = 0
  32              		@ frame_needed = 0, uses_anonymous_args = 0
  33              	.LVL0:
  34 0000 10B5     		push	{r4, lr}
  35              		.cfi_def_cfa_offset 8
  36              		.cfi_offset 4, -8
  37              		.cfi_offset 14, -4
  38              		.loc 1 49 0
  39 0002 0C4C     		ldr	r4, .L3
  40              		.loc 1 43 0
  41 0004 4FF07C51 		mov	r1, #1056964608
  42              		.loc 1 49 0
  43 0008 A4EB5004 		sub	r4, r4, r0, lsr #1
  44              	.LVL1:
  45              		.loc 1 43 0
  46 000c FFF7FEFF 		bl	__aeabi_fmul
  47              	.LVL2:
  48              		.loc 1 50 0
  49 0010 2146     		mov	r1, r4
  50 0012 FFF7FEFF 		bl	__aeabi_fmul
  51              	.LVL3:
  52 0016 0146     		mov	r1, r0
  53 0018 2046     		mov	r0, r4
  54 001a FFF7FEFF 		bl	__aeabi_fmul
  55              	.LVL4:
  56 001e 0146     		mov	r1, r0
  57 0020 4FF07F50 		mov	r0, #1069547520
ARM GAS  /tmp/cc521724.s 			page 2


  58 0024 FFF7FEFF 		bl	__aeabi_fsub
  59              	.LVL5:
  60 0028 0146     		mov	r1, r0
  61 002a 2046     		mov	r0, r4
  62 002c FFF7FEFF 		bl	__aeabi_fmul
  63              	.LVL6:
  64              		.loc 1 54 0
  65 0030 10BD     		pop	{r4, pc}
  66              	.LVL7:
  67              	.L4:
  68 0032 00BF     		.align	2
  69              	.L3:
  70 0034 865A375F 		.word	1597463174
  71              		.cfi_endproc
  72              	.LFE207:
  73              		.size	QInvSqrtf, .-QInvSqrtf
  74              		.section	.text.CrossProduct,"ax",%progbits
  75              		.align	2
  76              		.p2align 4,,15
  77              		.thumb
  78              		.thumb_func
  79              		.type	CrossProduct, %function
  80              	CrossProduct:
  81              	.LFB208:
  82              		.loc 1 59 0
  83              		.cfi_startproc
  84              		@ args = 0, pretend = 0, frame = 0
  85              		@ frame_needed = 0, uses_anonymous_args = 0
  86              	.LVL8:
  87 0000 F8B5     		push	{r3, r4, r5, r6, r7, lr}
  88              		.cfi_def_cfa_offset 24
  89              		.cfi_offset 3, -24
  90              		.cfi_offset 4, -20
  91              		.cfi_offset 5, -16
  92              		.cfi_offset 6, -12
  93              		.cfi_offset 7, -8
  94              		.cfi_offset 14, -4
  95              		.loc 1 59 0
  96 0002 0546     		mov	r5, r0
  97 0004 0C46     		mov	r4, r1
  98              		.loc 1 60 0
  99 0006 4068     		ldr	r0, [r0, #4]	@ float
 100              	.LVL9:
 101 0008 8968     		ldr	r1, [r1, #8]	@ float
 102              	.LVL10:
 103              		.loc 1 59 0
 104 000a 1646     		mov	r6, r2
 105              		.loc 1 60 0
 106 000c FFF7FEFF 		bl	__aeabi_fmul
 107              	.LVL11:
 108 0010 A968     		ldr	r1, [r5, #8]	@ float
 109 0012 0746     		mov	r7, r0
 110 0014 6068     		ldr	r0, [r4, #4]	@ float
 111 0016 FFF7FEFF 		bl	__aeabi_fmul
 112              	.LVL12:
 113 001a 0146     		mov	r1, r0
 114 001c 3846     		mov	r0, r7
ARM GAS  /tmp/cc521724.s 			page 3


 115 001e FFF7FEFF 		bl	__aeabi_fsub
 116              	.LVL13:
 117 0022 3060     		str	r0, [r6]	@ float
 118              		.loc 1 61 0
 119 0024 A968     		ldr	r1, [r5, #8]	@ float
 120 0026 2068     		ldr	r0, [r4]	@ float
 121 0028 FFF7FEFF 		bl	__aeabi_fmul
 122              	.LVL14:
 123 002c A168     		ldr	r1, [r4, #8]	@ float
 124 002e 0746     		mov	r7, r0
 125 0030 2868     		ldr	r0, [r5]	@ float
 126 0032 FFF7FEFF 		bl	__aeabi_fmul
 127              	.LVL15:
 128 0036 0146     		mov	r1, r0
 129 0038 3846     		mov	r0, r7
 130 003a FFF7FEFF 		bl	__aeabi_fsub
 131              	.LVL16:
 132 003e 7060     		str	r0, [r6, #4]	@ float
 133              		.loc 1 62 0
 134 0040 6168     		ldr	r1, [r4, #4]	@ float
 135 0042 2868     		ldr	r0, [r5]	@ float
 136 0044 FFF7FEFF 		bl	__aeabi_fmul
 137              	.LVL17:
 138 0048 6968     		ldr	r1, [r5, #4]	@ float
 139 004a 0746     		mov	r7, r0
 140 004c 2068     		ldr	r0, [r4]	@ float
 141 004e FFF7FEFF 		bl	__aeabi_fmul
 142              	.LVL18:
 143 0052 0146     		mov	r1, r0
 144 0054 3846     		mov	r0, r7
 145 0056 FFF7FEFF 		bl	__aeabi_fsub
 146              	.LVL19:
 147 005a B060     		str	r0, [r6, #8]	@ float
 148 005c F8BD     		pop	{r3, r4, r5, r6, r7, pc}
 149              		.cfi_endproc
 150              	.LFE208:
 151              		.size	CrossProduct, .-CrossProduct
 152              		.global	__aeabi_ui2f
 153 005e 00BF     		.section	.text.pidUpdateStruct,"ax",%progbits
 154              		.align	2
 155              		.p2align 4,,15
 156              		.thumb
 157              		.thumb_func
 158              		.type	pidUpdateStruct, %function
 159              	pidUpdateStruct:
 160              	.LFB214:
 161              		.file 2 "attitude.c"
 162              		.loc 2 183 0
 163              		.cfi_startproc
 164              		@ args = 0, pretend = 0, frame = 0
 165              		@ frame_needed = 0, uses_anonymous_args = 0
 166              	.LVL20:
 167 0000 2DE9F84F 		push	{r3, r4, r5, r6, r7, r8, r9, r10, fp, lr}
 168              		.cfi_def_cfa_offset 40
 169              		.cfi_offset 3, -40
 170              		.cfi_offset 4, -36
 171              		.cfi_offset 5, -32
ARM GAS  /tmp/cc521724.s 			page 4


 172              		.cfi_offset 6, -28
 173              		.cfi_offset 7, -24
 174              		.cfi_offset 8, -20
 175              		.cfi_offset 9, -16
 176              		.cfi_offset 10, -12
 177              		.cfi_offset 11, -8
 178              		.cfi_offset 14, -4
 179 0004 DFF85CA0 		ldr	r10, .L13+8
 180 0008 DFF85C90 		ldr	r9, .L13+12
 181 000c 5646     		mov	r6, r10
 182 000e 4D46     		mov	r5, r9
 183 0010 DFF85880 		ldr	r8, .L13+16
 184              		.loc 2 190 0
 185 0014 4FF0000B 		mov	fp, #0
 186              		.loc 2 183 0
 187 0018 0024     		movs	r4, #0
 188              	.LVL21:
 189              	.L9:
 190              		.loc 2 186 0
 191 001a 1AF80400 		ldrb	r0, [r10, r4]	@ zero_extendqisi2
 192 001e FFF7FEFF 		bl	__aeabi_ui2f
 193              	.LVL22:
 194 0022 0E49     		ldr	r1, .L13
 195 0024 FFF7FEFF 		bl	__aeabi_fmul
 196              	.LVL23:
 197              		.loc 2 187 0
 198 0028 7778     		ldrb	r7, [r6, #1]	@ zero_extendqisi2
 199              		.loc 2 186 0
 200 002a 49F83400 		str	r0, [r9, r4, lsl #3]	@ float
 201              		.loc 2 187 0
 202 002e 3846     		mov	r0, r7
 203 0030 FFF7FEFF 		bl	__aeabi_ui2f
 204              	.LVL24:
 205 0034 0A49     		ldr	r1, .L13+4
 206 0036 FFF7FEFF 		bl	__aeabi_fmul
 207              	.LVL25:
 208 003a 6860     		str	r0, [r5, #4]	@ float
 209              		.loc 2 188 0
 210 003c B078     		ldrb	r0, [r6, #2]	@ zero_extendqisi2
 211 003e FFF7FEFF 		bl	__aeabi_ui2f
 212              	.LVL26:
 213 0042 0334     		adds	r4, r4, #3
 214 0044 A860     		str	r0, [r5, #8]	@ float
 215 0046 0336     		adds	r6, r6, #3
 216 0048 1835     		adds	r5, r5, #24
 217              		.loc 2 189 0
 218 004a 0FB9     		cbnz	r7, .L8
 219              		.loc 2 190 0
 220 004c C8F800B0 		str	fp, [r8]	@ float
 221              	.L8:
 222              		.loc 2 185 0 discriminator 2
 223 0050 092C     		cmp	r4, #9
 224 0052 08F10408 		add	r8, r8, #4
 225 0056 E0D1     		bne	.L9
 226              		.loc 2 193 0
 227 0058 BDE8F88F 		pop	{r3, r4, r5, r6, r7, r8, r9, r10, fp, pc}
 228              	.L14:
ARM GAS  /tmp/cc521724.s 			page 5


 229              		.align	2
 230              	.L13:
 231 005c CDCCCC3D 		.word	1036831949
 232 0060 0AD7233C 		.word	1008981770
 233 0064 00000000 		.word	.LANCHOR0
 234 0068 00000000 		.word	.LANCHOR1
 235 006c 00000000 		.word	.LANCHOR2
 236              		.cfi_endproc
 237              	.LFE214:
 238              		.size	pidUpdateStruct, .-pidUpdateStruct
 239              		.global	__aeabi_fadd
 240              		.section	.text.Quaternion2RPY,"ax",%progbits
 241              		.align	2
 242              		.p2align 4,,15
 243              		.thumb
 244              		.thumb_func
 245              		.type	Quaternion2RPY, %function
 246              	Quaternion2RPY:
 247              	.LFB210:
 248              		.loc 1 100 0
 249              		.cfi_startproc
 250              		@ args = 0, pretend = 0, frame = 0
 251              		@ frame_needed = 0, uses_anonymous_args = 0
 252              	.LVL27:
 253 0000 2DE9F047 		push	{r4, r5, r6, r7, r8, r9, r10, lr}
 254              		.cfi_def_cfa_offset 32
 255              		.cfi_offset 4, -32
 256              		.cfi_offset 5, -28
 257              		.cfi_offset 6, -24
 258              		.cfi_offset 7, -20
 259              		.cfi_offset 8, -16
 260              		.cfi_offset 9, -12
 261              		.cfi_offset 10, -8
 262              		.cfi_offset 14, -4
 263              		.loc 1 102 0
 264 0004 8568     		ldr	r5, [r0, #8]	@ float
 265              		.loc 1 100 0
 266 0006 0646     		mov	r6, r0
 267 0008 0F46     		mov	r7, r1
 268              		.loc 1 102 0
 269 000a 2846     		mov	r0, r5
 270              	.LVL28:
 271 000c 2946     		mov	r1, r5
 272              	.LVL29:
 273 000e FFF7FEFF 		bl	__aeabi_fmul
 274              	.LVL30:
 275              		.loc 1 105 0
 276 0012 D6F80080 		ldr	r8, [r6]	@ float
 277              		.loc 1 102 0
 278 0016 8146     		mov	r9, r0
 279              	.LVL31:
 280              		.loc 1 106 0
 281 0018 4146     		mov	r1, r8
 282 001a 2846     		mov	r0, r5
 283              	.LVL32:
 284 001c FFF7FEFF 		bl	__aeabi_fmul
 285              	.LVL33:
ARM GAS  /tmp/cc521724.s 			page 6


 286              		.loc 1 104 0
 287 0020 F468     		ldr	r4, [r6, #12]	@ float
 288              	.LVL34:
 289              		.loc 1 105 0
 290 0022 7668     		ldr	r6, [r6, #4]	@ float
 291              	.LVL35:
 292              		.loc 1 106 0
 293 0024 8246     		mov	r10, r0
 294 0026 3146     		mov	r1, r6
 295 0028 2046     		mov	r0, r4
 296 002a FFF7FEFF 		bl	__aeabi_fmul
 297              	.LVL36:
 298 002e 0146     		mov	r1, r0
 299 0030 5046     		mov	r0, r10
 300 0032 FFF7FEFF 		bl	__aeabi_fsub
 301              	.LVL37:
 302 0036 0146     		mov	r1, r0
 303 0038 FFF7FEFF 		bl	__aeabi_fadd
 304              	.LVL38:
 305              		.loc 1 110 0
 306 003c FFF7FEFF 		bl	asinf
 307              	.LVL39:
 308              		.loc 1 105 0
 309 0040 4146     		mov	r1, r8
 310              		.loc 1 110 0
 311 0042 7860     		str	r0, [r7, #4]	@ float
 312              		.loc 1 105 0
 313 0044 2046     		mov	r0, r4
 314 0046 FFF7FEFF 		bl	__aeabi_fmul
 315              	.LVL40:
 316 004a 3146     		mov	r1, r6
 317 004c 8246     		mov	r10, r0
 318 004e 2846     		mov	r0, r5
 319 0050 FFF7FEFF 		bl	__aeabi_fmul
 320              	.LVL41:
 321 0054 0146     		mov	r1, r0
 322 0056 5046     		mov	r0, r10
 323 0058 FFF7FEFF 		bl	__aeabi_fadd
 324              	.LVL42:
 325 005c 0146     		mov	r1, r0
 326 005e FFF7FEFF 		bl	__aeabi_fadd
 327              	.LVL43:
 328              		.loc 1 104 0
 329 0062 2146     		mov	r1, r4
 330              		.loc 1 105 0
 331 0064 8246     		mov	r10, r0
 332              		.loc 1 104 0
 333 0066 2046     		mov	r0, r4
 334 0068 FFF7FEFF 		bl	__aeabi_fmul
 335              	.LVL44:
 336 006c 4946     		mov	r1, r9
 337 006e FFF7FEFF 		bl	__aeabi_fadd
 338              	.LVL45:
 339 0072 0146     		mov	r1, r0
 340 0074 FFF7FEFF 		bl	__aeabi_fadd
 341              	.LVL46:
 342 0078 0146     		mov	r1, r0
ARM GAS  /tmp/cc521724.s 			page 7


 343 007a 4FF07E50 		mov	r0, #1065353216
 344 007e FFF7FEFF 		bl	__aeabi_fsub
 345              	.LVL47:
 346 0082 0146     		mov	r1, r0
 347              		.loc 1 111 0
 348 0084 5046     		mov	r0, r10
 349 0086 FFF7FEFF 		bl	atan2f
 350              	.LVL48:
 351              		.loc 1 107 0
 352 008a 3146     		mov	r1, r6
 353              		.loc 1 111 0
 354 008c B860     		str	r0, [r7, #8]	@ float
 355              		.loc 1 107 0
 356 008e 4046     		mov	r0, r8
 357 0090 FFF7FEFF 		bl	__aeabi_fmul
 358              	.LVL49:
 359 0094 2146     		mov	r1, r4
 360 0096 8046     		mov	r8, r0
 361              	.LVL50:
 362 0098 2846     		mov	r0, r5
 363 009a FFF7FEFF 		bl	__aeabi_fmul
 364              	.LVL51:
 365 009e 0146     		mov	r1, r0
 366 00a0 4046     		mov	r0, r8
 367 00a2 FFF7FEFF 		bl	__aeabi_fadd
 368              	.LVL52:
 369 00a6 0146     		mov	r1, r0
 370 00a8 FFF7FEFF 		bl	__aeabi_fadd
 371              	.LVL53:
 372              		.loc 1 108 0
 373 00ac 3146     		mov	r1, r6
 374              		.loc 1 107 0
 375 00ae 0446     		mov	r4, r0
 376              	.LVL54:
 377              		.loc 1 108 0
 378 00b0 3046     		mov	r0, r6
 379 00b2 FFF7FEFF 		bl	__aeabi_fmul
 380              	.LVL55:
 381 00b6 4946     		mov	r1, r9
 382 00b8 FFF7FEFF 		bl	__aeabi_fadd
 383              	.LVL56:
 384 00bc 0146     		mov	r1, r0
 385 00be FFF7FEFF 		bl	__aeabi_fadd
 386              	.LVL57:
 387 00c2 0146     		mov	r1, r0
 388 00c4 4FF07E50 		mov	r0, #1065353216
 389 00c8 FFF7FEFF 		bl	__aeabi_fsub
 390              	.LVL58:
 391 00cc 0146     		mov	r1, r0
 392              		.loc 1 112 0
 393 00ce 2046     		mov	r0, r4
 394 00d0 FFF7FEFF 		bl	atan2f
 395              	.LVL59:
 396 00d4 3860     		str	r0, [r7]	@ float
 397 00d6 BDE8F087 		pop	{r4, r5, r6, r7, r8, r9, r10, pc}
 398              		.cfi_endproc
 399              	.LFE210:
ARM GAS  /tmp/cc521724.s 			page 8


 400              		.size	Quaternion2RPY, .-Quaternion2RPY
 401              		.global	__aeabi_i2f
 402              		.global	__aeabi_f2d
 403              		.global	__aeabi_dcmplt
 404              		.global	__aeabi_dadd
 405              		.global	__aeabi_d2f
 406              		.global	__aeabi_dcmpgt
 407              		.global	__aeabi_dsub
 408              		.global	__aeabi_fdiv
 409              		.global	__aeabi_fcmplt
 410 00da 00BF     		.section	.text.pidControllerApply,"ax",%progbits
 411              		.align	2
 412              		.p2align 4,,15
 413              		.thumb
 414              		.thumb_func
 415              		.type	pidControllerApply, %function
 416              	pidControllerApply:
 417              	.LFB213:
 418              		.loc 2 144 0
 419              		.cfi_startproc
 420              		@ args = 0, pretend = 0, frame = 16
 421              		@ frame_needed = 0, uses_anonymous_args = 0
 422              	.LVL60:
 423 0000 2DE9F04F 		push	{r4, r5, r6, r7, r8, r9, r10, fp, lr}
 424              		.cfi_def_cfa_offset 36
 425              		.cfi_offset 4, -36
 426              		.cfi_offset 5, -32
 427              		.cfi_offset 6, -28
 428              		.cfi_offset 7, -24
 429              		.cfi_offset 8, -20
 430              		.cfi_offset 9, -16
 431              		.cfi_offset 10, -12
 432              		.cfi_offset 11, -8
 433              		.cfi_offset 14, -4
 434              		.loc 2 145 0
 435 0004 8E4B     		ldr	r3, .L42+40
 436              		.loc 2 144 0
 437 0006 0446     		mov	r4, r0
 438              		.loc 2 145 0
 439 0008 03EB8003 		add	r3, r3, r0, lsl #2
 440 000c 5878     		ldrb	r0, [r3, #1]	@ zero_extendqisi2
 441              	.LVL61:
 442              		.loc 2 144 0
 443 000e 85B0     		sub	sp, sp, #20
 444              		.cfi_def_cfa_offset 56
 445              		.loc 2 145 0
 446 0010 4008     		lsrs	r0, r0, #1
 447              		.loc 2 144 0
 448 0012 0D46     		mov	r5, r1
 449 0014 1646     		mov	r6, r2
 450              		.loc 2 145 0
 451 0016 FFF7FEFF 		bl	__aeabi_i2f
 452              	.LVL62:
 453 001a 0746     		mov	r7, r0
 454              	.LVL63:
 455              		.loc 2 147 0
 456 001c 2846     		mov	r0, r5
ARM GAS  /tmp/cc521724.s 			page 9


 457              	.LVL64:
 458 001e FFF7FEFF 		bl	__aeabi_f2d
 459              	.LVL65:
 460 0022 7DA3     		adr	r3, .L42
 461 0024 D3E90023 		ldrd	r2, [r3]
 462 0028 8046     		mov	r8, r0
 463 002a 8946     		mov	r9, r1
 464 002c FFF7FEFF 		bl	__aeabi_dcmplt
 465              	.LVL66:
 466 0030 0028     		cmp	r0, #0
 467 0032 00F0AB80 		beq	.L37
 468              		.loc 2 147 0 is_stmt 0 discriminator 1
 469 0036 7AA3     		adr	r3, .L42+8
 470 0038 D3E90023 		ldrd	r2, [r3]
 471 003c 4046     		mov	r0, r8
 472 003e 4946     		mov	r1, r9
 473 0040 FFF7FEFF 		bl	__aeabi_dadd
 474              	.LVL67:
 475 0044 FFF7FEFF 		bl	__aeabi_d2f
 476              	.LVL68:
 477 0048 0546     		mov	r5, r0
 478              	.LVL69:
 479              	.L20:
 480              		.loc 2 149 0 is_stmt 1 discriminator 8
 481 004a 2846     		mov	r0, r5
 482 004c 3946     		mov	r1, r7
 483 004e FFF7FEFF 		bl	__aeabi_fmul
 484              	.LVL70:
 485              		.loc 2 151 0 discriminator 8
 486 0052 3946     		mov	r1, r7
 487              		.loc 2 149 0 discriminator 8
 488 0054 8346     		mov	fp, r0
 489              	.LVL71:
 490              		.loc 2 151 0 discriminator 8
 491 0056 3046     		mov	r0, r6
 492              	.LVL72:
 493 0058 FFF7FEFF 		bl	__aeabi_fmul
 494              	.LVL73:
 495              		.loc 2 153 0 discriminator 8
 496 005c 6600     		lsls	r6, r4, #1
 497              	.LVL74:
 498 005e 794D     		ldr	r5, .L42+44
 499 0060 3319     		adds	r3, r6, r4
 500 0062 05EBC303 		add	r3, r5, r3, lsl #3
 501              		.loc 2 151 0 discriminator 8
 502 0066 0390     		str	r0, [sp, #12]	@ float
 503              	.LVL75:
 504              		.loc 2 153 0 discriminator 8
 505 0068 5968     		ldr	r1, [r3, #4]	@ float
 506 006a 5846     		mov	r0, fp
 507              	.LVL76:
 508 006c FFF7FEFF 		bl	__aeabi_fmul
 509              	.LVL77:
 510 0070 0090     		str	r0, [sp]	@ float
 511 0072 FFF7FEFF 		bl	__aeabi_f2d
 512              	.LVL78:
 513 0076 6CA3     		adr	r3, .L42+16
ARM GAS  /tmp/cc521724.s 			page 10


 514 0078 D3E90023 		ldrd	r2, [r3]
 515 007c 8046     		mov	r8, r0
 516 007e 8946     		mov	r9, r1
 517 0080 FFF7FEFF 		bl	__aeabi_dcmplt
 518              	.LVL79:
 519 0084 0028     		cmp	r0, #0
 520 0086 7ED1     		bne	.L30
 521              		.loc 2 153 0 is_stmt 0 discriminator 2
 522 0088 69A3     		adr	r3, .L42+24
 523 008a D3E90023 		ldrd	r2, [r3]
 524 008e 4046     		mov	r0, r8
 525 0090 4946     		mov	r1, r9
 526 0092 FFF7FEFF 		bl	__aeabi_dcmpgt
 527              	.LVL80:
 528 0096 0028     		cmp	r0, #0
 529 0098 40F0A180 		bne	.L31
 530              	.L22:
 531              	.LVL81:
 532              		.loc 2 155 0 is_stmt 1 discriminator 8
 533 009c 06EB0409 		add	r9, r6, r4
 534 00a0 4FEAC909 		lsl	r9, r9, #3
 535 00a4 05EB090A 		add	r10, r5, r9
 536 00a8 DAF80C10 		ldr	r1, [r10, #12]	@ float
 537 00ac 5846     		mov	r0, fp
 538 00ae FFF7FEFF 		bl	__aeabi_fsub
 539              	.LVL82:
 540              		.loc 2 156 0 discriminator 8
 541 00b2 55F80910 		ldr	r1, [r5, r9]	@ float
 542              		.loc 2 155 0 discriminator 8
 543 00b6 8046     		mov	r8, r0
 544              	.LVL83:
 545              		.loc 2 156 0 discriminator 8
 546 00b8 FFF7FEFF 		bl	__aeabi_fmul
 547              	.LVL84:
 548 00bc 0146     		mov	r1, r0
 549 00be 0098     		ldr	r0, [sp]	@ float
 550 00c0 FFF7FEFF 		bl	__aeabi_fadd
 551              	.LVL85:
 552 00c4 8146     		mov	r9, r0
 553              	.LVL86:
 554              		.loc 2 158 0 discriminator 8
 555 00c6 DAF81010 		ldr	r1, [r10, #16]	@ float
 556 00ca 4046     		mov	r0, r8
 557              	.LVL87:
 558 00cc FFF7FEFF 		bl	__aeabi_fsub
 559              	.LVL88:
 560 00d0 DAF80810 		ldr	r1, [r10, #8]	@ float
 561 00d4 FFF7FEFF 		bl	__aeabi_fmul
 562              	.LVL89:
 563 00d8 4946     		mov	r1, r9
 564 00da FFF7FEFF 		bl	__aeabi_fadd
 565              	.LVL90:
 566              		.loc 2 160 0 discriminator 8
 567 00de 0399     		ldr	r1, [sp, #12]	@ float
 568 00e0 FFF7FEFF 		bl	__aeabi_fadd
 569              	.LVL91:
 570              		.loc 2 162 0 discriminator 8
ARM GAS  /tmp/cc521724.s 			page 11


 571 00e4 DFF87091 		ldr	r9, .L42+64
 572 00e8 3946     		mov	r1, r7
 573              		.loc 2 160 0 discriminator 8
 574 00ea 8246     		mov	r10, r0
 575              	.LVL92:
 576              		.loc 2 162 0 discriminator 8
 577 00ec FFF7FEFF 		bl	__aeabi_fdiv
 578              	.LVL93:
 579 00f0 59F82410 		ldr	r1, [r9, r4, lsl #2]	@ float
 580 00f4 FFF7FEFF 		bl	__aeabi_fadd
 581              	.LVL94:
 582 00f8 0746     		mov	r7, r0
 583              	.LVL95:
 584              		.loc 2 164 0 discriminator 8
 585 00fa FFF7FEFF 		bl	__aeabi_f2d
 586              	.LVL96:
 587 00fe 46A3     		adr	r3, .L42
 588 0100 D3E90023 		ldrd	r2, [r3]
 589 0104 CDE90001 		strd	r0, [sp]
 590 0108 FFF7FEFF 		bl	__aeabi_dcmplt
 591              	.LVL97:
 592 010c 0028     		cmp	r0, #0
 593 010e 52D0     		beq	.L38
 594              		.loc 2 164 0 is_stmt 0 discriminator 1
 595 0110 43A3     		adr	r3, .L42+8
 596 0112 D3E90023 		ldrd	r2, [r3]
 597 0116 DDE90001 		ldrd	r0, [sp]
 598 011a FFF7FEFF 		bl	__aeabi_dadd
 599              	.LVL98:
 600 011e FFF7FEFF 		bl	__aeabi_d2f
 601              	.LVL99:
 602 0122 0746     		mov	r7, r0
 603              	.L25:
 604              		.loc 2 166 0 is_stmt 1 discriminator 8
 605 0124 3319     		adds	r3, r6, r4
 606 0126 05EBC303 		add	r3, r5, r3, lsl #3
 607 012a 5969     		ldr	r1, [r3, #20]	@ float
 608 012c 5046     		mov	r0, r10
 609              		.loc 2 164 0 discriminator 8
 610 012e 49F82470 		str	r7, [r9, r4, lsl #2]	@ float
 611              		.loc 2 166 0 discriminator 8
 612 0132 FFF7FEFF 		bl	__aeabi_fadd
 613              	.LVL100:
 614              		.loc 2 168 0 discriminator 8
 615 0136 0021     		movs	r1, #0
 616              		.loc 2 166 0 discriminator 8
 617 0138 0746     		mov	r7, r0
 618              	.LVL101:
 619              		.loc 2 168 0 discriminator 8
 620 013a FFF7FEFF 		bl	__aeabi_fcmplt
 621              	.LVL102:
 622 013e 0028     		cmp	r0, #0
 623 0140 50D1     		bne	.L41
 624              		.loc 2 171 0
 625 0142 3846     		mov	r0, r7
 626 0144 FFF7FEFF 		bl	__aeabi_f2d
 627              	.LVL103:
ARM GAS  /tmp/cc521724.s 			page 12


 628 0148 3BA3     		adr	r3, .L42+32
 629 014a D3E90023 		ldrd	r2, [r3]
 630 014e FFF7FEFF 		bl	__aeabi_dadd
 631              	.LVL104:
 632 0152 FFF7FEFF 		bl	__aeabi_d2f
 633              	.LVL105:
 634 0156 3C49     		ldr	r1, .L42+48
 635 0158 FFF7FEFF 		bl	fmodf
 636              	.LVL106:
 637 015c FFF7FEFF 		bl	__aeabi_f2d
 638              	.LVL107:
 639 0160 35A3     		adr	r3, .L42+32
 640 0162 D3E90023 		ldrd	r2, [r3]
 641 0166 FFF7FEFF 		bl	__aeabi_dsub
 642              	.LVL108:
 643 016a FFF7FEFF 		bl	__aeabi_d2f
 644              	.LVL109:
 645              	.L29:
 646              		.loc 2 174 0
 647 016e 3444     		add	r4, r4, r6
 648 0170 05EBC404 		add	r4, r5, r4, lsl #3
 649              		.loc 2 175 0
 650 0174 2346     		mov	r3, r4
 651 0176 43F8108F 		str	r8, [r3, #16]!	@ float
 652              		.loc 2 174 0
 653 017a C4F80CB0 		str	fp, [r4, #12]	@ float
 654              		.loc 2 176 0
 655 017e 5860     		str	r0, [r3, #4]	@ float
 656              		.loc 2 178 0
 657 0180 05B0     		add	sp, sp, #20
 658              		.cfi_remember_state
 659              		.cfi_def_cfa_offset 36
 660              		@ sp needed
 661 0182 BDE8F08F 		pop	{r4, r5, r6, r7, r8, r9, r10, fp, pc}
 662              	.LVL110:
 663              	.L30:
 664              		.cfi_restore_state
 665              		.loc 2 153 0
 666 0186 314B     		ldr	r3, .L42+52
 667 0188 0093     		str	r3, [sp]	@ float
 668 018a 87E7     		b	.L22
 669              	.LVL111:
 670              	.L37:
 671              		.loc 2 147 0 discriminator 2
 672 018c 4046     		mov	r0, r8
 673 018e 2AA3     		adr	r3, .L42+32
 674 0190 D3E90023 		ldrd	r2, [r3]
 675 0194 4946     		mov	r1, r9
 676 0196 FFF7FEFF 		bl	__aeabi_dcmpgt
 677              	.LVL112:
 678 019a 0028     		cmp	r0, #0
 679 019c 3FF455AF 		beq	.L20
 680              		.loc 2 147 0 is_stmt 0 discriminator 4
 681 01a0 1FA3     		adr	r3, .L42+8
 682 01a2 D3E90023 		ldrd	r2, [r3]
 683 01a6 4046     		mov	r0, r8
 684 01a8 4946     		mov	r1, r9
ARM GAS  /tmp/cc521724.s 			page 13


 685 01aa FFF7FEFF 		bl	__aeabi_dsub
 686              	.LVL113:
 687 01ae FFF7FEFF 		bl	__aeabi_d2f
 688              	.LVL114:
 689 01b2 0546     		mov	r5, r0
 690              	.LVL115:
 691 01b4 49E7     		b	.L20
 692              	.LVL116:
 693              	.L38:
 694              		.loc 2 164 0 is_stmt 1 discriminator 2
 695 01b6 DDE90001 		ldrd	r0, [sp]
 696 01ba 1FA3     		adr	r3, .L42+32
 697 01bc D3E90023 		ldrd	r2, [r3]
 698 01c0 FFF7FEFF 		bl	__aeabi_dcmpgt
 699              	.LVL117:
 700 01c4 0028     		cmp	r0, #0
 701 01c6 ADD0     		beq	.L25
 702              		.loc 2 164 0 is_stmt 0 discriminator 4
 703 01c8 15A3     		adr	r3, .L42+8
 704 01ca D3E90023 		ldrd	r2, [r3]
 705 01ce DDE90001 		ldrd	r0, [sp]
 706 01d2 FFF7FEFF 		bl	__aeabi_dsub
 707              	.LVL118:
 708 01d6 FFF7FEFF 		bl	__aeabi_d2f
 709              	.LVL119:
 710 01da 0746     		mov	r7, r0
 711 01dc A2E7     		b	.L25
 712              	.LVL120:
 713              	.L31:
 714              		.loc 2 153 0 is_stmt 1
 715 01de 1C4B     		ldr	r3, .L42+56
 716 01e0 0093     		str	r3, [sp]	@ float
 717 01e2 5BE7     		b	.L22
 718              	.LVL121:
 719              	.L41:
 720              		.loc 2 169 0
 721 01e4 3846     		mov	r0, r7
 722 01e6 FFF7FEFF 		bl	__aeabi_f2d
 723              	.LVL122:
 724 01ea 13A3     		adr	r3, .L42+32
 725 01ec D3E90023 		ldrd	r2, [r3]
 726 01f0 FFF7FEFF 		bl	__aeabi_dsub
 727              	.LVL123:
 728 01f4 FFF7FEFF 		bl	__aeabi_d2f
 729              	.LVL124:
 730 01f8 1649     		ldr	r1, .L42+60
 731 01fa FFF7FEFF 		bl	fmodf
 732              	.LVL125:
 733 01fe FFF7FEFF 		bl	__aeabi_f2d
 734              	.LVL126:
 735 0202 0DA3     		adr	r3, .L42+32
 736 0204 D3E90023 		ldrd	r2, [r3]
 737 0208 FFF7FEFF 		bl	__aeabi_dadd
 738              	.LVL127:
 739 020c FFF7FEFF 		bl	__aeabi_d2f
 740              	.LVL128:
 741 0210 ADE7     		b	.L29
ARM GAS  /tmp/cc521724.s 			page 14


 742              	.L43:
 743 0212 00BFAFF3 		.align	3
 743      0080
 744              	.L42:
 745 0218 182D4454 		.word	1413754136
 746 021c FB2109C0 		.word	-1073143301
 747 0220 182D4454 		.word	1413754136
 748 0224 FB211940 		.word	1075388923
 749 0228 399D52A2 		.word	-1571644103
 750 022c 46DFB1BF 		.word	-1078862010
 751 0230 399D52A2 		.word	-1571644103
 752 0234 46DFB13F 		.word	1068621638
 753 0238 182D4454 		.word	1413754136
 754 023c FB210940 		.word	1074340347
 755 0240 00000000 		.word	g_pwmOutput
 756 0244 00000000 		.word	.LANCHOR1
 757 0248 DB0FC940 		.word	1086918619
 758 024c 35FA8EBD 		.word	-1114703307
 759 0250 35FA8E3D 		.word	1032780341
 760 0254 DB0FC9C0 		.word	-1060565029
 761 0258 00000000 		.word	.LANCHOR2
 762              		.cfi_endproc
 763              	.LFE213:
 764              		.size	pidControllerApply, .-pidControllerApply
 765              		.section	.text.accelFilterApply,"ax",%progbits
 766              		.align	2
 767              		.p2align 4,,15
 768              		.thumb
 769              		.thumb_func
 770              		.type	accelFilterApply, %function
 771              	accelFilterApply:
 772              	.LFB216:
 773              		.loc 2 208 0
 774              		.cfi_startproc
 775              		@ args = 0, pretend = 0, frame = 0
 776              		@ frame_needed = 0, uses_anonymous_args = 0
 777              	.LVL129:
 778 0000 F8B5     		push	{r3, r4, r5, r6, r7, lr}
 779              		.cfi_def_cfa_offset 24
 780              		.cfi_offset 3, -24
 781              		.cfi_offset 4, -20
 782              		.cfi_offset 5, -16
 783              		.cfi_offset 6, -12
 784              		.cfi_offset 7, -8
 785              		.cfi_offset 14, -4
 786              		.loc 2 208 0
 787 0002 0C46     		mov	r4, r1
 788              	.LBB8:
 789              	.LBB9:
 790              		.loc 2 210 0
 791 0004 164B     		ldr	r3, .L46
 792 0006 0768     		ldr	r7, [r0]	@ float
 793 0008 1D68     		ldr	r5, [r3]	@ float
 794              	.LBE9:
 795              	.LBE8:
 796              		.loc 2 208 0
 797 000a 0646     		mov	r6, r0
ARM GAS  /tmp/cc521724.s 			page 15


 798              	.LVL130:
 799              	.LBB11:
 800              	.LBB10:
 801              		.loc 2 210 0
 802 000c 3946     		mov	r1, r7
 803              	.LVL131:
 804 000e 2068     		ldr	r0, [r4]	@ float
 805              	.LVL132:
 806 0010 FFF7FEFF 		bl	__aeabi_fsub
 807              	.LVL133:
 808 0014 2946     		mov	r1, r5
 809 0016 FFF7FEFF 		bl	__aeabi_fmul
 810              	.LVL134:
 811 001a 0146     		mov	r1, r0
 812 001c 3846     		mov	r0, r7
 813 001e FFF7FEFF 		bl	__aeabi_fadd
 814              	.LVL135:
 815 0022 2060     		str	r0, [r4]	@ float
 816              		.loc 2 211 0
 817 0024 7768     		ldr	r7, [r6, #4]	@ float
 818 0026 6068     		ldr	r0, [r4, #4]	@ float
 819 0028 3946     		mov	r1, r7
 820 002a FFF7FEFF 		bl	__aeabi_fsub
 821              	.LVL136:
 822 002e 0146     		mov	r1, r0
 823 0030 2846     		mov	r0, r5
 824 0032 FFF7FEFF 		bl	__aeabi_fmul
 825              	.LVL137:
 826 0036 0146     		mov	r1, r0
 827 0038 3846     		mov	r0, r7
 828 003a FFF7FEFF 		bl	__aeabi_fadd
 829              	.LVL138:
 830 003e 6060     		str	r0, [r4, #4]	@ float
 831              		.loc 2 212 0
 832 0040 B668     		ldr	r6, [r6, #8]	@ float
 833              	.LVL139:
 834 0042 A068     		ldr	r0, [r4, #8]	@ float
 835 0044 3146     		mov	r1, r6
 836 0046 FFF7FEFF 		bl	__aeabi_fsub
 837              	.LVL140:
 838 004a 0146     		mov	r1, r0
 839 004c 2846     		mov	r0, r5
 840 004e FFF7FEFF 		bl	__aeabi_fmul
 841              	.LVL141:
 842 0052 0146     		mov	r1, r0
 843 0054 3046     		mov	r0, r6
 844 0056 FFF7FEFF 		bl	__aeabi_fadd
 845              	.LVL142:
 846 005a A060     		str	r0, [r4, #8]	@ float
 847 005c F8BD     		pop	{r3, r4, r5, r6, r7, pc}
 848              	.LVL143:
 849              	.L47:
 850 005e 00BF     		.align	2
 851              	.L46:
 852 0060 00000000 		.word	.LANCHOR3
 853              	.LBE10:
 854              	.LBE11:
ARM GAS  /tmp/cc521724.s 			page 16


 855              		.cfi_endproc
 856              	.LFE216:
 857              		.size	accelFilterApply, .-accelFilterApply
 858              		.section	.text.attitudeInit,"ax",%progbits
 859              		.align	2
 860              		.p2align 4,,15
 861              		.global	attitudeInit
 862              		.thumb
 863              		.thumb_func
 864              		.type	attitudeInit, %function
 865              	attitudeInit:
 866              	.LFB217:
 867              		.loc 2 221 0
 868              		.cfi_startproc
 869              		@ args = 0, pretend = 0, frame = 0
 870              		@ frame_needed = 0, uses_anonymous_args = 0
 871 0000 38B5     		push	{r3, r4, r5, lr}
 872              		.cfi_def_cfa_offset 16
 873              		.cfi_offset 3, -16
 874              		.cfi_offset 4, -12
 875              		.cfi_offset 5, -8
 876              		.cfi_offset 14, -4
 877              	.LBB12:
 878              	.LBB13:
 879              		.loc 2 199 0
 880 0002 0E4C     		ldr	r4, .L50
 881              	.LBE13:
 882              	.LBE12:
 883              		.loc 2 222 0
 884 0004 4822     		movs	r2, #72
 885 0006 0021     		movs	r1, #0
 886 0008 0D48     		ldr	r0, .L50+4
 887 000a FFF7FEFF 		bl	memset
 888              	.LVL144:
 889              		.loc 2 223 0
 890 000e FFF7FEFF 		bl	pidUpdateStruct
 891              	.LVL145:
 892              	.LBB16:
 893              	.LBB14:
 894              		.loc 2 199 0
 895 0012 2088     		ldrh	r0, [r4]
 896 0014 FFF7FEFF 		bl	__aeabi_i2f
 897              	.LVL146:
 898 0018 0A49     		ldr	r1, .L50+8
 899 001a FFF7FEFF 		bl	__aeabi_fmul
 900              	.LVL147:
 901 001e 0A4B     		ldr	r3, .L50+12
 902              		.loc 2 200 0
 903 0020 0A4D     		ldr	r5, .L50+16
 904              		.loc 2 199 0
 905 0022 1860     		str	r0, [r3]	@ float
 906              		.loc 2 200 0
 907 0024 6088     		ldrh	r0, [r4, #2]
 908 0026 FFF7FEFF 		bl	__aeabi_i2f
 909              	.LVL148:
 910 002a 0949     		ldr	r1, .L50+20
 911 002c FFF7FEFF 		bl	__aeabi_fmul
ARM GAS  /tmp/cc521724.s 			page 17


 912              	.LVL149:
 913              	.LBE14:
 914              	.LBE16:
 915              		.loc 2 225 0
 916 0030 084B     		ldr	r3, .L50+24
 917 0032 094A     		ldr	r2, .L50+28
 918              	.LBB17:
 919              	.LBB15:
 920              		.loc 2 200 0
 921 0034 2860     		str	r0, [r5]	@ float
 922              	.LBE15:
 923              	.LBE17:
 924              		.loc 2 225 0
 925 0036 1A60     		str	r2, [r3]	@ float
 926 0038 38BD     		pop	{r3, r4, r5, pc}
 927              	.L51:
 928 003a 00BF     		.align	2
 929              	.L50:
 930 003c 00000000 		.word	.LANCHOR5
 931 0040 00000000 		.word	.LANCHOR1
 932 0044 CDCCCC3D 		.word	1036831949
 933 0048 00000000 		.word	.LANCHOR4
 934 004c 00000000 		.word	.LANCHOR6
 935 0050 ACC52737 		.word	925353388
 936 0054 00000000 		.word	.LANCHOR3
 937 0058 4C307C3F 		.word	1065103436
 938              		.cfi_endproc
 939              	.LFE217:
 940              		.size	attitudeInit, .-attitudeInit
 941              		.global	__aeabi_fcmpgt
 942              		.global	__aeabi_dmul
 943              		.section	.text.attitudeUpdate,"ax",%progbits
 944              		.align	2
 945              		.p2align 4,,-1
 946              		.global	attitudeUpdate
 947              		.thumb
 948              		.thumb_func
 949              		.type	attitudeUpdate, %function
 950              	attitudeUpdate:
 951              	.LFB218:
 952              		.loc 2 231 0
 953              		.cfi_startproc
 954              		@ args = 0, pretend = 0, frame = 40
 955              		@ frame_needed = 0, uses_anonymous_args = 0
 956              	.LVL150:
 957 0000 2DE9F04F 		push	{r4, r5, r6, r7, r8, r9, r10, fp, lr}
 958              		.cfi_def_cfa_offset 36
 959              		.cfi_offset 4, -36
 960              		.cfi_offset 5, -32
 961              		.cfi_offset 6, -28
 962              		.cfi_offset 7, -24
 963              		.cfi_offset 8, -20
 964              		.cfi_offset 9, -16
 965              		.cfi_offset 10, -12
 966              		.cfi_offset 11, -8
 967              		.cfi_offset 14, -4
 968 0004 0446     		mov	r4, r0
ARM GAS  /tmp/cc521724.s 			page 18


 969 0006 8BB0     		sub	sp, sp, #44
 970              		.cfi_def_cfa_offset 80
 971              		.loc 2 236 0
 972 0008 A169     		ldr	r1, [r4, #24]	@ unaligned
 973              		.loc 2 232 0
 974 000a 0023     		movs	r3, #0
 975              		.loc 2 236 0
 976 000c 0068     		ldr	r0, [r0]	@ unaligned
 977              	.LVL151:
 978              		.loc 2 232 0
 979 000e 0493     		str	r3, [sp, #16]
 980 0010 0593     		str	r3, [sp, #20]
 981 0012 0693     		str	r3, [sp, #24]
 982              		.loc 2 236 0
 983 0014 FFF7FEFF 		bl	__aeabi_fsub
 984              	.LVL152:
 985              		.loc 2 237 0
 986 0018 6368     		ldr	r3, [r4, #4]	@ unaligned
 987              		.loc 2 236 0
 988 001a 0546     		mov	r5, r0
 989              		.loc 2 237 0
 990 001c E169     		ldr	r1, [r4, #28]	@ unaligned
 991              		.loc 2 236 0
 992 001e 2060     		str	r0, [r4]	@ unaligned
 993              		.loc 2 237 0
 994 0020 1846     		mov	r0, r3
 995 0022 FFF7FEFF 		bl	__aeabi_fsub
 996              	.LVL153:
 997              		.loc 2 238 0
 998 0026 A368     		ldr	r3, [r4, #8]	@ unaligned
 999              		.loc 2 237 0
 1000 0028 0746     		mov	r7, r0
 1001              		.loc 2 238 0
 1002 002a 216A     		ldr	r1, [r4, #32]	@ unaligned
 1003              		.loc 2 237 0
 1004 002c 6060     		str	r0, [r4, #4]	@ unaligned
 1005              		.loc 2 238 0
 1006 002e 1846     		mov	r0, r3
 1007 0030 FFF7FEFF 		bl	__aeabi_fsub
 1008              	.LVL154:
 1009              		.loc 2 241 0
 1010 0034 2946     		mov	r1, r5
 1011              		.loc 2 238 0
 1012 0036 0646     		mov	r6, r0
 1013 0038 A060     		str	r0, [r4, #8]	@ unaligned
 1014              		.loc 2 241 0
 1015 003a 2846     		mov	r0, r5
 1016 003c FFF7FEFF 		bl	__aeabi_fmul
 1017              	.LVL155:
 1018 0040 3946     		mov	r1, r7
 1019 0042 0546     		mov	r5, r0
 1020 0044 3846     		mov	r0, r7
 1021 0046 FFF7FEFF 		bl	__aeabi_fmul
 1022              	.LVL156:
 1023 004a 0146     		mov	r1, r0
 1024 004c 2846     		mov	r0, r5
 1025 004e FFF7FEFF 		bl	__aeabi_fadd
ARM GAS  /tmp/cc521724.s 			page 19


 1026              	.LVL157:
 1027 0052 3146     		mov	r1, r6
 1028 0054 0546     		mov	r5, r0
 1029 0056 3046     		mov	r0, r6
 1030 0058 FFF7FEFF 		bl	__aeabi_fmul
 1031              	.LVL158:
 1032 005c 0146     		mov	r1, r0
 1033 005e 2846     		mov	r0, r5
 1034 0060 FFF7FEFF 		bl	__aeabi_fadd
 1035              	.LVL159:
 1036 0064 FFF7FEFF 		bl	QInvSqrtf
 1037              	.LVL160:
 1038              		.loc 2 243 0
 1039 0068 A549     		ldr	r1, .L64+8
 1040              		.loc 2 241 0
 1041 006a 0546     		mov	r5, r0
 1042              	.LVL161:
 1043              		.loc 2 243 0
 1044 006c FFF7FEFF 		bl	__aeabi_fcmpgt
 1045              	.LVL162:
 1046 0070 30B1     		cbz	r0, .L61
 1047              		.loc 2 243 0 is_stmt 0 discriminator 1
 1048 0072 2846     		mov	r0, r5
 1049 0074 A349     		ldr	r1, .L64+12
 1050 0076 FFF7FEFF 		bl	__aeabi_fcmplt
 1051              	.LVL163:
 1052 007a 0028     		cmp	r0, #0
 1053 007c 40F04881 		bne	.L63
 1054              	.L61:
 1055 0080 0025     		movs	r5, #0
 1056              	.LVL164:
 1057 0082 2F46     		mov	r7, r5
 1058 0084 A846     		mov	r8, r5
 1059              	.L53:
 1060              		.loc 2 270 0 is_stmt 1
 1061 0086 A04B     		ldr	r3, .L64+16
 1062 0088 4146     		mov	r1, r8
 1063 008a 1E68     		ldr	r6, [r3]	@ float
 1064 008c D4F82490 		ldr	r9, [r4, #36]	@ unaligned
 1065 0090 3046     		mov	r0, r6
 1066 0092 FFF7FEFF 		bl	__aeabi_fmul
 1067              	.LVL165:
 1068 0096 0146     		mov	r1, r0
 1069 0098 4846     		mov	r0, r9
 1070 009a FFF7FEFF 		bl	__aeabi_fsub
 1071              	.LVL166:
 1072              		.loc 2 271 0
 1073 009e 3946     		mov	r1, r7
 1074              		.loc 2 270 0
 1075 00a0 8346     		mov	fp, r0
 1076 00a2 6062     		str	r0, [r4, #36]	@ unaligned
 1077              		.loc 2 271 0
 1078 00a4 3046     		mov	r0, r6
 1079 00a6 FFF7FEFF 		bl	__aeabi_fmul
 1080              	.LVL167:
 1081 00aa D4F82890 		ldr	r9, [r4, #40]	@ unaligned
 1082 00ae 0146     		mov	r1, r0
ARM GAS  /tmp/cc521724.s 			page 20


 1083 00b0 4846     		mov	r0, r9
 1084 00b2 FFF7FEFF 		bl	__aeabi_fsub
 1085              	.LVL168:
 1086              		.loc 2 272 0
 1087 00b6 2946     		mov	r1, r5
 1088              		.loc 2 271 0
 1089 00b8 8146     		mov	r9, r0
 1090 00ba A062     		str	r0, [r4, #40]	@ unaligned
 1091              		.loc 2 272 0
 1092 00bc 3046     		mov	r0, r6
 1093 00be FFF7FEFF 		bl	__aeabi_fmul
 1094              	.LVL169:
 1095 00c2 D4F82CA0 		ldr	r10, [r4, #44]	@ unaligned
 1096 00c6 0146     		mov	r1, r0
 1097 00c8 5046     		mov	r0, r10
 1098 00ca FFF7FEFF 		bl	__aeabi_fsub
 1099              	.LVL170:
 1100              		.loc 2 275 0
 1101 00ce 2369     		ldr	r3, [r4, #16]	@ unaligned
 1102              		.loc 2 272 0
 1103 00d0 0646     		mov	r6, r0
 1104 00d2 E062     		str	r0, [r4, #44]	@ unaligned
 1105              		.loc 2 275 0
 1106 00d4 4946     		mov	r1, r9
 1107 00d6 1846     		mov	r0, r3
 1108 00d8 FFF7FEFF 		bl	__aeabi_fsub
 1109              	.LVL171:
 1110              		.loc 2 276 0
 1111 00dc 3146     		mov	r1, r6
 1112              		.loc 2 275 0
 1113 00de 8246     		mov	r10, r0
 1114              		.loc 2 276 0
 1115 00e0 6069     		ldr	r0, [r4, #20]	@ unaligned
 1116 00e2 FFF7FEFF 		bl	__aeabi_fsub
 1117              	.LVL172:
 1118              		.loc 2 279 0
 1119 00e6 894B     		ldr	r3, .L64+20
 1120              		.loc 2 276 0
 1121 00e8 8146     		mov	r9, r0
 1122              		.loc 2 274 0
 1123 00ea 5946     		mov	r1, fp
 1124 00ec E068     		ldr	r0, [r4, #12]	@ unaligned
 1125              		.loc 2 279 0
 1126 00ee 1E68     		ldr	r6, [r3]	@ float
 1127              		.loc 2 274 0
 1128 00f0 FFF7FEFF 		bl	__aeabi_fsub
 1129              	.LVL173:
 1130              		.loc 2 279 0
 1131 00f4 4146     		mov	r1, r8
 1132              		.loc 2 274 0
 1133 00f6 8346     		mov	fp, r0
 1134              		.loc 2 279 0
 1135 00f8 3046     		mov	r0, r6
 1136 00fa FFF7FEFF 		bl	__aeabi_fmul
 1137              	.LVL174:
 1138 00fe 0146     		mov	r1, r0
 1139 0100 5846     		mov	r0, fp
ARM GAS  /tmp/cc521724.s 			page 21


 1140 0102 FFF7FEFF 		bl	__aeabi_fadd
 1141              	.LVL175:
 1142              		.loc 2 280 0
 1143 0106 3946     		mov	r1, r7
 1144              		.loc 2 279 0
 1145 0108 8346     		mov	fp, r0
 1146 010a E060     		str	r0, [r4, #12]	@ unaligned
 1147              		.loc 2 280 0
 1148 010c 3046     		mov	r0, r6
 1149 010e FFF7FEFF 		bl	__aeabi_fmul
 1150              	.LVL176:
 1151 0112 0146     		mov	r1, r0
 1152 0114 5046     		mov	r0, r10
 1153 0116 FFF7FEFF 		bl	__aeabi_fadd
 1154              	.LVL177:
 1155              		.loc 2 281 0
 1156 011a 2946     		mov	r1, r5
 1157              		.loc 2 280 0
 1158 011c 8246     		mov	r10, r0
 1159 011e 2061     		str	r0, [r4, #16]	@ unaligned
 1160              		.loc 2 281 0
 1161 0120 3046     		mov	r0, r6
 1162 0122 FFF7FEFF 		bl	__aeabi_fmul
 1163              	.LVL178:
 1164 0126 0146     		mov	r1, r0
 1165 0128 4846     		mov	r0, r9
 1166 012a FFF7FEFF 		bl	__aeabi_fadd
 1167              	.LVL179:
 1168              		.loc 2 283 0
 1169 012e D4F84C90 		ldr	r9, [r4, #76]	@ unaligned
 1170              		.loc 2 281 0
 1171 0132 8046     		mov	r8, r0
 1172 0134 6061     		str	r0, [r4, #20]	@ unaligned
 1173              		.loc 2 283 0
 1174 0136 09F10041 		add	r1, r9, #-2147483648
 1175 013a 5846     		mov	r0, fp
 1176 013c FFF7FEFF 		bl	__aeabi_fmul
 1177              	.LVL180:
 1178 0140 256D     		ldr	r5, [r4, #80]	@ unaligned
 1179 0142 0646     		mov	r6, r0
 1180 0144 2946     		mov	r1, r5
 1181 0146 5046     		mov	r0, r10
 1182 0148 FFF7FEFF 		bl	__aeabi_fmul
 1183              	.LVL181:
 1184 014c 0146     		mov	r1, r0
 1185 014e 3046     		mov	r0, r6
 1186 0150 FFF7FEFF 		bl	__aeabi_fsub
 1187              	.LVL182:
 1188 0154 666D     		ldr	r6, [r4, #84]	@ unaligned
 1189              	.LVL183:
 1190 0156 0746     		mov	r7, r0
 1191 0158 3146     		mov	r1, r6
 1192 015a 4046     		mov	r0, r8
 1193 015c FFF7FEFF 		bl	__aeabi_fmul
 1194              	.LVL184:
 1195 0160 0146     		mov	r1, r0
 1196 0162 3846     		mov	r0, r7
ARM GAS  /tmp/cc521724.s 			page 22


 1197 0164 FFF7FEFF 		bl	__aeabi_fsub
 1198              	.LVL185:
 1199 0168 FFF7FEFF 		bl	__aeabi_f2d
 1200              	.LVL186:
 1201 016c 62A3     		adr	r3, .L64
 1202 016e D3E90023 		ldrd	r2, [r3]
 1203              		.loc 2 284 0
 1204 0172 A76C     		ldr	r7, [r4, #72]	@ unaligned
 1205              	.LVL187:
 1206              		.loc 2 283 0
 1207 0174 FFF7FEFF 		bl	__aeabi_dmul
 1208              	.LVL188:
 1209 0178 FFF7FEFF 		bl	__aeabi_d2f
 1210              	.LVL189:
 1211              		.loc 2 288 0
 1212 017c 3946     		mov	r1, r7
 1213 017e FFF7FEFF 		bl	__aeabi_fadd
 1214              	.LVL190:
 1215              		.loc 2 284 0
 1216 0182 3946     		mov	r1, r7
 1217              		.loc 2 288 0
 1218 0184 0190     		str	r0, [sp, #4]	@ float
 1219              		.loc 2 284 0
 1220 0186 5846     		mov	r0, fp
 1221 0188 FFF7FEFF 		bl	__aeabi_fmul
 1222              	.LVL191:
 1223 018c 3146     		mov	r1, r6
 1224 018e 0290     		str	r0, [sp, #8]
 1225 0190 5046     		mov	r0, r10
 1226 0192 FFF7FEFF 		bl	__aeabi_fmul
 1227              	.LVL192:
 1228 0196 029B     		ldr	r3, [sp, #8]
 1229 0198 0146     		mov	r1, r0
 1230 019a 1846     		mov	r0, r3
 1231 019c FFF7FEFF 		bl	__aeabi_fsub
 1232              	.LVL193:
 1233 01a0 2946     		mov	r1, r5
 1234 01a2 0290     		str	r0, [sp, #8]
 1235 01a4 4046     		mov	r0, r8
 1236 01a6 FFF7FEFF 		bl	__aeabi_fmul
 1237              	.LVL194:
 1238 01aa 029B     		ldr	r3, [sp, #8]
 1239 01ac 0146     		mov	r1, r0
 1240 01ae 1846     		mov	r0, r3
 1241 01b0 FFF7FEFF 		bl	__aeabi_fadd
 1242              	.LVL195:
 1243 01b4 FFF7FEFF 		bl	__aeabi_f2d
 1244              	.LVL196:
 1245 01b8 4FA3     		adr	r3, .L64
 1246 01ba D3E90023 		ldrd	r2, [r3]
 1247 01be FFF7FEFF 		bl	__aeabi_dmul
 1248              	.LVL197:
 1249 01c2 FFF7FEFF 		bl	__aeabi_d2f
 1250              	.LVL198:
 1251 01c6 0146     		mov	r1, r0
 1252              		.loc 2 289 0
 1253 01c8 4846     		mov	r0, r9
ARM GAS  /tmp/cc521724.s 			page 23


 1254 01ca FFF7FEFF 		bl	__aeabi_fadd
 1255              	.LVL199:
 1256              		.loc 2 285 0
 1257 01ce 3146     		mov	r1, r6
 1258              		.loc 2 289 0
 1259 01d0 0290     		str	r0, [sp, #8]	@ float
 1260              		.loc 2 285 0
 1261 01d2 5846     		mov	r0, fp
 1262 01d4 FFF7FEFF 		bl	__aeabi_fmul
 1263              	.LVL200:
 1264 01d8 3946     		mov	r1, r7
 1265 01da 0390     		str	r0, [sp, #12]
 1266 01dc 5046     		mov	r0, r10
 1267 01de FFF7FEFF 		bl	__aeabi_fmul
 1268              	.LVL201:
 1269 01e2 039B     		ldr	r3, [sp, #12]
 1270 01e4 0146     		mov	r1, r0
 1271 01e6 1846     		mov	r0, r3
 1272 01e8 FFF7FEFF 		bl	__aeabi_fadd
 1273              	.LVL202:
 1274 01ec 4946     		mov	r1, r9
 1275 01ee 0390     		str	r0, [sp, #12]
 1276 01f0 4046     		mov	r0, r8
 1277 01f2 FFF7FEFF 		bl	__aeabi_fmul
 1278              	.LVL203:
 1279 01f6 039B     		ldr	r3, [sp, #12]
 1280 01f8 0146     		mov	r1, r0
 1281 01fa 1846     		mov	r0, r3
 1282 01fc FFF7FEFF 		bl	__aeabi_fsub
 1283              	.LVL204:
 1284 0200 FFF7FEFF 		bl	__aeabi_f2d
 1285              	.LVL205:
 1286 0204 3CA3     		adr	r3, .L64
 1287 0206 D3E90023 		ldrd	r2, [r3]
 1288 020a FFF7FEFF 		bl	__aeabi_dmul
 1289              	.LVL206:
 1290 020e FFF7FEFF 		bl	__aeabi_d2f
 1291              	.LVL207:
 1292 0212 0146     		mov	r1, r0
 1293              		.loc 2 290 0
 1294 0214 2846     		mov	r0, r5
 1295 0216 FFF7FEFF 		bl	__aeabi_fadd
 1296              	.LVL208:
 1297              		.loc 2 286 0
 1298 021a 05F10041 		add	r1, r5, #-2147483648
 1299              		.loc 2 290 0
 1300 021e 0390     		str	r0, [sp, #12]
 1301              		.loc 2 286 0
 1302 0220 5846     		mov	r0, fp
 1303 0222 FFF7FEFF 		bl	__aeabi_fmul
 1304              	.LVL209:
 1305 0226 4946     		mov	r1, r9
 1306 0228 0546     		mov	r5, r0
 1307              	.LVL210:
 1308 022a 5046     		mov	r0, r10
 1309 022c FFF7FEFF 		bl	__aeabi_fmul
 1310              	.LVL211:
ARM GAS  /tmp/cc521724.s 			page 24


 1311 0230 0146     		mov	r1, r0
 1312 0232 2846     		mov	r0, r5
 1313 0234 FFF7FEFF 		bl	__aeabi_fadd
 1314              	.LVL212:
 1315 0238 3946     		mov	r1, r7
 1316 023a 0546     		mov	r5, r0
 1317 023c 4046     		mov	r0, r8
 1318 023e FFF7FEFF 		bl	__aeabi_fmul
 1319              	.LVL213:
 1320 0242 0146     		mov	r1, r0
 1321 0244 2846     		mov	r0, r5
 1322 0246 FFF7FEFF 		bl	__aeabi_fadd
 1323              	.LVL214:
 1324 024a FFF7FEFF 		bl	__aeabi_f2d
 1325              	.LVL215:
 1326 024e 2AA3     		adr	r3, .L64
 1327 0250 D3E90023 		ldrd	r2, [r3]
 1328 0254 FFF7FEFF 		bl	__aeabi_dmul
 1329              	.LVL216:
 1330 0258 FFF7FEFF 		bl	__aeabi_d2f
 1331              	.LVL217:
 1332 025c 0146     		mov	r1, r0
 1333              		.loc 2 291 0
 1334 025e 3046     		mov	r0, r6
 1335 0260 FFF7FEFF 		bl	__aeabi_fadd
 1336              	.LVL218:
 1337              		.loc 2 294 0
 1338 0264 DDF80480 		ldr	r8, [sp, #4]	@ float
 1339              	.LVL219:
 1340              		.loc 2 291 0
 1341 0268 0646     		mov	r6, r0
 1342              		.loc 2 294 0
 1343 026a 4146     		mov	r1, r8
 1344 026c 4046     		mov	r0, r8
 1345 026e FFF7FEFF 		bl	__aeabi_fmul
 1346              	.LVL220:
 1347 0272 029F     		ldr	r7, [sp, #8]	@ float
 1348 0274 0546     		mov	r5, r0
 1349 0276 3946     		mov	r1, r7
 1350 0278 3846     		mov	r0, r7
 1351 027a FFF7FEFF 		bl	__aeabi_fmul
 1352              	.LVL221:
 1353 027e 0146     		mov	r1, r0
 1354 0280 2846     		mov	r0, r5
 1355 0282 FFF7FEFF 		bl	__aeabi_fadd
 1356              	.LVL222:
 1357 0286 DDF80CC0 		ldr	ip, [sp, #12]
 1358 028a 0546     		mov	r5, r0
 1359 028c 6146     		mov	r1, ip
 1360 028e 6046     		mov	r0, ip
 1361 0290 CDF804C0 		str	ip, [sp, #4]
 1362 0294 FFF7FEFF 		bl	__aeabi_fmul
 1363              	.LVL223:
 1364 0298 0146     		mov	r1, r0
 1365 029a 2846     		mov	r0, r5
 1366 029c FFF7FEFF 		bl	__aeabi_fadd
 1367              	.LVL224:
ARM GAS  /tmp/cc521724.s 			page 25


 1368 02a0 3146     		mov	r1, r6
 1369 02a2 0546     		mov	r5, r0
 1370 02a4 3046     		mov	r0, r6
 1371 02a6 FFF7FEFF 		bl	__aeabi_fmul
 1372              	.LVL225:
 1373 02aa 0146     		mov	r1, r0
 1374 02ac 2846     		mov	r0, r5
 1375 02ae FFF7FEFF 		bl	__aeabi_fadd
 1376              	.LVL226:
 1377 02b2 FFF7FEFF 		bl	QInvSqrtf
 1378              	.LVL227:
 1379 02b6 0546     		mov	r5, r0
 1380              	.LVL228:
 1381              		.loc 2 295 0
 1382 02b8 4046     		mov	r0, r8
 1383              	.LVL229:
 1384 02ba 2946     		mov	r1, r5
 1385 02bc FFF7FEFF 		bl	__aeabi_fmul
 1386              	.LVL230:
 1387              		.loc 2 296 0
 1388 02c0 2946     		mov	r1, r5
 1389              		.loc 2 295 0
 1390 02c2 A064     		str	r0, [r4, #72]	@ unaligned
 1391              		.loc 2 296 0
 1392 02c4 3846     		mov	r0, r7
 1393 02c6 FFF7FEFF 		bl	__aeabi_fmul
 1394              	.LVL231:
 1395              		.loc 2 297 0
 1396 02ca DDF804C0 		ldr	ip, [sp, #4]
 1397 02ce 2946     		mov	r1, r5
 1398              		.loc 2 296 0
 1399 02d0 E064     		str	r0, [r4, #76]	@ unaligned
 1400              		.loc 2 297 0
 1401 02d2 6046     		mov	r0, ip
 1402 02d4 FFF7FEFF 		bl	__aeabi_fmul
 1403              	.LVL232:
 1404              		.loc 2 298 0
 1405 02d8 2946     		mov	r1, r5
 1406              		.loc 2 297 0
 1407 02da 2065     		str	r0, [r4, #80]	@ unaligned
 1408              		.loc 2 298 0
 1409 02dc 3046     		mov	r0, r6
 1410 02de FFF7FEFF 		bl	__aeabi_fmul
 1411              	.LVL233:
 1412              		.loc 2 301 0
 1413 02e2 04F15801 		add	r1, r4, #88
 1414              		.loc 2 298 0
 1415 02e6 6065     		str	r0, [r4, #84]	@ unaligned
 1416              		.loc 2 301 0
 1417 02e8 04F14800 		add	r0, r4, #72
 1418 02ec FFF7FEFF 		bl	Quaternion2RPY
 1419              	.LVL234:
 1420              		.loc 2 302 0
 1421 02f0 0BB0     		add	sp, sp, #44
 1422              		.cfi_remember_state
 1423              		.cfi_def_cfa_offset 36
 1424              		@ sp needed
ARM GAS  /tmp/cc521724.s 			page 26


 1425 02f2 BDE8F08F 		pop	{r4, r5, r6, r7, r8, r9, r10, fp, pc}
 1426              	.LVL235:
 1427              	.L65:
 1428 02f6 00BF     		.align	3
 1429              	.L64:
 1430 02f8 4DABA6B5 		.word	-1247368371
 1431 02fc 9F73EB3E 		.word	1055617951
 1432 0300 7446943D 		.word	1033127540
 1433 0304 A089303E 		.word	1043368352
 1434 0308 00000000 		.word	.LANCHOR6
 1435 030c 00000000 		.word	.LANCHOR4
 1436              	.LVL236:
 1437              	.L63:
 1438              		.cfi_restore_state
 1439              	.LBB18:
 1440              		.loc 2 252 0
 1441 0310 676D     		ldr	r7, [r4, #84]	@ unaligned
 1442 0312 D4F84C80 		ldr	r8, [r4, #76]	@ unaligned
 1443 0316 3946     		mov	r1, r7
 1444 0318 4046     		mov	r0, r8
 1445 031a FFF7FEFF 		bl	__aeabi_fmul
 1446              	.LVL237:
 1447 031e A66C     		ldr	r6, [r4, #72]	@ unaligned
 1448 0320 D4F85090 		ldr	r9, [r4, #80]	@ unaligned
 1449 0324 8246     		mov	r10, r0
 1450 0326 4946     		mov	r1, r9
 1451 0328 3046     		mov	r0, r6
 1452 032a FFF7FEFF 		bl	__aeabi_fmul
 1453              	.LVL238:
 1454 032e 0146     		mov	r1, r0
 1455 0330 5046     		mov	r0, r10
 1456 0332 FFF7FEFF 		bl	__aeabi_fsub
 1457              	.LVL239:
 1458              		.loc 2 253 0
 1459 0336 4946     		mov	r1, r9
 1460              		.loc 2 252 0
 1461 0338 0790     		str	r0, [sp, #28]	@ float
 1462              		.loc 2 253 0
 1463 033a 3846     		mov	r0, r7
 1464 033c FFF7FEFF 		bl	__aeabi_fmul
 1465              	.LVL240:
 1466 0340 3146     		mov	r1, r6
 1467 0342 8146     		mov	r9, r0
 1468 0344 4046     		mov	r0, r8
 1469 0346 FFF7FEFF 		bl	__aeabi_fmul
 1470              	.LVL241:
 1471 034a 0146     		mov	r1, r0
 1472 034c 4846     		mov	r0, r9
 1473 034e FFF7FEFF 		bl	__aeabi_fadd
 1474              	.LVL242:
 1475              		.loc 2 254 0
 1476 0352 3146     		mov	r1, r6
 1477              		.loc 2 253 0
 1478 0354 0890     		str	r0, [sp, #32]	@ float
 1479              		.loc 2 254 0
 1480 0356 3046     		mov	r0, r6
 1481 0358 FFF7FEFF 		bl	__aeabi_fmul
ARM GAS  /tmp/cc521724.s 			page 27


 1482              	.LVL243:
 1483 035c 3946     		mov	r1, r7
 1484 035e 0646     		mov	r6, r0
 1485 0360 3846     		mov	r0, r7
 1486 0362 FFF7FEFF 		bl	__aeabi_fmul
 1487              	.LVL244:
 1488 0366 0146     		mov	r1, r0
 1489 0368 3046     		mov	r0, r6
 1490 036a FFF7FEFF 		bl	__aeabi_fadd
 1491              	.LVL245:
 1492 036e 4FF07C51 		mov	r1, #1056964608
 1493 0372 FFF7FEFF 		bl	__aeabi_fsub
 1494              	.LVL246:
 1495              		.loc 2 257 0
 1496 0376 04F13007 		add	r7, r4, #48
 1497 037a 3946     		mov	r1, r7
 1498              		.loc 2 254 0
 1499 037c 0990     		str	r0, [sp, #36]	@ float
 1500              		.loc 2 259 0
 1501 037e 04F13C06 		add	r6, r4, #60
 1502              		.loc 2 257 0
 1503 0382 2046     		mov	r0, r4
 1504 0384 FFF7FEFF 		bl	accelFilterApply
 1505              	.LVL247:
 1506              		.loc 2 259 0
 1507 0388 3146     		mov	r1, r6
 1508 038a 07A8     		add	r0, sp, #28
 1509 038c FFF7FEFF 		bl	accelFilterApply
 1510              	.LVL248:
 1511              		.loc 2 261 0
 1512 0390 04AA     		add	r2, sp, #16
 1513 0392 3846     		mov	r0, r7
 1514 0394 3146     		mov	r1, r6
 1515 0396 FFF7FEFF 		bl	CrossProduct
 1516              	.LVL249:
 1517              		.loc 2 264 0
 1518 039a 0499     		ldr	r1, [sp, #16]	@ float
 1519 039c 2846     		mov	r0, r5
 1520 039e FFF7FEFF 		bl	__aeabi_fmul
 1521              	.LVL250:
 1522 03a2 8046     		mov	r8, r0
 1523              		.loc 2 265 0
 1524 03a4 0599     		ldr	r1, [sp, #20]	@ float
 1525 03a6 2846     		mov	r0, r5
 1526              		.loc 2 264 0
 1527 03a8 CDF81080 		str	r8, [sp, #16]	@ float
 1528              		.loc 2 265 0
 1529 03ac FFF7FEFF 		bl	__aeabi_fmul
 1530              	.LVL251:
 1531 03b0 0746     		mov	r7, r0
 1532              		.loc 2 266 0
 1533 03b2 0699     		ldr	r1, [sp, #24]	@ float
 1534 03b4 2846     		mov	r0, r5
 1535              		.loc 2 265 0
 1536 03b6 0597     		str	r7, [sp, #20]	@ float
 1537              		.loc 2 266 0
 1538 03b8 FFF7FEFF 		bl	__aeabi_fmul
ARM GAS  /tmp/cc521724.s 			page 28


 1539              	.LVL252:
 1540 03bc 0546     		mov	r5, r0
 1541              	.LVL253:
 1542 03be 0690     		str	r0, [sp, #24]	@ float
 1543 03c0 61E6     		b	.L53
 1544              	.LBE18:
 1545              		.cfi_endproc
 1546              	.LFE218:
 1547              		.size	attitudeUpdate, .-attitudeUpdate
 1548              		.global	__aeabi_i2d
 1549 03c2 00BF     		.section	.text.cameraRotationUpdate,"ax",%progbits
 1550              		.align	2
 1551              		.p2align 4,,15
 1552              		.global	cameraRotationUpdate
 1553              		.thumb
 1554              		.thumb_func
 1555              		.type	cameraRotationUpdate, %function
 1556              	cameraRotationUpdate:
 1557              	.LFB219:
 1558              		.loc 2 307 0
 1559              		.cfi_startproc
 1560              		@ args = 0, pretend = 0, frame = 8
 1561              		@ frame_needed = 0, uses_anonymous_args = 0
 1562              	.LVL254:
 1563 0000 2DE9F04F 		push	{r4, r5, r6, r7, r8, r9, r10, fp, lr}
 1564              		.cfi_def_cfa_offset 36
 1565              		.cfi_offset 4, -36
 1566              		.cfi_offset 5, -32
 1567              		.cfi_offset 6, -28
 1568              		.cfi_offset 7, -24
 1569              		.cfi_offset 8, -20
 1570              		.cfi_offset 9, -16
 1571              		.cfi_offset 10, -12
 1572              		.cfi_offset 11, -8
 1573              		.cfi_offset 14, -4
 1574 0004 AA4F     		ldr	r7, .L92+24
 1575 0006 DFF8C4A2 		ldr	r10, .L92+52
 1576 000a DFF8CCB2 		ldr	fp, .L92+64
 1577 000e 83B0     		sub	sp, sp, #12
 1578              		.cfi_def_cfa_offset 48
 1579              		.loc 2 307 0
 1580 0010 0024     		movs	r4, #0
 1581              	.LVL255:
 1582              	.L80:
 1583              		.loc 2 313 0
 1584 0012 B879     		ldrb	r0, [r7, #6]	@ zero_extendqisi2
 1585 0014 FFF7FEFF 		bl	__aeabi_ui2f
 1586              	.LVL256:
 1587 0018 FFF7FEFF 		bl	__aeabi_f2d
 1588              	.LVL257:
 1589 001c 9EA3     		adr	r3, .L92
 1590 001e D3E90023 		ldrd	r2, [r3]
 1591 0022 FFF7FEFF 		bl	__aeabi_dmul
 1592              	.LVL258:
 1593 0026 FFF7FEFF 		bl	__aeabi_d2f
 1594              	.LVL259:
 1595              		.loc 2 315 0
ARM GAS  /tmp/cc521724.s 			page 29


 1596 002a FE79     		ldrb	r6, [r7, #7]	@ zero_extendqisi2
 1597              		.loc 2 313 0
 1598 002c 0546     		mov	r5, r0
 1599              	.LVL260:
 1600              		.loc 2 315 0
 1601 002e B107     		lsls	r1, r6, #30
 1602 0030 4ED0     		beq	.L67
 1603              		.loc 2 317 0
 1604 0032 9F4A     		ldr	r2, .L92+24
 1605              		.loc 2 316 0
 1606 0034 9F4B     		ldr	r3, .L92+28
 1607              		.loc 2 317 0
 1608 0036 32F93400 		ldrsh	r0, [r2, r4, lsl #3]
 1609              	.LVL261:
 1610              		.loc 2 316 0
 1611 003a 53F82490 		ldr	r9, [r3, r4, lsl #2]	@ float
 1612              	.LVL262:
 1613              		.loc 2 317 0
 1614 003e FFF7FEFF 		bl	__aeabi_i2f
 1615              	.LVL263:
 1616 0042 8046     		mov	r8, r0
 1617 0044 4846     		mov	r0, r9
 1618 0046 4146     		mov	r1, r8
 1619 0048 A600     		lsls	r6, r4, #2
 1620 004a FFF7FEFF 		bl	__aeabi_fcmplt
 1621              	.LVL264:
 1622 004e 58B9     		cbnz	r0, .L68
 1623              		.loc 2 317 0 is_stmt 0 discriminator 2
 1624 0050 B7F90200 		ldrsh	r0, [r7, #2]
 1625 0054 FFF7FEFF 		bl	__aeabi_i2f
 1626              	.LVL265:
 1627 0058 8046     		mov	r8, r0
 1628 005a 4846     		mov	r0, r9
 1629 005c 4146     		mov	r1, r8
 1630 005e FFF7FEFF 		bl	__aeabi_fcmpgt
 1631              	.LVL266:
 1632 0062 0028     		cmp	r0, #0
 1633 0064 00F0AF80 		beq	.L90
 1634              	.L68:
 1635              	.LVL267:
 1636              		.loc 2 319 0 is_stmt 1 discriminator 8
 1637 0068 4046     		mov	r0, r8
 1638 006a FFF7FEFF 		bl	__aeabi_f2d
 1639              	.LVL268:
 1640 006e 8AA3     		adr	r3, .L92
 1641 0070 D3E90023 		ldrd	r2, [r3]
 1642 0074 FFF7FEFF 		bl	__aeabi_dmul
 1643              	.LVL269:
 1644 0078 FFF7FEFF 		bl	__aeabi_d2f
 1645              	.LVL270:
 1646              		.loc 2 321 0 discriminator 8
 1647 007c 8E4B     		ldr	r3, .L92+32
 1648 007e 9959     		ldr	r1, [r3, r6]	@ float
 1649 0080 FFF7FEFF 		bl	__aeabi_fsub
 1650              	.LVL271:
 1651 0084 8D49     		ldr	r1, .L92+36
 1652 0086 FFF7FEFF 		bl	__aeabi_fdiv
ARM GAS  /tmp/cc521724.s 			page 30


 1653              	.LVL272:
 1654 008a 8D49     		ldr	r1, .L92+40
 1655 008c FFF7FEFF 		bl	__aeabi_fdiv
 1656              	.LVL273:
 1657 0090 8146     		mov	r9, r0
 1658              	.LVL274:
 1659              	.L69:
 1660              		.loc 2 366 0
 1661 0092 05F10048 		add	r8, r5, #-2147483648
 1662 0096 4146     		mov	r1, r8
 1663 0098 4846     		mov	r0, r9
 1664 009a FFF7FEFF 		bl	__aeabi_fcmplt
 1665              	.LVL275:
 1666 009e 38B9     		cbnz	r0, .L79
 1667              		.loc 2 366 0 is_stmt 0 discriminator 2
 1668 00a0 4846     		mov	r0, r9
 1669 00a2 2946     		mov	r1, r5
 1670 00a4 FFF7FEFF 		bl	__aeabi_fcmpgt
 1671              	.LVL276:
 1672 00a8 0028     		cmp	r0, #0
 1673 00aa 40F08A80 		bne	.L83
 1674              		.loc 2 366 0
 1675 00ae C846     		mov	r8, r9
 1676              	.L79:
 1677              	.LVL277:
 1678              		.loc 2 367 0 is_stmt 1 discriminator 8
 1679 00b0 4046     		mov	r0, r8
 1680 00b2 8349     		ldr	r1, .L92+40
 1681 00b4 FFF7FEFF 		bl	__aeabi_fmul
 1682              	.LVL278:
 1683 00b8 4BF80600 		str	r0, [fp, r6]	@ float
 1684              	.LVL279:
 1685              	.L75:
 1686 00bc 0134     		adds	r4, r4, #1
 1687              	.LVL280:
 1688              		.loc 2 312 0 discriminator 2
 1689 00be 032C     		cmp	r4, #3
 1690 00c0 07F10807 		add	r7, r7, #8
 1691 00c4 0AF1070A 		add	r10, r10, #7
 1692 00c8 A3D1     		bne	.L80
 1693              		.loc 2 369 0
 1694 00ca 03B0     		add	sp, sp, #12
 1695              		.cfi_remember_state
 1696              		.cfi_def_cfa_offset 36
 1697              		@ sp needed
 1698 00cc BDE8F08F 		pop	{r4, r5, r6, r7, r8, r9, r10, fp, pc}
 1699              	.LVL281:
 1700              	.L67:
 1701              		.cfi_restore_state
 1702              		.loc 2 323 0
 1703 00d0 B207     		lsls	r2, r6, #30
 1704 00d2 31D5     		bpl	.L70
 1705              	.LVL282:
 1706              		.loc 2 325 0
 1707 00d4 B7F90400 		ldrsh	r0, [r7, #4]
 1708              	.LVL283:
 1709 00d8 FFF7FEFF 		bl	__aeabi_i2d
ARM GAS  /tmp/cc521724.s 			page 31


 1710              	.LVL284:
 1711 00dc 6EA3     		adr	r3, .L92
 1712 00de D3E90023 		ldrd	r2, [r3]
 1713 00e2 FFF7FEFF 		bl	__aeabi_dmul
 1714              	.LVL285:
 1715 00e6 774B     		ldr	r3, .L92+44
 1716 00e8 8046     		mov	r8, r0
 1717 00ea 53F82400 		ldr	r0, [r3, r4, lsl #2]	@ float
 1718 00ee 8946     		mov	r9, r1
 1719 00f0 FFF7FEFF 		bl	__aeabi_f2d
 1720              	.LVL286:
 1721 00f4 0246     		mov	r2, r0
 1722 00f6 0B46     		mov	r3, r1
 1723 00f8 4046     		mov	r0, r8
 1724 00fa 4946     		mov	r1, r9
 1725 00fc FFF7FEFF 		bl	__aeabi_dsub
 1726              	.LVL287:
 1727 0100 FFF7FEFF 		bl	__aeabi_d2f
 1728              	.LVL288:
 1729              		.loc 2 326 0
 1730 0104 FFF7FEFF 		bl	__aeabi_f2d
 1731              	.LVL289:
 1732 0108 65A3     		adr	r3, .L92+8
 1733 010a D3E90023 		ldrd	r2, [r3]
 1734 010e A600     		lsls	r6, r4, #2
 1735 0110 8046     		mov	r8, r0
 1736 0112 8946     		mov	r9, r1
 1737 0114 FFF7FEFF 		bl	__aeabi_dcmpgt
 1738              	.LVL290:
 1739 0118 0028     		cmp	r0, #0
 1740 011a 56D0     		beq	.L87
 1741              		.loc 2 327 0
 1742 011c 60A3     		adr	r3, .L92+8
 1743 011e D3E90023 		ldrd	r2, [r3]
 1744 0122 4946     		mov	r1, r9
 1745 0124 4046     		mov	r0, r8
 1746 0126 FFF7FEFF 		bl	__aeabi_dsub
 1747              	.LVL291:
 1748 012a FFF7FEFF 		bl	__aeabi_d2f
 1749              	.LVL292:
 1750              		.loc 2 329 0
 1751 012e 6649     		ldr	r1, .L92+48
 1752 0130 FFF7FEFF 		bl	__aeabi_fdiv
 1753              	.LVL293:
 1754 0134 8146     		mov	r9, r0
 1755              	.LVL294:
 1756 0136 ACE7     		b	.L69
 1757              	.LVL295:
 1758              	.L70:
 1759              		.loc 2 337 0
 1760 0138 9AF80620 		ldrb	r2, [r10, #6]	@ zero_extendqisi2
 1761 013c 052A     		cmp	r2, #5
 1762 013e 00F09F80 		beq	.L91
 1763              		.loc 2 342 0
 1764 0142 6249     		ldr	r1, .L92+52
 1765 0144 4FEAC409 		lsl	r9, r4, #3
 1766 0148 C4EB0903 		rsb	r3, r4, r9
ARM GAS  /tmp/cc521724.s 			page 32


 1767 014c 0B44     		add	r3, r3, r1
 1768 014e B3F90410 		ldrsh	r1, [r3, #4]	@ unaligned
 1769 0152 B3F90080 		ldrsh	r8, [r3]	@ unaligned
 1770 0156 0091     		str	r1, [sp]
 1771 0158 4145     		cmp	r1, r8
 1772 015a 00F09880 		beq	.L82
 1773              		.loc 2 346 0
 1774 015e 5C48     		ldr	r0, .L92+56
 1775              	.LVL296:
 1776 0160 B3F90230 		ldrsh	r3, [r3, #2]	@ unaligned
 1777 0164 30F91200 		ldrsh	r0, [r0, r2, lsl #1]
 1778 0168 C01A     		subs	r0, r0, r3
 1779 016a FFF7FEFF 		bl	__aeabi_i2f
 1780              	.LVL297:
 1781              		.loc 2 347 0
 1782 016e 0099     		ldr	r1, [sp]
 1783              		.loc 2 346 0
 1784 0170 0190     		str	r0, [sp, #4]
 1785              		.loc 2 347 0
 1786 0172 C8EB0100 		rsb	r0, r8, r1
 1787 0176 FFF7FEFF 		bl	__aeabi_i2f
 1788              	.LVL298:
 1789              		.loc 2 346 0
 1790 017a 019B     		ldr	r3, [sp, #4]
 1791              		.loc 2 347 0
 1792 017c 0146     		mov	r1, r0
 1793              		.loc 2 346 0
 1794 017e 1846     		mov	r0, r3
 1795 0180 FFF7FEFF 		bl	__aeabi_fdiv
 1796              	.LVL299:
 1797 0184 0346     		mov	r3, r0
 1798              	.LVL300:
 1799              	.L76:
 1800 0186 0093     		str	r3, [sp]
 1801              		.loc 2 350 0
 1802 0188 F307     		lsls	r3, r6, #31
 1803              	.LVL301:
 1804 018a 35D5     		bpl	.L77
 1805              		.loc 2 352 0
 1806 018c 2946     		mov	r1, r5
 1807 018e 2846     		mov	r0, r5
 1808 0190 FFF7FEFF 		bl	__aeabi_fadd
 1809              	.LVL302:
 1810 0194 009B     		ldr	r3, [sp]
 1811 0196 1946     		mov	r1, r3
 1812              		.loc 2 353 0
 1813 0198 4E4B     		ldr	r3, .L92+60
 1814 019a 53F82460 		ldr	r6, [r3, r4, lsl #2]	@ float
 1815              		.loc 2 352 0
 1816 019e FFF7FEFF 		bl	__aeabi_fmul
 1817              	.LVL303:
 1818              		.loc 2 353 0
 1819 01a2 3146     		mov	r1, r6
 1820 01a4 FFF7FEFF 		bl	__aeabi_fsub
 1821              	.LVL304:
 1822 01a8 4449     		ldr	r1, .L92+36
 1823 01aa FFF7FEFF 		bl	__aeabi_fdiv
ARM GAS  /tmp/cc521724.s 			page 33


 1824              	.LVL305:
 1825 01ae 0146     		mov	r1, r0
 1826 01b0 3046     		mov	r0, r6
 1827 01b2 FFF7FEFF 		bl	__aeabi_fadd
 1828              	.LVL306:
 1829 01b6 474B     		ldr	r3, .L92+60
 1830 01b8 8146     		mov	r9, r0
 1831 01ba A600     		lsls	r6, r4, #2
 1832 01bc 43F82400 		str	r0, [r3, r4, lsl #2]	@ float
 1833              	.LVL307:
 1834 01c0 67E7     		b	.L69
 1835              	.LVL308:
 1836              	.L83:
 1837              		.loc 2 366 0
 1838 01c2 A846     		mov	r8, r5
 1839 01c4 74E7     		b	.L79
 1840              	.L90:
 1841              		.loc 2 317 0
 1842 01c6 C846     		mov	r8, r9
 1843 01c8 4EE7     		b	.L68
 1844              	.LVL309:
 1845              	.L87:
 1846              		.loc 2 330 0
 1847 01ca 4046     		mov	r0, r8
 1848 01cc 36A3     		adr	r3, .L92+16
 1849 01ce D3E90023 		ldrd	r2, [r3]
 1850 01d2 4946     		mov	r1, r9
 1851 01d4 FFF7FEFF 		bl	__aeabi_dcmplt
 1852              	.LVL310:
 1853 01d8 0028     		cmp	r0, #0
 1854 01da 55D0     		beq	.L88
 1855              		.loc 2 331 0
 1856 01dc 30A3     		adr	r3, .L92+8
 1857 01de D3E90023 		ldrd	r2, [r3]
 1858 01e2 4946     		mov	r1, r9
 1859 01e4 4046     		mov	r0, r8
 1860 01e6 FFF7FEFF 		bl	__aeabi_dadd
 1861              	.LVL311:
 1862 01ea FFF7FEFF 		bl	__aeabi_d2f
 1863              	.LVL312:
 1864              		.loc 2 333 0
 1865 01ee 3649     		ldr	r1, .L92+48
 1866 01f0 FFF7FEFF 		bl	__aeabi_fdiv
 1867              	.LVL313:
 1868 01f4 8146     		mov	r9, r0
 1869              	.LVL314:
 1870 01f6 4CE7     		b	.L69
 1871              	.LVL315:
 1872              	.L77:
 1873              		.loc 2 357 0
 1874 01f8 2D4B     		ldr	r3, .L92+24
 1875 01fa B7F90260 		ldrsh	r6, [r7, #2]
 1876 01fe 33F90980 		ldrsh	r8, [r3, r9]
 1877 0202 C8EB0600 		rsb	r0, r8, r6
 1878 0206 FFF7FEFF 		bl	__aeabi_i2f
 1879              	.LVL316:
 1880 020a 009B     		ldr	r3, [sp]
ARM GAS  /tmp/cc521724.s 			page 34


 1881 020c 1946     		mov	r1, r3
 1882 020e FFF7FEFF 		bl	__aeabi_fmul
 1883              	.LVL317:
 1884 0212 8146     		mov	r9, r0
 1885              	.LVL318:
 1886              		.loc 2 358 0
 1887 0214 06EB0800 		add	r0, r6, r8
 1888              	.LVL319:
 1889 0218 00EBD070 		add	r0, r0, r0, lsr #31
 1890 021c 4010     		asrs	r0, r0, #1
 1891 021e FFF7FEFF 		bl	__aeabi_i2f
 1892              	.LVL320:
 1893 0222 4946     		mov	r1, r9
 1894 0224 FFF7FEFF 		bl	__aeabi_fadd
 1895              	.LVL321:
 1896 0228 8146     		mov	r9, r0
 1897              	.LVL322:
 1898              		.loc 2 359 0
 1899 022a 4046     		mov	r0, r8
 1900              	.LVL323:
 1901 022c FFF7FEFF 		bl	__aeabi_i2f
 1902              	.LVL324:
 1903 0230 8046     		mov	r8, r0
 1904 0232 4846     		mov	r0, r9
 1905 0234 4146     		mov	r1, r8
 1906 0236 FFF7FEFF 		bl	__aeabi_fcmplt
 1907              	.LVL325:
 1908 023a 48B9     		cbnz	r0, .L78
 1909              		.loc 2 359 0 is_stmt 0 discriminator 2
 1910 023c 3046     		mov	r0, r6
 1911 023e FFF7FEFF 		bl	__aeabi_i2f
 1912              	.LVL326:
 1913 0242 8046     		mov	r8, r0
 1914 0244 4846     		mov	r0, r9
 1915 0246 4146     		mov	r1, r8
 1916 0248 FFF7FEFF 		bl	__aeabi_fcmpgt
 1917              	.LVL327:
 1918 024c 00B9     		cbnz	r0, .L78
 1919              		.loc 2 359 0
 1920 024e C846     		mov	r8, r9
 1921              	.L78:
 1922              	.LVL328:
 1923              		.loc 2 360 0 is_stmt 1 discriminator 8
 1924 0250 4046     		mov	r0, r8
 1925 0252 FFF7FEFF 		bl	__aeabi_f2d
 1926              	.LVL329:
 1927 0256 10A3     		adr	r3, .L92
 1928 0258 D3E90023 		ldrd	r2, [r3]
 1929 025c FFF7FEFF 		bl	__aeabi_dmul
 1930              	.LVL330:
 1931 0260 FFF7FEFF 		bl	__aeabi_d2f
 1932              	.LVL331:
 1933              		.loc 2 363 0 discriminator 8
 1934 0264 144B     		ldr	r3, .L92+32
 1935 0266 A600     		lsls	r6, r4, #2
 1936 0268 53F82410 		ldr	r1, [r3, r4, lsl #2]	@ float
 1937 026c FFF7FEFF 		bl	__aeabi_fsub
ARM GAS  /tmp/cc521724.s 			page 35


 1938              	.LVL332:
 1939 0270 1249     		ldr	r1, .L92+36
 1940 0272 FFF7FEFF 		bl	__aeabi_fdiv
 1941              	.LVL333:
 1942 0276 1249     		ldr	r1, .L92+40
 1943 0278 FFF7FEFF 		bl	__aeabi_fdiv
 1944              	.LVL334:
 1945 027c 8146     		mov	r9, r0
 1946              	.LVL335:
 1947 027e 08E7     		b	.L69
 1948              	.LVL336:
 1949              	.L91:
 1950              		.loc 2 338 0
 1951 0280 0023     		movs	r3, #0
 1952 0282 4BF82430 		str	r3, [fp, r4, lsl #2]	@ float
 1953              		.loc 2 339 0
 1954 0286 19E7     		b	.L75
 1955              	.LVL337:
 1956              	.L88:
 1957              		.loc 2 335 0
 1958 0288 4FF00009 		mov	r9, #0
 1959 028c 01E7     		b	.L69
 1960              	.LVL338:
 1961              	.L82:
 1962              		.loc 2 344 0
 1963 028e 0023     		movs	r3, #0
 1964 0290 79E7     		b	.L76
 1965              	.L93:
 1966 0292 00BFAFF3 		.align	3
 1966      0080
 1967              	.L92:
 1968 0298 399D52A2 		.word	-1571644103
 1969 029c 46DF913F 		.word	1066524486
 1970 02a0 8744E74A 		.word	1256670343
 1971 02a4 1857B63F 		.word	1068914456
 1972 02a8 8744E74A 		.word	1256670343
 1973 02ac 1857B6BF 		.word	-1078569192
 1974 02b0 00000000 		.word	.LANCHOR7
 1975 02b4 00000000 		.word	.LANCHOR8
 1976 02b8 00000000 		.word	.LANCHOR9
 1977 02bc 00009643 		.word	1133903872
 1978 02c0 A69BC43A 		.word	985963430
 1979 02c4 00000000 		.word	.LANCHOR2
 1980 02c8 6766E63E 		.word	1055286887
 1981 02cc 00000000 		.word	g_mixedInput
 1982 02d0 00000000 		.word	g_inputValues
 1983 02d4 00000000 		.word	.LANCHOR11
 1984 02d8 00000000 		.word	.LANCHOR10
 1985              		.cfi_endproc
 1986              	.LFE219:
 1987              		.size	cameraRotationUpdate, .-cameraRotationUpdate
 1988              		.section	.text.actuatorsUpdate,"ax",%progbits
 1989              		.align	2
 1990              		.p2align 4,,15
 1991              		.global	actuatorsUpdate
 1992              		.thumb
 1993              		.thumb_func
ARM GAS  /tmp/cc521724.s 			page 36


 1994              		.type	actuatorsUpdate, %function
 1995              	actuatorsUpdate:
 1996              	.LFB220:
 1997              		.loc 2 374 0
 1998              		.cfi_startproc
 1999              		@ args = 0, pretend = 0, frame = 0
 2000              		@ frame_needed = 0, uses_anonymous_args = 0
 2001              	.LVL339:
 2002 0000 2DE9F84F 		push	{r3, r4, r5, r6, r7, r8, r9, r10, fp, lr}
 2003              		.cfi_def_cfa_offset 40
 2004              		.cfi_offset 3, -40
 2005              		.cfi_offset 4, -36
 2006              		.cfi_offset 5, -32
 2007              		.cfi_offset 6, -28
 2008              		.cfi_offset 7, -24
 2009              		.cfi_offset 8, -20
 2010              		.cfi_offset 9, -16
 2011              		.cfi_offset 10, -12
 2012              		.cfi_offset 11, -8
 2013              		.cfi_offset 14, -4
 2014              		.loc 2 378 0
 2015 0004 824C     		ldr	r4, .L123+24
 2016 0006 E778     		ldrb	r7, [r4, #3]	@ zero_extendqisi2
 2017 0008 07F00F07 		and	r7, r7, #15
 2018              	.LVL340:
 2019              		.loc 2 379 0
 2020 000c 032F     		cmp	r7, #3
 2021 000e 00F0E880 		beq	.L110
 2022              		.loc 2 380 0
 2023 0012 804D     		ldr	r5, .L123+28
 2024 0014 804A     		ldr	r2, .L123+32
 2025 0016 55F82760 		ldr	r6, [r5, r7, lsl #2]	@ float
 2026 001a 07F11603 		add	r3, r7, #22
 2027 001e 52F82310 		ldr	r1, [r2, r3, lsl #2]	@ unaligned
 2028 0022 3046     		mov	r0, r6
 2029 0024 FFF7FEFF 		bl	__aeabi_fsub
 2030              	.LVL341:
 2031              		.loc 2 381 0
 2032 0028 7C4B     		ldr	r3, .L123+36
 2033              		.loc 2 380 0
 2034 002a 8246     		mov	r10, r0
 2035              	.LVL342:
 2036              		.loc 2 381 0
 2037 002c 3046     		mov	r0, r6
 2038              	.LVL343:
 2039 002e 53F82760 		ldr	r6, [r3, r7, lsl #2]	@ float
 2040 0032 3146     		mov	r1, r6
 2041 0034 FFF7FEFF 		bl	__aeabi_fadd
 2042              	.LVL344:
 2043 0038 8346     		mov	fp, r0
 2044              		.loc 2 382 0
 2045 003a FFF7FEFF 		bl	__aeabi_f2d
 2046              	.LVL345:
 2047 003e 6EA3     		adr	r3, .L123
 2048 0040 D3E90023 		ldrd	r2, [r3]
 2049 0044 8046     		mov	r8, r0
 2050 0046 8946     		mov	r9, r1
ARM GAS  /tmp/cc521724.s 			page 37


 2051 0048 FFF7FEFF 		bl	__aeabi_dcmplt
 2052              	.LVL346:
 2053 004c 0028     		cmp	r0, #0
 2054 004e 00F08980 		beq	.L119
 2055              		.loc 2 382 0 is_stmt 0 discriminator 1
 2056 0052 6BA3     		adr	r3, .L123+8
 2057 0054 D3E90023 		ldrd	r2, [r3]
 2058 0058 4046     		mov	r0, r8
 2059 005a 4946     		mov	r1, r9
 2060 005c FFF7FEFF 		bl	__aeabi_dadd
 2061              	.LVL347:
 2062 0060 FFF7FEFF 		bl	__aeabi_d2f
 2063              	.LVL348:
 2064 0064 8346     		mov	fp, r0
 2065              	.L98:
 2066              		.loc 2 383 0 is_stmt 1 discriminator 8
 2067 0066 5146     		mov	r1, r10
 2068 0068 3246     		mov	r2, r6
 2069 006a 3846     		mov	r0, r7
 2070              		.loc 2 382 0 discriminator 8
 2071 006c 45F827B0 		str	fp, [r5, r7, lsl #2]	@ float
 2072              		.loc 2 383 0 discriminator 8
 2073 0070 FFF7FEFF 		bl	pidControllerApply
 2074              	.LVL349:
 2075 0074 0146     		mov	r1, r0
 2076              	.LVL350:
 2077              	.L95:
 2078              		.loc 2 385 0
 2079 0076 0020     		movs	r0, #0
 2080 0078 FFF7FEFF 		bl	pwmOutputUpdate
 2081              	.LVL351:
 2082              		.loc 2 388 0
 2083 007c E779     		ldrb	r7, [r4, #7]	@ zero_extendqisi2
 2084              	.LVL352:
 2085 007e 07F00F07 		and	r7, r7, #15
 2086              	.LVL353:
 2087              		.loc 2 389 0
 2088 0082 032F     		cmp	r7, #3
 2089 0084 00F0AB80 		beq	.L111
 2090              		.loc 2 390 0
 2091 0088 624D     		ldr	r5, .L123+28
 2092 008a 634A     		ldr	r2, .L123+32
 2093 008c 55F82760 		ldr	r6, [r5, r7, lsl #2]	@ float
 2094 0090 07F11603 		add	r3, r7, #22
 2095 0094 52F82310 		ldr	r1, [r2, r3, lsl #2]	@ unaligned
 2096 0098 3046     		mov	r0, r6
 2097 009a FFF7FEFF 		bl	__aeabi_fsub
 2098              	.LVL354:
 2099              		.loc 2 391 0
 2100 009e 5F4B     		ldr	r3, .L123+36
 2101              		.loc 2 390 0
 2102 00a0 8246     		mov	r10, r0
 2103              	.LVL355:
 2104              		.loc 2 391 0
 2105 00a2 3046     		mov	r0, r6
 2106              	.LVL356:
 2107 00a4 53F82760 		ldr	r6, [r3, r7, lsl #2]	@ float
ARM GAS  /tmp/cc521724.s 			page 38


 2108 00a8 3146     		mov	r1, r6
 2109 00aa FFF7FEFF 		bl	__aeabi_fadd
 2110              	.LVL357:
 2111 00ae 8346     		mov	fp, r0
 2112              		.loc 2 392 0
 2113 00b0 FFF7FEFF 		bl	__aeabi_f2d
 2114              	.LVL358:
 2115 00b4 50A3     		adr	r3, .L123
 2116 00b6 D3E90023 		ldrd	r2, [r3]
 2117 00ba 8046     		mov	r8, r0
 2118 00bc 8946     		mov	r9, r1
 2119 00be FFF7FEFF 		bl	__aeabi_dcmplt
 2120              	.LVL359:
 2121 00c2 0028     		cmp	r0, #0
 2122 00c4 77D0     		beq	.L120
 2123              		.loc 2 392 0 is_stmt 0 discriminator 1
 2124 00c6 4EA3     		adr	r3, .L123+8
 2125 00c8 D3E90023 		ldrd	r2, [r3]
 2126 00cc 4046     		mov	r0, r8
 2127 00ce 4946     		mov	r1, r9
 2128 00d0 FFF7FEFF 		bl	__aeabi_dadd
 2129              	.LVL360:
 2130 00d4 FFF7FEFF 		bl	__aeabi_d2f
 2131              	.LVL361:
 2132 00d8 8346     		mov	fp, r0
 2133              	.L103:
 2134              		.loc 2 393 0 is_stmt 1 discriminator 8
 2135 00da 5146     		mov	r1, r10
 2136 00dc 3246     		mov	r2, r6
 2137 00de 3846     		mov	r0, r7
 2138              		.loc 2 392 0 discriminator 8
 2139 00e0 45F827B0 		str	fp, [r5, r7, lsl #2]	@ float
 2140              		.loc 2 393 0 discriminator 8
 2141 00e4 FFF7FEFF 		bl	pidControllerApply
 2142              	.LVL362:
 2143 00e8 0146     		mov	r1, r0
 2144              	.LVL363:
 2145              	.L100:
 2146              		.loc 2 395 0
 2147 00ea 0120     		movs	r0, #1
 2148 00ec FFF7FEFF 		bl	pwmOutputUpdate
 2149              	.LVL364:
 2150              		.loc 2 398 0
 2151 00f0 E47A     		ldrb	r4, [r4, #11]	@ zero_extendqisi2
 2152 00f2 04F00F04 		and	r4, r4, #15
 2153              	.LVL365:
 2154              		.loc 2 399 0
 2155 00f6 032C     		cmp	r4, #3
 2156 00f8 75D0     		beq	.L112
 2157              		.loc 2 400 0
 2158 00fa 464D     		ldr	r5, .L123+28
 2159 00fc 464A     		ldr	r2, .L123+32
 2160 00fe 55F82460 		ldr	r6, [r5, r4, lsl #2]	@ float
 2161 0102 04F11603 		add	r3, r4, #22
 2162 0106 52F82310 		ldr	r1, [r2, r3, lsl #2]	@ unaligned
 2163 010a 3046     		mov	r0, r6
 2164 010c FFF7FEFF 		bl	__aeabi_fsub
ARM GAS  /tmp/cc521724.s 			page 39


 2165              	.LVL366:
 2166              		.loc 2 401 0
 2167 0110 424B     		ldr	r3, .L123+36
 2168              		.loc 2 400 0
 2169 0112 8246     		mov	r10, r0
 2170              	.LVL367:
 2171              		.loc 2 401 0
 2172 0114 3046     		mov	r0, r6
 2173              	.LVL368:
 2174 0116 53F82460 		ldr	r6, [r3, r4, lsl #2]	@ float
 2175 011a 3146     		mov	r1, r6
 2176 011c FFF7FEFF 		bl	__aeabi_fadd
 2177              	.LVL369:
 2178 0120 0746     		mov	r7, r0
 2179              		.loc 2 402 0
 2180 0122 FFF7FEFF 		bl	__aeabi_f2d
 2181              	.LVL370:
 2182 0126 34A3     		adr	r3, .L123
 2183 0128 D3E90023 		ldrd	r2, [r3]
 2184 012c 8046     		mov	r8, r0
 2185 012e 8946     		mov	r9, r1
 2186 0130 FFF7FEFF 		bl	__aeabi_dcmplt
 2187              	.LVL371:
 2188 0134 58B3     		cbz	r0, .L121
 2189              		.loc 2 402 0 is_stmt 0 discriminator 1
 2190 0136 32A3     		adr	r3, .L123+8
 2191 0138 D3E90023 		ldrd	r2, [r3]
 2192 013c 4046     		mov	r0, r8
 2193 013e 4946     		mov	r1, r9
 2194 0140 FFF7FEFF 		bl	__aeabi_dadd
 2195              	.LVL372:
 2196 0144 FFF7FEFF 		bl	__aeabi_d2f
 2197              	.LVL373:
 2198 0148 0746     		mov	r7, r0
 2199              	.L108:
 2200              		.loc 2 403 0 is_stmt 1 discriminator 8
 2201 014a 5146     		mov	r1, r10
 2202 014c 3246     		mov	r2, r6
 2203 014e 2046     		mov	r0, r4
 2204              		.loc 2 402 0 discriminator 8
 2205 0150 45F82470 		str	r7, [r5, r4, lsl #2]	@ float
 2206              		.loc 2 403 0 discriminator 8
 2207 0154 FFF7FEFF 		bl	pidControllerApply
 2208              	.LVL374:
 2209              		.loc 2 406 0 discriminator 8
 2210 0158 BDE8F84F 		pop	{r3, r4, r5, r6, r7, r8, r9, r10, fp, lr}
 2211              		.cfi_remember_state
 2212              		.cfi_restore 14
 2213              		.cfi_restore 11
 2214              		.cfi_restore 10
 2215              		.cfi_restore 9
 2216              		.cfi_restore 8
 2217              		.cfi_restore 7
 2218              		.cfi_restore 6
 2219              		.cfi_restore 5
 2220              		.cfi_restore 4
 2221              		.cfi_restore 3
ARM GAS  /tmp/cc521724.s 			page 40


 2222              		.cfi_def_cfa_offset 0
 2223              	.LVL375:
 2224              		.loc 2 403 0 discriminator 8
 2225 015c 0146     		mov	r1, r0
 2226              	.LVL376:
 2227              		.loc 2 405 0 discriminator 8
 2228 015e 0220     		movs	r0, #2
 2229              	.LVL377:
 2230 0160 FFF7FEBF 		b	pwmOutputUpdate
 2231              	.LVL378:
 2232              	.L119:
 2233              		.cfi_restore_state
 2234              		.loc 2 382 0 discriminator 2
 2235 0164 4046     		mov	r0, r8
 2236 0166 28A3     		adr	r3, .L123+16
 2237 0168 D3E90023 		ldrd	r2, [r3]
 2238 016c 4946     		mov	r1, r9
 2239 016e FFF7FEFF 		bl	__aeabi_dcmpgt
 2240              	.LVL379:
 2241 0172 0028     		cmp	r0, #0
 2242 0174 3FF477AF 		beq	.L98
 2243              		.loc 2 382 0 is_stmt 0 discriminator 4
 2244 0178 21A3     		adr	r3, .L123+8
 2245 017a D3E90023 		ldrd	r2, [r3]
 2246 017e 4046     		mov	r0, r8
 2247 0180 4946     		mov	r1, r9
 2248 0182 FFF7FEFF 		bl	__aeabi_dsub
 2249              	.LVL380:
 2250 0186 FFF7FEFF 		bl	__aeabi_d2f
 2251              	.LVL381:
 2252 018a 8346     		mov	fp, r0
 2253 018c 6BE7     		b	.L98
 2254              	.LVL382:
 2255              	.L121:
 2256              		.loc 2 402 0 is_stmt 1 discriminator 2
 2257 018e 4046     		mov	r0, r8
 2258 0190 1DA3     		adr	r3, .L123+16
 2259 0192 D3E90023 		ldrd	r2, [r3]
 2260 0196 4946     		mov	r1, r9
 2261 0198 FFF7FEFF 		bl	__aeabi_dcmpgt
 2262              	.LVL383:
 2263 019c 0028     		cmp	r0, #0
 2264 019e D4D0     		beq	.L108
 2265              		.loc 2 402 0 is_stmt 0 discriminator 4
 2266 01a0 17A3     		adr	r3, .L123+8
 2267 01a2 D3E90023 		ldrd	r2, [r3]
 2268 01a6 4046     		mov	r0, r8
 2269 01a8 4946     		mov	r1, r9
 2270 01aa FFF7FEFF 		bl	__aeabi_dsub
 2271              	.LVL384:
 2272 01ae FFF7FEFF 		bl	__aeabi_d2f
 2273              	.LVL385:
 2274 01b2 0746     		mov	r7, r0
 2275 01b4 C9E7     		b	.L108
 2276              	.LVL386:
 2277              	.L120:
 2278              		.loc 2 392 0 is_stmt 1 discriminator 2
ARM GAS  /tmp/cc521724.s 			page 41


 2279 01b6 4046     		mov	r0, r8
 2280 01b8 13A3     		adr	r3, .L123+16
 2281 01ba D3E90023 		ldrd	r2, [r3]
 2282 01be 4946     		mov	r1, r9
 2283 01c0 FFF7FEFF 		bl	__aeabi_dcmpgt
 2284              	.LVL387:
 2285 01c4 0028     		cmp	r0, #0
 2286 01c6 88D0     		beq	.L103
 2287              		.loc 2 392 0 is_stmt 0 discriminator 4
 2288 01c8 0DA3     		adr	r3, .L123+8
 2289 01ca D3E90023 		ldrd	r2, [r3]
 2290 01ce 4046     		mov	r0, r8
 2291 01d0 4946     		mov	r1, r9
 2292 01d2 FFF7FEFF 		bl	__aeabi_dsub
 2293              	.LVL388:
 2294 01d6 FFF7FEFF 		bl	__aeabi_d2f
 2295              	.LVL389:
 2296 01da 8346     		mov	fp, r0
 2297 01dc 7DE7     		b	.L103
 2298              	.LVL390:
 2299              	.L111:
 2300              		.loc 2 386 0 is_stmt 1
 2301 01de 0021     		movs	r1, #0
 2302 01e0 83E7     		b	.L100
 2303              	.L110:
 2304              		.loc 2 375 0
 2305 01e2 0021     		movs	r1, #0
 2306 01e4 47E7     		b	.L95
 2307              	.LVL391:
 2308              	.L112:
 2309              		.loc 2 396 0
 2310 01e6 0021     		movs	r1, #0
 2311              	.LVL392:
 2312              		.loc 2 405 0
 2313 01e8 0220     		movs	r0, #2
 2314              		.loc 2 406 0
 2315 01ea BDE8F84F 		pop	{r3, r4, r5, r6, r7, r8, r9, r10, fp, lr}
 2316              		.cfi_restore 3
 2317              		.cfi_restore 4
 2318              		.cfi_restore 5
 2319              		.cfi_restore 6
 2320              		.cfi_restore 7
 2321              		.cfi_restore 8
 2322              		.cfi_restore 9
 2323              		.cfi_restore 10
 2324              		.cfi_restore 11
 2325              		.cfi_restore 14
 2326              		.cfi_def_cfa_offset 0
 2327              	.LVL393:
 2328              		.loc 2 405 0
 2329 01ee FFF7FEBF 		b	pwmOutputUpdate
 2330              	.LVL394:
 2331              	.L124:
 2332 01f2 00BFAFF3 		.align	3
 2332      0080
 2333              	.L123:
 2334 01f8 182D4454 		.word	1413754136
ARM GAS  /tmp/cc521724.s 			page 42


 2335 01fc FB2109C0 		.word	-1073143301
 2336 0200 182D4454 		.word	1413754136
 2337 0204 FB211940 		.word	1075388923
 2338 0208 182D4454 		.word	1413754136
 2339 020c FB210940 		.word	1074340347
 2340 0210 00000000 		.word	g_pwmOutput
 2341 0214 00000000 		.word	.LANCHOR9
 2342 0218 00000000 		.word	g_IMU1
 2343 021c 00000000 		.word	.LANCHOR10
 2344              		.cfi_endproc
 2345              	.LFE220:
 2346              		.size	actuatorsUpdate, .-actuatorsUpdate
 2347              		.section	.text.pidSettingsUpdate,"ax",%progbits
 2348              		.align	2
 2349              		.p2align 4,,15
 2350              		.global	pidSettingsUpdate
 2351              		.thumb
 2352              		.thumb_func
 2353              		.type	pidSettingsUpdate, %function
 2354              	pidSettingsUpdate:
 2355              	.LFB221:
 2356              		.loc 2 411 0
 2357              		.cfi_startproc
 2358              		@ args = 0, pretend = 0, frame = 0
 2359              		@ frame_needed = 0, uses_anonymous_args = 0
 2360              		@ link register save eliminated.
 2361              	.LVL395:
 2362              		.loc 2 411 0
 2363 0000 0246     		mov	r2, r0
 2364              		.loc 2 412 0
 2365 0002 044B     		ldr	r3, .L126
 2366 0004 5168     		ldr	r1, [r2, #4]	@ unaligned
 2367 0006 0068     		ldr	r0, [r0]	@ unaligned
 2368              	.LVL396:
 2369 0008 03C3     		stmia	r3!, {r0, r1}
 2370 000a 127A     		ldrb	r2, [r2, #8]	@ zero_extendqisi2
 2371              	.LVL397:
 2372 000c 1A70     		strb	r2, [r3]
 2373              		.loc 2 413 0
 2374 000e FFF7FEBF 		b	pidUpdateStruct
 2375              	.LVL398:
 2376              	.L127:
 2377 0012 00BF     		.align	2
 2378              	.L126:
 2379 0014 00000000 		.word	.LANCHOR0
 2380              		.cfi_endproc
 2381              	.LFE221:
 2382              		.size	pidSettingsUpdate, .-pidSettingsUpdate
 2383              		.section	.text.inputModeSettingsUpdate,"ax",%progbits
 2384              		.align	2
 2385              		.p2align 4,,15
 2386              		.global	inputModeSettingsUpdate
 2387              		.thumb
 2388              		.thumb_func
 2389              		.type	inputModeSettingsUpdate, %function
 2390              	inputModeSettingsUpdate:
 2391              	.LFB222:
ARM GAS  /tmp/cc521724.s 			page 43


 2392              		.loc 2 419 0
 2393              		.cfi_startproc
 2394              		@ args = 0, pretend = 0, frame = 0
 2395              		@ frame_needed = 0, uses_anonymous_args = 0
 2396              		@ link register save eliminated.
 2397              	.LVL399:
 2398 0000 30B4     		push	{r4, r5}
 2399              		.cfi_def_cfa_offset 8
 2400              		.cfi_offset 4, -8
 2401              		.cfi_offset 5, -4
 2402              		.loc 2 419 0
 2403 0002 0546     		mov	r5, r0
 2404              		.loc 2 420 0
 2405 0004 054C     		ldr	r4, .L130
 2406 0006 6968     		ldr	r1, [r5, #4]	@ unaligned
 2407 0008 0068     		ldr	r0, [r0]	@ unaligned
 2408              	.LVL400:
 2409 000a AA68     		ldr	r2, [r5, #8]	@ unaligned
 2410 000c EB68     		ldr	r3, [r5, #12]	@ unaligned
 2411 000e 0FC4     		stmia	r4!, {r0, r1, r2, r3}
 2412 0010 2869     		ldr	r0, [r5, #16]	@ unaligned
 2413 0012 6969     		ldr	r1, [r5, #20]	@ unaligned
 2414 0014 03C4     		stmia	r4!, {r0, r1}
 2415              		.loc 2 421 0
 2416 0016 30BC     		pop	{r4, r5}
 2417              		.cfi_restore 5
 2418              		.cfi_restore 4
 2419              		.cfi_def_cfa_offset 0
 2420              	.LVL401:
 2421 0018 7047     		bx	lr
 2422              	.L131:
 2423 001a 00BF     		.align	2
 2424              	.L130:
 2425 001c 00000000 		.word	.LANCHOR7
 2426              		.cfi_endproc
 2427              	.LFE222:
 2428              		.size	inputModeSettingsUpdate, .-inputModeSettingsUpdate
 2429              		.section	.text.cfSettingsUpdate,"ax",%progbits
 2430              		.align	2
 2431              		.p2align 4,,15
 2432              		.global	cfSettingsUpdate
 2433              		.thumb
 2434              		.thumb_func
 2435              		.type	cfSettingsUpdate, %function
 2436              	cfSettingsUpdate:
 2437              	.LFB223:
 2438              		.loc 2 426 0
 2439              		.cfi_startproc
 2440              		@ args = 0, pretend = 0, frame = 0
 2441              		@ frame_needed = 0, uses_anonymous_args = 0
 2442              	.LVL402:
 2443 0000 38B5     		push	{r3, r4, r5, lr}
 2444              		.cfi_def_cfa_offset 16
 2445              		.cfi_offset 3, -16
 2446              		.cfi_offset 4, -12
 2447              		.cfi_offset 5, -8
 2448              		.cfi_offset 14, -4
ARM GAS  /tmp/cc521724.s 			page 44


 2449              		.loc 2 427 0
 2450 0002 0A4C     		ldr	r4, .L134
 2451 0004 0068     		ldr	r0, [r0]	@ unaligned
 2452              	.LVL403:
 2453              	.LBB19:
 2454              	.LBB20:
 2455              		.loc 2 199 0
 2456 0006 0A4D     		ldr	r5, .L134+4
 2457              	.LBE20:
 2458              	.LBE19:
 2459              		.loc 2 427 0
 2460 0008 2060     		str	r0, [r4]	@ unaligned
 2461              	.LBB22:
 2462              	.LBB21:
 2463              		.loc 2 199 0
 2464 000a 2088     		ldrh	r0, [r4]
 2465 000c FFF7FEFF 		bl	__aeabi_i2f
 2466              	.LVL404:
 2467 0010 0849     		ldr	r1, .L134+8
 2468 0012 FFF7FEFF 		bl	__aeabi_fmul
 2469              	.LVL405:
 2470 0016 2860     		str	r0, [r5]	@ float
 2471              		.loc 2 200 0
 2472 0018 6088     		ldrh	r0, [r4, #2]
 2473 001a FFF7FEFF 		bl	__aeabi_i2f
 2474              	.LVL406:
 2475 001e 0649     		ldr	r1, .L134+12
 2476 0020 FFF7FEFF 		bl	__aeabi_fmul
 2477              	.LVL407:
 2478 0024 054B     		ldr	r3, .L134+16
 2479 0026 1860     		str	r0, [r3]	@ float
 2480 0028 38BD     		pop	{r3, r4, r5, pc}
 2481              	.L135:
 2482 002a 00BF     		.align	2
 2483              	.L134:
 2484 002c 00000000 		.word	.LANCHOR5
 2485 0030 00000000 		.word	.LANCHOR4
 2486 0034 CDCCCC3D 		.word	1036831949
 2487 0038 ACC52737 		.word	925353388
 2488 003c 00000000 		.word	.LANCHOR6
 2489              	.LBE21:
 2490              	.LBE22:
 2491              		.cfi_endproc
 2492              	.LFE223:
 2493              		.size	cfSettingsUpdate, .-cfSettingsUpdate
 2494              		.section	.text.setCameraRotation,"ax",%progbits
 2495              		.align	2
 2496              		.p2align 4,,15
 2497              		.global	setCameraRotation
 2498              		.thumb
 2499              		.thumb_func
 2500              		.type	setCameraRotation, %function
 2501              	setCameraRotation:
 2502              	.LFB224:
 2503              		.loc 2 431 0
 2504              		.cfi_startproc
 2505              		@ args = 0, pretend = 0, frame = 0
ARM GAS  /tmp/cc521724.s 			page 45


 2506              		@ frame_needed = 0, uses_anonymous_args = 0
 2507              		@ link register save eliminated.
 2508              	.LVL408:
 2509              		.loc 2 432 0
 2510 0000 024B     		ldr	r3, .L137
 2511 0002 1860     		str	r0, [r3]	@ float
 2512              		.loc 2 433 0
 2513 0004 5960     		str	r1, [r3, #4]	@ float
 2514              		.loc 2 434 0
 2515 0006 9A60     		str	r2, [r3, #8]	@ float
 2516 0008 7047     		bx	lr
 2517              	.L138:
 2518 000a 00BF     		.align	2
 2519              	.L137:
 2520 000c 00000000 		.word	.LANCHOR8
 2521              		.cfi_endproc
 2522              	.LFE224:
 2523              		.size	setCameraRotation, .-setCameraRotation
 2524              		.global	g_cfSettings
 2525              		.global	g_modeSettings
 2526              		.global	g_pidSettings
 2527              		.global	g_mavAngle
 2528              		.global	g_motorOffset
 2529              		.section	.data.accel2Kp,"aw",%progbits
 2530              		.align	2
 2531              		.set	.LANCHOR4,. + 0
 2532              		.type	accel2Kp, %object
 2533              		.size	accel2Kp, 4
 2534              	accel2Kp:
 2535 0000 0000F041 		.word	1106247680
 2536              		.section	.bss.PID,"aw",%nobits
 2537              		.align	2
 2538              		.set	.LANCHOR1,. + 0
 2539              		.type	PID, %object
 2540              		.size	PID, 72
 2541              	PID:
 2542 0000 00000000 		.space	72
 2542      00000000 
 2542      00000000 
 2542      00000000 
 2542      00000000 
 2543              		.section	.bss.camRot,"aw",%nobits
 2544              		.align	2
 2545              		.set	.LANCHOR10,. + 0
 2546              		.type	camRot, %object
 2547              		.size	camRot, 12
 2548              	camRot:
 2549 0000 00000000 		.space	12
 2549      00000000 
 2549      00000000 
 2550              		.section	.bss.camRotSpeedPrev,"aw",%nobits
 2551              		.align	2
 2552              		.set	.LANCHOR11,. + 0
 2553              		.type	camRotSpeedPrev, %object
 2554              		.size	camRotSpeedPrev, 12
 2555              	camRotSpeedPrev:
 2556 0000 00000000 		.space	12
ARM GAS  /tmp/cc521724.s 			page 46


 2556      00000000 
 2556      00000000 
 2557              		.section	.data.g_cfSettings,"aw",%progbits
 2558              		.align	2
 2559              		.set	.LANCHOR5,. + 0
 2560              		.type	g_cfSettings, %object
 2561              		.size	g_cfSettings, 4
 2562              	g_cfSettings:
 2563 0000 2C01     		.short	300
 2564 0002 6400     		.short	100
 2565              		.section	.data.g_pidSettings,"aw",%progbits
 2566              		.align	2
 2567              		.set	.LANCHOR0,. + 0
 2568              		.type	g_pidSettings, %object
 2569              		.size	g_pidSettings, 9
 2570              	g_pidSettings:
 2571 0000 01       		.byte	1
 2572 0001 00       		.byte	0
 2573 0002 00       		.byte	0
 2574 0003 04       		.byte	4
 2575 0004 00       		.byte	0
 2576 0005 00       		.byte	0
 2577 0006 07       		.byte	7
 2578 0007 00       		.byte	0
 2579 0008 00       		.byte	0
 2580              		.section	.bss.accel_alpha,"aw",%nobits
 2581              		.align	2
 2582              		.set	.LANCHOR3,. + 0
 2583              		.type	accel_alpha, %object
 2584              		.size	accel_alpha, 4
 2585              	accel_alpha:
 2586 0000 00000000 		.space	4
 2587              		.section	.bss.g_motorOffset,"aw",%nobits
 2588              		.align	2
 2589              		.set	.LANCHOR2,. + 0
 2590              		.type	g_motorOffset, %object
 2591              		.size	g_motorOffset, 12
 2592              	g_motorOffset:
 2593 0000 00000000 		.space	12
 2593      00000000 
 2593      00000000 
 2594              		.section	.bss.camAtti,"aw",%nobits
 2595              		.align	2
 2596              		.set	.LANCHOR9,. + 0
 2597              		.type	camAtti, %object
 2598              		.size	camAtti, 12
 2599              	camAtti:
 2600 0000 00000000 		.space	12
 2600      00000000 
 2600      00000000 
 2601              		.section	.bss.g_mavAngle,"aw",%nobits
 2602              		.align	2
 2603              		.set	.LANCHOR8,. + 0
 2604              		.type	g_mavAngle, %object
 2605              		.size	g_mavAngle, 12
 2606              	g_mavAngle:
 2607 0000 00000000 		.space	12
ARM GAS  /tmp/cc521724.s 			page 47


 2607      00000000 
 2607      00000000 
 2608              		.section	.data.accel2Ki,"aw",%progbits
 2609              		.align	2
 2610              		.set	.LANCHOR6,. + 0
 2611              		.type	accel2Ki, %object
 2612              		.size	accel2Ki, 4
 2613              	accel2Ki:
 2614 0000 6F12833A 		.word	981668463
 2615              		.section	.data.g_modeSettings,"aw",%progbits
 2616              		.align	2
 2617              		.set	.LANCHOR7,. + 0
 2618              		.type	g_modeSettings, %object
 2619              		.size	g_modeSettings, 24
 2620              	g_modeSettings:
 2621 0000 C5FF     		.short	-59
 2622 0002 3C00     		.short	60
 2623 0004 0000     		.short	0
 2624 0006 14       		.byte	20
 2625 0007 00       		.byte	0
 2626 0008 C6FF     		.short	-58
 2627 000a 3C00     		.short	60
 2628 000c 0000     		.short	0
 2629 000e 14       		.byte	20
 2630 000f 00       		.byte	0
 2631 0010 A6FF     		.short	-90
 2632 0012 5900     		.short	89
 2633 0014 0000     		.short	0
 2634 0016 14       		.byte	20
 2635 0017 01       		.byte	1
 2636              		.text
 2637              	.Letext0:
 2638              		.file 3 "/opt/stm32/gcc/gcc-arm-none-eabi-4_9-2015q2/lib/gcc/arm-none-eabi/4.9.3/include/stddef.h"
 2639              		.file 4 "/opt/stm32/gcc/gcc-arm-none-eabi-4_9-2015q2/arm-none-eabi/include/machine/_default_types.
 2640              		.file 5 "/opt/stm32/gcc/gcc-arm-none-eabi-4_9-2015q2/arm-none-eabi/include/sys/_stdint.h"
 2641              		.file 6 "/home/maciek/ChibiOS_16.1.5/os/rt/ports/ARMCMx/compilers/GCC/chtypes.h"
 2642              		.file 7 "/home/maciek/ChibiOS_16.1.5/os/rt/include/chsystypes.h"
 2643              		.file 8 "/home/maciek/ChibiOS_16.1.5/os/rt/include/chschd.h"
 2644              		.file 9 "/home/maciek/ChibiOS_16.1.5/os/rt/ports/ARMCMx/chcore.h"
 2645              		.file 10 "/home/maciek/ChibiOS_16.1.5/os/rt/ports/ARMCMx/chcore_v7m.h"
 2646              		.file 11 "/home/maciek/ChibiOS_16.1.5/os/rt/include/chtm.h"
 2647              		.file 12 "/home/maciek/ChibiOS_16.1.5/os/rt/include/chsem.h"
 2648              		.file 13 "/home/maciek/ChibiOS_16.1.5/os/rt/include/chmtx.h"
 2649              		.file 14 "drivers/STORM32_V1_X/pwmio.h"
 2650              		.file 15 "mpu6050.h"
 2651              		.file 16 "attitude.h"
 2652              		.file 17 "/home/maciek/ChibiOS_16.1.5/os/ext/CMSIS/include/core_cm3.h"
 2653              		.file 18 "/opt/stm32/gcc/gcc-arm-none-eabi-4_9-2015q2/arm-none-eabi/include/math.h"