ARM GAS  /tmp/ccH1CDLU.s 			page 1


   1              		.syntax unified
   2              		.cpu cortex-m3
   3              		.fpu softvfp
   4              		.eabi_attribute 20, 1
   5              		.eabi_attribute 21, 1
   6              		.eabi_attribute 23, 3
   7              		.eabi_attribute 24, 1
   8              		.eabi_attribute 25, 1
   9              		.eabi_attribute 26, 1
  10              		.eabi_attribute 30, 2
  11              		.eabi_attribute 34, 1
  12              		.eabi_attribute 18, 4
  13              		.thumb
  14              		.file	"chcond.c"
  15              		.text
  16              	.Ltext0:
  17              		.cfi_sections	.debug_frame
  18              		.section	.text.chCondObjectInit,"ax",%progbits
  19              		.align	2
  20              		.p2align 4,,15
  21              		.global	chCondObjectInit
  22              		.thumb
  23              		.thumb_func
  24              		.type	chCondObjectInit, %function
  25              	chCondObjectInit:
  26              	.LFB170:
  27              		.file 1 "/home/maciek/ChibiOS_16.1.5/os/rt/src/chcond.c"
  28              		.loc 1 75 0
  29              		.cfi_startproc
  30              		@ args = 0, pretend = 0, frame = 0
  31              		@ frame_needed = 0, uses_anonymous_args = 0
  32              		@ link register save eliminated.
  33              	.LVL0:
  34              	.LBB83:
  35              	.LBB84:
  36              		.file 2 "/home/maciek/ChibiOS_16.1.5/os/rt/include/chschd.h"
  37              		.loc 2 604 0
  38 0000 0060     		str	r0, [r0]
  39              		.loc 2 605 0
  40 0002 4060     		str	r0, [r0, #4]
  41 0004 7047     		bx	lr
  42              	.LBE84:
  43              	.LBE83:
  44              		.cfi_endproc
  45              	.LFE170:
  46              		.size	chCondObjectInit, .-chCondObjectInit
  47 0006 00BF     		.section	.text.chCondSignal,"ax",%progbits
  48              		.align	2
  49              		.p2align 4,,15
  50              		.global	chCondSignal
  51              		.thumb
  52              		.thumb_func
  53              		.type	chCondSignal, %function
  54              	chCondSignal:
  55              	.LFB171:
  56              		.loc 1 89 0
  57              		.cfi_startproc
ARM GAS  /tmp/ccH1CDLU.s 			page 2


  58              		@ args = 0, pretend = 0, frame = 0
  59              		@ frame_needed = 0, uses_anonymous_args = 0
  60              	.LVL1:
  61              	.LBB85:
  62              	.LBB86:
  63              	.LBB87:
  64              	.LBB88:
  65              		.file 3 "/home/maciek/ChibiOS_16.1.5/os/ext/CMSIS/include/core_cmFunc.h"
  66              		.loc 3 548 0
  67 0000 2023     		movs	r3, #32
  68              	@ 548 "/home/maciek/ChibiOS_16.1.5/os/ext/CMSIS/include/core_cmFunc.h" 1
  69 0002 83F31188 		MSR basepri, r3
  70              	@ 0 "" 2
  71              	.LVL2:
  72              		.thumb
  73              	.LBE88:
  74              	.LBE87:
  75              	.LBE86:
  76              	.LBE85:
  77              	.LBB89:
  78              	.LBB90:
  79              		.loc 2 631 0
  80 0006 0268     		ldr	r2, [r0]
  81              	.LBE90:
  82              	.LBE89:
  83              		.loc 1 94 0
  84 0008 8242     		cmp	r2, r0
  85 000a 0CD0     		beq	.L5
  86 000c 0346     		mov	r3, r0
  87              	.LVL3:
  88              		.loc 1 89 0
  89 000e 10B5     		push	{r4, lr}
  90              		.cfi_def_cfa_offset 8
  91              		.cfi_offset 4, -8
  92              		.cfi_offset 14, -4
  93              	.LBB91:
  94              	.LBB92:
  95              		.loc 2 674 0
  96 0010 1468     		ldr	r4, [r2]
  97              	.LBE92:
  98              	.LBE91:
  99              		.loc 1 95 0
 100 0012 1046     		mov	r0, r2
 101              	.LVL4:
 102              	.LBB95:
 103              	.LBB93:
 104              		.loc 2 674 0
 105 0014 1C60     		str	r4, [r3]
 106              	.LBE93:
 107              	.LBE95:
 108              		.loc 1 95 0
 109 0016 0021     		movs	r1, #0
 110              	.LBB96:
 111              	.LBB94:
 112              		.loc 2 675 0
 113 0018 6360     		str	r3, [r4, #4]
 114              	.LBE94:
ARM GAS  /tmp/ccH1CDLU.s 			page 3


 115              	.LBE96:
 116              		.loc 1 95 0
 117 001a FFF7FEFF 		bl	chSchWakeupS
 118              	.LVL5:
 119              	.LBB97:
 120              	.LBB98:
 121              	.LBB99:
 122              	.LBB100:
 123              	.LBB101:
 124              		.loc 3 548 0
 125 001e 0023     		movs	r3, #0
 126              	@ 548 "/home/maciek/ChibiOS_16.1.5/os/ext/CMSIS/include/core_cmFunc.h" 1
 127 0020 83F31188 		MSR basepri, r3
 128              	@ 0 "" 2
 129              		.thumb
 130 0024 10BD     		pop	{r4, pc}
 131              	.LVL6:
 132              	.L5:
 133              		.cfi_def_cfa_offset 0
 134              		.cfi_restore 4
 135              		.cfi_restore 14
 136 0026 0023     		movs	r3, #0
 137              	@ 548 "/home/maciek/ChibiOS_16.1.5/os/ext/CMSIS/include/core_cmFunc.h" 1
 138 0028 83F31188 		MSR basepri, r3
 139              	@ 0 "" 2
 140              		.thumb
 141 002c 7047     		bx	lr
 142              	.LBE101:
 143              	.LBE100:
 144              	.LBE99:
 145              	.LBE98:
 146              	.LBE97:
 147              		.cfi_endproc
 148              	.LFE171:
 149              		.size	chCondSignal, .-chCondSignal
 150 002e 00BF     		.section	.text.chCondSignalI,"ax",%progbits
 151              		.align	2
 152              		.p2align 4,,15
 153              		.global	chCondSignalI
 154              		.thumb
 155              		.thumb_func
 156              		.type	chCondSignalI, %function
 157              	chCondSignalI:
 158              	.LFB172:
 159              		.loc 1 111 0
 160              		.cfi_startproc
 161              		@ args = 0, pretend = 0, frame = 0
 162              		@ frame_needed = 0, uses_anonymous_args = 0
 163              		@ link register save eliminated.
 164              	.LVL7:
 165              	.LBB102:
 166              	.LBB103:
 167              		.loc 2 631 0
 168 0000 0268     		ldr	r2, [r0]
 169              	.LBE103:
 170              	.LBE102:
 171              		.loc 1 111 0
ARM GAS  /tmp/ccH1CDLU.s 			page 4


 172 0002 0346     		mov	r3, r0
 173              	.LVL8:
 174              		.loc 1 116 0
 175 0004 9042     		cmp	r0, r2
 176 0006 0AD0     		beq	.L10
 177              	.LVL9:
 178              	.LBB104:
 179              	.LBB105:
 180              	.LBB106:
 181              		.loc 2 674 0
 182 0008 1168     		ldr	r1, [r2]
 183              	.LBE106:
 184              	.LBE105:
 185              	.LBE104:
 186              		.loc 1 111 0
 187 000a 10B4     		push	{r4}
 188              		.cfi_def_cfa_offset 4
 189              		.cfi_offset 4, -4
 190              	.LBB109:
 191              		.loc 1 118 0
 192 000c 0024     		movs	r4, #0
 193              	.LBB108:
 194              	.LBB107:
 195              		.loc 2 674 0
 196 000e 0160     		str	r1, [r0]
 197              		.loc 2 675 0
 198 0010 4B60     		str	r3, [r1, #4]
 199              	.LBE107:
 200              	.LBE108:
 201              		.loc 1 118 0
 202 0012 5461     		str	r4, [r2, #20]
 203              		.loc 1 119 0
 204 0014 1046     		mov	r0, r2
 205              	.LVL10:
 206              	.LBE109:
 207              		.loc 1 121 0
 208 0016 5DF8044B 		ldr	r4, [sp], #4
 209              		.cfi_restore 4
 210              		.cfi_def_cfa_offset 0
 211              	.LBB110:
 212              		.loc 1 119 0
 213 001a FFF7FEBF 		b	chSchReadyI
 214              	.LVL11:
 215              	.L10:
 216 001e 7047     		bx	lr
 217              	.LBE110:
 218              		.cfi_endproc
 219              	.LFE172:
 220              		.size	chCondSignalI, .-chCondSignalI
 221              		.section	.text.chCondBroadcastI,"ax",%progbits
 222              		.align	2
 223              		.p2align 4,,15
 224              		.global	chCondBroadcastI
 225              		.thumb
 226              		.thumb_func
 227              		.type	chCondBroadcastI, %function
 228              	chCondBroadcastI:
ARM GAS  /tmp/ccH1CDLU.s 			page 5


 229              	.LFB174:
 230              		.loc 1 149 0
 231              		.cfi_startproc
 232              		@ args = 0, pretend = 0, frame = 0
 233              		@ frame_needed = 0, uses_anonymous_args = 0
 234              	.LVL12:
 235 0000 38B5     		push	{r3, r4, r5, lr}
 236              		.cfi_def_cfa_offset 16
 237              		.cfi_offset 3, -16
 238              		.cfi_offset 4, -12
 239              		.cfi_offset 5, -8
 240              		.cfi_offset 14, -4
 241              		.loc 1 149 0
 242 0002 0446     		mov	r4, r0
 243              	.LVL13:
 244              	.LBB111:
 245              	.LBB112:
 246              		.loc 2 631 0
 247 0004 0068     		ldr	r0, [r0]
 248              	.LVL14:
 249              	.LBE112:
 250              	.LBE111:
 251              		.loc 1 157 0
 252 0006 8442     		cmp	r4, r0
 253 0008 0AD0     		beq	.L11
 254              		.loc 1 158 0
 255 000a 6FF00105 		mvn	r5, #1
 256              	.L13:
 257              	.LVL15:
 258              	.LBB114:
 259              	.LBB115:
 260              		.loc 2 674 0
 261 000e 0368     		ldr	r3, [r0]
 262 0010 2360     		str	r3, [r4]
 263              		.loc 2 675 0
 264 0012 5C60     		str	r4, [r3, #4]
 265              	.LBE115:
 266              	.LBE114:
 267              		.loc 1 158 0
 268 0014 FFF7FEFF 		bl	chSchReadyI
 269              	.LVL16:
 270 0018 4561     		str	r5, [r0, #20]
 271              	.LBB116:
 272              	.LBB113:
 273              		.loc 2 631 0
 274 001a 2068     		ldr	r0, [r4]
 275              	.LBE113:
 276              	.LBE116:
 277              		.loc 1 157 0
 278 001c A042     		cmp	r0, r4
 279 001e F6D1     		bne	.L13
 280              	.LVL17:
 281              	.L11:
 282 0020 38BD     		pop	{r3, r4, r5, pc}
 283              		.cfi_endproc
 284              	.LFE174:
 285              		.size	chCondBroadcastI, .-chCondBroadcastI
ARM GAS  /tmp/ccH1CDLU.s 			page 6


 286 0022 00BF     		.section	.text.chCondBroadcast,"ax",%progbits
 287              		.align	2
 288              		.p2align 4,,15
 289              		.global	chCondBroadcast
 290              		.thumb
 291              		.thumb_func
 292              		.type	chCondBroadcast, %function
 293              	chCondBroadcast:
 294              	.LFB173:
 295              		.loc 1 130 0
 296              		.cfi_startproc
 297              		@ args = 0, pretend = 0, frame = 0
 298              		@ frame_needed = 0, uses_anonymous_args = 0
 299              	.LVL18:
 300 0000 08B5     		push	{r3, lr}
 301              		.cfi_def_cfa_offset 8
 302              		.cfi_offset 3, -8
 303              		.cfi_offset 14, -4
 304              	.LBB117:
 305              	.LBB118:
 306              	.LBB119:
 307              	.LBB120:
 308              		.loc 3 548 0
 309 0002 2023     		movs	r3, #32
 310              	@ 548 "/home/maciek/ChibiOS_16.1.5/os/ext/CMSIS/include/core_cmFunc.h" 1
 311 0004 83F31188 		MSR basepri, r3
 312              	@ 0 "" 2
 313              		.thumb
 314              	.LBE120:
 315              	.LBE119:
 316              	.LBE118:
 317              	.LBE117:
 318              		.loc 1 133 0
 319 0008 FFF7FEFF 		bl	chCondBroadcastI
 320              	.LVL19:
 321              		.loc 1 134 0
 322 000c FFF7FEFF 		bl	chSchRescheduleS
 323              	.LVL20:
 324              	.LBB121:
 325              	.LBB122:
 326              	.LBB123:
 327              	.LBB124:
 328              	.LBB125:
 329              		.loc 3 548 0
 330 0010 0023     		movs	r3, #0
 331              	@ 548 "/home/maciek/ChibiOS_16.1.5/os/ext/CMSIS/include/core_cmFunc.h" 1
 332 0012 83F31188 		MSR basepri, r3
 333              	@ 0 "" 2
 334              		.thumb
 335 0016 08BD     		pop	{r3, pc}
 336              	.LBE125:
 337              	.LBE124:
 338              	.LBE123:
 339              	.LBE122:
 340              	.LBE121:
 341              		.cfi_endproc
 342              	.LFE173:
ARM GAS  /tmp/ccH1CDLU.s 			page 7


 343              		.size	chCondBroadcast, .-chCondBroadcast
 344              		.section	.text.chCondWaitS,"ax",%progbits
 345              		.align	2
 346              		.p2align 4,,15
 347              		.global	chCondWaitS
 348              		.thumb
 349              		.thumb_func
 350              		.type	chCondWaitS, %function
 351              	chCondWaitS:
 352              	.LFB176:
 353              		.loc 1 205 0
 354              		.cfi_startproc
 355              		@ args = 0, pretend = 0, frame = 0
 356              		@ frame_needed = 0, uses_anonymous_args = 0
 357              	.LVL21:
 358 0000 70B5     		push	{r4, r5, r6, lr}
 359              		.cfi_def_cfa_offset 16
 360              		.cfi_offset 4, -16
 361              		.cfi_offset 5, -12
 362              		.cfi_offset 6, -8
 363              		.cfi_offset 14, -4
 364              		.loc 1 205 0
 365 0002 0546     		mov	r5, r0
 366              		.loc 1 206 0
 367 0004 0E4B     		ldr	r3, .L27
 368 0006 1C69     		ldr	r4, [r3, #16]
 369              	.LVL22:
 370              	.LBB126:
 371              	.LBB127:
 372              		.file 4 "/home/maciek/ChibiOS_16.1.5/os/rt/include/chmtx.h"
 373              		.loc 4 146 0
 374 0008 E66A     		ldr	r6, [r4, #44]
 375              	.LBE127:
 376              	.LBE126:
 377              		.loc 1 216 0
 378 000a 3046     		mov	r0, r6
 379              	.LVL23:
 380 000c FFF7FEFF 		bl	chMtxUnlockS
 381              	.LVL24:
 382              	.LBB128:
 383              	.LBB129:
 384              		.loc 2 653 0
 385 0010 2B46     		mov	r3, r5
 386              	.LBE129:
 387              	.LBE128:
 388              		.loc 1 220 0
 389 0012 6561     		str	r5, [r4, #20]
 390              	.LVL25:
 391 0014 03E0     		b	.L21
 392              	.LVL26:
 393              	.L26:
 394              	.LBB132:
 395              	.LBB130:
 396              		.loc 2 656 0
 397 0016 9968     		ldr	r1, [r3, #8]
 398 0018 A268     		ldr	r2, [r4, #8]
 399 001a 9142     		cmp	r1, r2
ARM GAS  /tmp/ccH1CDLU.s 			page 8


 400 001c 02D3     		bcc	.L22
 401              	.L21:
 402              		.loc 2 655 0
 403 001e 1B68     		ldr	r3, [r3]
 404              	.LVL27:
 405              		.loc 2 656 0
 406 0020 9D42     		cmp	r5, r3
 407 0022 F8D1     		bne	.L26
 408              	.L22:
 409              		.loc 2 658 0
 410 0024 5A68     		ldr	r2, [r3, #4]
 411              	.LBE130:
 412              	.LBE132:
 413              		.loc 1 222 0
 414 0026 0720     		movs	r0, #7
 415              	.LBB133:
 416              	.LBB131:
 417              		.loc 2 657 0
 418 0028 2360     		str	r3, [r4]
 419              		.loc 2 658 0
 420 002a 6260     		str	r2, [r4, #4]
 421              		.loc 2 659 0
 422 002c 1460     		str	r4, [r2]
 423              		.loc 2 660 0
 424 002e 5C60     		str	r4, [r3, #4]
 425              	.LBE131:
 426              	.LBE133:
 427              		.loc 1 222 0
 428 0030 FFF7FEFF 		bl	chSchGoSleepS
 429              	.LVL28:
 430              		.loc 1 223 0
 431 0034 6469     		ldr	r4, [r4, #20]
 432              	.LVL29:
 433              		.loc 1 224 0
 434 0036 3046     		mov	r0, r6
 435 0038 FFF7FEFF 		bl	chMtxLockS
 436              	.LVL30:
 437              		.loc 1 227 0
 438 003c 2046     		mov	r0, r4
 439 003e 70BD     		pop	{r4, r5, r6, pc}
 440              	.LVL31:
 441              	.L28:
 442              		.align	2
 443              	.L27:
 444 0040 00000000 		.word	ch
 445              		.cfi_endproc
 446              	.LFE176:
 447              		.size	chCondWaitS, .-chCondWaitS
 448              		.section	.text.chCondWait,"ax",%progbits
 449              		.align	2
 450              		.p2align 4,,15
 451              		.global	chCondWait
 452              		.thumb
 453              		.thumb_func
 454              		.type	chCondWait, %function
 455              	chCondWait:
 456              	.LFB175:
ARM GAS  /tmp/ccH1CDLU.s 			page 9


 457              		.loc 1 179 0
 458              		.cfi_startproc
 459              		@ args = 0, pretend = 0, frame = 0
 460              		@ frame_needed = 0, uses_anonymous_args = 0
 461              	.LVL32:
 462 0000 08B5     		push	{r3, lr}
 463              		.cfi_def_cfa_offset 8
 464              		.cfi_offset 3, -8
 465              		.cfi_offset 14, -4
 466              	.LBB134:
 467              	.LBB135:
 468              	.LBB136:
 469              	.LBB137:
 470              		.loc 3 548 0
 471 0002 2023     		movs	r3, #32
 472              	@ 548 "/home/maciek/ChibiOS_16.1.5/os/ext/CMSIS/include/core_cmFunc.h" 1
 473 0004 83F31188 		MSR basepri, r3
 474              	@ 0 "" 2
 475              		.thumb
 476              	.LBE137:
 477              	.LBE136:
 478              	.LBE135:
 479              	.LBE134:
 480              		.loc 1 183 0
 481 0008 FFF7FEFF 		bl	chCondWaitS
 482              	.LVL33:
 483              	.LBB138:
 484              	.LBB139:
 485              	.LBB140:
 486              	.LBB141:
 487              	.LBB142:
 488              		.loc 3 548 0
 489 000c 0023     		movs	r3, #0
 490              	@ 548 "/home/maciek/ChibiOS_16.1.5/os/ext/CMSIS/include/core_cmFunc.h" 1
 491 000e 83F31188 		MSR basepri, r3
 492              	@ 0 "" 2
 493              		.thumb
 494              	.LBE142:
 495              	.LBE141:
 496              	.LBE140:
 497              	.LBE139:
 498              	.LBE138:
 499              		.loc 1 186 0
 500 0012 08BD     		pop	{r3, pc}
 501              		.cfi_endproc
 502              	.LFE175:
 503              		.size	chCondWait, .-chCondWait
 504              		.section	.text.chCondWaitTimeoutS,"ax",%progbits
 505              		.align	2
 506              		.p2align 4,,15
 507              		.global	chCondWaitTimeoutS
 508              		.thumb
 509              		.thumb_func
 510              		.type	chCondWaitTimeoutS, %function
 511              	chCondWaitTimeoutS:
 512              	.LFB178:
 513              		.loc 1 296 0
ARM GAS  /tmp/ccH1CDLU.s 			page 10


 514              		.cfi_startproc
 515              		@ args = 0, pretend = 0, frame = 0
 516              		@ frame_needed = 0, uses_anonymous_args = 0
 517              	.LVL34:
 518 0000 F8B5     		push	{r3, r4, r5, r6, r7, lr}
 519              		.cfi_def_cfa_offset 24
 520              		.cfi_offset 3, -24
 521              		.cfi_offset 4, -20
 522              		.cfi_offset 5, -16
 523              		.cfi_offset 6, -12
 524              		.cfi_offset 7, -8
 525              		.cfi_offset 14, -4
 526              		.loc 1 296 0
 527 0002 0546     		mov	r5, r0
 528              	.LBB143:
 529              	.LBB144:
 530              	.LBB145:
 531              	.LBB146:
 532              		.file 5 "/home/maciek/ChibiOS_16.1.5/os/rt/include/chthreads.h"
 533              		.loc 5 176 0
 534 0004 114C     		ldr	r4, .L39
 535              	.LBE146:
 536              	.LBE145:
 537              	.LBE144:
 538              	.LBE143:
 539              		.loc 1 296 0
 540 0006 0F46     		mov	r7, r1
 541              	.LBB148:
 542              	.LBB147:
 543              		.loc 4 146 0
 544 0008 2369     		ldr	r3, [r4, #16]
 545 000a DE6A     		ldr	r6, [r3, #44]
 546              	.LBE147:
 547              	.LBE148:
 548              		.loc 1 306 0
 549 000c 3046     		mov	r0, r6
 550              	.LVL35:
 551 000e FFF7FEFF 		bl	chMtxUnlockS
 552              	.LVL36:
 553              		.loc 1 310 0
 554 0012 2469     		ldr	r4, [r4, #16]
 555              	.LBB149:
 556              	.LBB150:
 557              		.loc 2 653 0
 558 0014 2B46     		mov	r3, r5
 559              	.LBE150:
 560              	.LBE149:
 561              		.loc 1 310 0
 562 0016 6561     		str	r5, [r4, #20]
 563              	.LVL37:
 564 0018 03E0     		b	.L35
 565              	.LVL38:
 566              	.L32:
 567              	.LBB154:
 568              	.LBB151:
 569              		.loc 2 656 0
 570 001a 9868     		ldr	r0, [r3, #8]
ARM GAS  /tmp/ccH1CDLU.s 			page 11


 571 001c A268     		ldr	r2, [r4, #8]
 572 001e 9042     		cmp	r0, r2
 573 0020 02D3     		bcc	.L36
 574              	.L35:
 575              		.loc 2 655 0
 576 0022 1B68     		ldr	r3, [r3]
 577              	.LVL39:
 578              		.loc 2 656 0
 579 0024 9D42     		cmp	r5, r3
 580 0026 F8D1     		bne	.L32
 581              	.L36:
 582              		.loc 2 658 0
 583 0028 5A68     		ldr	r2, [r3, #4]
 584              	.LBE151:
 585              	.LBE154:
 586              		.loc 1 312 0
 587 002a 3946     		mov	r1, r7
 588              	.LBB155:
 589              	.LBB152:
 590              		.loc 2 657 0
 591 002c 2360     		str	r3, [r4]
 592              		.loc 2 658 0
 593 002e 6260     		str	r2, [r4, #4]
 594              	.LBE152:
 595              	.LBE155:
 596              		.loc 1 312 0
 597 0030 0720     		movs	r0, #7
 598              	.LBB156:
 599              	.LBB153:
 600              		.loc 2 659 0
 601 0032 1460     		str	r4, [r2]
 602              		.loc 2 660 0
 603 0034 5C60     		str	r4, [r3, #4]
 604              	.LBE153:
 605              	.LBE156:
 606              		.loc 1 312 0
 607 0036 FFF7FEFF 		bl	chSchGoSleepTimeoutS
 608              	.LVL40:
 609              		.loc 1 313 0
 610 003a 431C     		adds	r3, r0, #1
 611              		.loc 1 312 0
 612 003c 0446     		mov	r4, r0
 613              	.LVL41:
 614              		.loc 1 313 0
 615 003e 02D0     		beq	.L34
 616              		.loc 1 314 0
 617 0040 3046     		mov	r0, r6
 618              	.LVL42:
 619 0042 FFF7FEFF 		bl	chMtxLockS
 620              	.LVL43:
 621              	.L34:
 622              		.loc 1 318 0
 623 0046 2046     		mov	r0, r4
 624 0048 F8BD     		pop	{r3, r4, r5, r6, r7, pc}
 625              	.LVL44:
 626              	.L40:
 627 004a 00BF     		.align	2
ARM GAS  /tmp/ccH1CDLU.s 			page 12


 628              	.L39:
 629 004c 00000000 		.word	ch
 630              		.cfi_endproc
 631              	.LFE178:
 632              		.size	chCondWaitTimeoutS, .-chCondWaitTimeoutS
 633              		.section	.text.chCondWaitTimeout,"ax",%progbits
 634              		.align	2
 635              		.p2align 4,,15
 636              		.global	chCondWaitTimeout
 637              		.thumb
 638              		.thumb_func
 639              		.type	chCondWaitTimeout, %function
 640              	chCondWaitTimeout:
 641              	.LFB177:
 642              		.loc 1 258 0
 643              		.cfi_startproc
 644              		@ args = 0, pretend = 0, frame = 0
 645              		@ frame_needed = 0, uses_anonymous_args = 0
 646              	.LVL45:
 647 0000 08B5     		push	{r3, lr}
 648              		.cfi_def_cfa_offset 8
 649              		.cfi_offset 3, -8
 650              		.cfi_offset 14, -4
 651              	.LBB157:
 652              	.LBB158:
 653              	.LBB159:
 654              	.LBB160:
 655              		.loc 3 548 0
 656 0002 2023     		movs	r3, #32
 657              	@ 548 "/home/maciek/ChibiOS_16.1.5/os/ext/CMSIS/include/core_cmFunc.h" 1
 658 0004 83F31188 		MSR basepri, r3
 659              	@ 0 "" 2
 660              		.thumb
 661              	.LBE160:
 662              	.LBE159:
 663              	.LBE158:
 664              	.LBE157:
 665              		.loc 1 262 0
 666 0008 FFF7FEFF 		bl	chCondWaitTimeoutS
 667              	.LVL46:
 668              	.LBB161:
 669              	.LBB162:
 670              	.LBB163:
 671              	.LBB164:
 672              	.LBB165:
 673              		.loc 3 548 0
 674 000c 0023     		movs	r3, #0
 675              	@ 548 "/home/maciek/ChibiOS_16.1.5/os/ext/CMSIS/include/core_cmFunc.h" 1
 676 000e 83F31188 		MSR basepri, r3
 677              	@ 0 "" 2
 678              		.thumb
 679              	.LBE165:
 680              	.LBE164:
 681              	.LBE163:
 682              	.LBE162:
 683              	.LBE161:
 684              		.loc 1 266 0
ARM GAS  /tmp/ccH1CDLU.s 			page 13


 685 0012 08BD     		pop	{r3, pc}
 686              		.cfi_endproc
 687              	.LFE177:
 688              		.size	chCondWaitTimeout, .-chCondWaitTimeout
 689              		.text
 690              	.Letext0:
 691              		.file 6 "/opt/stm32/gcc/gcc-arm-none-eabi-4_9-2015q2/arm-none-eabi/include/machine/_default_types.
 692              		.file 7 "/opt/stm32/gcc/gcc-arm-none-eabi-4_9-2015q2/arm-none-eabi/include/sys/_stdint.h"
 693              		.file 8 "/home/maciek/ChibiOS_16.1.5/os/rt/ports/ARMCMx/compilers/GCC/chtypes.h"
 694              		.file 9 "/home/maciek/ChibiOS_16.1.5/os/rt/include/chsystypes.h"
 695              		.file 10 "/home/maciek/ChibiOS_16.1.5/os/rt/ports/ARMCMx/chcore.h"
 696              		.file 11 "/home/maciek/ChibiOS_16.1.5/os/rt/ports/ARMCMx/chcore_v7m.h"
 697              		.file 12 "/home/maciek/ChibiOS_16.1.5/os/rt/include/chtm.h"
 698              		.file 13 "/home/maciek/ChibiOS_16.1.5/os/rt/include/chsem.h"
 699              		.file 14 "/home/maciek/ChibiOS_16.1.5/os/rt/include/chcond.h"
 700              		.file 15 "/home/maciek/ChibiOS_16.1.5/os/rt/include/chsys.h"
 701              		.file 16 "/home/maciek/ChibiOS_16.1.5/os/ext/CMSIS/include/core_cm3.h"