ARM GAS  /tmp/ccH1CDLU.s 			page 1


   1              		.syntax unified
   2              		.cpu cortex-m3
   3              		.fpu softvfp
   4              		.eabi_attribute 20, 1
   5              		.eabi_attribute 21, 1
   6              		.eabi_attribute 23, 3
   7              		.eabi_attribute 24, 1
   8              		.eabi_attribute 25, 1
   9              		.eabi_attribute 26, 1
  10              		.eabi_attribute 30, 2
  11              		.eabi_attribute 34, 1
  12              		.eabi_attribute 18, 4
  13              		.thumb
  14              		.file	"chcond.c"
  15              		.text
  16              	.Ltext0:
  17              		.cfi_sections	.debug_frame
  18              		.section	.text.chCondObjectInit,"ax",%progbits
  19              		.align	2
  20              		.p2align 4,,15
  21              		.global	chCondObjectInit
  22              		.thumb
  23              		.thumb_func
  24              		.type	chCondObjectInit, %function
  25              	chCondObjectInit:
  26              	.LFB170:
  27              		.file 1 "/home/maciek/ChibiOS_16.1.5/os/rt/src/chcond.c"
  28              		.loc 1 75 0
  29              		.cfi_startproc
  30              		@ args = 0, pretend = 0, frame = 0
  31              		@ frame_needed = 0, uses_anonymous_args = 0
  32              		@ link register save eliminated.
  33              	.LVL0:
  34              	.LBB83:
  35              	.LBB84:
  36              		.file 2 "/home/maciek/ChibiOS_16.1.5/os/rt/include/chschd.h"
  37              		.loc 2 604 0
  38 0000 0060     		str	r0, [r0]
  39              		.loc 2 605 0
  40 0002 4060     		str	r0, [r0, #4]
  41 0004 7047     		bx	lr
  42              	.LBE84:
  43              	.LBE83:
  44              		.cfi_endproc
  45              	.LFE170:
  46              		.size	chCondObjectInit, .-chCondObjectInit
  47 0006 00BF     		.section	.text.chCondSignal,"ax",%progbits
  48              		.align	2
  49              		.p2align 4,,15
  50              		.global	chCondSignal
  51              		.thumb
  52              		.thumb_func
  53              		.type	chCondSignal, %function
  54              	chCondSignal:
  55              	.LFB171:
  56              		.loc 1 89 0
  57              		.cfi_startproc
ARM GAS  /tmp/ccH1CDLU.s 			page 2


  58              		@ args = 0, pretend = 0, frame = 0
  59              		@ frame_needed = 0, uses_anonymous_args = 0
  60              	.LVL1:
  61              	.LBB85:
  62              	.LBB86:
  63              	.LBB87:
  64              	.LBB88:
  65              		.file 3 "/home/maciek/ChibiOS_16.1.5/os/ext/CMSIS/include/core_cmFunc.h"
  66              		.loc 3 548 0
  67 0000 2023     		movs	r3, #32
  68              	@ 548 "/home/maciek/ChibiOS_16.1.5/os/ext/CMSIS/include/core_cmFunc.h" 1
  69 0002 83F31188 		MSR basepri, r3
  70              	@ 0 "" 2
  71              	.LVL2:
  72              		.thumb
  73              	.LBE88:
  74              	.LBE87:
  75              	.LBE86:
  76              	.LBE85:
  77              	.LBB89:
  78              	.LBB90:
  79              		.loc 2 631 0
  80 0006 0268     		ldr	r2, [r0]
  81              	.LBE90:
  82              	.LBE89:
  83              		.loc 1 94 0
  84 0008 8242     		cmp	r2, r0
  85 000a 0CD0     		beq	.L5
  86 000c 0346     		mov	r3, r0
  87              	.LVL3:
  88              		.loc 1 89 0
  89 000e 10B5     		push	{r4, lr}
  90              		.cfi_def_cfa_offset 8
  91              		.cfi_offset 4, -8
  92              		.cfi_offset 14, -4
  93              	.LBB91:
  94              	.LBB92:
  95              		.loc 2 674 0
  96 0010 1468     		ldr	r4, [r2]
  97              	.LBE92:
  98              	.LBE91:
  99              		.loc 1 95 0
 100 0012 1046     		mov	r0, r2
 101              	.LVL4:
 102              	.LBB95:
 103              	.LBB93:
 104              		.loc 2 674 0
 105 0014 1C60     		str	r4, [r3]
 106              	.LBE93:
 107              	.LBE95:
 108              		.loc 1 95 0
 109 0016 0021     		movs	r1, #0
 110              	.LBB96:
 111              	.LBB94:
 112              		.loc 2 675 0
 113 0018 6360     		str	r3, [r4, #4]
 114              	.LBE94:
ARM GAS  /tmp/ccH1CDLU.s 			page 3


 115              	.LBE96:
 116              		.loc 1 95 0
 117 001a FFF7FEFF 		bl	chSchWakeupS
 118              	.LVL5:
 119              	.LBB97:
 120              	.LBB98:
 121              	.LBB99:
 122              	.LBB100:
 123              	.LBB101:
 124              		.loc 3 548 0
 125 001e 0023     		movs	r3, #0
 126              	@ 548 "/home/maciek/ChibiOS_16.1.5/os/ext/CMSIS/include/core_cmFunc.h" 1
 127 0020 83F31188 		MSR basepri, r3
 128              	@ 0 "" 2
 129              		.thumb
 130 0024 10BD     		pop	{r4, pc}
 131              	.LVL6:
 132              	.L5:
 133              		.cfi_def_cfa_offset 0
 134              		.cfi_restore 4
 135              		.cfi_restore 14
 136 0026 0023     		movs	r3, #0
 137              	@ 548 "/home/maciek/ChibiOS_16.1.5/os/ext/CMSIS/include/core_cmFunc.h" 1
 138 0028 83F31188 		MSR basepri, r3
 139              	@ 0 "" 2
 140              		.thumb
 141 002c 7047     		bx	lr
 142              	.LBE101:
 143              	.LBE100:
 144              	.LBE99:
 145              	.LBE98:
 146              	.LBE97:
 147              		.cfi_endproc
 148              	.LFE171:
 149              		.size	chCondSignal, .-chCondSignal
 150 002e 00BF     		.section	.text.chCondSignalI,"ax",%progbits
 151              		.align	2
 152              		.p2align 4,,15
 153              		.global	chCondSignalI
 154              		.thumb
 155              		.thumb_func
 156              		.type	chCondSignalI, %function
 157              	chCondSignalI:
 158              	.LFB172:
 159              		.loc 1 111 0
 160              		.cfi_startproc
 161              		@ args = 0, pretend = 0, frame = 0
 162              		@ frame_needed = 0, uses_anonymous_args = 0
 163              		@ link register save eliminated.
 164              	.LVL7:
 165              	.LBB102:
 166              	.LBB103:
 167              		.loc 2 631 0
 168 0000 0268     		ldr	r2, [r0]
 169              	.LBE103:
 170              	.LBE102:
 171              		.loc 1 111 0
ARM GAS  /tmp/ccH1CDLU.s 			page 4


 172 0002 0346     		mov	r3, r0
 173              	.LVL8:
 174              		.loc 1 116 0
 175 0004 9042     		cmp	r0, r2
 176 0006 0AD0     		beq	.L10
 177              	.LVL9:
 178              	.LBB104:
 179              	.LBB105:
 180              	.LBB106:
 181              		.loc 2 674 0
 182 0008 1168     		ldr	r1, [r2]
 183              	.LBE106:
 184              	.LBE105:
 185              	.LBE104:
 186              		.loc 1 111 0
 187 000a 10B4     		push	{r4}
 188              		.cfi_def_cfa_offset 4
 189              		.cfi_offset 4, -4
 190              	.LBB109:
 191              		.loc 1 118 0
 192 000c 0024     		movs	r4, #0
 193              	.LBB108:
 194              	.LBB107:
 195              		.loc 2 674 0
 196 000e 0160     		str	r1, [r0]
 197              		.loc 2 675 0
 198 0010 4B60     		str	r3, [r1, #4]
 199              	.LBE107:
 200              	.LBE108:
 201              		.loc 1 118 0
 202 0012 5461     		str	r4, [r2, #20]
 203              		.loc 1 119 0
 204 0014 1046     		mov	r0, r2
 205              	.LVL10:
 206              	.LBE109:
 207              		.loc 1 121 0
 208 0016 5DF8044B 		ldr	r4, [sp], #4
 209              		.cfi_restore 4
 210              		.cfi_def_cfa_offset 0
 211              	.LBB110:
 212              		.loc 1 119 0
 213 001a FFF7FEBF 		b	chSchReadyI
 214              	.LVL11:
 215              	.L10:
 216 001e 7047     		bx	lr
 217              	.LBE110:
 218              		.cfi_endproc
 219              	.LFE172:
 220              		.size	chCondSignalI, .-chCondSignalI
 221              		.section	.text.chCondBroadcastI,"ax",%progbits
 222              		.align	2
 223              		.p2align 4,,15
 224              		.global	chCondBroadcastI
 225              		.thumb
 226              		.thumb_func
 227              		.type	chCondBroadcastI, %function
 228              	chCondBroadcastI:
ARM GAS  /tmp/ccH1CDLU.s 			page 5


 229              	.LFB174:
 230              		.loc 1 149 0
 231              		.cfi_startproc
 232              		@ args = 0, pretend = 0, frame = 0
 233              		@ frame_needed = 0, uses_anonymous_args = 0
 234              	.LVL12:
 235 0000 38B5     		push	{r3, r4, r5, lr}
 236              		.cfi_def_cfa_offset 16
 237              		.cfi_offset 3, -16
 238              		.cfi_offset 4, -12
 239              		.cfi_offset 5, -8
 240              		.cfi_offset 14, -4
 241              		.loc 1 149 0
 242 0002 0446     		mov	r4, r0
 243              	.LVL13:
 244              	.LBB111:
 245              	.LBB112:
 246              		.loc 2 631 0
 247 0004 0068     		ldr	r0, [r0]
 248              	.LVL14:
 249              	.LBE112:
 250              	.LBE111:
 251              		.loc 1 157 0
 252 0006 8442     		cmp	r4, r0
 253 0008 0AD0     		beq	.L11
 254              		.loc 1 158 0
 255 000a 6FF00105 		mvn	r5, #1
 256              	.L13:
 257              	.LVL15:
 258              	.LBB114:
 259              	.LBB115:
 260              		.loc 2 674 0
 261 000e 0368     		ldr	r3, [r0]
 262 0010 2360     		str	r3, [r4]
 263              		.loc 2 675 0
 264 0012 5C60     		str	r4, [r3, #4]
 265              	.LBE115:
 266              	.LBE114:
 267              		.loc 1 158 0
 268 0014 FFF7FEFF 		bl	chSchReadyI
 269              	.LVL16:
 270 0018 4561     		str	r5, [r0, #20]
 271              	.LBB116:
 272              	.LBB113:
 273              		.loc 2 631 0
 274 001a 2068     		ldr	r0, [r4]
 275              	.LBE113:
 276              	.LBE116:
 277              		.loc 1 157 0
 278 001c A042     		cmp	r0, r4
 279 001e F6D1     		bne	.L13
 280              	.LVL17:
 281              	.L11:
 282 0020 38BD     		pop	{r3, r4, r5, pc}
 283              		.cfi_endproc
 284              	.LFE174:
 285              		.size	chCondBroadcastI, .-chCondBroadcastI
ARM GAS  /tmp/ccH1CDLU.s 			page 6


 286 0022 00BF     		.section	.text.chCondBroadcast,"ax",%progbits
 287              		.align	2
 288              		.p2align 4,,15
 289              		.global	chCondBroadcast
 290              		.thumb
 291              		.thumb_func
 292              		.type	chCondBroadcast, %function
 293              	chCondBroadcast:
 294              	.LFB173:
 295              		.loc 1 130 0
 296              		.cfi_startproc
 297              		@ args = 0, pretend = 0, frame = 0
 298              		@ frame_needed = 0, uses_anonymous_args = 0
 299              	.LVL18:
 300 0000 08B5     		push	{r3, lr}
 301              		.cfi_def_cfa_offset 8
 302              		.cfi_offset 3, -8
 303              		.cfi_offset 14, -4
 304              	.LBB117:
 305              	.LBB118:
 306              	.LBB119:
 307              	.LBB120:
 308              		.loc 3 548 0
 309 0002 2023     		movs	r3, #32
 310              	@ 548 "/home/maciek/ChibiOS_16.1.5/os/ext/CMSIS/include/core_cmFunc.h" 1
 311 0004 83F31188 		MSR basepri, r3
 312              	@ 0 "" 2
 313              		.thumb
 314              	.LBE120:
 315              	.LBE119:
 316              	.LBE118:
 317              	.LBE117:
 318              		.loc 1 133 0
 319 0008 FFF7FEFF 		bl	chCondBroadcastI
 320              	.LVL19:
 321              		.loc 1 134 0
 322 000c FFF7FEFF 		bl	chSchRescheduleS
 323              	.LVL20:
 324              	.LBB121:
 325              	.LBB122:
 326              	.LBB123:
 327              	.LBB124:
 328              	.LBB125:
 329              		.loc 3 548 0
 330 0010 0023     		movs	r3, #0
 331              	@ 548 "/home/maciek/ChibiOS_16.1.5/os/ext/CMSIS/include/core_cmFunc.h" 1
 332 0012 83F31188 		MSR basepri, r3
 333              	@ 0 "" 2
 334              		.thumb
 335 0016 08BD     		pop	{r3, pc}
 336              	.LBE125:
 337              	.LBE124:
 338              	.LBE123:
 339              	.LBE122:
 340              	.LBE121:
 341              		.cfi_endproc
 342              	.LFE173:
ARM GAS  /tmp/ccH1CDLU.s 			page 7


 343              		.size	chCondBroadcast, .-chCondBroadcast
 344              		.section	.text.chCondWaitS,"ax",%progbits
 345              		.align	2
 346              		.p2align 4,,15
 347              		.global	chCondWaitS
 348              		.thumb
 349              		.thumb_func
 350              		.type	chCondWaitS, %function
 351              	chCondWaitS:
 352              	.LFB176:
 353              		.loc 1 205 0
 354              		.cfi_startproc
 355              		@ args = 0, pretend = 0, frame = 0
 356              		@ frame_needed = 0, uses_anonymous_args = 0
 357              	.LVL21:
 358 0000 70B5     		push	{r4, r5, r6, lr}
 359              		.cfi_def_cfa_offset 16
 360              		.cfi_offset 4, -16
 361              		.cfi_offset 5, -12
 362              		.cfi_offset 6, -8
 363              		.cfi_offset 14, -4
 364              		.loc 1 205 0
 365 0002 0546     		mov	r5, r0
 366              		.loc 1 206 0
 367 0004 0E4B     		ldr	r3, .L27
 368 0006 1C69     		ldr	r4, [r3, #16]
 369              	.LVL22:
 370              	.LBB126:
 371              	.LBB127:
 372              		.file 4 "/home/maciek/ChibiOS_16.1.5/os/rt/include/chmtx.h"
 373              		.loc 4 146 0
 374 0008 E66A     		ldr	r6, [r4, #44]
 375              	.LBE127:
 376              	.LBE126:
 377              		.loc 1 216 0
 378 000a 3046     		mov	r0, r6
 379              	.LVL23:
 380 000c FFF7FEFF 		bl	chMtxUnlockS
 381              	.LVL24:
 382              	.LBB128:
 383              	.LBB129:
 384              		.loc 2 653 0
 385 0010 2B46     		mov	r3, r5
 386              	.LBE129:
 387              	.LBE128:
 388              		.loc 1 220 0
 389 0012 6561     		str	r5, [r4, #20]
 390              	.LVL25:
 391 0014 03E0     		b	.L21
 392              	.LVL26:
 393              	.L26:
 394              	.LBB132:
 395              	.LBB130:
 396              		.loc 2 656 0
 397 0016 9968     		ldr	r1, [r3, #8]
 398 0018 A268     		ldr	r2, [r4, #8]
 399 001a 9142     		cmp	r1, r2
ARM GAS  /tmp/ccH1CDLU.s 			page 8


 400 001c 02D3     		bcc	.L22
 401              	.L21:
 402              		.loc 2 655 0
 403 001e 1B68     		ldr	r3, [r3]
 404              	.LVL27:
 405              		.loc 2 656 0
 406 0020 9D42     		cmp	r5, r3
 407 0022 F8D1     		bne	.L26
 408              	.L22:
 409              		.loc 2 658 0
 410 0024 5A68     		ldr	r2, [r3, #4]
 411              	.LBE130:
 412              	.LBE132:
 413              		.loc 1 222 0
 414 0026 0720     		movs	r0, #7
 415              	.LBB133:
 416              	.LBB131:
 417              		.loc 2 657 0
 418 0028 2360     		str	r3, [r4]
 419              		.loc 2 658 0
 420 002a 6260     		str	r2, [r4, #4]
 421              		.loc 2 659 0
 422 002c 1460     		str	r4, [r2]
 423              		.loc 2 660 0
 424 002e 5C60     		str	r4, [r3, #4]
 425              	.LBE131:
 426              	.LBE133:
 427              		.loc 1 222 0
 428 0030 FFF7FEFF 		bl	chSchGoSleepS
 429              	.LVL28:
 430              		.loc 1 223 0
 431 0034 6469     		ldr	r4, [r4, #20]
 432              	.LVL29:
 433              		.loc 1 224 0
 434 0036 3046     		mov	r0, r6
 435 0038 FFF7FEFF 		bl	chMtxLockS
 436              	.LVL30:
 437              		.loc 1 227 0
 438 003c 2046     		mov	r0, r4
 439 003e 70BD     		pop	{r4, r5, r6, pc}
 440              	.LVL31:
 441              	.L28:
 442              		.align	2
 443              	.L27:
 444 0040 00000000 		.word	ch
 445              		.cfi_endproc
 446              	.LFE176:
 447              		.size	chCondWaitS, .-chCondWaitS
 448              		.section	.text.chCondWait,"ax",%progbits
 449              		.align	2
 450              		.p2align 4,,15
 451              		.global	chCondWait
 452              		.thumb
 453              		.thumb_func
 454              		.type	chCondWait, %function
 455              	chCondWait:
 456              	.LFB175:
ARM GAS  /tmp/ccH1CDLU.s 			page 9


 457              		.loc 1 179 0
 458              		.cfi_startproc
 459              		@ args = 0, pretend = 0, frame = 0
 460              		@ frame_needed = 0, uses_anonymous_args = 0
 461              	.LVL32:
 462 0000 08B5     		push	{r3, lr}
 463              		.cfi_def_cfa_offset 8
 464              		.cfi_offset 3, -8
 465              		.cfi_offset 14, -4
 466              	.LBB134:
 467              	.LBB135:
 468              	.LBB136:
 469              	.LBB137:
 470              		.loc 3 548 0
 471 0002 2023     		movs	r3, #32
 472              	@ 548 "/home/maciek/ChibiOS_16.1.5/os/ext/CMSIS/include/core_cmFunc.h" 1
 473 0004 83F31188 		MSR basepri, r3
 474              	@ 0 "" 2
 475              		.thumb
 476              	.LBE137:
 477              	.LBE136:
 478              	.LBE135:
 479              	.LBE134:
 480              		.loc 1 183 0
 481 0008 FFF7FEFF 		bl	chCondWaitS
 482              	.LVL33:
 483              	.LBB138:
 484              	.LBB139:
 485              	.LBB140:
 486              	.LBB141:
 487              	.LBB142:
 488              		.loc 3 548 0
 489 000c 0023     		movs	r3, #0
 490              	@ 548 "/home/maciek/ChibiOS_16.1.5/os/ext/CMSIS/include/core_cmFunc.h" 1
 491 000e 83F31188 		MSR basepri, r3
 492              	@ 0 "" 2
 493              		.thumb
 494              	.LBE142:
 495              	.LBE141:
 496              	.LBE140:
 497              	.LBE139:
 498              	.LBE138:
 499              		.loc 1 186 0
 500 0012 08BD     		pop	{r3, pc}
 501              		.cfi_endproc
 502              	.LFE175:
 503              		.size	chCondWait, .-chCondWait
 504              		.section	.text.chCondWaitTimeoutS,"ax",%progbits
 505              		.align	2
 506              		.p2align 4,,15
 507              		.global	chCondWaitTimeoutS
 508              		.thumb
 509              		.thumb_func
 510              		.type	chCondWaitTimeoutS, %function
 511              	chCondWaitTimeoutS:
 512              	.LFB178:
 513              		.loc 1 296 0
ARM GAS  /tmp/ccH1CDLU.s 			page 10


 514              		.cfi_startproc
 515              		@ args = 0, pretend = 0, frame = 0
 516              		@ frame_needed = 0, uses_anonymous_args = 0
 517              	.LVL34:
 518 0000 F8B5     		push	{r3, r4, r5, r6, r7, lr}
 519              		.cfi_def_cfa_offset 24
 520              		.cfi_offset 3, -24
 521              		.cfi_offset 4, -20
 522              		.cfi_offset 5, -16
 523              		.cfi_offset 6, -12
 524              		.cfi_offset 7, -8
 525              		.cfi_offset 14, -4
 526              		.loc 1 296 0
 527 0002 0546     		mov	r5, r0
 528              	.LBB143:
 529              	.LBB144:
 530              	.LBB145:
 531              	.LBB146:
 532              		.file 5 "/home/maciek/ChibiOS_16.1.5/os/rt/include/chthreads.h"
 533              		.loc 5 176 0
 534 0004 114C     		ldr	r4, .L39
 535              	.LBE146:
 536              	.LBE145:
 537              	.LBE144:
 538              	.LBE143:
 539              		.loc 1 296 0
 540 0006 0F46     		mov	r7, r1
 541              	.LBB148:
 542              	.LBB147:
 543              		.loc 4 146 0
 544 0008 2369     		ldr	r3, [r4, #16]
 545 000a DE6A     		ldr	r6, [r3, #44]
 546              	.LBE147:
 547              	.LBE148:
 548              		.loc 1 306 0
 549 000c 3046     		mov	r0, r6
 550              	.LVL35:
 551 000e FFF7FEFF 		bl	chMtxUnlockS
 552              	.LVL36:
 553              		.loc 1 310 0
 554 0012 2469     		ldr	r4, [r4, #16]
 555              	.LBB149:
 556              	.LBB150:
 557              		.loc 2 653 0
 558 0014 2B46     		mov	r3, r5
 559              	.LBE150:
 560              	.LBE149:
 561              		.loc 1 310 0
 562 0016 6561     		str	r5, [r4, #20]
 563              	.LVL37:
 564 0018 03E0     		b	.L35
 565              	.LVL38:
 566              	.L32:
 567              	.LBB154:
 568              	.LBB151:
 569              		.loc 2 656 0
 570 001a 9868     		ldr	r0, [r3, #8]
ARM GAS  /tmp/ccH1CDLU.s 			page 11


 571 001c A268     		ldr	r2, [r4, #8]
 572 001e 9042     		cmp	r0, r2
 573 0020 02D3     		bcc	.L36
 574              	.L35:
 575              		.loc 2 655 0
 576 0022 1B68     		ldr	r3, [r3]
 577              	.LVL39:
 578              		.loc 2 656 0
 579 0024 9D42     		cmp	r5, r3
 580 0026 F8D1     		bne	.L32
 581              	.L36:
 582              		.loc 2 658 0
 583 0028 5A68     		ldr	r2, [r3, #4]
 584              	.LBE151:
 585              	.LBE154:
 586              		.loc 1 312 0
 587 002a 3946     		mov	r1, r7
 588              	.LBB155:
 589              	.LBB152:
 590              		.loc 2 657 0
 591 002c 2360     		str	r3, [r4]
 592              		.loc 2 658 0
 593 002e 6260     		str	r2, [r4, #4]
 594              	.LBE152:
 595              	.LBE155:
 596              		.loc 1 312 0
 597 0030 0720     		movs	r0, #7
 598              	.LBB156:
 599              	.LBB153:
 600              		.loc 2 659 0
 601 0032 1460     		str	r4, [r2]
 602              		.loc 2 660 0
 603 0034 5C60     		str	r4, [r3, #4]
 604              	.LBE153:
 605              	.LBE156:
 606              		.loc 1 312 0
 607 0036 FFF7FEFF 		bl	chSchGoSleepTimeoutS
 608              	.LVL40:
 609              		.loc 1 313 0
 610 003a 431C     		adds	r3, r0, #1
 611              		.loc 1 312 0
 612 003c 0446     		mov	r4, r0
 613              	.LVL41:
 614              		.loc 1 313 0
 615 003e 02D0     		beq	.L34
 616              		.loc 1 314 0
 617 0040 3046     		mov	r0, r6
 618              	.LVL42:
 619 0042 FFF7FEFF 		bl	chMtxLockS
 620              	.LVL43:
 621              	.L34:
 622              		.loc 1 318 0
 623 0046 2046     		mov	r0, r4
 624 0048 F8BD     		pop	{r3, r4, r5, r6, r7, pc}
 625              	.LVL44:
 626              	.L40:
 627 004a 00BF     		.align	2
ARM GAS  /tmp/ccH1CDLU.s 			page 12


 628              	.L39:
 629 004c 00000000 		.word	ch
 630              		.cfi_endproc
 631              	.LFE178:
 632              		.size	chCondWaitTimeoutS, .-chCondWaitTimeoutS
 633              		.section	.text.chCondWaitTimeout,"ax",%progbits
 634              		.align	2
 635              		.p2align 4,,15
 636              		.global	chCondWaitTimeout
 637              		.thumb
 638              		.thumb_func
 639              		.type	chCondWaitTimeout, %function
 640              	chCondWaitTimeout:
 641              	.LFB177:
 642              		.loc 1 258 0
 643              		.cfi_startproc
 644              		@ args = 0, pretend = 0, frame = 0
 645              		@ frame_needed = 0, uses_anonymous_args = 0
 646              	.LVL45:
 647 0000 08B5     		push	{r3, lr}
 648              		.cfi_def_cfa_offset 8
 649              		.cfi_offset 3, -8
 650              		.cfi_offset 14, -4
 651              	.LBB157:
 652              	.LBB158:
 653              	.LBB159:
 654              	.LBB160:
 655              		.loc 3 548 0
 656 0002 2023     		movs	r3, #32
 657              	@ 548 "/home/maciek/ChibiOS_16.1.5/os/ext/CMSIS/include/core_cmFunc.h" 1
 658 0004 83F31188 		MSR basepri, r3
 659              	@ 0 "" 2
 660              		.thumb
 661              	.LBE160:
 662              	.LBE159:
 663              	.LBE158:
 664              	.LBE157:
 665              		.loc 1 262 0
 666 0008 FFF7FEFF 		bl	chCondWaitTimeoutS
 667              	.LVL46:
 668              	.LBB161:
 669              	.LBB162:
 670              	.LBB163:
 671              	.LBB164:
 672              	.LBB165:
 673              		.loc 3 548 0
 674 000c 0023     		movs	r3, #0
 675              	@ 548 "/home/maciek/ChibiOS_16.1.5/os/ext/CMSIS/include/core_cmFunc.h" 1
 676 000e 83F31188 		MSR basepri, r3
 677              	@ 0 "" 2
 678              		.thumb
 679              	.LBE165:
 680              	.LBE164:
 681              	.LBE163:
 682              	.LBE162:
 683              	.LBE161:
 684              		.loc 1 266 0
ARM GAS  /tmp/ccH1CDLU.s 			page 13


 685 0012 08BD     		pop	{r3, pc}
 686              		.cfi_endproc
 687              	.LFE177:
 688              		.size	chCondWaitTimeout, .-chCondWaitTimeout
 689              		.text
 690              	.Letext0:
 691              		.file 6 "/opt/stm32/gcc/gcc-arm-none-eabi-4_9-2015q2/arm-none-eabi/include/machine/_default_types.
 692              		.file 7 "/opt/stm32/gcc/gcc-arm-none-eabi-4_9-2015q2/arm-none-eabi/include/sys/_stdint.h"
 693              		.file 8 "/home/maciek/ChibiOS_16.1.5/os/rt/ports/ARMCMx/compilers/GCC/chtypes.h"
 694              		.file 9 "/home/maciek/ChibiOS_16.1.5/os/rt/include/chsystypes.h"
 695              		.file 10 "/home/maciek/ChibiOS_16.1.5/os/rt/ports/ARMCMx/chcore.h"
 696              		.file 11 "/home/maciek/ChibiOS_16.1.5/os/rt/ports/ARMCMx/chcore_v7m.h"
 697              		.file 12 "/home/maciek/ChibiOS_16.1.5/os/rt/include/chtm.h"
 698              		.file 13 "/home/maciek/ChibiOS_16.1.5/os/rt/include/chsem.h"
 699              		.file 14 "/home/maciek/ChibiOS_16.1.5/os/rt/include/chcond.h"
 700              		.file 15 "/home/maciek/ChibiOS_16.1.5/os/rt/include/chsys.h"
 701              		.file 16 "/home/maciek/ChibiOS_16.1.5/os/ext/CMSIS/include/core_cm3.h"
 702              		.section	.debug_info,"",%progbits
 703              	.Ldebug_info0:
 704 0000 D70E0000 		.4byte	0xed7
 705 0004 0400     		.2byte	0x4
 706 0006 00000000 		.4byte	.Ldebug_abbrev0
 707 000a 04       		.byte	0x4
 708 000b 01       		.uleb128 0x1
 709 000c 3A030000 		.4byte	.LASF131
 710 0010 01       		.byte	0x1
 711 0011 22050000 		.4byte	.LASF132
 712 0015 D0000000 		.4byte	.Ldebug_ranges0+0xd0
 713 0019 00000000 		.4byte	0
 714 001d 00000000 		.4byte	.Ldebug_line0
 715 0021 02       		.uleb128 0x2
 716 0022 04       		.byte	0x4
 717 0023 05       		.byte	0x5
 718 0024 696E7400 		.ascii	"int\000"
 719 0028 03       		.uleb128 0x3
 720 0029 04       		.byte	0x4
 721 002a 07       		.byte	0x7
 722 002b 9C000000 		.4byte	.LASF0
 723 002f 03       		.uleb128 0x3
 724 0030 01       		.byte	0x1
 725 0031 06       		.byte	0x6
 726 0032 68060000 		.4byte	.LASF1
 727 0036 04       		.uleb128 0x4
 728 0037 18050000 		.4byte	.LASF4
 729 003b 06       		.byte	0x6
 730 003c 1D       		.byte	0x1d
 731 003d 41000000 		.4byte	0x41
 732 0041 03       		.uleb128 0x3
 733 0042 01       		.byte	0x1
 734 0043 08       		.byte	0x8
 735 0044 F1050000 		.4byte	.LASF2
 736 0048 03       		.uleb128 0x3
 737 0049 02       		.byte	0x2
 738 004a 05       		.byte	0x5
 739 004b 9B040000 		.4byte	.LASF3
 740 004f 04       		.uleb128 0x4
 741 0050 BE010000 		.4byte	.LASF5
ARM GAS  /tmp/ccH1CDLU.s 			page 14


 742 0054 06       		.byte	0x6
 743 0055 2B       		.byte	0x2b
 744 0056 5A000000 		.4byte	0x5a
 745 005a 03       		.uleb128 0x3
 746 005b 02       		.byte	0x2
 747 005c 07       		.byte	0x7
 748 005d 74060000 		.4byte	.LASF6
 749 0061 04       		.uleb128 0x4
 750 0062 B8000000 		.4byte	.LASF7
 751 0066 06       		.byte	0x6
 752 0067 3F       		.byte	0x3f
 753 0068 6C000000 		.4byte	0x6c
 754 006c 03       		.uleb128 0x3
 755 006d 04       		.byte	0x4
 756 006e 05       		.byte	0x5
 757 006f C2040000 		.4byte	.LASF8
 758 0073 04       		.uleb128 0x4
 759 0074 FF050000 		.4byte	.LASF9
 760 0078 06       		.byte	0x6
 761 0079 41       		.byte	0x41
 762 007a 7E000000 		.4byte	0x7e
 763 007e 03       		.uleb128 0x3
 764 007f 04       		.byte	0x4
 765 0080 07       		.byte	0x7
 766 0081 9B050000 		.4byte	.LASF10
 767 0085 03       		.uleb128 0x3
 768 0086 08       		.byte	0x8
 769 0087 05       		.byte	0x5
 770 0088 1E030000 		.4byte	.LASF11
 771 008c 04       		.uleb128 0x4
 772 008d 36020000 		.4byte	.LASF12
 773 0091 06       		.byte	0x6
 774 0092 5B       		.byte	0x5b
 775 0093 97000000 		.4byte	0x97
 776 0097 03       		.uleb128 0x3
 777 0098 08       		.byte	0x8
 778 0099 07       		.byte	0x7
 779 009a A7010000 		.4byte	.LASF13
 780 009e 04       		.uleb128 0x4
 781 009f DD020000 		.4byte	.LASF14
 782 00a3 07       		.byte	0x7
 783 00a4 14       		.byte	0x14
 784 00a5 36000000 		.4byte	0x36
 785 00a9 04       		.uleb128 0x4
 786 00aa 76040000 		.4byte	.LASF15
 787 00ae 07       		.byte	0x7
 788 00af 1A       		.byte	0x1a
 789 00b0 4F000000 		.4byte	0x4f
 790 00b4 04       		.uleb128 0x4
 791 00b5 CF050000 		.4byte	.LASF16
 792 00b9 07       		.byte	0x7
 793 00ba 1F       		.byte	0x1f
 794 00bb 61000000 		.4byte	0x61
 795 00bf 04       		.uleb128 0x4
 796 00c0 53010000 		.4byte	.LASF17
 797 00c4 07       		.byte	0x7
 798 00c5 20       		.byte	0x20
ARM GAS  /tmp/ccH1CDLU.s 			page 15


 799 00c6 73000000 		.4byte	0x73
 800 00ca 04       		.uleb128 0x4
 801 00cb 03050000 		.4byte	.LASF18
 802 00cf 07       		.byte	0x7
 803 00d0 26       		.byte	0x26
 804 00d1 8C000000 		.4byte	0x8c
 805 00d5 04       		.uleb128 0x4
 806 00d6 7F040000 		.4byte	.LASF19
 807 00da 08       		.byte	0x8
 808 00db 39       		.byte	0x39
 809 00dc BF000000 		.4byte	0xbf
 810 00e0 04       		.uleb128 0x4
 811 00e1 63040000 		.4byte	.LASF20
 812 00e5 08       		.byte	0x8
 813 00e6 3C       		.byte	0x3c
 814 00e7 9E000000 		.4byte	0x9e
 815 00eb 04       		.uleb128 0x4
 816 00ec CC020000 		.4byte	.LASF21
 817 00f0 08       		.byte	0x8
 818 00f1 3D       		.byte	0x3d
 819 00f2 9E000000 		.4byte	0x9e
 820 00f6 04       		.uleb128 0x4
 821 00f7 93050000 		.4byte	.LASF22
 822 00fb 08       		.byte	0x8
 823 00fc 3E       		.byte	0x3e
 824 00fd 9E000000 		.4byte	0x9e
 825 0101 04       		.uleb128 0x4
 826 0102 83010000 		.4byte	.LASF23
 827 0106 08       		.byte	0x8
 828 0107 40       		.byte	0x40
 829 0108 BF000000 		.4byte	0xbf
 830 010c 04       		.uleb128 0x4
 831 010d 34030000 		.4byte	.LASF24
 832 0111 08       		.byte	0x8
 833 0112 41       		.byte	0x41
 834 0113 B4000000 		.4byte	0xb4
 835 0117 04       		.uleb128 0x4
 836 0118 5C010000 		.4byte	.LASF25
 837 011c 08       		.byte	0x8
 838 011d 43       		.byte	0x43
 839 011e BF000000 		.4byte	0xbf
 840 0122 04       		.uleb128 0x4
 841 0123 C9010000 		.4byte	.LASF26
 842 0127 08       		.byte	0x8
 843 0128 45       		.byte	0x45
 844 0129 B4000000 		.4byte	0xb4
 845 012d 04       		.uleb128 0x4
 846 012e 57000000 		.4byte	.LASF27
 847 0132 09       		.byte	0x9
 848 0133 35       		.byte	0x35
 849 0134 A9000000 		.4byte	0xa9
 850 0138 04       		.uleb128 0x4
 851 0139 FD010000 		.4byte	.LASF28
 852 013d 09       		.byte	0x9
 853 013e 3F       		.byte	0x3f
 854 013f 43010000 		.4byte	0x143
 855 0143 05       		.uleb128 0x5
ARM GAS  /tmp/ccH1CDLU.s 			page 16


 856 0144 05030000 		.4byte	.LASF45
 857 0148 38       		.byte	0x38
 858 0149 02       		.byte	0x2
 859 014a C2       		.byte	0xc2
 860 014b 0C020000 		.4byte	0x20c
 861 014f 06       		.uleb128 0x6
 862 0150 FC040000 		.4byte	.LASF29
 863 0154 02       		.byte	0x2
 864 0155 C3       		.byte	0xc3
 865 0156 17020000 		.4byte	0x217
 866 015a 00       		.byte	0
 867 015b 06       		.uleb128 0x6
 868 015c 83050000 		.4byte	.LASF30
 869 0160 02       		.byte	0x2
 870 0161 C5       		.byte	0xc5
 871 0162 17020000 		.4byte	0x217
 872 0166 04       		.byte	0x4
 873 0167 06       		.uleb128 0x6
 874 0168 50000000 		.4byte	.LASF31
 875 016c 02       		.byte	0x2
 876 016d C7       		.byte	0xc7
 877 016e 01010000 		.4byte	0x101
 878 0172 08       		.byte	0x8
 879 0173 06       		.uleb128 0x6
 880 0174 0C050000 		.4byte	.LASF32
 881 0178 02       		.byte	0x2
 882 0179 C8       		.byte	0xc8
 883 017a 2D040000 		.4byte	0x42d
 884 017e 0C       		.byte	0xc
 885 017f 06       		.uleb128 0x6
 886 0180 D5020000 		.4byte	.LASF33
 887 0184 02       		.byte	0x2
 888 0185 DD       		.byte	0xdd
 889 0186 EB000000 		.4byte	0xeb
 890 018a 10       		.byte	0x10
 891 018b 06       		.uleb128 0x6
 892 018c 1C040000 		.4byte	.LASF34
 893 0190 02       		.byte	0x2
 894 0191 E1       		.byte	0xe1
 895 0192 E0000000 		.4byte	0xe0
 896 0196 11       		.byte	0x11
 897 0197 06       		.uleb128 0x6
 898 0198 20060000 		.4byte	.LASF35
 899 019c 02       		.byte	0x2
 900 019d E6       		.byte	0xe6
 901 019e F6000000 		.4byte	0xf6
 902 01a2 12       		.byte	0x12
 903 01a3 07       		.uleb128 0x7
 904 01a4 705F7500 		.ascii	"p_u\000"
 905 01a8 02       		.byte	0x2
 906 01a9 3101     		.2byte	0x131
 907 01ab E7040000 		.4byte	0x4e7
 908 01af 14       		.byte	0x14
 909 01b0 08       		.uleb128 0x8
 910 01b1 20000000 		.4byte	.LASF36
 911 01b5 02       		.byte	0x2
 912 01b6 3601     		.2byte	0x136
ARM GAS  /tmp/ccH1CDLU.s 			page 17


 913 01b8 1D020000 		.4byte	0x21d
 914 01bc 18       		.byte	0x18
 915 01bd 08       		.uleb128 0x8
 916 01be 91000000 		.4byte	.LASF37
 917 01c2 02       		.byte	0x2
 918 01c3 3C01     		.2byte	0x13c
 919 01c5 41020000 		.4byte	0x241
 920 01c9 1C       		.byte	0x1c
 921 01ca 08       		.uleb128 0x8
 922 01cb 5D040000 		.4byte	.LASF38
 923 01cf 02       		.byte	0x2
 924 01d0 4001     		.2byte	0x140
 925 01d2 0C010000 		.4byte	0x10c
 926 01d6 24       		.byte	0x24
 927 01d7 08       		.uleb128 0x8
 928 01d8 AF040000 		.4byte	.LASF39
 929 01dc 02       		.byte	0x2
 930 01dd 4601     		.2byte	0x146
 931 01df 17010000 		.4byte	0x117
 932 01e3 28       		.byte	0x28
 933 01e4 08       		.uleb128 0x8
 934 01e5 FB020000 		.4byte	.LASF40
 935 01e9 02       		.byte	0x2
 936 01ea 4D01     		.2byte	0x14d
 937 01ec A6050000 		.4byte	0x5a6
 938 01f0 2C       		.byte	0x2c
 939 01f1 08       		.uleb128 0x8
 940 01f2 90040000 		.4byte	.LASF41
 941 01f6 02       		.byte	0x2
 942 01f7 5101     		.2byte	0x151
 943 01f9 01010000 		.4byte	0x101
 944 01fd 30       		.byte	0x30
 945 01fe 08       		.uleb128 0x8
 946 01ff F3020000 		.4byte	.LASF42
 947 0203 02       		.byte	0x2
 948 0204 5801     		.2byte	0x158
 949 0206 DA020000 		.4byte	0x2da
 950 020a 34       		.byte	0x34
 951 020b 00       		.byte	0
 952 020c 04       		.uleb128 0x4
 953 020d AA020000 		.4byte	.LASF43
 954 0211 09       		.byte	0x9
 955 0212 44       		.byte	0x44
 956 0213 17020000 		.4byte	0x217
 957 0217 09       		.uleb128 0x9
 958 0218 04       		.byte	0x4
 959 0219 38010000 		.4byte	0x138
 960 021d 04       		.uleb128 0x4
 961 021e A9000000 		.4byte	.LASF44
 962 0222 09       		.byte	0x9
 963 0223 49       		.byte	0x49
 964 0224 28020000 		.4byte	0x228
 965 0228 05       		.uleb128 0x5
 966 0229 00000000 		.4byte	.LASF46
 967 022d 04       		.byte	0x4
 968 022e 02       		.byte	0x2
 969 022f B0       		.byte	0xb0
ARM GAS  /tmp/ccH1CDLU.s 			page 18


 970 0230 41020000 		.4byte	0x241
 971 0234 06       		.uleb128 0x6
 972 0235 FC040000 		.4byte	.LASF29
 973 0239 02       		.byte	0x2
 974 023a B1       		.byte	0xb1
 975 023b 17020000 		.4byte	0x217
 976 023f 00       		.byte	0
 977 0240 00       		.byte	0
 978 0241 04       		.uleb128 0x4
 979 0242 10000000 		.4byte	.LASF47
 980 0246 09       		.byte	0x9
 981 0247 50       		.byte	0x50
 982 0248 4C020000 		.4byte	0x24c
 983 024c 05       		.uleb128 0x5
 984 024d 06010000 		.4byte	.LASF48
 985 0251 08       		.byte	0x8
 986 0252 02       		.byte	0x2
 987 0253 B7       		.byte	0xb7
 988 0254 71020000 		.4byte	0x271
 989 0258 06       		.uleb128 0x6
 990 0259 FC040000 		.4byte	.LASF29
 991 025d 02       		.byte	0x2
 992 025e B8       		.byte	0xb8
 993 025f 17020000 		.4byte	0x217
 994 0263 00       		.byte	0
 995 0264 06       		.uleb128 0x6
 996 0265 83050000 		.4byte	.LASF30
 997 0269 02       		.byte	0x2
 998 026a B9       		.byte	0xb9
 999 026b 17020000 		.4byte	0x217
 1000 026f 04       		.byte	0x4
 1001 0270 00       		.byte	0
 1002 0271 04       		.uleb128 0x4
 1003 0272 AD050000 		.4byte	.LASF49
 1004 0276 09       		.byte	0x9
 1005 0277 57       		.byte	0x57
 1006 0278 7C020000 		.4byte	0x27c
 1007 027c 0A       		.uleb128 0xa
 1008 027d DA000000 		.4byte	.LASF50
 1009 0281 14       		.byte	0x14
 1010 0282 02       		.byte	0x2
 1011 0283 9001     		.2byte	0x190
 1012 0285 BE020000 		.4byte	0x2be
 1013 0289 08       		.uleb128 0x8
 1014 028a 2C030000 		.4byte	.LASF51
 1015 028e 02       		.byte	0x2
 1016 028f 9101     		.2byte	0x191
 1017 0291 41020000 		.4byte	0x241
 1018 0295 00       		.byte	0
 1019 0296 08       		.uleb128 0x8
 1020 0297 68010000 		.4byte	.LASF52
 1021 029b 02       		.byte	0x2
 1022 029c 9201     		.2byte	0x192
 1023 029e 01010000 		.4byte	0x101
 1024 02a2 08       		.byte	0x8
 1025 02a3 08       		.uleb128 0x8
 1026 02a4 87060000 		.4byte	.LASF53
ARM GAS  /tmp/ccH1CDLU.s 			page 19


 1027 02a8 02       		.byte	0x2
 1028 02a9 9401     		.2byte	0x194
 1029 02ab 2D040000 		.4byte	0x42d
 1030 02af 0C       		.byte	0xc
 1031 02b0 08       		.uleb128 0x8
 1032 02b1 A5040000 		.4byte	.LASF54
 1033 02b5 02       		.byte	0x2
 1034 02b6 9B01     		.2byte	0x19b
 1035 02b8 17020000 		.4byte	0x217
 1036 02bc 10       		.byte	0x10
 1037 02bd 00       		.byte	0
 1038 02be 04       		.uleb128 0x4
 1039 02bf 17010000 		.4byte	.LASF55
 1040 02c3 09       		.byte	0x9
 1041 02c4 5C       		.byte	0x5c
 1042 02c5 C9020000 		.4byte	0x2c9
 1043 02c9 09       		.uleb128 0x9
 1044 02ca 04       		.byte	0x4
 1045 02cb CF020000 		.4byte	0x2cf
 1046 02cf 0B       		.uleb128 0xb
 1047 02d0 DA020000 		.4byte	0x2da
 1048 02d4 0C       		.uleb128 0xc
 1049 02d5 DA020000 		.4byte	0x2da
 1050 02d9 00       		.byte	0
 1051 02da 0D       		.uleb128 0xd
 1052 02db 04       		.byte	0x4
 1053 02dc 04       		.uleb128 0x4
 1054 02dd 24040000 		.4byte	.LASF56
 1055 02e1 09       		.byte	0x9
 1056 02e2 61       		.byte	0x61
 1057 02e3 E7020000 		.4byte	0x2e7
 1058 02e7 0A       		.uleb128 0xa
 1059 02e8 8B010000 		.4byte	.LASF57
 1060 02ec 14       		.byte	0x14
 1061 02ed 02       		.byte	0x2
 1062 02ee 6B01     		.2byte	0x16b
 1063 02f0 36030000 		.4byte	0x336
 1064 02f4 08       		.uleb128 0x8
 1065 02f5 47060000 		.4byte	.LASF58
 1066 02f9 02       		.byte	0x2
 1067 02fa 6C01     		.2byte	0x16c
 1068 02fc AC050000 		.4byte	0x5ac
 1069 0300 00       		.byte	0
 1070 0301 08       		.uleb128 0x8
 1071 0302 CD060000 		.4byte	.LASF59
 1072 0306 02       		.byte	0x2
 1073 0307 6D01     		.2byte	0x16d
 1074 0309 AC050000 		.4byte	0x5ac
 1075 030d 04       		.byte	0x4
 1076 030e 08       		.uleb128 0x8
 1077 030f 7E020000 		.4byte	.LASF60
 1078 0313 02       		.byte	0x2
 1079 0314 6E01     		.2byte	0x16e
 1080 0316 2D010000 		.4byte	0x12d
 1081 031a 08       		.byte	0x8
 1082 031b 08       		.uleb128 0x8
 1083 031c B9060000 		.4byte	.LASF61
ARM GAS  /tmp/ccH1CDLU.s 			page 20


 1084 0320 02       		.byte	0x2
 1085 0321 6F01     		.2byte	0x16f
 1086 0323 BE020000 		.4byte	0x2be
 1087 0327 0C       		.byte	0xc
 1088 0328 08       		.uleb128 0x8
 1089 0329 6F010000 		.4byte	.LASF62
 1090 032d 02       		.byte	0x2
 1091 032e 7101     		.2byte	0x171
 1092 0330 DA020000 		.4byte	0x2da
 1093 0334 10       		.byte	0x10
 1094 0335 00       		.byte	0
 1095 0336 04       		.uleb128 0x4
 1096 0337 0A060000 		.4byte	.LASF63
 1097 033b 09       		.byte	0x9
 1098 033c 66       		.byte	0x66
 1099 033d 41030000 		.4byte	0x341
 1100 0341 0A       		.uleb128 0xa
 1101 0342 E6010000 		.4byte	.LASF64
 1102 0346 0C       		.byte	0xc
 1103 0347 02       		.byte	0x2
 1104 0348 7B01     		.2byte	0x17b
 1105 034a 83030000 		.4byte	0x383
 1106 034e 08       		.uleb128 0x8
 1107 034f 47060000 		.4byte	.LASF58
 1108 0353 02       		.byte	0x2
 1109 0354 7C01     		.2byte	0x17c
 1110 0356 AC050000 		.4byte	0x5ac
 1111 035a 00       		.byte	0
 1112 035b 08       		.uleb128 0x8
 1113 035c CD060000 		.4byte	.LASF59
 1114 0360 02       		.byte	0x2
 1115 0361 7E01     		.2byte	0x17e
 1116 0363 AC050000 		.4byte	0x5ac
 1117 0367 04       		.byte	0x4
 1118 0368 08       		.uleb128 0x8
 1119 0369 7E020000 		.4byte	.LASF60
 1120 036d 02       		.byte	0x2
 1121 036e 8001     		.2byte	0x180
 1122 0370 2D010000 		.4byte	0x12d
 1123 0374 08       		.byte	0x8
 1124 0375 08       		.uleb128 0x8
 1125 0376 86000000 		.4byte	.LASF65
 1126 037a 02       		.byte	0x2
 1127 037b 8201     		.2byte	0x182
 1128 037d B2050000 		.4byte	0x5b2
 1129 0381 0A       		.byte	0xa
 1130 0382 00       		.byte	0
 1131 0383 04       		.uleb128 0x4
 1132 0384 0F030000 		.4byte	.LASF66
 1133 0388 09       		.byte	0x9
 1134 0389 6B       		.byte	0x6b
 1135 038a 8E030000 		.4byte	0x38e
 1136 038e 0A       		.uleb128 0xa
 1137 038f 32010000 		.4byte	.LASF67
 1138 0393 04       		.byte	0x4
 1139 0394 02       		.byte	0x2
 1140 0395 A201     		.2byte	0x1a2
ARM GAS  /tmp/ccH1CDLU.s 			page 21


 1141 0397 A9030000 		.4byte	0x3a9
 1142 039b 08       		.uleb128 0x8
 1143 039c 53040000 		.4byte	.LASF68
 1144 03a0 02       		.byte	0x2
 1145 03a1 AA01     		.2byte	0x1aa
 1146 03a3 B7050000 		.4byte	0x5b7
 1147 03a7 00       		.byte	0
 1148 03a8 00       		.byte	0
 1149 03a9 04       		.uleb128 0x4
 1150 03aa 4F060000 		.4byte	.LASF69
 1151 03ae 09       		.byte	0x9
 1152 03af 70       		.byte	0x70
 1153 03b0 B4030000 		.4byte	0x3b4
 1154 03b4 0E       		.uleb128 0xe
 1155 03b5 E4040000 		.4byte	.LASF70
 1156 03b9 3001     		.2byte	0x130
 1157 03bb 02       		.byte	0x2
 1158 03bc C201     		.2byte	0x1c2
 1159 03be 10040000 		.4byte	0x410
 1160 03c2 08       		.uleb128 0x8
 1161 03c3 12050000 		.4byte	.LASF71
 1162 03c7 02       		.byte	0x2
 1163 03c8 C601     		.2byte	0x1c6
 1164 03ca 71020000 		.4byte	0x271
 1165 03ce 00       		.byte	0
 1166 03cf 08       		.uleb128 0x8
 1167 03d0 D3000000 		.4byte	.LASF72
 1168 03d4 02       		.byte	0x2
 1169 03d5 CA01     		.2byte	0x1ca
 1170 03d7 36030000 		.4byte	0x336
 1171 03db 14       		.byte	0x14
 1172 03dc 07       		.uleb128 0x7
 1173 03dd 64626700 		.ascii	"dbg\000"
 1174 03e1 02       		.byte	0x2
 1175 03e2 CE01     		.2byte	0x1ce
 1176 03e4 83030000 		.4byte	0x383
 1177 03e8 20       		.byte	0x20
 1178 03e9 08       		.uleb128 0x8
 1179 03ea 6B040000 		.4byte	.LASF73
 1180 03ee 02       		.byte	0x2
 1181 03ef D201     		.2byte	0x1d2
 1182 03f1 38010000 		.4byte	0x138
 1183 03f5 24       		.byte	0x24
 1184 03f6 07       		.uleb128 0x7
 1185 03f7 746D00   		.ascii	"tm\000"
 1186 03fa 02       		.byte	0x2
 1187 03fb D701     		.2byte	0x1d7
 1188 03fd DC040000 		.4byte	0x4dc
 1189 0401 5C       		.byte	0x5c
 1190 0402 08       		.uleb128 0x8
 1191 0403 E8000000 		.4byte	.LASF74
 1192 0407 02       		.byte	0x2
 1193 0408 E301     		.2byte	0x1e3
 1194 040a CE050000 		.4byte	0x5ce
 1195 040e 60       		.byte	0x60
 1196 040f 00       		.byte	0
 1197 0410 03       		.uleb128 0x3
ARM GAS  /tmp/ccH1CDLU.s 			page 22


 1198 0411 04       		.byte	0x4
 1199 0412 07       		.byte	0x7
 1200 0413 8A050000 		.4byte	.LASF75
 1201 0417 04       		.uleb128 0x4
 1202 0418 47000000 		.4byte	.LASF76
 1203 041c 0A       		.byte	0xa
 1204 041d 65       		.byte	0x65
 1205 041e DA020000 		.4byte	0x2da
 1206 0422 04       		.uleb128 0x4
 1207 0423 8D060000 		.4byte	.LASF77
 1208 0427 0A       		.byte	0xa
 1209 0428 6D       		.byte	0x6d
 1210 0429 CA000000 		.4byte	0xca
 1211 042d 05       		.uleb128 0x5
 1212 042e 14040000 		.4byte	.LASF78
 1213 0432 04       		.byte	0x4
 1214 0433 0A       		.byte	0xa
 1215 0434 89       		.byte	0x89
 1216 0435 46040000 		.4byte	0x446
 1217 0439 0F       		.uleb128 0xf
 1218 043a 72313300 		.ascii	"r13\000"
 1219 043e 0A       		.byte	0xa
 1220 043f 8A       		.byte	0x8a
 1221 0440 C1040000 		.4byte	0x4c1
 1222 0444 00       		.byte	0
 1223 0445 00       		.byte	0
 1224 0446 05       		.uleb128 0x5
 1225 0447 CB040000 		.4byte	.LASF79
 1226 044b 24       		.byte	0x24
 1227 044c 0B       		.byte	0xb
 1228 044d FD       		.byte	0xfd
 1229 044e C1040000 		.4byte	0x4c1
 1230 0452 07       		.uleb128 0x7
 1231 0453 723400   		.ascii	"r4\000"
 1232 0456 0B       		.byte	0xb
 1233 0457 1001     		.2byte	0x110
 1234 0459 17040000 		.4byte	0x417
 1235 045d 00       		.byte	0
 1236 045e 07       		.uleb128 0x7
 1237 045f 723500   		.ascii	"r5\000"
 1238 0462 0B       		.byte	0xb
 1239 0463 1101     		.2byte	0x111
 1240 0465 17040000 		.4byte	0x417
 1241 0469 04       		.byte	0x4
 1242 046a 07       		.uleb128 0x7
 1243 046b 723600   		.ascii	"r6\000"
 1244 046e 0B       		.byte	0xb
 1245 046f 1201     		.2byte	0x112
 1246 0471 17040000 		.4byte	0x417
 1247 0475 08       		.byte	0x8
 1248 0476 07       		.uleb128 0x7
 1249 0477 723700   		.ascii	"r7\000"
 1250 047a 0B       		.byte	0xb
 1251 047b 1301     		.2byte	0x113
 1252 047d 17040000 		.4byte	0x417
 1253 0481 0C       		.byte	0xc
 1254 0482 07       		.uleb128 0x7
ARM GAS  /tmp/ccH1CDLU.s 			page 23


 1255 0483 723800   		.ascii	"r8\000"
 1256 0486 0B       		.byte	0xb
 1257 0487 1401     		.2byte	0x114
 1258 0489 17040000 		.4byte	0x417
 1259 048d 10       		.byte	0x10
 1260 048e 07       		.uleb128 0x7
 1261 048f 723900   		.ascii	"r9\000"
 1262 0492 0B       		.byte	0xb
 1263 0493 1501     		.2byte	0x115
 1264 0495 17040000 		.4byte	0x417
 1265 0499 14       		.byte	0x14
 1266 049a 07       		.uleb128 0x7
 1267 049b 72313000 		.ascii	"r10\000"
 1268 049f 0B       		.byte	0xb
 1269 04a0 1601     		.2byte	0x116
 1270 04a2 17040000 		.4byte	0x417
 1271 04a6 18       		.byte	0x18
 1272 04a7 07       		.uleb128 0x7
 1273 04a8 72313100 		.ascii	"r11\000"
 1274 04ac 0B       		.byte	0xb
 1275 04ad 1701     		.2byte	0x117
 1276 04af 17040000 		.4byte	0x417
 1277 04b3 1C       		.byte	0x1c
 1278 04b4 07       		.uleb128 0x7
 1279 04b5 6C7200   		.ascii	"lr\000"
 1280 04b8 0B       		.byte	0xb
 1281 04b9 1801     		.2byte	0x118
 1282 04bb 17040000 		.4byte	0x417
 1283 04bf 20       		.byte	0x20
 1284 04c0 00       		.byte	0
 1285 04c1 09       		.uleb128 0x9
 1286 04c2 04       		.byte	0x4
 1287 04c3 46040000 		.4byte	0x446
 1288 04c7 10       		.uleb128 0x10
 1289 04c8 04       		.byte	0x4
 1290 04c9 0C       		.byte	0xc
 1291 04ca 38       		.byte	0x38
 1292 04cb DC040000 		.4byte	0x4dc
 1293 04cf 06       		.uleb128 0x6
 1294 04d0 0D020000 		.4byte	.LASF80
 1295 04d4 0C       		.byte	0xc
 1296 04d5 3C       		.byte	0x3c
 1297 04d6 D5000000 		.4byte	0xd5
 1298 04da 00       		.byte	0
 1299 04db 00       		.byte	0
 1300 04dc 04       		.uleb128 0x4
 1301 04dd 31000000 		.4byte	.LASF81
 1302 04e1 0C       		.byte	0xc
 1303 04e2 3D       		.byte	0x3d
 1304 04e3 C7040000 		.4byte	0x4c7
 1305 04e7 11       		.uleb128 0x11
 1306 04e8 04       		.byte	0x4
 1307 04e9 02       		.byte	0x2
 1308 04ea FA       		.byte	0xfa
 1309 04eb 44050000 		.4byte	0x544
 1310 04ef 12       		.uleb128 0x12
 1311 04f0 06020000 		.4byte	.LASF82
ARM GAS  /tmp/ccH1CDLU.s 			page 24


 1312 04f4 02       		.byte	0x2
 1313 04f5 0101     		.2byte	0x101
 1314 04f7 0C010000 		.4byte	0x10c
 1315 04fb 12       		.uleb128 0x12
 1316 04fc D5060000 		.4byte	.LASF83
 1317 0500 02       		.byte	0x2
 1318 0501 0801     		.2byte	0x108
 1319 0503 0C010000 		.4byte	0x10c
 1320 0507 12       		.uleb128 0x12
 1321 0508 C2000000 		.4byte	.LASF84
 1322 050c 02       		.byte	0x2
 1323 050d 0F01     		.2byte	0x10f
 1324 050f DA020000 		.4byte	0x2da
 1325 0513 12       		.uleb128 0x12
 1326 0514 5B060000 		.4byte	.LASF85
 1327 0518 02       		.byte	0x2
 1328 0519 1601     		.2byte	0x116
 1329 051b 44050000 		.4byte	0x544
 1330 051f 12       		.uleb128 0x12
 1331 0520 D7050000 		.4byte	.LASF86
 1332 0524 02       		.byte	0x2
 1333 0525 1E01     		.2byte	0x11e
 1334 0527 6F050000 		.4byte	0x56f
 1335 052b 12       		.uleb128 0x12
 1336 052c 2A000000 		.4byte	.LASF87
 1337 0530 02       		.byte	0x2
 1338 0531 2701     		.2byte	0x127
 1339 0533 A6050000 		.4byte	0x5a6
 1340 0537 12       		.uleb128 0x12
 1341 0538 F7000000 		.4byte	.LASF88
 1342 053c 02       		.byte	0x2
 1343 053d 2F01     		.2byte	0x12f
 1344 053f 17010000 		.4byte	0x117
 1345 0543 00       		.byte	0
 1346 0544 09       		.uleb128 0x9
 1347 0545 04       		.byte	0x4
 1348 0546 0C020000 		.4byte	0x20c
 1349 054a 05       		.uleb128 0x5
 1350 054b 76010000 		.4byte	.LASF89
 1351 054f 0C       		.byte	0xc
 1352 0550 0D       		.byte	0xd
 1353 0551 34       		.byte	0x34
 1354 0552 6F050000 		.4byte	0x56f
 1355 0556 06       		.uleb128 0x6
 1356 0557 7E000000 		.4byte	.LASF90
 1357 055b 0D       		.byte	0xd
 1358 055c 35       		.byte	0x35
 1359 055d 41020000 		.4byte	0x241
 1360 0561 00       		.byte	0
 1361 0562 06       		.uleb128 0x6
 1362 0563 2C010000 		.4byte	.LASF91
 1363 0567 0D       		.byte	0xd
 1364 0568 37       		.byte	0x37
 1365 0569 22010000 		.4byte	0x122
 1366 056d 08       		.byte	0x8
 1367 056e 00       		.byte	0
 1368 056f 09       		.uleb128 0x9
ARM GAS  /tmp/ccH1CDLU.s 			page 25


 1369 0570 04       		.byte	0x4
 1370 0571 4A050000 		.4byte	0x54a
 1371 0575 05       		.uleb128 0x5
 1372 0576 2D020000 		.4byte	.LASF92
 1373 057a 10       		.byte	0x10
 1374 057b 04       		.byte	0x4
 1375 057c 39       		.byte	0x39
 1376 057d A6050000 		.4byte	0x5a6
 1377 0581 06       		.uleb128 0x6
 1378 0582 BA040000 		.4byte	.LASF93
 1379 0586 04       		.byte	0x4
 1380 0587 3A       		.byte	0x3a
 1381 0588 41020000 		.4byte	0x241
 1382 058c 00       		.byte	0
 1383 058d 06       		.uleb128 0x6
 1384 058e 76000000 		.4byte	.LASF94
 1385 0592 04       		.byte	0x4
 1386 0593 3C       		.byte	0x3c
 1387 0594 17020000 		.4byte	0x217
 1388 0598 08       		.byte	0x8
 1389 0599 06       		.uleb128 0x6
 1390 059a 61060000 		.4byte	.LASF95
 1391 059e 04       		.byte	0x4
 1392 059f 3E       		.byte	0x3e
 1393 05a0 E9050000 		.4byte	0x5e9
 1394 05a4 0C       		.byte	0xc
 1395 05a5 00       		.byte	0
 1396 05a6 09       		.uleb128 0x9
 1397 05a7 04       		.byte	0x4
 1398 05a8 75050000 		.4byte	0x575
 1399 05ac 09       		.uleb128 0x9
 1400 05ad 04       		.byte	0x4
 1401 05ae DC020000 		.4byte	0x2dc
 1402 05b2 13       		.uleb128 0x13
 1403 05b3 2D010000 		.4byte	0x12d
 1404 05b7 13       		.uleb128 0x13
 1405 05b8 BC050000 		.4byte	0x5bc
 1406 05bc 09       		.uleb128 0x9
 1407 05bd 04       		.byte	0x4
 1408 05be C2050000 		.4byte	0x5c2
 1409 05c2 14       		.uleb128 0x14
 1410 05c3 C7050000 		.4byte	0x5c7
 1411 05c7 03       		.uleb128 0x3
 1412 05c8 01       		.byte	0x1
 1413 05c9 08       		.byte	0x8
 1414 05ca 42000000 		.4byte	.LASF96
 1415 05ce 15       		.uleb128 0x15
 1416 05cf 22040000 		.4byte	0x422
 1417 05d3 DE050000 		.4byte	0x5de
 1418 05d7 16       		.uleb128 0x16
 1419 05d8 10040000 		.4byte	0x410
 1420 05dc 19       		.byte	0x19
 1421 05dd 00       		.byte	0
 1422 05de 04       		.uleb128 0x4
 1423 05df DE050000 		.4byte	.LASF97
 1424 05e3 04       		.byte	0x4
 1425 05e4 34       		.byte	0x34
ARM GAS  /tmp/ccH1CDLU.s 			page 26


 1426 05e5 75050000 		.4byte	0x575
 1427 05e9 09       		.uleb128 0x9
 1428 05ea 04       		.byte	0x4
 1429 05eb DE050000 		.4byte	0x5de
 1430 05ef 05       		.uleb128 0x5
 1431 05f0 1A020000 		.4byte	.LASF98
 1432 05f4 08       		.byte	0x8
 1433 05f5 0E       		.byte	0xe
 1434 05f6 3B       		.byte	0x3b
 1435 05f7 08060000 		.4byte	0x608
 1436 05fb 06       		.uleb128 0x6
 1437 05fc FE000000 		.4byte	.LASF99
 1438 0600 0E       		.byte	0xe
 1439 0601 3C       		.byte	0x3c
 1440 0602 41020000 		.4byte	0x241
 1441 0606 00       		.byte	0
 1442 0607 00       		.byte	0
 1443 0608 04       		.uleb128 0x4
 1444 0609 61000000 		.4byte	.LASF100
 1445 060d 0E       		.byte	0xe
 1446 060e 3E       		.byte	0x3e
 1447 060f EF050000 		.4byte	0x5ef
 1448 0613 17       		.uleb128 0x17
 1449 0614 EE040000 		.4byte	.LASF103
 1450 0618 03       		.byte	0x3
 1451 0619 2202     		.2byte	0x222
 1452 061b 03       		.byte	0x3
 1453 061c 2D060000 		.4byte	0x62d
 1454 0620 18       		.uleb128 0x18
 1455 0621 E0010000 		.4byte	.LASF105
 1456 0625 03       		.byte	0x3
 1457 0626 2202     		.2byte	0x222
 1458 0628 BF000000 		.4byte	0xbf
 1459 062c 00       		.byte	0
 1460 062d 19       		.uleb128 0x19
 1461 062e C9000000 		.4byte	.LASF101
 1462 0632 0B       		.byte	0xb
 1463 0633 C801     		.2byte	0x1c8
 1464 0635 03       		.byte	0x3
 1465 0636 19       		.uleb128 0x19
 1466 0637 C1060000 		.4byte	.LASF102
 1467 063b 0B       		.byte	0xb
 1468 063c E001     		.2byte	0x1e0
 1469 063e 03       		.byte	0x3
 1470 063f 1A       		.uleb128 0x1a
 1471 0640 AB060000 		.4byte	.LASF112
 1472 0644 05       		.byte	0x5
 1473 0645 AE       		.byte	0xae
 1474 0646 17020000 		.4byte	0x217
 1475 064a 03       		.byte	0x3
 1476 064b 17       		.uleb128 0x17
 1477 064c E6050000 		.4byte	.LASF104
 1478 0650 02       		.byte	0x2
 1479 0651 5A02     		.2byte	0x25a
 1480 0653 03       		.byte	0x3
 1481 0654 65060000 		.4byte	0x665
 1482 0658 1B       		.uleb128 0x1b
ARM GAS  /tmp/ccH1CDLU.s 			page 27


 1483 0659 74717000 		.ascii	"tqp\000"
 1484 065d 02       		.byte	0x2
 1485 065e 5A02     		.2byte	0x25a
 1486 0660 65060000 		.4byte	0x665
 1487 0664 00       		.byte	0
 1488 0665 09       		.uleb128 0x9
 1489 0666 04       		.byte	0x4
 1490 0667 41020000 		.4byte	0x241
 1491 066b 19       		.uleb128 0x19
 1492 066c 62020000 		.4byte	.LASF106
 1493 0670 0F       		.byte	0xf
 1494 0671 5A01     		.2byte	0x15a
 1495 0673 03       		.byte	0x3
 1496 0674 1C       		.uleb128 0x1c
 1497 0675 BD020000 		.4byte	.LASF108
 1498 0679 02       		.byte	0x2
 1499 067a 7502     		.2byte	0x275
 1500 067c 92060000 		.4byte	0x692
 1501 0680 03       		.byte	0x3
 1502 0681 92060000 		.4byte	0x692
 1503 0685 1B       		.uleb128 0x1b
 1504 0686 74717000 		.ascii	"tqp\000"
 1505 068a 02       		.byte	0x2
 1506 068b 7502     		.2byte	0x275
 1507 068d 99060000 		.4byte	0x699
 1508 0691 00       		.byte	0
 1509 0692 03       		.uleb128 0x3
 1510 0693 01       		.byte	0x1
 1511 0694 02       		.byte	0x2
 1512 0695 14020000 		.4byte	.LASF107
 1513 0699 09       		.uleb128 0x9
 1514 069a 04       		.byte	0x4
 1515 069b 9F060000 		.4byte	0x69f
 1516 069f 14       		.uleb128 0x14
 1517 06a0 41020000 		.4byte	0x241
 1518 06a4 1C       		.uleb128 0x1c
 1519 06a5 41040000 		.4byte	.LASF109
 1520 06a9 02       		.byte	0x2
 1521 06aa 9F02     		.2byte	0x29f
 1522 06ac 17020000 		.4byte	0x217
 1523 06b0 03       		.byte	0x3
 1524 06b1 CD060000 		.4byte	0x6cd
 1525 06b5 1B       		.uleb128 0x1b
 1526 06b6 74717000 		.ascii	"tqp\000"
 1527 06ba 02       		.byte	0x2
 1528 06bb 9F02     		.2byte	0x29f
 1529 06bd 65060000 		.4byte	0x665
 1530 06c1 1D       		.uleb128 0x1d
 1531 06c2 747000   		.ascii	"tp\000"
 1532 06c5 02       		.byte	0x2
 1533 06c6 A002     		.2byte	0x2a0
 1534 06c8 17020000 		.4byte	0x217
 1535 06cc 00       		.byte	0
 1536 06cd 17       		.uleb128 0x17
 1537 06ce CF010000 		.4byte	.LASF110
 1538 06d2 0F       		.byte	0xf
 1539 06d3 6601     		.2byte	0x166
ARM GAS  /tmp/ccH1CDLU.s 			page 28


 1540 06d5 03       		.byte	0x3
 1541 06d6 E8060000 		.4byte	0x6e8
 1542 06da 1E       		.uleb128 0x1e
 1543 06db 87040000 		.4byte	.LASF111
 1544 06df F8060000 		.4byte	0x6f8
 1545 06e3 CF010000 		.4byte	.LASF110
 1546 06e7 00       		.byte	0
 1547 06e8 15       		.uleb128 0x15
 1548 06e9 C7050000 		.4byte	0x5c7
 1549 06ed F8060000 		.4byte	0x6f8
 1550 06f1 16       		.uleb128 0x16
 1551 06f2 10040000 		.4byte	0x410
 1552 06f6 0B       		.byte	0xb
 1553 06f7 00       		.byte	0
 1554 06f8 14       		.uleb128 0x14
 1555 06f9 E8060000 		.4byte	0x6e8
 1556 06fd 1A       		.uleb128 0x1a
 1557 06fe 27060000 		.4byte	.LASF113
 1558 0702 04       		.byte	0x4
 1559 0703 90       		.byte	0x90
 1560 0704 E9050000 		.4byte	0x5e9
 1561 0708 03       		.byte	0x3
 1562 0709 17       		.uleb128 0x17
 1563 070a 6C020000 		.4byte	.LASF114
 1564 070e 02       		.byte	0x2
 1565 070f 8B02     		.2byte	0x28b
 1566 0711 03       		.byte	0x3
 1567 0712 39070000 		.4byte	0x739
 1568 0716 1B       		.uleb128 0x1b
 1569 0717 747000   		.ascii	"tp\000"
 1570 071a 02       		.byte	0x2
 1571 071b 8B02     		.2byte	0x28b
 1572 071d 17020000 		.4byte	0x217
 1573 0721 1B       		.uleb128 0x1b
 1574 0722 74717000 		.ascii	"tqp\000"
 1575 0726 02       		.byte	0x2
 1576 0727 8B02     		.2byte	0x28b
 1577 0729 65060000 		.4byte	0x665
 1578 072d 1D       		.uleb128 0x1d
 1579 072e 637000   		.ascii	"cp\000"
 1580 0731 02       		.byte	0x2
 1581 0732 8D02     		.2byte	0x28d
 1582 0734 17020000 		.4byte	0x217
 1583 0738 00       		.byte	0
 1584 0739 1F       		.uleb128 0x1f
 1585 073a 42010000 		.4byte	.LASF115
 1586 073e 01       		.byte	0x1
 1587 073f 4B       		.byte	0x4b
 1588 0740 00000000 		.4byte	.LFB170
 1589 0744 06000000 		.4byte	.LFE170-.LFB170
 1590 0748 01       		.uleb128 0x1
 1591 0749 9C       		.byte	0x9c
 1592 074a 7B070000 		.4byte	0x77b
 1593 074e 20       		.uleb128 0x20
 1594 074f 637000   		.ascii	"cp\000"
 1595 0752 01       		.byte	0x1
 1596 0753 4B       		.byte	0x4b
ARM GAS  /tmp/ccH1CDLU.s 			page 29


 1597 0754 7B070000 		.4byte	0x77b
 1598 0758 01       		.uleb128 0x1
 1599 0759 50       		.byte	0x50
 1600 075a 21       		.uleb128 0x21
 1601 075b 87040000 		.4byte	.LASF111
 1602 075f 91070000 		.4byte	0x791
 1603 0763 22       		.uleb128 0x22
 1604 0764 4B060000 		.4byte	0x64b
 1605 0768 00000000 		.4byte	.LBB83
 1606 076c 06000000 		.4byte	.LBE83-.LBB83
 1607 0770 01       		.byte	0x1
 1608 0771 4F       		.byte	0x4f
 1609 0772 23       		.uleb128 0x23
 1610 0773 58060000 		.4byte	0x658
 1611 0777 01       		.uleb128 0x1
 1612 0778 50       		.byte	0x50
 1613 0779 00       		.byte	0
 1614 077a 00       		.byte	0
 1615 077b 09       		.uleb128 0x9
 1616 077c 04       		.byte	0x4
 1617 077d 08060000 		.4byte	0x608
 1618 0781 15       		.uleb128 0x15
 1619 0782 C7050000 		.4byte	0x5c7
 1620 0786 91070000 		.4byte	0x791
 1621 078a 16       		.uleb128 0x16
 1622 078b 10040000 		.4byte	0x410
 1623 078f 10       		.byte	0x10
 1624 0790 00       		.byte	0
 1625 0791 14       		.uleb128 0x14
 1626 0792 81070000 		.4byte	0x781
 1627 0796 1F       		.uleb128 0x1f
 1628 0797 34040000 		.4byte	.LASF116
 1629 079b 01       		.byte	0x1
 1630 079c 59       		.byte	0x59
 1631 079d 00000000 		.4byte	.LFB171
 1632 07a1 2E000000 		.4byte	.LFE171-.LFB171
 1633 07a5 01       		.uleb128 0x1
 1634 07a6 9C       		.byte	0x9c
 1635 07a7 A2080000 		.4byte	0x8a2
 1636 07ab 24       		.uleb128 0x24
 1637 07ac 637000   		.ascii	"cp\000"
 1638 07af 01       		.byte	0x1
 1639 07b0 59       		.byte	0x59
 1640 07b1 7B070000 		.4byte	0x77b
 1641 07b5 00000000 		.4byte	.LLST0
 1642 07b9 21       		.uleb128 0x21
 1643 07ba 87040000 		.4byte	.LASF111
 1644 07be B2080000 		.4byte	0x8b2
 1645 07c2 25       		.uleb128 0x25
 1646 07c3 6B060000 		.4byte	0x66b
 1647 07c7 00000000 		.4byte	.LBB85
 1648 07cb 06000000 		.4byte	.LBE85-.LBB85
 1649 07cf 01       		.byte	0x1
 1650 07d0 5D       		.byte	0x5d
 1651 07d1 FE070000 		.4byte	0x7fe
 1652 07d5 26       		.uleb128 0x26
 1653 07d6 2D060000 		.4byte	0x62d
ARM GAS  /tmp/ccH1CDLU.s 			page 30


 1654 07da 00000000 		.4byte	.LBB86
 1655 07de 06000000 		.4byte	.LBE86-.LBB86
 1656 07e2 0F       		.byte	0xf
 1657 07e3 5C01     		.2byte	0x15c
 1658 07e5 26       		.uleb128 0x26
 1659 07e6 13060000 		.4byte	0x613
 1660 07ea 00000000 		.4byte	.LBB87
 1661 07ee 06000000 		.4byte	.LBE87-.LBB87
 1662 07f2 0B       		.byte	0xb
 1663 07f3 D001     		.2byte	0x1d0
 1664 07f5 27       		.uleb128 0x27
 1665 07f6 20060000 		.4byte	0x620
 1666 07fa 20       		.byte	0x20
 1667 07fb 00       		.byte	0
 1668 07fc 00       		.byte	0
 1669 07fd 00       		.byte	0
 1670 07fe 25       		.uleb128 0x25
 1671 07ff 74060000 		.4byte	0x674
 1672 0803 06000000 		.4byte	.LBB89
 1673 0807 02000000 		.4byte	.LBE89-.LBB89
 1674 080b 01       		.byte	0x1
 1675 080c 5E       		.byte	0x5e
 1676 080d 1B080000 		.4byte	0x81b
 1677 0811 28       		.uleb128 0x28
 1678 0812 85060000 		.4byte	0x685
 1679 0816 37000000 		.4byte	.LLST1
 1680 081a 00       		.byte	0
 1681 081b 29       		.uleb128 0x29
 1682 081c A4060000 		.4byte	0x6a4
 1683 0820 10000000 		.4byte	.LBB91
 1684 0824 00000000 		.4byte	.Ldebug_ranges0+0
 1685 0828 01       		.byte	0x1
 1686 0829 5F       		.byte	0x5f
 1687 082a 47080000 		.4byte	0x847
 1688 082e 28       		.uleb128 0x28
 1689 082f B5060000 		.4byte	0x6b5
 1690 0833 6E000000 		.4byte	.LLST2
 1691 0837 2A       		.uleb128 0x2a
 1692 0838 00000000 		.4byte	.Ldebug_ranges0+0
 1693 083c 2B       		.uleb128 0x2b
 1694 083d C1060000 		.4byte	0x6c1
 1695 0841 9A000000 		.4byte	.LLST3
 1696 0845 00       		.byte	0
 1697 0846 00       		.byte	0
 1698 0847 25       		.uleb128 0x25
 1699 0848 CD060000 		.4byte	0x6cd
 1700 084c 1E000000 		.4byte	.LBB97
 1701 0850 10000000 		.4byte	.LBE97-.LBB97
 1702 0854 01       		.byte	0x1
 1703 0855 61       		.byte	0x61
 1704 0856 92080000 		.4byte	0x892
 1705 085a 2C       		.uleb128 0x2c
 1706 085b 1E000000 		.4byte	.LBB98
 1707 085f 10000000 		.4byte	.LBE98-.LBB98
 1708 0863 2D       		.uleb128 0x2d
 1709 0864 DA060000 		.4byte	0x6da
 1710 0868 26       		.uleb128 0x26
ARM GAS  /tmp/ccH1CDLU.s 			page 31


 1711 0869 36060000 		.4byte	0x636
 1712 086d 1E000000 		.4byte	.LBB99
 1713 0871 10000000 		.4byte	.LBE99-.LBB99
 1714 0875 0F       		.byte	0xf
 1715 0876 7301     		.2byte	0x173
 1716 0878 26       		.uleb128 0x26
 1717 0879 13060000 		.4byte	0x613
 1718 087d 1E000000 		.4byte	.LBB100
 1719 0881 10000000 		.4byte	.LBE100-.LBB100
 1720 0885 0B       		.byte	0xb
 1721 0886 E301     		.2byte	0x1e3
 1722 0888 27       		.uleb128 0x27
 1723 0889 20060000 		.4byte	0x620
 1724 088d 00       		.byte	0
 1725 088e 00       		.byte	0
 1726 088f 00       		.byte	0
 1727 0890 00       		.byte	0
 1728 0891 00       		.byte	0
 1729 0892 2E       		.uleb128 0x2e
 1730 0893 1E000000 		.4byte	.LVL5
 1731 0897 5A0E0000 		.4byte	0xe5a
 1732 089b 2F       		.uleb128 0x2f
 1733 089c 01       		.uleb128 0x1
 1734 089d 51       		.byte	0x51
 1735 089e 01       		.uleb128 0x1
 1736 089f 30       		.byte	0x30
 1737 08a0 00       		.byte	0
 1738 08a1 00       		.byte	0
 1739 08a2 15       		.uleb128 0x15
 1740 08a3 C7050000 		.4byte	0x5c7
 1741 08a7 B2080000 		.4byte	0x8b2
 1742 08ab 16       		.uleb128 0x16
 1743 08ac 10040000 		.4byte	0x410
 1744 08b0 0C       		.byte	0xc
 1745 08b1 00       		.byte	0
 1746 08b2 14       		.uleb128 0x14
 1747 08b3 A2080000 		.4byte	0x8a2
 1748 08b7 1F       		.uleb128 0x1f
 1749 08b8 E5020000 		.4byte	.LASF117
 1750 08bc 01       		.byte	0x1
 1751 08bd 6F       		.byte	0x6f
 1752 08be 00000000 		.4byte	.LFB172
 1753 08c2 20000000 		.4byte	.LFE172-.LFB172
 1754 08c6 01       		.uleb128 0x1
 1755 08c7 9C       		.byte	0x9c
 1756 08c8 46090000 		.4byte	0x946
 1757 08cc 24       		.uleb128 0x24
 1758 08cd 637000   		.ascii	"cp\000"
 1759 08d0 01       		.byte	0x1
 1760 08d1 6F       		.byte	0x6f
 1761 08d2 7B070000 		.4byte	0x77b
 1762 08d6 AD000000 		.4byte	.LLST4
 1763 08da 21       		.uleb128 0x21
 1764 08db 87040000 		.4byte	.LASF111
 1765 08df 56090000 		.4byte	0x956
 1766 08e3 25       		.uleb128 0x25
 1767 08e4 74060000 		.4byte	0x674
ARM GAS  /tmp/ccH1CDLU.s 			page 32


 1768 08e8 00000000 		.4byte	.LBB102
 1769 08ec 02000000 		.4byte	.LBE102-.LBB102
 1770 08f0 01       		.byte	0x1
 1771 08f1 74       		.byte	0x74
 1772 08f2 00090000 		.4byte	0x900
 1773 08f6 28       		.uleb128 0x28
 1774 08f7 85060000 		.4byte	0x685
 1775 08fb E4000000 		.4byte	.LLST5
 1776 08ff 00       		.byte	0
 1777 0900 2A       		.uleb128 0x2a
 1778 0901 20000000 		.4byte	.Ldebug_ranges0+0x20
 1779 0905 30       		.uleb128 0x30
 1780 0906 747000   		.ascii	"tp\000"
 1781 0909 01       		.byte	0x1
 1782 090a 75       		.byte	0x75
 1783 090b 17020000 		.4byte	0x217
 1784 090f 29       		.uleb128 0x29
 1785 0910 A4060000 		.4byte	0x6a4
 1786 0914 08000000 		.4byte	.LBB105
 1787 0918 40000000 		.4byte	.Ldebug_ranges0+0x40
 1788 091c 01       		.byte	0x1
 1789 091d 75       		.byte	0x75
 1790 091e 3B090000 		.4byte	0x93b
 1791 0922 28       		.uleb128 0x28
 1792 0923 B5060000 		.4byte	0x6b5
 1793 0927 1B010000 		.4byte	.LLST6
 1794 092b 2A       		.uleb128 0x2a
 1795 092c 40000000 		.4byte	.Ldebug_ranges0+0x40
 1796 0930 2B       		.uleb128 0x2b
 1797 0931 C1060000 		.4byte	0x6c1
 1798 0935 47010000 		.4byte	.LLST7
 1799 0939 00       		.byte	0
 1800 093a 00       		.byte	0
 1801 093b 31       		.uleb128 0x31
 1802 093c 1E000000 		.4byte	.LVL11
 1803 0940 710E0000 		.4byte	0xe71
 1804 0944 00       		.byte	0
 1805 0945 00       		.byte	0
 1806 0946 15       		.uleb128 0x15
 1807 0947 C7050000 		.4byte	0x5c7
 1808 094b 56090000 		.4byte	0x956
 1809 094f 16       		.uleb128 0x16
 1810 0950 10040000 		.4byte	0x410
 1811 0954 0D       		.byte	0xd
 1812 0955 00       		.byte	0
 1813 0956 14       		.uleb128 0x14
 1814 0957 46090000 		.4byte	0x946
 1815 095b 1F       		.uleb128 0x1f
 1816 095c 87020000 		.4byte	.LASF118
 1817 0960 01       		.byte	0x1
 1818 0961 95       		.byte	0x95
 1819 0962 00000000 		.4byte	.LFB174
 1820 0966 22000000 		.4byte	.LFE174-.LFB174
 1821 096a 01       		.uleb128 0x1
 1822 096b 9C       		.byte	0x9c
 1823 096c DE090000 		.4byte	0x9de
 1824 0970 24       		.uleb128 0x24
ARM GAS  /tmp/ccH1CDLU.s 			page 33


 1825 0971 637000   		.ascii	"cp\000"
 1826 0974 01       		.byte	0x1
 1827 0975 95       		.byte	0x95
 1828 0976 7B070000 		.4byte	0x77b
 1829 097a 5A010000 		.4byte	.LLST8
 1830 097e 21       		.uleb128 0x21
 1831 097f 87040000 		.4byte	.LASF111
 1832 0983 DE090000 		.4byte	0x9de
 1833 0987 29       		.uleb128 0x29
 1834 0988 74060000 		.4byte	0x674
 1835 098c 04000000 		.4byte	.LBB111
 1836 0990 58000000 		.4byte	.Ldebug_ranges0+0x58
 1837 0994 01       		.byte	0x1
 1838 0995 9D       		.byte	0x9d
 1839 0996 A4090000 		.4byte	0x9a4
 1840 099a 28       		.uleb128 0x28
 1841 099b 85060000 		.4byte	0x685
 1842 099f 78010000 		.4byte	.LLST9
 1843 09a3 00       		.byte	0
 1844 09a4 25       		.uleb128 0x25
 1845 09a5 A4060000 		.4byte	0x6a4
 1846 09a9 0E000000 		.4byte	.LBB114
 1847 09ad 06000000 		.4byte	.LBE114-.LBB114
 1848 09b1 01       		.byte	0x1
 1849 09b2 9E       		.byte	0x9e
 1850 09b3 D4090000 		.4byte	0x9d4
 1851 09b7 28       		.uleb128 0x28
 1852 09b8 B5060000 		.4byte	0x6b5
 1853 09bc 96010000 		.4byte	.LLST10
 1854 09c0 2C       		.uleb128 0x2c
 1855 09c1 0E000000 		.4byte	.LBB115
 1856 09c5 06000000 		.4byte	.LBE115-.LBB115
 1857 09c9 2B       		.uleb128 0x2b
 1858 09ca C1060000 		.4byte	0x6c1
 1859 09ce A9010000 		.4byte	.LLST11
 1860 09d2 00       		.byte	0
 1861 09d3 00       		.byte	0
 1862 09d4 32       		.uleb128 0x32
 1863 09d5 18000000 		.4byte	.LVL16
 1864 09d9 710E0000 		.4byte	0xe71
 1865 09dd 00       		.byte	0
 1866 09de 14       		.uleb128 0x14
 1867 09df 81070000 		.4byte	0x781
 1868 09e3 1F       		.uleb128 0x1f
 1869 09e4 52020000 		.4byte	.LASF119
 1870 09e8 01       		.byte	0x1
 1871 09e9 82       		.byte	0x82
 1872 09ea 00000000 		.4byte	.LFB173
 1873 09ee 18000000 		.4byte	.LFE173-.LFB173
 1874 09f2 01       		.uleb128 0x1
 1875 09f3 9C       		.byte	0x9c
 1876 09f4 AC0A0000 		.4byte	0xaac
 1877 09f8 24       		.uleb128 0x24
 1878 09f9 637000   		.ascii	"cp\000"
 1879 09fc 01       		.byte	0x1
 1880 09fd 82       		.byte	0x82
 1881 09fe 7B070000 		.4byte	0x77b
ARM GAS  /tmp/ccH1CDLU.s 			page 34


 1882 0a02 BC010000 		.4byte	.LLST12
 1883 0a06 25       		.uleb128 0x25
 1884 0a07 6B060000 		.4byte	0x66b
 1885 0a0b 02000000 		.4byte	.LBB117
 1886 0a0f 06000000 		.4byte	.LBE117-.LBB117
 1887 0a13 01       		.byte	0x1
 1888 0a14 84       		.byte	0x84
 1889 0a15 420A0000 		.4byte	0xa42
 1890 0a19 26       		.uleb128 0x26
 1891 0a1a 2D060000 		.4byte	0x62d
 1892 0a1e 02000000 		.4byte	.LBB118
 1893 0a22 06000000 		.4byte	.LBE118-.LBB118
 1894 0a26 0F       		.byte	0xf
 1895 0a27 5C01     		.2byte	0x15c
 1896 0a29 26       		.uleb128 0x26
 1897 0a2a 13060000 		.4byte	0x613
 1898 0a2e 02000000 		.4byte	.LBB119
 1899 0a32 06000000 		.4byte	.LBE119-.LBB119
 1900 0a36 0B       		.byte	0xb
 1901 0a37 D001     		.2byte	0x1d0
 1902 0a39 27       		.uleb128 0x27
 1903 0a3a 20060000 		.4byte	0x620
 1904 0a3e 20       		.byte	0x20
 1905 0a3f 00       		.byte	0
 1906 0a40 00       		.byte	0
 1907 0a41 00       		.byte	0
 1908 0a42 25       		.uleb128 0x25
 1909 0a43 CD060000 		.4byte	0x6cd
 1910 0a47 10000000 		.4byte	.LBB121
 1911 0a4b 08000000 		.4byte	.LBE121-.LBB121
 1912 0a4f 01       		.byte	0x1
 1913 0a50 87       		.byte	0x87
 1914 0a51 8D0A0000 		.4byte	0xa8d
 1915 0a55 2C       		.uleb128 0x2c
 1916 0a56 10000000 		.4byte	.LBB122
 1917 0a5a 08000000 		.4byte	.LBE122-.LBB122
 1918 0a5e 2D       		.uleb128 0x2d
 1919 0a5f DA060000 		.4byte	0x6da
 1920 0a63 26       		.uleb128 0x26
 1921 0a64 36060000 		.4byte	0x636
 1922 0a68 10000000 		.4byte	.LBB123
 1923 0a6c 08000000 		.4byte	.LBE123-.LBB123
 1924 0a70 0F       		.byte	0xf
 1925 0a71 7301     		.2byte	0x173
 1926 0a73 26       		.uleb128 0x26
 1927 0a74 13060000 		.4byte	0x613
 1928 0a78 10000000 		.4byte	.LBB124
 1929 0a7c 08000000 		.4byte	.LBE124-.LBB124
 1930 0a80 0B       		.byte	0xb
 1931 0a81 E301     		.2byte	0x1e3
 1932 0a83 27       		.uleb128 0x27
 1933 0a84 20060000 		.4byte	0x620
 1934 0a88 00       		.byte	0
 1935 0a89 00       		.byte	0
 1936 0a8a 00       		.byte	0
 1937 0a8b 00       		.byte	0
 1938 0a8c 00       		.byte	0
ARM GAS  /tmp/ccH1CDLU.s 			page 35


 1939 0a8d 33       		.uleb128 0x33
 1940 0a8e 0C000000 		.4byte	.LVL19
 1941 0a92 5B090000 		.4byte	0x95b
 1942 0a96 A20A0000 		.4byte	0xaa2
 1943 0a9a 2F       		.uleb128 0x2f
 1944 0a9b 01       		.uleb128 0x1
 1945 0a9c 50       		.byte	0x50
 1946 0a9d 03       		.uleb128 0x3
 1947 0a9e F3       		.byte	0xf3
 1948 0a9f 01       		.uleb128 0x1
 1949 0aa0 50       		.byte	0x50
 1950 0aa1 00       		.byte	0
 1951 0aa2 32       		.uleb128 0x32
 1952 0aa3 10000000 		.4byte	.LVL20
 1953 0aa7 870E0000 		.4byte	0xe87
 1954 0aab 00       		.byte	0
 1955 0aac 34       		.uleb128 0x34
 1956 0aad 6C050000 		.4byte	.LASF120
 1957 0ab1 01       		.byte	0x1
 1958 0ab2 CD       		.byte	0xcd
 1959 0ab3 0C010000 		.4byte	0x10c
 1960 0ab7 00000000 		.4byte	.LFB176
 1961 0abb 44000000 		.4byte	.LFE176-.LFB176
 1962 0abf 01       		.uleb128 0x1
 1963 0ac0 9C       		.byte	0x9c
 1964 0ac1 800B0000 		.4byte	0xb80
 1965 0ac5 24       		.uleb128 0x24
 1966 0ac6 637000   		.ascii	"cp\000"
 1967 0ac9 01       		.byte	0x1
 1968 0aca CD       		.byte	0xcd
 1969 0acb 7B070000 		.4byte	0x77b
 1970 0acf DD010000 		.4byte	.LLST13
 1971 0ad3 35       		.uleb128 0x35
 1972 0ad4 63747000 		.ascii	"ctp\000"
 1973 0ad8 01       		.byte	0x1
 1974 0ad9 CE       		.byte	0xce
 1975 0ada 17020000 		.4byte	0x217
 1976 0ade 09020000 		.4byte	.LLST14
 1977 0ae2 30       		.uleb128 0x30
 1978 0ae3 6D7000   		.ascii	"mp\000"
 1979 0ae6 01       		.byte	0x1
 1980 0ae7 CF       		.byte	0xcf
 1981 0ae8 E9050000 		.4byte	0x5e9
 1982 0aec 35       		.uleb128 0x35
 1983 0aed 6D736700 		.ascii	"msg\000"
 1984 0af1 01       		.byte	0x1
 1985 0af2 D0       		.byte	0xd0
 1986 0af3 0C010000 		.4byte	0x10c
 1987 0af7 1C020000 		.4byte	.LLST15
 1988 0afb 21       		.uleb128 0x21
 1989 0afc 87040000 		.4byte	.LASF111
 1990 0b00 800B0000 		.4byte	0xb80
 1991 0b04 36       		.uleb128 0x36
 1992 0b05 FD060000 		.4byte	0x6fd
 1993 0b09 08000000 		.4byte	.LBB126
 1994 0b0d 02000000 		.4byte	.LBE126-.LBB126
 1995 0b11 01       		.byte	0x1
ARM GAS  /tmp/ccH1CDLU.s 			page 36


 1996 0b12 D7       		.byte	0xd7
 1997 0b13 29       		.uleb128 0x29
 1998 0b14 09070000 		.4byte	0x709
 1999 0b18 10000000 		.4byte	.LBB128
 2000 0b1c 70000000 		.4byte	.Ldebug_ranges0+0x70
 2001 0b20 01       		.byte	0x1
 2002 0b21 DD       		.byte	0xdd
 2003 0b22 480B0000 		.4byte	0xb48
 2004 0b26 28       		.uleb128 0x28
 2005 0b27 21070000 		.4byte	0x721
 2006 0b2b 3A020000 		.4byte	.LLST16
 2007 0b2f 28       		.uleb128 0x28
 2008 0b30 16070000 		.4byte	0x716
 2009 0b34 5B020000 		.4byte	.LLST17
 2010 0b38 2A       		.uleb128 0x2a
 2011 0b39 70000000 		.4byte	.Ldebug_ranges0+0x70
 2012 0b3d 2B       		.uleb128 0x2b
 2013 0b3e 2D070000 		.4byte	0x72d
 2014 0b42 6E020000 		.4byte	.LLST18
 2015 0b46 00       		.byte	0
 2016 0b47 00       		.byte	0
 2017 0b48 33       		.uleb128 0x33
 2018 0b49 10000000 		.4byte	.LVL24
 2019 0b4d 8F0E0000 		.4byte	0xe8f
 2020 0b51 5C0B0000 		.4byte	0xb5c
 2021 0b55 2F       		.uleb128 0x2f
 2022 0b56 01       		.uleb128 0x1
 2023 0b57 50       		.byte	0x50
 2024 0b58 02       		.uleb128 0x2
 2025 0b59 76       		.byte	0x76
 2026 0b5a 00       		.sleb128 0
 2027 0b5b 00       		.byte	0
 2028 0b5c 33       		.uleb128 0x33
 2029 0b5d 34000000 		.4byte	.LVL28
 2030 0b61 A00E0000 		.4byte	0xea0
 2031 0b65 6F0B0000 		.4byte	0xb6f
 2032 0b69 2F       		.uleb128 0x2f
 2033 0b6a 01       		.uleb128 0x1
 2034 0b6b 50       		.byte	0x50
 2035 0b6c 01       		.uleb128 0x1
 2036 0b6d 37       		.byte	0x37
 2037 0b6e 00       		.byte	0
 2038 0b6f 2E       		.uleb128 0x2e
 2039 0b70 3C000000 		.4byte	.LVL30
 2040 0b74 B20E0000 		.4byte	0xeb2
 2041 0b78 2F       		.uleb128 0x2f
 2042 0b79 01       		.uleb128 0x1
 2043 0b7a 50       		.byte	0x50
 2044 0b7b 02       		.uleb128 0x2
 2045 0b7c 76       		.byte	0x76
 2046 0b7d 00       		.sleb128 0
 2047 0b7e 00       		.byte	0
 2048 0b7f 00       		.byte	0
 2049 0b80 14       		.uleb128 0x14
 2050 0b81 E8060000 		.4byte	0x6e8
 2051 0b85 34       		.uleb128 0x34
 2052 0b86 9C010000 		.4byte	.LASF121
ARM GAS  /tmp/ccH1CDLU.s 			page 37


 2053 0b8a 01       		.byte	0x1
 2054 0b8b B3       		.byte	0xb3
 2055 0b8c 0C010000 		.4byte	0x10c
 2056 0b90 00000000 		.4byte	.LFB175
 2057 0b94 14000000 		.4byte	.LFE175-.LFB175
 2058 0b98 01       		.uleb128 0x1
 2059 0b99 9C       		.byte	0x9c
 2060 0b9a 520C0000 		.4byte	0xc52
 2061 0b9e 24       		.uleb128 0x24
 2062 0b9f 637000   		.ascii	"cp\000"
 2063 0ba2 01       		.byte	0x1
 2064 0ba3 B3       		.byte	0xb3
 2065 0ba4 7B070000 		.4byte	0x77b
 2066 0ba8 8C020000 		.4byte	.LLST19
 2067 0bac 37       		.uleb128 0x37
 2068 0bad 6D736700 		.ascii	"msg\000"
 2069 0bb1 01       		.byte	0x1
 2070 0bb2 B4       		.byte	0xb4
 2071 0bb3 0C010000 		.4byte	0x10c
 2072 0bb7 01       		.uleb128 0x1
 2073 0bb8 50       		.byte	0x50
 2074 0bb9 25       		.uleb128 0x25
 2075 0bba 6B060000 		.4byte	0x66b
 2076 0bbe 02000000 		.4byte	.LBB134
 2077 0bc2 06000000 		.4byte	.LBE134-.LBB134
 2078 0bc6 01       		.byte	0x1
 2079 0bc7 B6       		.byte	0xb6
 2080 0bc8 F50B0000 		.4byte	0xbf5
 2081 0bcc 26       		.uleb128 0x26
 2082 0bcd 2D060000 		.4byte	0x62d
 2083 0bd1 02000000 		.4byte	.LBB135
 2084 0bd5 06000000 		.4byte	.LBE135-.LBB135
 2085 0bd9 0F       		.byte	0xf
 2086 0bda 5C01     		.2byte	0x15c
 2087 0bdc 26       		.uleb128 0x26
 2088 0bdd 13060000 		.4byte	0x613
 2089 0be1 02000000 		.4byte	.LBB136
 2090 0be5 06000000 		.4byte	.LBE136-.LBB136
 2091 0be9 0B       		.byte	0xb
 2092 0bea D001     		.2byte	0x1d0
 2093 0bec 27       		.uleb128 0x27
 2094 0bed 20060000 		.4byte	0x620
 2095 0bf1 20       		.byte	0x20
 2096 0bf2 00       		.byte	0
 2097 0bf3 00       		.byte	0
 2098 0bf4 00       		.byte	0
 2099 0bf5 25       		.uleb128 0x25
 2100 0bf6 CD060000 		.4byte	0x6cd
 2101 0bfa 0C000000 		.4byte	.LBB138
 2102 0bfe 06000000 		.4byte	.LBE138-.LBB138
 2103 0c02 01       		.byte	0x1
 2104 0c03 B8       		.byte	0xb8
 2105 0c04 400C0000 		.4byte	0xc40
 2106 0c08 2C       		.uleb128 0x2c
 2107 0c09 0C000000 		.4byte	.LBB139
 2108 0c0d 06000000 		.4byte	.LBE139-.LBB139
 2109 0c11 2D       		.uleb128 0x2d
ARM GAS  /tmp/ccH1CDLU.s 			page 38


 2110 0c12 DA060000 		.4byte	0x6da
 2111 0c16 26       		.uleb128 0x26
 2112 0c17 36060000 		.4byte	0x636
 2113 0c1b 0C000000 		.4byte	.LBB140
 2114 0c1f 06000000 		.4byte	.LBE140-.LBB140
 2115 0c23 0F       		.byte	0xf
 2116 0c24 7301     		.2byte	0x173
 2117 0c26 26       		.uleb128 0x26
 2118 0c27 13060000 		.4byte	0x613
 2119 0c2b 0C000000 		.4byte	.LBB141
 2120 0c2f 06000000 		.4byte	.LBE141-.LBB141
 2121 0c33 0B       		.byte	0xb
 2122 0c34 E301     		.2byte	0x1e3
 2123 0c36 27       		.uleb128 0x27
 2124 0c37 20060000 		.4byte	0x620
 2125 0c3b 00       		.byte	0
 2126 0c3c 00       		.byte	0
 2127 0c3d 00       		.byte	0
 2128 0c3e 00       		.byte	0
 2129 0c3f 00       		.byte	0
 2130 0c40 2E       		.uleb128 0x2e
 2131 0c41 0C000000 		.4byte	.LVL33
 2132 0c45 AC0A0000 		.4byte	0xaac
 2133 0c49 2F       		.uleb128 0x2f
 2134 0c4a 01       		.uleb128 0x1
 2135 0c4b 50       		.byte	0x50
 2136 0c4c 03       		.uleb128 0x3
 2137 0c4d F3       		.byte	0xf3
 2138 0c4e 01       		.uleb128 0x1
 2139 0c4f 50       		.byte	0x50
 2140 0c50 00       		.byte	0
 2141 0c51 00       		.byte	0
 2142 0c52 38       		.uleb128 0x38
 2143 0c53 98060000 		.4byte	.LASF122
 2144 0c57 01       		.byte	0x1
 2145 0c58 2801     		.2byte	0x128
 2146 0c5a 0C010000 		.4byte	0x10c
 2147 0c5e 00000000 		.4byte	.LFB178
 2148 0c62 50000000 		.4byte	.LFE178-.LFB178
 2149 0c66 01       		.uleb128 0x1
 2150 0c67 9C       		.byte	0x9c
 2151 0c68 470D0000 		.4byte	0xd47
 2152 0c6c 39       		.uleb128 0x39
 2153 0c6d 637000   		.ascii	"cp\000"
 2154 0c70 01       		.byte	0x1
 2155 0c71 2801     		.2byte	0x128
 2156 0c73 7B070000 		.4byte	0x77b
 2157 0c77 AD020000 		.4byte	.LLST20
 2158 0c7b 3A       		.uleb128 0x3a
 2159 0c7c DB010000 		.4byte	.LASF123
 2160 0c80 01       		.byte	0x1
 2161 0c81 2801     		.2byte	0x128
 2162 0c83 2D010000 		.4byte	0x12d
 2163 0c87 D9020000 		.4byte	.LLST21
 2164 0c8b 1D       		.uleb128 0x1d
 2165 0c8c 6D7000   		.ascii	"mp\000"
 2166 0c8f 01       		.byte	0x1
ARM GAS  /tmp/ccH1CDLU.s 			page 39


 2167 0c90 2901     		.2byte	0x129
 2168 0c92 E9050000 		.4byte	0x5e9
 2169 0c96 3B       		.uleb128 0x3b
 2170 0c97 6D736700 		.ascii	"msg\000"
 2171 0c9b 01       		.byte	0x1
 2172 0c9c 2A01     		.2byte	0x12a
 2173 0c9e 0C010000 		.4byte	0x10c
 2174 0ca2 FA020000 		.4byte	.LLST22
 2175 0ca6 21       		.uleb128 0x21
 2176 0ca7 87040000 		.4byte	.LASF111
 2177 0cab 570D0000 		.4byte	0xd57
 2178 0caf 3C       		.uleb128 0x3c
 2179 0cb0 FD060000 		.4byte	0x6fd
 2180 0cb4 04000000 		.4byte	.LBB143
 2181 0cb8 90000000 		.4byte	.Ldebug_ranges0+0x90
 2182 0cbc 01       		.byte	0x1
 2183 0cbd 3101     		.2byte	0x131
 2184 0cbf D30C0000 		.4byte	0xcd3
 2185 0cc3 36       		.uleb128 0x36
 2186 0cc4 3F060000 		.4byte	0x63f
 2187 0cc8 04000000 		.4byte	.LBB145
 2188 0ccc 02000000 		.4byte	.LBE145-.LBB145
 2189 0cd0 04       		.byte	0x4
 2190 0cd1 92       		.byte	0x92
 2191 0cd2 00       		.byte	0
 2192 0cd3 3C       		.uleb128 0x3c
 2193 0cd4 09070000 		.4byte	0x709
 2194 0cd8 14000000 		.4byte	.LBB149
 2195 0cdc A8000000 		.4byte	.Ldebug_ranges0+0xa8
 2196 0ce0 01       		.byte	0x1
 2197 0ce1 3701     		.2byte	0x137
 2198 0ce3 090D0000 		.4byte	0xd09
 2199 0ce7 28       		.uleb128 0x28
 2200 0ce8 21070000 		.4byte	0x721
 2201 0cec 23030000 		.4byte	.LLST23
 2202 0cf0 28       		.uleb128 0x28
 2203 0cf1 16070000 		.4byte	0x716
 2204 0cf5 44030000 		.4byte	.LLST24
 2205 0cf9 2A       		.uleb128 0x2a
 2206 0cfa A8000000 		.4byte	.Ldebug_ranges0+0xa8
 2207 0cfe 2B       		.uleb128 0x2b
 2208 0cff 2D070000 		.4byte	0x72d
 2209 0d03 57030000 		.4byte	.LLST25
 2210 0d07 00       		.byte	0
 2211 0d08 00       		.byte	0
 2212 0d09 33       		.uleb128 0x33
 2213 0d0a 12000000 		.4byte	.LVL36
 2214 0d0e 8F0E0000 		.4byte	0xe8f
 2215 0d12 1D0D0000 		.4byte	0xd1d
 2216 0d16 2F       		.uleb128 0x2f
 2217 0d17 01       		.uleb128 0x1
 2218 0d18 50       		.byte	0x50
 2219 0d19 02       		.uleb128 0x2
 2220 0d1a 76       		.byte	0x76
 2221 0d1b 00       		.sleb128 0
 2222 0d1c 00       		.byte	0
 2223 0d1d 33       		.uleb128 0x33
ARM GAS  /tmp/ccH1CDLU.s 			page 40


 2224 0d1e 3A000000 		.4byte	.LVL40
 2225 0d22 C30E0000 		.4byte	0xec3
 2226 0d26 360D0000 		.4byte	0xd36
 2227 0d2a 2F       		.uleb128 0x2f
 2228 0d2b 01       		.uleb128 0x1
 2229 0d2c 51       		.byte	0x51
 2230 0d2d 02       		.uleb128 0x2
 2231 0d2e 77       		.byte	0x77
 2232 0d2f 00       		.sleb128 0
 2233 0d30 2F       		.uleb128 0x2f
 2234 0d31 01       		.uleb128 0x1
 2235 0d32 50       		.byte	0x50
 2236 0d33 01       		.uleb128 0x1
 2237 0d34 37       		.byte	0x37
 2238 0d35 00       		.byte	0
 2239 0d36 2E       		.uleb128 0x2e
 2240 0d37 46000000 		.4byte	.LVL43
 2241 0d3b B20E0000 		.4byte	0xeb2
 2242 0d3f 2F       		.uleb128 0x2f
 2243 0d40 01       		.uleb128 0x1
 2244 0d41 50       		.byte	0x50
 2245 0d42 02       		.uleb128 0x2
 2246 0d43 76       		.byte	0x76
 2247 0d44 00       		.sleb128 0
 2248 0d45 00       		.byte	0
 2249 0d46 00       		.byte	0
 2250 0d47 15       		.uleb128 0x15
 2251 0d48 C7050000 		.4byte	0x5c7
 2252 0d4c 570D0000 		.4byte	0xd57
 2253 0d50 16       		.uleb128 0x16
 2254 0d51 10040000 		.4byte	0x410
 2255 0d55 12       		.byte	0x12
 2256 0d56 00       		.byte	0
 2257 0d57 14       		.uleb128 0x14
 2258 0d58 470D0000 		.4byte	0xd47
 2259 0d5c 38       		.uleb128 0x38
 2260 0d5d 98020000 		.4byte	.LASF124
 2261 0d61 01       		.byte	0x1
 2262 0d62 0201     		.2byte	0x102
 2263 0d64 0C010000 		.4byte	0x10c
 2264 0d68 00000000 		.4byte	.LFB177
 2265 0d6c 14000000 		.4byte	.LFE177-.LFB177
 2266 0d70 01       		.uleb128 0x1
 2267 0d71 9C       		.byte	0x9c
 2268 0d72 3E0E0000 		.4byte	0xe3e
 2269 0d76 39       		.uleb128 0x39
 2270 0d77 637000   		.ascii	"cp\000"
 2271 0d7a 01       		.byte	0x1
 2272 0d7b 0201     		.2byte	0x102
 2273 0d7d 7B070000 		.4byte	0x77b
 2274 0d81 75030000 		.4byte	.LLST26
 2275 0d85 3A       		.uleb128 0x3a
 2276 0d86 DB010000 		.4byte	.LASF123
 2277 0d8a 01       		.byte	0x1
 2278 0d8b 0201     		.2byte	0x102
 2279 0d8d 2D010000 		.4byte	0x12d
 2280 0d91 96030000 		.4byte	.LLST27
ARM GAS  /tmp/ccH1CDLU.s 			page 41


 2281 0d95 3D       		.uleb128 0x3d
 2282 0d96 6D736700 		.ascii	"msg\000"
 2283 0d9a 01       		.byte	0x1
 2284 0d9b 0301     		.2byte	0x103
 2285 0d9d 0C010000 		.4byte	0x10c
 2286 0da1 01       		.uleb128 0x1
 2287 0da2 50       		.byte	0x50
 2288 0da3 3E       		.uleb128 0x3e
 2289 0da4 6B060000 		.4byte	0x66b
 2290 0da8 02000000 		.4byte	.LBB157
 2291 0dac 06000000 		.4byte	.LBE157-.LBB157
 2292 0db0 01       		.byte	0x1
 2293 0db1 0501     		.2byte	0x105
 2294 0db3 E00D0000 		.4byte	0xde0
 2295 0db7 26       		.uleb128 0x26
 2296 0db8 2D060000 		.4byte	0x62d
 2297 0dbc 02000000 		.4byte	.LBB158
 2298 0dc0 06000000 		.4byte	.LBE158-.LBB158
 2299 0dc4 0F       		.byte	0xf
 2300 0dc5 5C01     		.2byte	0x15c
 2301 0dc7 26       		.uleb128 0x26
 2302 0dc8 13060000 		.4byte	0x613
 2303 0dcc 02000000 		.4byte	.LBB159
 2304 0dd0 06000000 		.4byte	.LBE159-.LBB159
 2305 0dd4 0B       		.byte	0xb
 2306 0dd5 D001     		.2byte	0x1d0
 2307 0dd7 27       		.uleb128 0x27
 2308 0dd8 20060000 		.4byte	0x620
 2309 0ddc 20       		.byte	0x20
 2310 0ddd 00       		.byte	0
 2311 0dde 00       		.byte	0
 2312 0ddf 00       		.byte	0
 2313 0de0 3E       		.uleb128 0x3e
 2314 0de1 CD060000 		.4byte	0x6cd
 2315 0de5 0C000000 		.4byte	.LBB161
 2316 0de9 06000000 		.4byte	.LBE161-.LBB161
 2317 0ded 01       		.byte	0x1
 2318 0dee 0701     		.2byte	0x107
 2319 0df0 2C0E0000 		.4byte	0xe2c
 2320 0df4 2C       		.uleb128 0x2c
 2321 0df5 0C000000 		.4byte	.LBB162
 2322 0df9 06000000 		.4byte	.LBE162-.LBB162
 2323 0dfd 2D       		.uleb128 0x2d
 2324 0dfe DA060000 		.4byte	0x6da
 2325 0e02 26       		.uleb128 0x26
 2326 0e03 36060000 		.4byte	0x636
 2327 0e07 0C000000 		.4byte	.LBB163
 2328 0e0b 06000000 		.4byte	.LBE163-.LBB163
 2329 0e0f 0F       		.byte	0xf
 2330 0e10 7301     		.2byte	0x173
 2331 0e12 26       		.uleb128 0x26
 2332 0e13 13060000 		.4byte	0x613
 2333 0e17 0C000000 		.4byte	.LBB164
 2334 0e1b 06000000 		.4byte	.LBE164-.LBB164
 2335 0e1f 0B       		.byte	0xb
 2336 0e20 E301     		.2byte	0x1e3
 2337 0e22 27       		.uleb128 0x27
ARM GAS  /tmp/ccH1CDLU.s 			page 42


 2338 0e23 20060000 		.4byte	0x620
 2339 0e27 00       		.byte	0
 2340 0e28 00       		.byte	0
 2341 0e29 00       		.byte	0
 2342 0e2a 00       		.byte	0
 2343 0e2b 00       		.byte	0
 2344 0e2c 2E       		.uleb128 0x2e
 2345 0e2d 0C000000 		.4byte	.LVL46
 2346 0e31 520C0000 		.4byte	0xc52
 2347 0e35 2F       		.uleb128 0x2f
 2348 0e36 01       		.uleb128 0x1
 2349 0e37 50       		.byte	0x50
 2350 0e38 03       		.uleb128 0x3
 2351 0e39 F3       		.byte	0xf3
 2352 0e3a 01       		.uleb128 0x1
 2353 0e3b 50       		.byte	0x50
 2354 0e3c 00       		.byte	0
 2355 0e3d 00       		.byte	0
 2356 0e3e 3F       		.uleb128 0x3f
 2357 0e3f D7040000 		.4byte	.LASF125
 2358 0e43 10       		.byte	0x10
 2359 0e44 5506     		.2byte	0x655
 2360 0e46 4A0E0000 		.4byte	0xe4a
 2361 0e4a 13       		.uleb128 0x13
 2362 0e4b B4000000 		.4byte	0xb4
 2363 0e4f 40       		.uleb128 0x40
 2364 0e50 636800   		.ascii	"ch\000"
 2365 0e53 02       		.byte	0x2
 2366 0e54 0902     		.2byte	0x209
 2367 0e56 A9030000 		.4byte	0x3a9
 2368 0e5a 41       		.uleb128 0x41
 2369 0e5b 3A060000 		.4byte	.LASF126
 2370 0e5f 02       		.byte	0x2
 2371 0e60 1602     		.2byte	0x216
 2372 0e62 710E0000 		.4byte	0xe71
 2373 0e66 0C       		.uleb128 0xc
 2374 0e67 17020000 		.4byte	0x217
 2375 0e6b 0C       		.uleb128 0xc
 2376 0e6c 0C010000 		.4byte	0x10c
 2377 0e70 00       		.byte	0
 2378 0e71 42       		.uleb128 0x42
 2379 0e72 20010000 		.4byte	.LASF133
 2380 0e76 02       		.byte	0x2
 2381 0e77 1302     		.2byte	0x213
 2382 0e79 17020000 		.4byte	0x217
 2383 0e7d 870E0000 		.4byte	0xe87
 2384 0e81 0C       		.uleb128 0xc
 2385 0e82 17020000 		.4byte	0x217
 2386 0e86 00       		.byte	0
 2387 0e87 43       		.uleb128 0x43
 2388 0e88 41020000 		.4byte	.LASF134
 2389 0e8c 02       		.byte	0x2
 2390 0e8d 1702     		.2byte	0x217
 2391 0e8f 44       		.uleb128 0x44
 2392 0e90 5F050000 		.4byte	.LASF127
 2393 0e94 04       		.byte	0x4
 2394 0e95 6D       		.byte	0x6d
ARM GAS  /tmp/ccH1CDLU.s 			page 43


 2395 0e96 A00E0000 		.4byte	0xea0
 2396 0e9a 0C       		.uleb128 0xc
 2397 0e9b E9050000 		.4byte	0x5e9
 2398 0e9f 00       		.byte	0
 2399 0ea0 41       		.uleb128 0x41
 2400 0ea1 51050000 		.4byte	.LASF128
 2401 0ea5 02       		.byte	0x2
 2402 0ea6 1402     		.2byte	0x214
 2403 0ea8 B20E0000 		.4byte	0xeb2
 2404 0eac 0C       		.uleb128 0xc
 2405 0ead EB000000 		.4byte	0xeb
 2406 0eb1 00       		.byte	0
 2407 0eb2 44       		.uleb128 0x44
 2408 0eb3 78050000 		.4byte	.LASF129
 2409 0eb7 04       		.byte	0x4
 2410 0eb8 69       		.byte	0x69
 2411 0eb9 C30E0000 		.4byte	0xec3
 2412 0ebd 0C       		.uleb128 0xc
 2413 0ebe E9050000 		.4byte	0x5e9
 2414 0ec2 00       		.byte	0
 2415 0ec3 45       		.uleb128 0x45
 2416 0ec4 BA050000 		.4byte	.LASF130
 2417 0ec8 02       		.byte	0x2
 2418 0ec9 1502     		.2byte	0x215
 2419 0ecb 0C010000 		.4byte	0x10c
 2420 0ecf 0C       		.uleb128 0xc
 2421 0ed0 EB000000 		.4byte	0xeb
 2422 0ed4 0C       		.uleb128 0xc
 2423 0ed5 2D010000 		.4byte	0x12d
 2424 0ed9 00       		.byte	0
 2425 0eda 00       		.byte	0
 2426              		.section	.debug_abbrev,"",%progbits
 2427              	.Ldebug_abbrev0:
 2428 0000 01       		.uleb128 0x1
 2429 0001 11       		.uleb128 0x11
 2430 0002 01       		.byte	0x1
 2431 0003 25       		.uleb128 0x25
 2432 0004 0E       		.uleb128 0xe
 2433 0005 13       		.uleb128 0x13
 2434 0006 0B       		.uleb128 0xb
 2435 0007 03       		.uleb128 0x3
 2436 0008 0E       		.uleb128 0xe
 2437 0009 55       		.uleb128 0x55
 2438 000a 17       		.uleb128 0x17
 2439 000b 11       		.uleb128 0x11
 2440 000c 01       		.uleb128 0x1
 2441 000d 10       		.uleb128 0x10
 2442 000e 17       		.uleb128 0x17
 2443 000f 00       		.byte	0
 2444 0010 00       		.byte	0
 2445 0011 02       		.uleb128 0x2
 2446 0012 24       		.uleb128 0x24
 2447 0013 00       		.byte	0
 2448 0014 0B       		.uleb128 0xb
 2449 0015 0B       		.uleb128 0xb
 2450 0016 3E       		.uleb128 0x3e
 2451 0017 0B       		.uleb128 0xb
ARM GAS  /tmp/ccH1CDLU.s 			page 44


 2452 0018 03       		.uleb128 0x3
 2453 0019 08       		.uleb128 0x8
 2454 001a 00       		.byte	0
 2455 001b 00       		.byte	0
 2456 001c 03       		.uleb128 0x3
 2457 001d 24       		.uleb128 0x24
 2458 001e 00       		.byte	0
 2459 001f 0B       		.uleb128 0xb
 2460 0020 0B       		.uleb128 0xb
 2461 0021 3E       		.uleb128 0x3e
 2462 0022 0B       		.uleb128 0xb
 2463 0023 03       		.uleb128 0x3
 2464 0024 0E       		.uleb128 0xe
 2465 0025 00       		.byte	0
 2466 0026 00       		.byte	0
 2467 0027 04       		.uleb128 0x4
 2468 0028 16       		.uleb128 0x16
 2469 0029 00       		.byte	0
 2470 002a 03       		.uleb128 0x3
 2471 002b 0E       		.uleb128 0xe
 2472 002c 3A       		.uleb128 0x3a
 2473 002d 0B       		.uleb128 0xb
 2474 002e 3B       		.uleb128 0x3b
 2475 002f 0B       		.uleb128 0xb
 2476 0030 49       		.uleb128 0x49
 2477 0031 13       		.uleb128 0x13
 2478 0032 00       		.byte	0
 2479 0033 00       		.byte	0
 2480 0034 05       		.uleb128 0x5
 2481 0035 13       		.uleb128 0x13
 2482 0036 01       		.byte	0x1
 2483 0037 03       		.uleb128 0x3
 2484 0038 0E       		.uleb128 0xe
 2485 0039 0B       		.uleb128 0xb
 2486 003a 0B       		.uleb128 0xb
 2487 003b 3A       		.uleb128 0x3a
 2488 003c 0B       		.uleb128 0xb
 2489 003d 3B       		.uleb128 0x3b
 2490 003e 0B       		.uleb128 0xb
 2491 003f 01       		.uleb128 0x1
 2492 0040 13       		.uleb128 0x13
 2493 0041 00       		.byte	0
 2494 0042 00       		.byte	0
 2495 0043 06       		.uleb128 0x6
 2496 0044 0D       		.uleb128 0xd
 2497 0045 00       		.byte	0
 2498 0046 03       		.uleb128 0x3
 2499 0047 0E       		.uleb128 0xe
 2500 0048 3A       		.uleb128 0x3a
 2501 0049 0B       		.uleb128 0xb
 2502 004a 3B       		.uleb128 0x3b
 2503 004b 0B       		.uleb128 0xb
 2504 004c 49       		.uleb128 0x49
 2505 004d 13       		.uleb128 0x13
 2506 004e 38       		.uleb128 0x38
 2507 004f 0B       		.uleb128 0xb
 2508 0050 00       		.byte	0
ARM GAS  /tmp/ccH1CDLU.s 			page 45


 2509 0051 00       		.byte	0
 2510 0052 07       		.uleb128 0x7
 2511 0053 0D       		.uleb128 0xd
 2512 0054 00       		.byte	0
 2513 0055 03       		.uleb128 0x3
 2514 0056 08       		.uleb128 0x8
 2515 0057 3A       		.uleb128 0x3a
 2516 0058 0B       		.uleb128 0xb
 2517 0059 3B       		.uleb128 0x3b
 2518 005a 05       		.uleb128 0x5
 2519 005b 49       		.uleb128 0x49
 2520 005c 13       		.uleb128 0x13
 2521 005d 38       		.uleb128 0x38
 2522 005e 0B       		.uleb128 0xb
 2523 005f 00       		.byte	0
 2524 0060 00       		.byte	0
 2525 0061 08       		.uleb128 0x8
 2526 0062 0D       		.uleb128 0xd
 2527 0063 00       		.byte	0
 2528 0064 03       		.uleb128 0x3
 2529 0065 0E       		.uleb128 0xe
 2530 0066 3A       		.uleb128 0x3a
 2531 0067 0B       		.uleb128 0xb
 2532 0068 3B       		.uleb128 0x3b
 2533 0069 05       		.uleb128 0x5
 2534 006a 49       		.uleb128 0x49
 2535 006b 13       		.uleb128 0x13
 2536 006c 38       		.uleb128 0x38
 2537 006d 0B       		.uleb128 0xb
 2538 006e 00       		.byte	0
 2539 006f 00       		.byte	0
 2540 0070 09       		.uleb128 0x9
 2541 0071 0F       		.uleb128 0xf
 2542 0072 00       		.byte	0
 2543 0073 0B       		.uleb128 0xb
 2544 0074 0B       		.uleb128 0xb
 2545 0075 49       		.uleb128 0x49
 2546 0076 13       		.uleb128 0x13
 2547 0077 00       		.byte	0
 2548 0078 00       		.byte	0
 2549 0079 0A       		.uleb128 0xa
 2550 007a 13       		.uleb128 0x13
 2551 007b 01       		.byte	0x1
 2552 007c 03       		.uleb128 0x3
 2553 007d 0E       		.uleb128 0xe
 2554 007e 0B       		.uleb128 0xb
 2555 007f 0B       		.uleb128 0xb
 2556 0080 3A       		.uleb128 0x3a
 2557 0081 0B       		.uleb128 0xb
 2558 0082 3B       		.uleb128 0x3b
 2559 0083 05       		.uleb128 0x5
 2560 0084 01       		.uleb128 0x1
 2561 0085 13       		.uleb128 0x13
 2562 0086 00       		.byte	0
 2563 0087 00       		.byte	0
 2564 0088 0B       		.uleb128 0xb
 2565 0089 15       		.uleb128 0x15
ARM GAS  /tmp/ccH1CDLU.s 			page 46


 2566 008a 01       		.byte	0x1
 2567 008b 27       		.uleb128 0x27
 2568 008c 19       		.uleb128 0x19
 2569 008d 01       		.uleb128 0x1
 2570 008e 13       		.uleb128 0x13
 2571 008f 00       		.byte	0
 2572 0090 00       		.byte	0
 2573 0091 0C       		.uleb128 0xc
 2574 0092 05       		.uleb128 0x5
 2575 0093 00       		.byte	0
 2576 0094 49       		.uleb128 0x49
 2577 0095 13       		.uleb128 0x13
 2578 0096 00       		.byte	0
 2579 0097 00       		.byte	0
 2580 0098 0D       		.uleb128 0xd
 2581 0099 0F       		.uleb128 0xf
 2582 009a 00       		.byte	0
 2583 009b 0B       		.uleb128 0xb
 2584 009c 0B       		.uleb128 0xb
 2585 009d 00       		.byte	0
 2586 009e 00       		.byte	0
 2587 009f 0E       		.uleb128 0xe
 2588 00a0 13       		.uleb128 0x13
 2589 00a1 01       		.byte	0x1
 2590 00a2 03       		.uleb128 0x3
 2591 00a3 0E       		.uleb128 0xe
 2592 00a4 0B       		.uleb128 0xb
 2593 00a5 05       		.uleb128 0x5
 2594 00a6 3A       		.uleb128 0x3a
 2595 00a7 0B       		.uleb128 0xb
 2596 00a8 3B       		.uleb128 0x3b
 2597 00a9 05       		.uleb128 0x5
 2598 00aa 01       		.uleb128 0x1
 2599 00ab 13       		.uleb128 0x13
 2600 00ac 00       		.byte	0
 2601 00ad 00       		.byte	0
 2602 00ae 0F       		.uleb128 0xf
 2603 00af 0D       		.uleb128 0xd
 2604 00b0 00       		.byte	0
 2605 00b1 03       		.uleb128 0x3
 2606 00b2 08       		.uleb128 0x8
 2607 00b3 3A       		.uleb128 0x3a
 2608 00b4 0B       		.uleb128 0xb
 2609 00b5 3B       		.uleb128 0x3b
 2610 00b6 0B       		.uleb128 0xb
 2611 00b7 49       		.uleb128 0x49
 2612 00b8 13       		.uleb128 0x13
 2613 00b9 38       		.uleb128 0x38
 2614 00ba 0B       		.uleb128 0xb
 2615 00bb 00       		.byte	0
 2616 00bc 00       		.byte	0
 2617 00bd 10       		.uleb128 0x10
 2618 00be 13       		.uleb128 0x13
 2619 00bf 01       		.byte	0x1
 2620 00c0 0B       		.uleb128 0xb
 2621 00c1 0B       		.uleb128 0xb
 2622 00c2 3A       		.uleb128 0x3a
ARM GAS  /tmp/ccH1CDLU.s 			page 47


 2623 00c3 0B       		.uleb128 0xb
 2624 00c4 3B       		.uleb128 0x3b
 2625 00c5 0B       		.uleb128 0xb
 2626 00c6 01       		.uleb128 0x1
 2627 00c7 13       		.uleb128 0x13
 2628 00c8 00       		.byte	0
 2629 00c9 00       		.byte	0
 2630 00ca 11       		.uleb128 0x11
 2631 00cb 17       		.uleb128 0x17
 2632 00cc 01       		.byte	0x1
 2633 00cd 0B       		.uleb128 0xb
 2634 00ce 0B       		.uleb128 0xb
 2635 00cf 3A       		.uleb128 0x3a
 2636 00d0 0B       		.uleb128 0xb
 2637 00d1 3B       		.uleb128 0x3b
 2638 00d2 0B       		.uleb128 0xb
 2639 00d3 01       		.uleb128 0x1
 2640 00d4 13       		.uleb128 0x13
 2641 00d5 00       		.byte	0
 2642 00d6 00       		.byte	0
 2643 00d7 12       		.uleb128 0x12
 2644 00d8 0D       		.uleb128 0xd
 2645 00d9 00       		.byte	0
 2646 00da 03       		.uleb128 0x3
 2647 00db 0E       		.uleb128 0xe
 2648 00dc 3A       		.uleb128 0x3a
 2649 00dd 0B       		.uleb128 0xb
 2650 00de 3B       		.uleb128 0x3b
 2651 00df 05       		.uleb128 0x5
 2652 00e0 49       		.uleb128 0x49
 2653 00e1 13       		.uleb128 0x13
 2654 00e2 00       		.byte	0
 2655 00e3 00       		.byte	0
 2656 00e4 13       		.uleb128 0x13
 2657 00e5 35       		.uleb128 0x35
 2658 00e6 00       		.byte	0
 2659 00e7 49       		.uleb128 0x49
 2660 00e8 13       		.uleb128 0x13
 2661 00e9 00       		.byte	0
 2662 00ea 00       		.byte	0
 2663 00eb 14       		.uleb128 0x14
 2664 00ec 26       		.uleb128 0x26
 2665 00ed 00       		.byte	0
 2666 00ee 49       		.uleb128 0x49
 2667 00ef 13       		.uleb128 0x13
 2668 00f0 00       		.byte	0
 2669 00f1 00       		.byte	0
 2670 00f2 15       		.uleb128 0x15
 2671 00f3 01       		.uleb128 0x1
 2672 00f4 01       		.byte	0x1
 2673 00f5 49       		.uleb128 0x49
 2674 00f6 13       		.uleb128 0x13
 2675 00f7 01       		.uleb128 0x1
 2676 00f8 13       		.uleb128 0x13
 2677 00f9 00       		.byte	0
 2678 00fa 00       		.byte	0
 2679 00fb 16       		.uleb128 0x16
ARM GAS  /tmp/ccH1CDLU.s 			page 48


 2680 00fc 21       		.uleb128 0x21
 2681 00fd 00       		.byte	0
 2682 00fe 49       		.uleb128 0x49
 2683 00ff 13       		.uleb128 0x13
 2684 0100 2F       		.uleb128 0x2f
 2685 0101 0B       		.uleb128 0xb
 2686 0102 00       		.byte	0
 2687 0103 00       		.byte	0
 2688 0104 17       		.uleb128 0x17
 2689 0105 2E       		.uleb128 0x2e
 2690 0106 01       		.byte	0x1
 2691 0107 03       		.uleb128 0x3
 2692 0108 0E       		.uleb128 0xe
 2693 0109 3A       		.uleb128 0x3a
 2694 010a 0B       		.uleb128 0xb
 2695 010b 3B       		.uleb128 0x3b
 2696 010c 05       		.uleb128 0x5
 2697 010d 27       		.uleb128 0x27
 2698 010e 19       		.uleb128 0x19
 2699 010f 20       		.uleb128 0x20
 2700 0110 0B       		.uleb128 0xb
 2701 0111 01       		.uleb128 0x1
 2702 0112 13       		.uleb128 0x13
 2703 0113 00       		.byte	0
 2704 0114 00       		.byte	0
 2705 0115 18       		.uleb128 0x18
 2706 0116 05       		.uleb128 0x5
 2707 0117 00       		.byte	0
 2708 0118 03       		.uleb128 0x3
 2709 0119 0E       		.uleb128 0xe
 2710 011a 3A       		.uleb128 0x3a
 2711 011b 0B       		.uleb128 0xb
 2712 011c 3B       		.uleb128 0x3b
 2713 011d 05       		.uleb128 0x5
 2714 011e 49       		.uleb128 0x49
 2715 011f 13       		.uleb128 0x13
 2716 0120 00       		.byte	0
 2717 0121 00       		.byte	0
 2718 0122 19       		.uleb128 0x19
 2719 0123 2E       		.uleb128 0x2e
 2720 0124 00       		.byte	0
 2721 0125 03       		.uleb128 0x3
 2722 0126 0E       		.uleb128 0xe
 2723 0127 3A       		.uleb128 0x3a
 2724 0128 0B       		.uleb128 0xb
 2725 0129 3B       		.uleb128 0x3b
 2726 012a 05       		.uleb128 0x5
 2727 012b 27       		.uleb128 0x27
 2728 012c 19       		.uleb128 0x19
 2729 012d 20       		.uleb128 0x20
 2730 012e 0B       		.uleb128 0xb
 2731 012f 00       		.byte	0
 2732 0130 00       		.byte	0
 2733 0131 1A       		.uleb128 0x1a
 2734 0132 2E       		.uleb128 0x2e
 2735 0133 00       		.byte	0
 2736 0134 03       		.uleb128 0x3
ARM GAS  /tmp/ccH1CDLU.s 			page 49


 2737 0135 0E       		.uleb128 0xe
 2738 0136 3A       		.uleb128 0x3a
 2739 0137 0B       		.uleb128 0xb
 2740 0138 3B       		.uleb128 0x3b
 2741 0139 0B       		.uleb128 0xb
 2742 013a 27       		.uleb128 0x27
 2743 013b 19       		.uleb128 0x19
 2744 013c 49       		.uleb128 0x49
 2745 013d 13       		.uleb128 0x13
 2746 013e 20       		.uleb128 0x20
 2747 013f 0B       		.uleb128 0xb
 2748 0140 00       		.byte	0
 2749 0141 00       		.byte	0
 2750 0142 1B       		.uleb128 0x1b
 2751 0143 05       		.uleb128 0x5
 2752 0144 00       		.byte	0
 2753 0145 03       		.uleb128 0x3
 2754 0146 08       		.uleb128 0x8
 2755 0147 3A       		.uleb128 0x3a
 2756 0148 0B       		.uleb128 0xb
 2757 0149 3B       		.uleb128 0x3b
 2758 014a 05       		.uleb128 0x5
 2759 014b 49       		.uleb128 0x49
 2760 014c 13       		.uleb128 0x13
 2761 014d 00       		.byte	0
 2762 014e 00       		.byte	0
 2763 014f 1C       		.uleb128 0x1c
 2764 0150 2E       		.uleb128 0x2e
 2765 0151 01       		.byte	0x1
 2766 0152 03       		.uleb128 0x3
 2767 0153 0E       		.uleb128 0xe
 2768 0154 3A       		.uleb128 0x3a
 2769 0155 0B       		.uleb128 0xb
 2770 0156 3B       		.uleb128 0x3b
 2771 0157 05       		.uleb128 0x5
 2772 0158 27       		.uleb128 0x27
 2773 0159 19       		.uleb128 0x19
 2774 015a 49       		.uleb128 0x49
 2775 015b 13       		.uleb128 0x13
 2776 015c 20       		.uleb128 0x20
 2777 015d 0B       		.uleb128 0xb
 2778 015e 01       		.uleb128 0x1
 2779 015f 13       		.uleb128 0x13
 2780 0160 00       		.byte	0
 2781 0161 00       		.byte	0
 2782 0162 1D       		.uleb128 0x1d
 2783 0163 34       		.uleb128 0x34
 2784 0164 00       		.byte	0
 2785 0165 03       		.uleb128 0x3
 2786 0166 08       		.uleb128 0x8
 2787 0167 3A       		.uleb128 0x3a
 2788 0168 0B       		.uleb128 0xb
 2789 0169 3B       		.uleb128 0x3b
 2790 016a 05       		.uleb128 0x5
 2791 016b 49       		.uleb128 0x49
 2792 016c 13       		.uleb128 0x13
 2793 016d 00       		.byte	0
ARM GAS  /tmp/ccH1CDLU.s 			page 50


 2794 016e 00       		.byte	0
 2795 016f 1E       		.uleb128 0x1e
 2796 0170 34       		.uleb128 0x34
 2797 0171 00       		.byte	0
 2798 0172 03       		.uleb128 0x3
 2799 0173 0E       		.uleb128 0xe
 2800 0174 49       		.uleb128 0x49
 2801 0175 13       		.uleb128 0x13
 2802 0176 34       		.uleb128 0x34
 2803 0177 19       		.uleb128 0x19
 2804 0178 1C       		.uleb128 0x1c
 2805 0179 0E       		.uleb128 0xe
 2806 017a 00       		.byte	0
 2807 017b 00       		.byte	0
 2808 017c 1F       		.uleb128 0x1f
 2809 017d 2E       		.uleb128 0x2e
 2810 017e 01       		.byte	0x1
 2811 017f 3F       		.uleb128 0x3f
 2812 0180 19       		.uleb128 0x19
 2813 0181 03       		.uleb128 0x3
 2814 0182 0E       		.uleb128 0xe
 2815 0183 3A       		.uleb128 0x3a
 2816 0184 0B       		.uleb128 0xb
 2817 0185 3B       		.uleb128 0x3b
 2818 0186 0B       		.uleb128 0xb
 2819 0187 27       		.uleb128 0x27
 2820 0188 19       		.uleb128 0x19
 2821 0189 11       		.uleb128 0x11
 2822 018a 01       		.uleb128 0x1
 2823 018b 12       		.uleb128 0x12
 2824 018c 06       		.uleb128 0x6
 2825 018d 40       		.uleb128 0x40
 2826 018e 18       		.uleb128 0x18
 2827 018f 9742     		.uleb128 0x2117
 2828 0191 19       		.uleb128 0x19
 2829 0192 01       		.uleb128 0x1
 2830 0193 13       		.uleb128 0x13
 2831 0194 00       		.byte	0
 2832 0195 00       		.byte	0
 2833 0196 20       		.uleb128 0x20
 2834 0197 05       		.uleb128 0x5
 2835 0198 00       		.byte	0
 2836 0199 03       		.uleb128 0x3
 2837 019a 08       		.uleb128 0x8
 2838 019b 3A       		.uleb128 0x3a
 2839 019c 0B       		.uleb128 0xb
 2840 019d 3B       		.uleb128 0x3b
 2841 019e 0B       		.uleb128 0xb
 2842 019f 49       		.uleb128 0x49
 2843 01a0 13       		.uleb128 0x13
 2844 01a1 02       		.uleb128 0x2
 2845 01a2 18       		.uleb128 0x18
 2846 01a3 00       		.byte	0
 2847 01a4 00       		.byte	0
 2848 01a5 21       		.uleb128 0x21
 2849 01a6 34       		.uleb128 0x34
 2850 01a7 00       		.byte	0
ARM GAS  /tmp/ccH1CDLU.s 			page 51


 2851 01a8 03       		.uleb128 0x3
 2852 01a9 0E       		.uleb128 0xe
 2853 01aa 49       		.uleb128 0x49
 2854 01ab 13       		.uleb128 0x13
 2855 01ac 34       		.uleb128 0x34
 2856 01ad 19       		.uleb128 0x19
 2857 01ae 00       		.byte	0
 2858 01af 00       		.byte	0
 2859 01b0 22       		.uleb128 0x22
 2860 01b1 1D       		.uleb128 0x1d
 2861 01b2 01       		.byte	0x1
 2862 01b3 31       		.uleb128 0x31
 2863 01b4 13       		.uleb128 0x13
 2864 01b5 11       		.uleb128 0x11
 2865 01b6 01       		.uleb128 0x1
 2866 01b7 12       		.uleb128 0x12
 2867 01b8 06       		.uleb128 0x6
 2868 01b9 58       		.uleb128 0x58
 2869 01ba 0B       		.uleb128 0xb
 2870 01bb 59       		.uleb128 0x59
 2871 01bc 0B       		.uleb128 0xb
 2872 01bd 00       		.byte	0
 2873 01be 00       		.byte	0
 2874 01bf 23       		.uleb128 0x23
 2875 01c0 05       		.uleb128 0x5
 2876 01c1 00       		.byte	0
 2877 01c2 31       		.uleb128 0x31
 2878 01c3 13       		.uleb128 0x13
 2879 01c4 02       		.uleb128 0x2
 2880 01c5 18       		.uleb128 0x18
 2881 01c6 00       		.byte	0
 2882 01c7 00       		.byte	0
 2883 01c8 24       		.uleb128 0x24
 2884 01c9 05       		.uleb128 0x5
 2885 01ca 00       		.byte	0
 2886 01cb 03       		.uleb128 0x3
 2887 01cc 08       		.uleb128 0x8
 2888 01cd 3A       		.uleb128 0x3a
 2889 01ce 0B       		.uleb128 0xb
 2890 01cf 3B       		.uleb128 0x3b
 2891 01d0 0B       		.uleb128 0xb
 2892 01d1 49       		.uleb128 0x49
 2893 01d2 13       		.uleb128 0x13
 2894 01d3 02       		.uleb128 0x2
 2895 01d4 17       		.uleb128 0x17
 2896 01d5 00       		.byte	0
 2897 01d6 00       		.byte	0
 2898 01d7 25       		.uleb128 0x25
 2899 01d8 1D       		.uleb128 0x1d
 2900 01d9 01       		.byte	0x1
 2901 01da 31       		.uleb128 0x31
 2902 01db 13       		.uleb128 0x13
 2903 01dc 11       		.uleb128 0x11
 2904 01dd 01       		.uleb128 0x1
 2905 01de 12       		.uleb128 0x12
 2906 01df 06       		.uleb128 0x6
 2907 01e0 58       		.uleb128 0x58
ARM GAS  /tmp/ccH1CDLU.s 			page 52


 2908 01e1 0B       		.uleb128 0xb
 2909 01e2 59       		.uleb128 0x59
 2910 01e3 0B       		.uleb128 0xb
 2911 01e4 01       		.uleb128 0x1
 2912 01e5 13       		.uleb128 0x13
 2913 01e6 00       		.byte	0
 2914 01e7 00       		.byte	0
 2915 01e8 26       		.uleb128 0x26
 2916 01e9 1D       		.uleb128 0x1d
 2917 01ea 01       		.byte	0x1
 2918 01eb 31       		.uleb128 0x31
 2919 01ec 13       		.uleb128 0x13
 2920 01ed 11       		.uleb128 0x11
 2921 01ee 01       		.uleb128 0x1
 2922 01ef 12       		.uleb128 0x12
 2923 01f0 06       		.uleb128 0x6
 2924 01f1 58       		.uleb128 0x58
 2925 01f2 0B       		.uleb128 0xb
 2926 01f3 59       		.uleb128 0x59
 2927 01f4 05       		.uleb128 0x5
 2928 01f5 00       		.byte	0
 2929 01f6 00       		.byte	0
 2930 01f7 27       		.uleb128 0x27
 2931 01f8 05       		.uleb128 0x5
 2932 01f9 00       		.byte	0
 2933 01fa 31       		.uleb128 0x31
 2934 01fb 13       		.uleb128 0x13
 2935 01fc 1C       		.uleb128 0x1c
 2936 01fd 0B       		.uleb128 0xb
 2937 01fe 00       		.byte	0
 2938 01ff 00       		.byte	0
 2939 0200 28       		.uleb128 0x28
 2940 0201 05       		.uleb128 0x5
 2941 0202 00       		.byte	0
 2942 0203 31       		.uleb128 0x31
 2943 0204 13       		.uleb128 0x13
 2944 0205 02       		.uleb128 0x2
 2945 0206 17       		.uleb128 0x17
 2946 0207 00       		.byte	0
 2947 0208 00       		.byte	0
 2948 0209 29       		.uleb128 0x29
 2949 020a 1D       		.uleb128 0x1d
 2950 020b 01       		.byte	0x1
 2951 020c 31       		.uleb128 0x31
 2952 020d 13       		.uleb128 0x13
 2953 020e 52       		.uleb128 0x52
 2954 020f 01       		.uleb128 0x1
 2955 0210 55       		.uleb128 0x55
 2956 0211 17       		.uleb128 0x17
 2957 0212 58       		.uleb128 0x58
 2958 0213 0B       		.uleb128 0xb
 2959 0214 59       		.uleb128 0x59
 2960 0215 0B       		.uleb128 0xb
 2961 0216 01       		.uleb128 0x1
 2962 0217 13       		.uleb128 0x13
 2963 0218 00       		.byte	0
 2964 0219 00       		.byte	0
ARM GAS  /tmp/ccH1CDLU.s 			page 53


 2965 021a 2A       		.uleb128 0x2a
 2966 021b 0B       		.uleb128 0xb
 2967 021c 01       		.byte	0x1
 2968 021d 55       		.uleb128 0x55
 2969 021e 17       		.uleb128 0x17
 2970 021f 00       		.byte	0
 2971 0220 00       		.byte	0
 2972 0221 2B       		.uleb128 0x2b
 2973 0222 34       		.uleb128 0x34
 2974 0223 00       		.byte	0
 2975 0224 31       		.uleb128 0x31
 2976 0225 13       		.uleb128 0x13
 2977 0226 02       		.uleb128 0x2
 2978 0227 17       		.uleb128 0x17
 2979 0228 00       		.byte	0
 2980 0229 00       		.byte	0
 2981 022a 2C       		.uleb128 0x2c
 2982 022b 0B       		.uleb128 0xb
 2983 022c 01       		.byte	0x1
 2984 022d 11       		.uleb128 0x11
 2985 022e 01       		.uleb128 0x1
 2986 022f 12       		.uleb128 0x12
 2987 0230 06       		.uleb128 0x6
 2988 0231 00       		.byte	0
 2989 0232 00       		.byte	0
 2990 0233 2D       		.uleb128 0x2d
 2991 0234 34       		.uleb128 0x34
 2992 0235 00       		.byte	0
 2993 0236 31       		.uleb128 0x31
 2994 0237 13       		.uleb128 0x13
 2995 0238 00       		.byte	0
 2996 0239 00       		.byte	0
 2997 023a 2E       		.uleb128 0x2e
 2998 023b 898201   		.uleb128 0x4109
 2999 023e 01       		.byte	0x1
 3000 023f 11       		.uleb128 0x11
 3001 0240 01       		.uleb128 0x1
 3002 0241 31       		.uleb128 0x31
 3003 0242 13       		.uleb128 0x13
 3004 0243 00       		.byte	0
 3005 0244 00       		.byte	0
 3006 0245 2F       		.uleb128 0x2f
 3007 0246 8A8201   		.uleb128 0x410a
 3008 0249 00       		.byte	0
 3009 024a 02       		.uleb128 0x2
 3010 024b 18       		.uleb128 0x18
 3011 024c 9142     		.uleb128 0x2111
 3012 024e 18       		.uleb128 0x18
 3013 024f 00       		.byte	0
 3014 0250 00       		.byte	0
 3015 0251 30       		.uleb128 0x30
 3016 0252 34       		.uleb128 0x34
 3017 0253 00       		.byte	0
 3018 0254 03       		.uleb128 0x3
 3019 0255 08       		.uleb128 0x8
 3020 0256 3A       		.uleb128 0x3a
 3021 0257 0B       		.uleb128 0xb
ARM GAS  /tmp/ccH1CDLU.s 			page 54


 3022 0258 3B       		.uleb128 0x3b
 3023 0259 0B       		.uleb128 0xb
 3024 025a 49       		.uleb128 0x49
 3025 025b 13       		.uleb128 0x13
 3026 025c 00       		.byte	0
 3027 025d 00       		.byte	0
 3028 025e 31       		.uleb128 0x31
 3029 025f 898201   		.uleb128 0x4109
 3030 0262 00       		.byte	0
 3031 0263 11       		.uleb128 0x11
 3032 0264 01       		.uleb128 0x1
 3033 0265 9542     		.uleb128 0x2115
 3034 0267 19       		.uleb128 0x19
 3035 0268 31       		.uleb128 0x31
 3036 0269 13       		.uleb128 0x13
 3037 026a 00       		.byte	0
 3038 026b 00       		.byte	0
 3039 026c 32       		.uleb128 0x32
 3040 026d 898201   		.uleb128 0x4109
 3041 0270 00       		.byte	0
 3042 0271 11       		.uleb128 0x11
 3043 0272 01       		.uleb128 0x1
 3044 0273 31       		.uleb128 0x31
 3045 0274 13       		.uleb128 0x13
 3046 0275 00       		.byte	0
 3047 0276 00       		.byte	0
 3048 0277 33       		.uleb128 0x33
 3049 0278 898201   		.uleb128 0x4109
 3050 027b 01       		.byte	0x1
 3051 027c 11       		.uleb128 0x11
 3052 027d 01       		.uleb128 0x1
 3053 027e 31       		.uleb128 0x31
 3054 027f 13       		.uleb128 0x13
 3055 0280 01       		.uleb128 0x1
 3056 0281 13       		.uleb128 0x13
 3057 0282 00       		.byte	0
 3058 0283 00       		.byte	0
 3059 0284 34       		.uleb128 0x34
 3060 0285 2E       		.uleb128 0x2e
 3061 0286 01       		.byte	0x1
 3062 0287 3F       		.uleb128 0x3f
 3063 0288 19       		.uleb128 0x19
 3064 0289 03       		.uleb128 0x3
 3065 028a 0E       		.uleb128 0xe
 3066 028b 3A       		.uleb128 0x3a
 3067 028c 0B       		.uleb128 0xb
 3068 028d 3B       		.uleb128 0x3b
 3069 028e 0B       		.uleb128 0xb
 3070 028f 27       		.uleb128 0x27
 3071 0290 19       		.uleb128 0x19
 3072 0291 49       		.uleb128 0x49
 3073 0292 13       		.uleb128 0x13
 3074 0293 11       		.uleb128 0x11
 3075 0294 01       		.uleb128 0x1
 3076 0295 12       		.uleb128 0x12
 3077 0296 06       		.uleb128 0x6
 3078 0297 40       		.uleb128 0x40
ARM GAS  /tmp/ccH1CDLU.s 			page 55


 3079 0298 18       		.uleb128 0x18
 3080 0299 9742     		.uleb128 0x2117
 3081 029b 19       		.uleb128 0x19
 3082 029c 01       		.uleb128 0x1
 3083 029d 13       		.uleb128 0x13
 3084 029e 00       		.byte	0
 3085 029f 00       		.byte	0
 3086 02a0 35       		.uleb128 0x35
 3087 02a1 34       		.uleb128 0x34
 3088 02a2 00       		.byte	0
 3089 02a3 03       		.uleb128 0x3
 3090 02a4 08       		.uleb128 0x8
 3091 02a5 3A       		.uleb128 0x3a
 3092 02a6 0B       		.uleb128 0xb
 3093 02a7 3B       		.uleb128 0x3b
 3094 02a8 0B       		.uleb128 0xb
 3095 02a9 49       		.uleb128 0x49
 3096 02aa 13       		.uleb128 0x13
 3097 02ab 02       		.uleb128 0x2
 3098 02ac 17       		.uleb128 0x17
 3099 02ad 00       		.byte	0
 3100 02ae 00       		.byte	0
 3101 02af 36       		.uleb128 0x36
 3102 02b0 1D       		.uleb128 0x1d
 3103 02b1 00       		.byte	0
 3104 02b2 31       		.uleb128 0x31
 3105 02b3 13       		.uleb128 0x13
 3106 02b4 11       		.uleb128 0x11
 3107 02b5 01       		.uleb128 0x1
 3108 02b6 12       		.uleb128 0x12
 3109 02b7 06       		.uleb128 0x6
 3110 02b8 58       		.uleb128 0x58
 3111 02b9 0B       		.uleb128 0xb
 3112 02ba 59       		.uleb128 0x59
 3113 02bb 0B       		.uleb128 0xb
 3114 02bc 00       		.byte	0
 3115 02bd 00       		.byte	0
 3116 02be 37       		.uleb128 0x37
 3117 02bf 34       		.uleb128 0x34
 3118 02c0 00       		.byte	0
 3119 02c1 03       		.uleb128 0x3
 3120 02c2 08       		.uleb128 0x8
 3121 02c3 3A       		.uleb128 0x3a
 3122 02c4 0B       		.uleb128 0xb
 3123 02c5 3B       		.uleb128 0x3b
 3124 02c6 0B       		.uleb128 0xb
 3125 02c7 49       		.uleb128 0x49
 3126 02c8 13       		.uleb128 0x13
 3127 02c9 02       		.uleb128 0x2
 3128 02ca 18       		.uleb128 0x18
 3129 02cb 00       		.byte	0
 3130 02cc 00       		.byte	0
 3131 02cd 38       		.uleb128 0x38
 3132 02ce 2E       		.uleb128 0x2e
 3133 02cf 01       		.byte	0x1
 3134 02d0 3F       		.uleb128 0x3f
 3135 02d1 19       		.uleb128 0x19
ARM GAS  /tmp/ccH1CDLU.s 			page 56


 3136 02d2 03       		.uleb128 0x3
 3137 02d3 0E       		.uleb128 0xe
 3138 02d4 3A       		.uleb128 0x3a
 3139 02d5 0B       		.uleb128 0xb
 3140 02d6 3B       		.uleb128 0x3b
 3141 02d7 05       		.uleb128 0x5
 3142 02d8 27       		.uleb128 0x27
 3143 02d9 19       		.uleb128 0x19
 3144 02da 49       		.uleb128 0x49
 3145 02db 13       		.uleb128 0x13
 3146 02dc 11       		.uleb128 0x11
 3147 02dd 01       		.uleb128 0x1
 3148 02de 12       		.uleb128 0x12
 3149 02df 06       		.uleb128 0x6
 3150 02e0 40       		.uleb128 0x40
 3151 02e1 18       		.uleb128 0x18
 3152 02e2 9742     		.uleb128 0x2117
 3153 02e4 19       		.uleb128 0x19
 3154 02e5 01       		.uleb128 0x1
 3155 02e6 13       		.uleb128 0x13
 3156 02e7 00       		.byte	0
 3157 02e8 00       		.byte	0
 3158 02e9 39       		.uleb128 0x39
 3159 02ea 05       		.uleb128 0x5
 3160 02eb 00       		.byte	0
 3161 02ec 03       		.uleb128 0x3
 3162 02ed 08       		.uleb128 0x8
 3163 02ee 3A       		.uleb128 0x3a
 3164 02ef 0B       		.uleb128 0xb
 3165 02f0 3B       		.uleb128 0x3b
 3166 02f1 05       		.uleb128 0x5
 3167 02f2 49       		.uleb128 0x49
 3168 02f3 13       		.uleb128 0x13
 3169 02f4 02       		.uleb128 0x2
 3170 02f5 17       		.uleb128 0x17
 3171 02f6 00       		.byte	0
 3172 02f7 00       		.byte	0
 3173 02f8 3A       		.uleb128 0x3a
 3174 02f9 05       		.uleb128 0x5
 3175 02fa 00       		.byte	0
 3176 02fb 03       		.uleb128 0x3
 3177 02fc 0E       		.uleb128 0xe
 3178 02fd 3A       		.uleb128 0x3a
 3179 02fe 0B       		.uleb128 0xb
 3180 02ff 3B       		.uleb128 0x3b
 3181 0300 05       		.uleb128 0x5
 3182 0301 49       		.uleb128 0x49
 3183 0302 13       		.uleb128 0x13
 3184 0303 02       		.uleb128 0x2
 3185 0304 17       		.uleb128 0x17
 3186 0305 00       		.byte	0
 3187 0306 00       		.byte	0
 3188 0307 3B       		.uleb128 0x3b
 3189 0308 34       		.uleb128 0x34
 3190 0309 00       		.byte	0
 3191 030a 03       		.uleb128 0x3
 3192 030b 08       		.uleb128 0x8
ARM GAS  /tmp/ccH1CDLU.s 			page 57


 3193 030c 3A       		.uleb128 0x3a
 3194 030d 0B       		.uleb128 0xb
 3195 030e 3B       		.uleb128 0x3b
 3196 030f 05       		.uleb128 0x5
 3197 0310 49       		.uleb128 0x49
 3198 0311 13       		.uleb128 0x13
 3199 0312 02       		.uleb128 0x2
 3200 0313 17       		.uleb128 0x17
 3201 0314 00       		.byte	0
 3202 0315 00       		.byte	0
 3203 0316 3C       		.uleb128 0x3c
 3204 0317 1D       		.uleb128 0x1d
 3205 0318 01       		.byte	0x1
 3206 0319 31       		.uleb128 0x31
 3207 031a 13       		.uleb128 0x13
 3208 031b 52       		.uleb128 0x52
 3209 031c 01       		.uleb128 0x1
 3210 031d 55       		.uleb128 0x55
 3211 031e 17       		.uleb128 0x17
 3212 031f 58       		.uleb128 0x58
 3213 0320 0B       		.uleb128 0xb
 3214 0321 59       		.uleb128 0x59
 3215 0322 05       		.uleb128 0x5
 3216 0323 01       		.uleb128 0x1
 3217 0324 13       		.uleb128 0x13
 3218 0325 00       		.byte	0
 3219 0326 00       		.byte	0
 3220 0327 3D       		.uleb128 0x3d
 3221 0328 34       		.uleb128 0x34
 3222 0329 00       		.byte	0
 3223 032a 03       		.uleb128 0x3
 3224 032b 08       		.uleb128 0x8
 3225 032c 3A       		.uleb128 0x3a
 3226 032d 0B       		.uleb128 0xb
 3227 032e 3B       		.uleb128 0x3b
 3228 032f 05       		.uleb128 0x5
 3229 0330 49       		.uleb128 0x49
 3230 0331 13       		.uleb128 0x13
 3231 0332 02       		.uleb128 0x2
 3232 0333 18       		.uleb128 0x18
 3233 0334 00       		.byte	0
 3234 0335 00       		.byte	0
 3235 0336 3E       		.uleb128 0x3e
 3236 0337 1D       		.uleb128 0x1d
 3237 0338 01       		.byte	0x1
 3238 0339 31       		.uleb128 0x31
 3239 033a 13       		.uleb128 0x13
 3240 033b 11       		.uleb128 0x11
 3241 033c 01       		.uleb128 0x1
 3242 033d 12       		.uleb128 0x12
 3243 033e 06       		.uleb128 0x6
 3244 033f 58       		.uleb128 0x58
 3245 0340 0B       		.uleb128 0xb
 3246 0341 59       		.uleb128 0x59
 3247 0342 05       		.uleb128 0x5
 3248 0343 01       		.uleb128 0x1
 3249 0344 13       		.uleb128 0x13
ARM GAS  /tmp/ccH1CDLU.s 			page 58


 3250 0345 00       		.byte	0
 3251 0346 00       		.byte	0
 3252 0347 3F       		.uleb128 0x3f
 3253 0348 34       		.uleb128 0x34
 3254 0349 00       		.byte	0
 3255 034a 03       		.uleb128 0x3
 3256 034b 0E       		.uleb128 0xe
 3257 034c 3A       		.uleb128 0x3a
 3258 034d 0B       		.uleb128 0xb
 3259 034e 3B       		.uleb128 0x3b
 3260 034f 05       		.uleb128 0x5
 3261 0350 49       		.uleb128 0x49
 3262 0351 13       		.uleb128 0x13
 3263 0352 3F       		.uleb128 0x3f
 3264 0353 19       		.uleb128 0x19
 3265 0354 3C       		.uleb128 0x3c
 3266 0355 19       		.uleb128 0x19
 3267 0356 00       		.byte	0
 3268 0357 00       		.byte	0
 3269 0358 40       		.uleb128 0x40
 3270 0359 34       		.uleb128 0x34
 3271 035a 00       		.byte	0
 3272 035b 03       		.uleb128 0x3
 3273 035c 08       		.uleb128 0x8
 3274 035d 3A       		.uleb128 0x3a
 3275 035e 0B       		.uleb128 0xb
 3276 035f 3B       		.uleb128 0x3b
 3277 0360 05       		.uleb128 0x5
 3278 0361 49       		.uleb128 0x49
 3279 0362 13       		.uleb128 0x13
 3280 0363 3F       		.uleb128 0x3f
 3281 0364 19       		.uleb128 0x19
 3282 0365 3C       		.uleb128 0x3c
 3283 0366 19       		.uleb128 0x19
 3284 0367 00       		.byte	0
 3285 0368 00       		.byte	0
 3286 0369 41       		.uleb128 0x41
 3287 036a 2E       		.uleb128 0x2e
 3288 036b 01       		.byte	0x1
 3289 036c 3F       		.uleb128 0x3f
 3290 036d 19       		.uleb128 0x19
 3291 036e 03       		.uleb128 0x3
 3292 036f 0E       		.uleb128 0xe
 3293 0370 3A       		.uleb128 0x3a
 3294 0371 0B       		.uleb128 0xb
 3295 0372 3B       		.uleb128 0x3b
 3296 0373 05       		.uleb128 0x5
 3297 0374 27       		.uleb128 0x27
 3298 0375 19       		.uleb128 0x19
 3299 0376 3C       		.uleb128 0x3c
 3300 0377 19       		.uleb128 0x19
 3301 0378 01       		.uleb128 0x1
 3302 0379 13       		.uleb128 0x13
 3303 037a 00       		.byte	0
 3304 037b 00       		.byte	0
 3305 037c 42       		.uleb128 0x42
 3306 037d 2E       		.uleb128 0x2e
ARM GAS  /tmp/ccH1CDLU.s 			page 59


 3307 037e 01       		.byte	0x1
 3308 037f 3F       		.uleb128 0x3f
 3309 0380 19       		.uleb128 0x19
 3310 0381 03       		.uleb128 0x3
 3311 0382 0E       		.uleb128 0xe
 3312 0383 3A       		.uleb128 0x3a
 3313 0384 0B       		.uleb128 0xb
 3314 0385 3B       		.uleb128 0x3b
 3315 0386 05       		.uleb128 0x5
 3316 0387 27       		.uleb128 0x27
 3317 0388 19       		.uleb128 0x19
 3318 0389 49       		.uleb128 0x49
 3319 038a 13       		.uleb128 0x13
 3320 038b 3C       		.uleb128 0x3c
 3321 038c 19       		.uleb128 0x19
 3322 038d 01       		.uleb128 0x1
 3323 038e 13       		.uleb128 0x13
 3324 038f 00       		.byte	0
 3325 0390 00       		.byte	0
 3326 0391 43       		.uleb128 0x43
 3327 0392 2E       		.uleb128 0x2e
 3328 0393 00       		.byte	0
 3329 0394 3F       		.uleb128 0x3f
 3330 0395 19       		.uleb128 0x19
 3331 0396 03       		.uleb128 0x3
 3332 0397 0E       		.uleb128 0xe
 3333 0398 3A       		.uleb128 0x3a
 3334 0399 0B       		.uleb128 0xb
 3335 039a 3B       		.uleb128 0x3b
 3336 039b 05       		.uleb128 0x5
 3337 039c 27       		.uleb128 0x27
 3338 039d 19       		.uleb128 0x19
 3339 039e 3C       		.uleb128 0x3c
 3340 039f 19       		.uleb128 0x19
 3341 03a0 00       		.byte	0
 3342 03a1 00       		.byte	0
 3343 03a2 44       		.uleb128 0x44
 3344 03a3 2E       		.uleb128 0x2e
 3345 03a4 01       		.byte	0x1
 3346 03a5 3F       		.uleb128 0x3f
 3347 03a6 19       		.uleb128 0x19
 3348 03a7 03       		.uleb128 0x3
 3349 03a8 0E       		.uleb128 0xe
 3350 03a9 3A       		.uleb128 0x3a
 3351 03aa 0B       		.uleb128 0xb
 3352 03ab 3B       		.uleb128 0x3b
 3353 03ac 0B       		.uleb128 0xb
 3354 03ad 27       		.uleb128 0x27
 3355 03ae 19       		.uleb128 0x19
 3356 03af 3C       		.uleb128 0x3c
 3357 03b0 19       		.uleb128 0x19
 3358 03b1 01       		.uleb128 0x1
 3359 03b2 13       		.uleb128 0x13
 3360 03b3 00       		.byte	0
 3361 03b4 00       		.byte	0
 3362 03b5 45       		.uleb128 0x45
 3363 03b6 2E       		.uleb128 0x2e
ARM GAS  /tmp/ccH1CDLU.s 			page 60


 3364 03b7 01       		.byte	0x1
 3365 03b8 3F       		.uleb128 0x3f
 3366 03b9 19       		.uleb128 0x19
 3367 03ba 03       		.uleb128 0x3
 3368 03bb 0E       		.uleb128 0xe
 3369 03bc 3A       		.uleb128 0x3a
 3370 03bd 0B       		.uleb128 0xb
 3371 03be 3B       		.uleb128 0x3b
 3372 03bf 05       		.uleb128 0x5
 3373 03c0 27       		.uleb128 0x27
 3374 03c1 19       		.uleb128 0x19
 3375 03c2 49       		.uleb128 0x49
 3376 03c3 13       		.uleb128 0x13
 3377 03c4 3C       		.uleb128 0x3c
 3378 03c5 19       		.uleb128 0x19
 3379 03c6 00       		.byte	0
 3380 03c7 00       		.byte	0
 3381 03c8 00       		.byte	0
 3382              		.section	.debug_loc,"",%progbits
 3383              	.Ldebug_loc0:
 3384              	.LLST0:
 3385 0000 00000000 		.4byte	.LVL1
 3386 0004 14000000 		.4byte	.LVL4
 3387 0008 0100     		.2byte	0x1
 3388 000a 50       		.byte	0x50
 3389 000b 14000000 		.4byte	.LVL4
 3390 000f 1D000000 		.4byte	.LVL5-1
 3391 0013 0100     		.2byte	0x1
 3392 0015 53       		.byte	0x53
 3393 0016 1D000000 		.4byte	.LVL5-1
 3394 001a 26000000 		.4byte	.LVL6
 3395 001e 0400     		.2byte	0x4
 3396 0020 F3       		.byte	0xf3
 3397 0021 01       		.uleb128 0x1
 3398 0022 50       		.byte	0x50
 3399 0023 9F       		.byte	0x9f
 3400 0024 26000000 		.4byte	.LVL6
 3401 0028 2E000000 		.4byte	.LFE171
 3402 002c 0100     		.2byte	0x1
 3403 002e 50       		.byte	0x50
 3404 002f 00000000 		.4byte	0
 3405 0033 00000000 		.4byte	0
 3406              	.LLST1:
 3407 0037 06000000 		.4byte	.LVL2
 3408 003b 14000000 		.4byte	.LVL4
 3409 003f 0100     		.2byte	0x1
 3410 0041 50       		.byte	0x50
 3411 0042 14000000 		.4byte	.LVL4
 3412 0046 1D000000 		.4byte	.LVL5-1
 3413 004a 0100     		.2byte	0x1
 3414 004c 53       		.byte	0x53
 3415 004d 1D000000 		.4byte	.LVL5-1
 3416 0051 26000000 		.4byte	.LVL6
 3417 0055 0400     		.2byte	0x4
 3418 0057 F3       		.byte	0xf3
 3419 0058 01       		.uleb128 0x1
 3420 0059 50       		.byte	0x50
ARM GAS  /tmp/ccH1CDLU.s 			page 61


 3421 005a 9F       		.byte	0x9f
 3422 005b 26000000 		.4byte	.LVL6
 3423 005f 2E000000 		.4byte	.LFE171
 3424 0063 0100     		.2byte	0x1
 3425 0065 50       		.byte	0x50
 3426 0066 00000000 		.4byte	0
 3427 006a 00000000 		.4byte	0
 3428              	.LLST2:
 3429 006e 0E000000 		.4byte	.LVL3
 3430 0072 14000000 		.4byte	.LVL4
 3431 0076 0100     		.2byte	0x1
 3432 0078 50       		.byte	0x50
 3433 0079 14000000 		.4byte	.LVL4
 3434 007d 1D000000 		.4byte	.LVL5-1
 3435 0081 0100     		.2byte	0x1
 3436 0083 53       		.byte	0x53
 3437 0084 1D000000 		.4byte	.LVL5-1
 3438 0088 26000000 		.4byte	.LVL6
 3439 008c 0400     		.2byte	0x4
 3440 008e F3       		.byte	0xf3
 3441 008f 01       		.uleb128 0x1
 3442 0090 50       		.byte	0x50
 3443 0091 9F       		.byte	0x9f
 3444 0092 00000000 		.4byte	0
 3445 0096 00000000 		.4byte	0
 3446              	.LLST3:
 3447 009a 0E000000 		.4byte	.LVL3
 3448 009e 1D000000 		.4byte	.LVL5-1
 3449 00a2 0100     		.2byte	0x1
 3450 00a4 52       		.byte	0x52
 3451 00a5 00000000 		.4byte	0
 3452 00a9 00000000 		.4byte	0
 3453              	.LLST4:
 3454 00ad 00000000 		.4byte	.LVL7
 3455 00b1 16000000 		.4byte	.LVL10
 3456 00b5 0100     		.2byte	0x1
 3457 00b7 50       		.byte	0x50
 3458 00b8 16000000 		.4byte	.LVL10
 3459 00bc 1D000000 		.4byte	.LVL11-1
 3460 00c0 0100     		.2byte	0x1
 3461 00c2 53       		.byte	0x53
 3462 00c3 1D000000 		.4byte	.LVL11-1
 3463 00c7 1E000000 		.4byte	.LVL11
 3464 00cb 0400     		.2byte	0x4
 3465 00cd F3       		.byte	0xf3
 3466 00ce 01       		.uleb128 0x1
 3467 00cf 50       		.byte	0x50
 3468 00d0 9F       		.byte	0x9f
 3469 00d1 1E000000 		.4byte	.LVL11
 3470 00d5 20000000 		.4byte	.LFE172
 3471 00d9 0100     		.2byte	0x1
 3472 00db 50       		.byte	0x50
 3473 00dc 00000000 		.4byte	0
 3474 00e0 00000000 		.4byte	0
 3475              	.LLST5:
 3476 00e4 04000000 		.4byte	.LVL8
 3477 00e8 16000000 		.4byte	.LVL10
ARM GAS  /tmp/ccH1CDLU.s 			page 62


 3478 00ec 0100     		.2byte	0x1
 3479 00ee 50       		.byte	0x50
 3480 00ef 16000000 		.4byte	.LVL10
 3481 00f3 1D000000 		.4byte	.LVL11-1
 3482 00f7 0100     		.2byte	0x1
 3483 00f9 53       		.byte	0x53
 3484 00fa 1D000000 		.4byte	.LVL11-1
 3485 00fe 1E000000 		.4byte	.LVL11
 3486 0102 0400     		.2byte	0x4
 3487 0104 F3       		.byte	0xf3
 3488 0105 01       		.uleb128 0x1
 3489 0106 50       		.byte	0x50
 3490 0107 9F       		.byte	0x9f
 3491 0108 1E000000 		.4byte	.LVL11
 3492 010c 20000000 		.4byte	.LFE172
 3493 0110 0100     		.2byte	0x1
 3494 0112 50       		.byte	0x50
 3495 0113 00000000 		.4byte	0
 3496 0117 00000000 		.4byte	0
 3497              	.LLST6:
 3498 011b 08000000 		.4byte	.LVL9
 3499 011f 16000000 		.4byte	.LVL10
 3500 0123 0100     		.2byte	0x1
 3501 0125 50       		.byte	0x50
 3502 0126 16000000 		.4byte	.LVL10
 3503 012a 1D000000 		.4byte	.LVL11-1
 3504 012e 0100     		.2byte	0x1
 3505 0130 53       		.byte	0x53
 3506 0131 1D000000 		.4byte	.LVL11-1
 3507 0135 1E000000 		.4byte	.LVL11
 3508 0139 0400     		.2byte	0x4
 3509 013b F3       		.byte	0xf3
 3510 013c 01       		.uleb128 0x1
 3511 013d 50       		.byte	0x50
 3512 013e 9F       		.byte	0x9f
 3513 013f 00000000 		.4byte	0
 3514 0143 00000000 		.4byte	0
 3515              	.LLST7:
 3516 0147 08000000 		.4byte	.LVL9
 3517 014b 1D000000 		.4byte	.LVL11-1
 3518 014f 0100     		.2byte	0x1
 3519 0151 52       		.byte	0x52
 3520 0152 00000000 		.4byte	0
 3521 0156 00000000 		.4byte	0
 3522              	.LLST8:
 3523 015a 00000000 		.4byte	.LVL12
 3524 015e 06000000 		.4byte	.LVL14
 3525 0162 0100     		.2byte	0x1
 3526 0164 50       		.byte	0x50
 3527 0165 06000000 		.4byte	.LVL14
 3528 0169 22000000 		.4byte	.LFE174
 3529 016d 0100     		.2byte	0x1
 3530 016f 54       		.byte	0x54
 3531 0170 00000000 		.4byte	0
 3532 0174 00000000 		.4byte	0
 3533              	.LLST9:
 3534 0178 04000000 		.4byte	.LVL13
ARM GAS  /tmp/ccH1CDLU.s 			page 63


 3535 017c 06000000 		.4byte	.LVL14
 3536 0180 0100     		.2byte	0x1
 3537 0182 50       		.byte	0x50
 3538 0183 06000000 		.4byte	.LVL14
 3539 0187 22000000 		.4byte	.LFE174
 3540 018b 0100     		.2byte	0x1
 3541 018d 54       		.byte	0x54
 3542 018e 00000000 		.4byte	0
 3543 0192 00000000 		.4byte	0
 3544              	.LLST10:
 3545 0196 0E000000 		.4byte	.LVL15
 3546 019a 20000000 		.4byte	.LVL17
 3547 019e 0100     		.2byte	0x1
 3548 01a0 54       		.byte	0x54
 3549 01a1 00000000 		.4byte	0
 3550 01a5 00000000 		.4byte	0
 3551              	.LLST11:
 3552 01a9 0E000000 		.4byte	.LVL15
 3553 01ad 17000000 		.4byte	.LVL16-1
 3554 01b1 0100     		.2byte	0x1
 3555 01b3 50       		.byte	0x50
 3556 01b4 00000000 		.4byte	0
 3557 01b8 00000000 		.4byte	0
 3558              	.LLST12:
 3559 01bc 00000000 		.4byte	.LVL18
 3560 01c0 0B000000 		.4byte	.LVL19-1
 3561 01c4 0100     		.2byte	0x1
 3562 01c6 50       		.byte	0x50
 3563 01c7 0B000000 		.4byte	.LVL19-1
 3564 01cb 18000000 		.4byte	.LFE173
 3565 01cf 0400     		.2byte	0x4
 3566 01d1 F3       		.byte	0xf3
 3567 01d2 01       		.uleb128 0x1
 3568 01d3 50       		.byte	0x50
 3569 01d4 9F       		.byte	0x9f
 3570 01d5 00000000 		.4byte	0
 3571 01d9 00000000 		.4byte	0
 3572              	.LLST13:
 3573 01dd 00000000 		.4byte	.LVL21
 3574 01e1 0C000000 		.4byte	.LVL23
 3575 01e5 0100     		.2byte	0x1
 3576 01e7 50       		.byte	0x50
 3577 01e8 0C000000 		.4byte	.LVL23
 3578 01ec 40000000 		.4byte	.LVL31
 3579 01f0 0100     		.2byte	0x1
 3580 01f2 55       		.byte	0x55
 3581 01f3 40000000 		.4byte	.LVL31
 3582 01f7 44000000 		.4byte	.LFE176
 3583 01fb 0400     		.2byte	0x4
 3584 01fd F3       		.byte	0xf3
 3585 01fe 01       		.uleb128 0x1
 3586 01ff 50       		.byte	0x50
 3587 0200 9F       		.byte	0x9f
 3588 0201 00000000 		.4byte	0
 3589 0205 00000000 		.4byte	0
 3590              	.LLST14:
 3591 0209 08000000 		.4byte	.LVL22
ARM GAS  /tmp/ccH1CDLU.s 			page 64


 3592 020d 36000000 		.4byte	.LVL29
 3593 0211 0100     		.2byte	0x1
 3594 0213 54       		.byte	0x54
 3595 0214 00000000 		.4byte	0
 3596 0218 00000000 		.4byte	0
 3597              	.LLST15:
 3598 021c 36000000 		.4byte	.LVL29
 3599 0220 40000000 		.4byte	.LVL31
 3600 0224 0100     		.2byte	0x1
 3601 0226 54       		.byte	0x54
 3602 0227 40000000 		.4byte	.LVL31
 3603 022b 44000000 		.4byte	.LFE176
 3604 022f 0100     		.2byte	0x1
 3605 0231 50       		.byte	0x50
 3606 0232 00000000 		.4byte	0
 3607 0236 00000000 		.4byte	0
 3608              	.LLST16:
 3609 023a 14000000 		.4byte	.LVL25
 3610 023e 40000000 		.4byte	.LVL31
 3611 0242 0100     		.2byte	0x1
 3612 0244 55       		.byte	0x55
 3613 0245 40000000 		.4byte	.LVL31
 3614 0249 44000000 		.4byte	.LFE176
 3615 024d 0400     		.2byte	0x4
 3616 024f F3       		.byte	0xf3
 3617 0250 01       		.uleb128 0x1
 3618 0251 50       		.byte	0x50
 3619 0252 9F       		.byte	0x9f
 3620 0253 00000000 		.4byte	0
 3621 0257 00000000 		.4byte	0
 3622              	.LLST17:
 3623 025b 14000000 		.4byte	.LVL25
 3624 025f 36000000 		.4byte	.LVL29
 3625 0263 0100     		.2byte	0x1
 3626 0265 54       		.byte	0x54
 3627 0266 00000000 		.4byte	0
 3628 026a 00000000 		.4byte	0
 3629              	.LLST18:
 3630 026e 14000000 		.4byte	.LVL25
 3631 0272 16000000 		.4byte	.LVL26
 3632 0276 0100     		.2byte	0x1
 3633 0278 55       		.byte	0x55
 3634 0279 16000000 		.4byte	.LVL26
 3635 027d 33000000 		.4byte	.LVL28-1
 3636 0281 0100     		.2byte	0x1
 3637 0283 53       		.byte	0x53
 3638 0284 00000000 		.4byte	0
 3639 0288 00000000 		.4byte	0
 3640              	.LLST19:
 3641 028c 00000000 		.4byte	.LVL32
 3642 0290 0B000000 		.4byte	.LVL33-1
 3643 0294 0100     		.2byte	0x1
 3644 0296 50       		.byte	0x50
 3645 0297 0B000000 		.4byte	.LVL33-1
 3646 029b 14000000 		.4byte	.LFE175
 3647 029f 0400     		.2byte	0x4
 3648 02a1 F3       		.byte	0xf3
ARM GAS  /tmp/ccH1CDLU.s 			page 65


 3649 02a2 01       		.uleb128 0x1
 3650 02a3 50       		.byte	0x50
 3651 02a4 9F       		.byte	0x9f
 3652 02a5 00000000 		.4byte	0
 3653 02a9 00000000 		.4byte	0
 3654              	.LLST20:
 3655 02ad 00000000 		.4byte	.LVL34
 3656 02b1 0E000000 		.4byte	.LVL35
 3657 02b5 0100     		.2byte	0x1
 3658 02b7 50       		.byte	0x50
 3659 02b8 0E000000 		.4byte	.LVL35
 3660 02bc 4A000000 		.4byte	.LVL44
 3661 02c0 0100     		.2byte	0x1
 3662 02c2 55       		.byte	0x55
 3663 02c3 4A000000 		.4byte	.LVL44
 3664 02c7 50000000 		.4byte	.LFE178
 3665 02cb 0400     		.2byte	0x4
 3666 02cd F3       		.byte	0xf3
 3667 02ce 01       		.uleb128 0x1
 3668 02cf 50       		.byte	0x50
 3669 02d0 9F       		.byte	0x9f
 3670 02d1 00000000 		.4byte	0
 3671 02d5 00000000 		.4byte	0
 3672              	.LLST21:
 3673 02d9 00000000 		.4byte	.LVL34
 3674 02dd 11000000 		.4byte	.LVL36-1
 3675 02e1 0100     		.2byte	0x1
 3676 02e3 51       		.byte	0x51
 3677 02e4 11000000 		.4byte	.LVL36-1
 3678 02e8 50000000 		.4byte	.LFE178
 3679 02ec 0400     		.2byte	0x4
 3680 02ee F3       		.byte	0xf3
 3681 02ef 01       		.uleb128 0x1
 3682 02f0 51       		.byte	0x51
 3683 02f1 9F       		.byte	0x9f
 3684 02f2 00000000 		.4byte	0
 3685 02f6 00000000 		.4byte	0
 3686              	.LLST22:
 3687 02fa 3E000000 		.4byte	.LVL41
 3688 02fe 42000000 		.4byte	.LVL42
 3689 0302 0100     		.2byte	0x1
 3690 0304 50       		.byte	0x50
 3691 0305 42000000 		.4byte	.LVL42
 3692 0309 4A000000 		.4byte	.LVL44
 3693 030d 0100     		.2byte	0x1
 3694 030f 54       		.byte	0x54
 3695 0310 4A000000 		.4byte	.LVL44
 3696 0314 50000000 		.4byte	.LFE178
 3697 0318 0100     		.2byte	0x1
 3698 031a 50       		.byte	0x50
 3699 031b 00000000 		.4byte	0
 3700 031f 00000000 		.4byte	0
 3701              	.LLST23:
 3702 0323 18000000 		.4byte	.LVL37
 3703 0327 4A000000 		.4byte	.LVL44
 3704 032b 0100     		.2byte	0x1
 3705 032d 55       		.byte	0x55
ARM GAS  /tmp/ccH1CDLU.s 			page 66


 3706 032e 4A000000 		.4byte	.LVL44
 3707 0332 50000000 		.4byte	.LFE178
 3708 0336 0400     		.2byte	0x4
 3709 0338 F3       		.byte	0xf3
 3710 0339 01       		.uleb128 0x1
 3711 033a 50       		.byte	0x50
 3712 033b 9F       		.byte	0x9f
 3713 033c 00000000 		.4byte	0
 3714 0340 00000000 		.4byte	0
 3715              	.LLST24:
 3716 0344 18000000 		.4byte	.LVL37
 3717 0348 3E000000 		.4byte	.LVL41
 3718 034c 0100     		.2byte	0x1
 3719 034e 54       		.byte	0x54
 3720 034f 00000000 		.4byte	0
 3721 0353 00000000 		.4byte	0
 3722              	.LLST25:
 3723 0357 18000000 		.4byte	.LVL37
 3724 035b 1A000000 		.4byte	.LVL38
 3725 035f 0100     		.2byte	0x1
 3726 0361 55       		.byte	0x55
 3727 0362 1A000000 		.4byte	.LVL38
 3728 0366 39000000 		.4byte	.LVL40-1
 3729 036a 0100     		.2byte	0x1
 3730 036c 53       		.byte	0x53
 3731 036d 00000000 		.4byte	0
 3732 0371 00000000 		.4byte	0
 3733              	.LLST26:
 3734 0375 00000000 		.4byte	.LVL45
 3735 0379 0B000000 		.4byte	.LVL46-1
 3736 037d 0100     		.2byte	0x1
 3737 037f 50       		.byte	0x50
 3738 0380 0B000000 		.4byte	.LVL46-1
 3739 0384 14000000 		.4byte	.LFE177
 3740 0388 0400     		.2byte	0x4
 3741 038a F3       		.byte	0xf3
 3742 038b 01       		.uleb128 0x1
 3743 038c 50       		.byte	0x50
 3744 038d 9F       		.byte	0x9f
 3745 038e 00000000 		.4byte	0
 3746 0392 00000000 		.4byte	0
 3747              	.LLST27:
 3748 0396 00000000 		.4byte	.LVL45
 3749 039a 0B000000 		.4byte	.LVL46-1
 3750 039e 0100     		.2byte	0x1
 3751 03a0 51       		.byte	0x51
 3752 03a1 0B000000 		.4byte	.LVL46-1
 3753 03a5 14000000 		.4byte	.LFE177
 3754 03a9 0400     		.2byte	0x4
 3755 03ab F3       		.byte	0xf3
 3756 03ac 01       		.uleb128 0x1
 3757 03ad 51       		.byte	0x51
 3758 03ae 9F       		.byte	0x9f
 3759 03af 00000000 		.4byte	0
 3760 03b3 00000000 		.4byte	0
 3761              		.section	.debug_aranges,"",%progbits
 3762 0000 5C000000 		.4byte	0x5c
ARM GAS  /tmp/ccH1CDLU.s 			page 67


 3763 0004 0200     		.2byte	0x2
 3764 0006 00000000 		.4byte	.Ldebug_info0
 3765 000a 04       		.byte	0x4
 3766 000b 00       		.byte	0
 3767 000c 0000     		.2byte	0
 3768 000e 0000     		.2byte	0
 3769 0010 00000000 		.4byte	.LFB170
 3770 0014 06000000 		.4byte	.LFE170-.LFB170
 3771 0018 00000000 		.4byte	.LFB171
 3772 001c 2E000000 		.4byte	.LFE171-.LFB171
 3773 0020 00000000 		.4byte	.LFB172
 3774 0024 20000000 		.4byte	.LFE172-.LFB172
 3775 0028 00000000 		.4byte	.LFB174
 3776 002c 22000000 		.4byte	.LFE174-.LFB174
 3777 0030 00000000 		.4byte	.LFB173
 3778 0034 18000000 		.4byte	.LFE173-.LFB173
 3779 0038 00000000 		.4byte	.LFB176
 3780 003c 44000000 		.4byte	.LFE176-.LFB176
 3781 0040 00000000 		.4byte	.LFB175
 3782 0044 14000000 		.4byte	.LFE175-.LFB175
 3783 0048 00000000 		.4byte	.LFB178
 3784 004c 50000000 		.4byte	.LFE178-.LFB178
 3785 0050 00000000 		.4byte	.LFB177
 3786 0054 14000000 		.4byte	.LFE177-.LFB177
 3787 0058 00000000 		.4byte	0
 3788 005c 00000000 		.4byte	0
 3789              		.section	.debug_ranges,"",%progbits
 3790              	.Ldebug_ranges0:
 3791 0000 10000000 		.4byte	.LBB91
 3792 0004 12000000 		.4byte	.LBE91
 3793 0008 14000000 		.4byte	.LBB95
 3794 000c 16000000 		.4byte	.LBE95
 3795 0010 18000000 		.4byte	.LBB96
 3796 0014 1A000000 		.4byte	.LBE96
 3797 0018 00000000 		.4byte	0
 3798 001c 00000000 		.4byte	0
 3799 0020 08000000 		.4byte	.LBB104
 3800 0024 0A000000 		.4byte	.LBE104
 3801 0028 0C000000 		.4byte	.LBB109
 3802 002c 16000000 		.4byte	.LBE109
 3803 0030 1A000000 		.4byte	.LBB110
 3804 0034 20000000 		.4byte	.LBE110
 3805 0038 00000000 		.4byte	0
 3806 003c 00000000 		.4byte	0
 3807 0040 08000000 		.4byte	.LBB105
 3808 0044 0A000000 		.4byte	.LBE105
 3809 0048 0E000000 		.4byte	.LBB108
 3810 004c 12000000 		.4byte	.LBE108
 3811 0050 00000000 		.4byte	0
 3812 0054 00000000 		.4byte	0
 3813 0058 04000000 		.4byte	.LBB111
 3814 005c 06000000 		.4byte	.LBE111
 3815 0060 1A000000 		.4byte	.LBB116
 3816 0064 1C000000 		.4byte	.LBE116
 3817 0068 00000000 		.4byte	0
 3818 006c 00000000 		.4byte	0
 3819 0070 10000000 		.4byte	.LBB128
ARM GAS  /tmp/ccH1CDLU.s 			page 68


 3820 0074 12000000 		.4byte	.LBE128
 3821 0078 16000000 		.4byte	.LBB132
 3822 007c 26000000 		.4byte	.LBE132
 3823 0080 28000000 		.4byte	.LBB133
 3824 0084 30000000 		.4byte	.LBE133
 3825 0088 00000000 		.4byte	0
 3826 008c 00000000 		.4byte	0
 3827 0090 04000000 		.4byte	.LBB143
 3828 0094 06000000 		.4byte	.LBE143
 3829 0098 08000000 		.4byte	.LBB148
 3830 009c 0C000000 		.4byte	.LBE148
 3831 00a0 00000000 		.4byte	0
 3832 00a4 00000000 		.4byte	0
 3833 00a8 14000000 		.4byte	.LBB149
 3834 00ac 16000000 		.4byte	.LBE149
 3835 00b0 1A000000 		.4byte	.LBB154
 3836 00b4 2A000000 		.4byte	.LBE154
 3837 00b8 2C000000 		.4byte	.LBB155
 3838 00bc 30000000 		.4byte	.LBE155
 3839 00c0 32000000 		.4byte	.LBB156
 3840 00c4 36000000 		.4byte	.LBE156
 3841 00c8 00000000 		.4byte	0
 3842 00cc 00000000 		.4byte	0
 3843 00d0 00000000 		.4byte	.LFB170
 3844 00d4 06000000 		.4byte	.LFE170
 3845 00d8 00000000 		.4byte	.LFB171
 3846 00dc 2E000000 		.4byte	.LFE171
 3847 00e0 00000000 		.4byte	.LFB172
 3848 00e4 20000000 		.4byte	.LFE172
 3849 00e8 00000000 		.4byte	.LFB174
 3850 00ec 22000000 		.4byte	.LFE174
 3851 00f0 00000000 		.4byte	.LFB173
 3852 00f4 18000000 		.4byte	.LFE173
 3853 00f8 00000000 		.4byte	.LFB176
 3854 00fc 44000000 		.4byte	.LFE176
 3855 0100 00000000 		.4byte	.LFB175
 3856 0104 14000000 		.4byte	.LFE175
 3857 0108 00000000 		.4byte	.LFB178
 3858 010c 50000000 		.4byte	.LFE178
 3859 0110 00000000 		.4byte	.LFB177
 3860 0114 14000000 		.4byte	.LFE177
 3861 0118 00000000 		.4byte	0
 3862 011c 00000000 		.4byte	0
 3863              		.section	.debug_line,"",%progbits
 3864              	.Ldebug_line0:
 3865 0000 63040000 		.section	.debug_str,"MS",%progbits,1
 3865      02006702 
 3865      00000201 
 3865      FB0E0D00 
 3865      01010101 
 3866              	.LASF46:
 3867 0000 63685F74 		.ascii	"ch_threads_list\000"
 3867      68726561 
 3867      64735F6C 
 3867      69737400 
 3868              	.LASF47:
 3869 0010 74687265 		.ascii	"threads_queue_t\000"
ARM GAS  /tmp/ccH1CDLU.s 			page 69


 3869      6164735F 
 3869      71756575 
 3869      655F7400 
 3870              	.LASF36:
 3871 0020 705F7761 		.ascii	"p_waiting\000"
 3871      6974696E 
 3871      6700
 3872              	.LASF87:
 3873 002a 77746D74 		.ascii	"wtmtxp\000"
 3873      787000
 3874              	.LASF81:
 3875 0031 746D5F63 		.ascii	"tm_calibration_t\000"
 3875      616C6962 
 3875      72617469 
 3875      6F6E5F74 
 3875      00
 3876              	.LASF96:
 3877 0042 63686172 		.ascii	"char\000"
 3877      00
 3878              	.LASF76:
 3879 0047 72656761 		.ascii	"regarm_t\000"
 3879      726D5F74 
 3879      00
 3880              	.LASF31:
 3881 0050 705F7072 		.ascii	"p_prio\000"
 3881      696F00
 3882              	.LASF27:
 3883 0057 73797374 		.ascii	"systime_t\000"
 3883      696D655F 
 3883      7400
 3884              	.LASF100:
 3885 0061 636F6E64 		.ascii	"condition_variable_t\000"
 3885      6974696F 
 3885      6E5F7661 
 3885      72696162 
 3885      6C655F74 
 3886              	.LASF94:
 3887 0076 6D5F6F77 		.ascii	"m_owner\000"
 3887      6E657200 
 3888              	.LASF90:
 3889 007e 735F7175 		.ascii	"s_queue\000"
 3889      65756500 
 3890              	.LASF65:
 3891 0086 76745F73 		.ascii	"vt_systime\000"
 3891      79737469 
 3891      6D6500
 3892              	.LASF37:
 3893 0091 705F6D73 		.ascii	"p_msgqueue\000"
 3893      67717565 
 3893      756500
 3894              	.LASF0:
 3895 009c 756E7369 		.ascii	"unsigned int\000"
 3895      676E6564 
 3895      20696E74 
 3895      00
 3896              	.LASF44:
 3897 00a9 74687265 		.ascii	"threads_list_t\000"
ARM GAS  /tmp/ccH1CDLU.s 			page 70


 3897      6164735F 
 3897      6C697374 
 3897      5F7400
 3898              	.LASF7:
 3899 00b8 5F5F696E 		.ascii	"__int32_t\000"
 3899      7433325F 
 3899      7400
 3900              	.LASF84:
 3901 00c2 77746F62 		.ascii	"wtobjp\000"
 3901      6A7000
 3902              	.LASF101:
 3903 00c9 706F7274 		.ascii	"port_lock\000"
 3903      5F6C6F63 
 3903      6B00
 3904              	.LASF72:
 3905 00d3 76746C69 		.ascii	"vtlist\000"
 3905      737400
 3906              	.LASF50:
 3907 00da 63685F72 		.ascii	"ch_ready_list\000"
 3907      65616479 
 3907      5F6C6973 
 3907      7400
 3908              	.LASF74:
 3909 00e8 69646C65 		.ascii	"idle_thread_wa\000"
 3909      5F746872 
 3909      6561645F 
 3909      776100
 3910              	.LASF88:
 3911 00f7 65776D61 		.ascii	"ewmask\000"
 3911      736B00
 3912              	.LASF99:
 3913 00fe 635F7175 		.ascii	"c_queue\000"
 3913      65756500 
 3914              	.LASF48:
 3915 0106 63685F74 		.ascii	"ch_threads_queue\000"
 3915      68726561 
 3915      64735F71 
 3915      75657565 
 3915      00
 3916              	.LASF55:
 3917 0117 76746675 		.ascii	"vtfunc_t\000"
 3917      6E635F74 
 3917      00
 3918              	.LASF133:
 3919 0120 63685363 		.ascii	"chSchReadyI\000"
 3919      68526561 
 3919      64794900 
 3920              	.LASF91:
 3921 012c 735F636E 		.ascii	"s_cnt\000"
 3921      7400
 3922              	.LASF67:
 3923 0132 63685F73 		.ascii	"ch_system_debug\000"
 3923      79737465 
 3923      6D5F6465 
 3923      62756700 
 3924              	.LASF115:
 3925 0142 6368436F 		.ascii	"chCondObjectInit\000"
ARM GAS  /tmp/ccH1CDLU.s 			page 71


 3925      6E644F62 
 3925      6A656374 
 3925      496E6974 
 3925      00
 3926              	.LASF17:
 3927 0153 75696E74 		.ascii	"uint32_t\000"
 3927      33325F74 
 3927      00
 3928              	.LASF25:
 3929 015c 6576656E 		.ascii	"eventmask_t\000"
 3929      746D6173 
 3929      6B5F7400 
 3930              	.LASF52:
 3931 0168 725F7072 		.ascii	"r_prio\000"
 3931      696F00
 3932              	.LASF62:
 3933 016f 76745F70 		.ascii	"vt_par\000"
 3933      617200
 3934              	.LASF89:
 3935 0176 63685F73 		.ascii	"ch_semaphore\000"
 3935      656D6170 
 3935      686F7265 
 3935      00
 3936              	.LASF23:
 3937 0183 74707269 		.ascii	"tprio_t\000"
 3937      6F5F7400 
 3938              	.LASF57:
 3939 018b 63685F76 		.ascii	"ch_virtual_timer\000"
 3939      69727475 
 3939      616C5F74 
 3939      696D6572 
 3939      00
 3940              	.LASF121:
 3941 019c 6368436F 		.ascii	"chCondWait\000"
 3941      6E645761 
 3941      697400
 3942              	.LASF13:
 3943 01a7 6C6F6E67 		.ascii	"long long unsigned int\000"
 3943      206C6F6E 
 3943      6720756E 
 3943      7369676E 
 3943      65642069 
 3944              	.LASF5:
 3945 01be 5F5F7569 		.ascii	"__uint16_t\000"
 3945      6E743136 
 3945      5F7400
 3946              	.LASF26:
 3947 01c9 636E745F 		.ascii	"cnt_t\000"
 3947      7400
 3948              	.LASF110:
 3949 01cf 63685379 		.ascii	"chSysUnlock\000"
 3949      73556E6C 
 3949      6F636B00 
 3950              	.LASF123:
 3951 01db 74696D65 		.ascii	"time\000"
 3951      00
 3952              	.LASF105:
ARM GAS  /tmp/ccH1CDLU.s 			page 72


 3953 01e0 76616C75 		.ascii	"value\000"
 3953      6500
 3954              	.LASF64:
 3955 01e6 63685F76 		.ascii	"ch_virtual_timers_list\000"
 3955      69727475 
 3955      616C5F74 
 3955      696D6572 
 3955      735F6C69 
 3956              	.LASF28:
 3957 01fd 74687265 		.ascii	"thread_t\000"
 3957      61645F74 
 3957      00
 3958              	.LASF82:
 3959 0206 7264796D 		.ascii	"rdymsg\000"
 3959      736700
 3960              	.LASF80:
 3961 020d 6F666673 		.ascii	"offset\000"
 3961      657400
 3962              	.LASF107:
 3963 0214 5F426F6F 		.ascii	"_Bool\000"
 3963      6C00
 3964              	.LASF98:
 3965 021a 636F6E64 		.ascii	"condition_variable\000"
 3965      6974696F 
 3965      6E5F7661 
 3965      72696162 
 3965      6C6500
 3966              	.LASF92:
 3967 022d 63685F6D 		.ascii	"ch_mutex\000"
 3967      75746578 
 3967      00
 3968              	.LASF12:
 3969 0236 5F5F7569 		.ascii	"__uint64_t\000"
 3969      6E743634 
 3969      5F7400
 3970              	.LASF134:
 3971 0241 63685363 		.ascii	"chSchRescheduleS\000"
 3971      68526573 
 3971      63686564 
 3971      756C6553 
 3971      00
 3972              	.LASF119:
 3973 0252 6368436F 		.ascii	"chCondBroadcast\000"
 3973      6E644272 
 3973      6F616463 
 3973      61737400 
 3974              	.LASF106:
 3975 0262 63685379 		.ascii	"chSysLock\000"
 3975      734C6F63 
 3975      6B00
 3976              	.LASF114:
 3977 026c 71756575 		.ascii	"queue_prio_insert\000"
 3977      655F7072 
 3977      696F5F69 
 3977      6E736572 
 3977      7400
 3978              	.LASF60:
ARM GAS  /tmp/ccH1CDLU.s 			page 73


 3979 027e 76745F64 		.ascii	"vt_delta\000"
 3979      656C7461 
 3979      00
 3980              	.LASF118:
 3981 0287 6368436F 		.ascii	"chCondBroadcastI\000"
 3981      6E644272 
 3981      6F616463 
 3981      61737449 
 3981      00
 3982              	.LASF124:
 3983 0298 6368436F 		.ascii	"chCondWaitTimeout\000"
 3983      6E645761 
 3983      69745469 
 3983      6D656F75 
 3983      7400
 3984              	.LASF43:
 3985 02aa 74687265 		.ascii	"thread_reference_t\000"
 3985      61645F72 
 3985      65666572 
 3985      656E6365 
 3985      5F7400
 3986              	.LASF108:
 3987 02bd 71756575 		.ascii	"queue_notempty\000"
 3987      655F6E6F 
 3987      74656D70 
 3987      747900
 3988              	.LASF21:
 3989 02cc 74737461 		.ascii	"tstate_t\000"
 3989      74655F74 
 3989      00
 3990              	.LASF33:
 3991 02d5 705F7374 		.ascii	"p_state\000"
 3991      61746500 
 3992              	.LASF14:
 3993 02dd 75696E74 		.ascii	"uint8_t\000"
 3993      385F7400 
 3994              	.LASF117:
 3995 02e5 6368436F 		.ascii	"chCondSignalI\000"
 3995      6E645369 
 3995      676E616C 
 3995      4900
 3996              	.LASF42:
 3997 02f3 705F6D70 		.ascii	"p_mpool\000"
 3997      6F6F6C00 
 3998              	.LASF40:
 3999 02fb 705F6D74 		.ascii	"p_mtxlist\000"
 3999      786C6973 
 3999      7400
 4000              	.LASF45:
 4001 0305 63685F74 		.ascii	"ch_thread\000"
 4001      68726561 
 4001      6400
 4002              	.LASF66:
 4003 030f 73797374 		.ascii	"system_debug_t\000"
 4003      656D5F64 
 4003      65627567 
 4003      5F7400
ARM GAS  /tmp/ccH1CDLU.s 			page 74


 4004              	.LASF11:
 4005 031e 6C6F6E67 		.ascii	"long long int\000"
 4005      206C6F6E 
 4005      6720696E 
 4005      7400
 4006              	.LASF51:
 4007 032c 725F7175 		.ascii	"r_queue\000"
 4007      65756500 
 4008              	.LASF24:
 4009 0334 6D73675F 		.ascii	"msg_t\000"
 4009      7400
 4010              	.LASF131:
 4011 033a 474E5520 		.ascii	"GNU C 4.9.3 20150529 (release) [ARM/embedded-4_9-br"
 4011      4320342E 
 4011      392E3320 
 4011      32303135 
 4011      30353239 
 4012 036d 616E6368 		.ascii	"anch revision 224288] -mcpu=cortex-m3 -mno-thumb-in"
 4012      20726576 
 4012      6973696F 
 4012      6E203232 
 4012      34323838 
 4013 03a0 74657277 		.ascii	"terwork -mthumb -ggdb -O2 -fomit-frame-pointer -fal"
 4013      6F726B20 
 4013      2D6D7468 
 4013      756D6220 
 4013      2D676764 
 4014 03d3 69676E2D 		.ascii	"ign-functions=16 -ffunction-sections -fdata-section"
 4014      66756E63 
 4014      74696F6E 
 4014      733D3136 
 4014      202D6666 
 4015 0406 73202D66 		.ascii	"s -fno-common\000"
 4015      6E6F2D63 
 4015      6F6D6D6F 
 4015      6E00
 4016              	.LASF78:
 4017 0414 636F6E74 		.ascii	"context\000"
 4017      65787400 
 4018              	.LASF34:
 4019 041c 705F666C 		.ascii	"p_flags\000"
 4019      61677300 
 4020              	.LASF56:
 4021 0424 76697274 		.ascii	"virtual_timer_t\000"
 4021      75616C5F 
 4021      74696D65 
 4021      725F7400 
 4022              	.LASF116:
 4023 0434 6368436F 		.ascii	"chCondSignal\000"
 4023      6E645369 
 4023      676E616C 
 4023      00
 4024              	.LASF109:
 4025 0441 71756575 		.ascii	"queue_fifo_remove\000"
 4025      655F6669 
 4025      666F5F72 
 4025      656D6F76 
ARM GAS  /tmp/ccH1CDLU.s 			page 75


 4025      6500
 4026              	.LASF68:
 4027 0453 70616E69 		.ascii	"panic_msg\000"
 4027      635F6D73 
 4027      6700
 4028              	.LASF38:
 4029 045d 705F6D73 		.ascii	"p_msg\000"
 4029      6700
 4030              	.LASF20:
 4031 0463 746D6F64 		.ascii	"tmode_t\000"
 4031      655F7400 
 4032              	.LASF73:
 4033 046b 6D61696E 		.ascii	"mainthread\000"
 4033      74687265 
 4033      616400
 4034              	.LASF15:
 4035 0476 75696E74 		.ascii	"uint16_t\000"
 4035      31365F74 
 4035      00
 4036              	.LASF19:
 4037 047f 7274636E 		.ascii	"rtcnt_t\000"
 4037      745F7400 
 4038              	.LASF111:
 4039 0487 5F5F6675 		.ascii	"__func__\000"
 4039      6E635F5F 
 4039      00
 4040              	.LASF41:
 4041 0490 705F7265 		.ascii	"p_realprio\000"
 4041      616C7072 
 4041      696F00
 4042              	.LASF3:
 4043 049b 73686F72 		.ascii	"short int\000"
 4043      7420696E 
 4043      7400
 4044              	.LASF54:
 4045 04a5 725F6375 		.ascii	"r_current\000"
 4045      7272656E 
 4045      7400
 4046              	.LASF39:
 4047 04af 705F6570 		.ascii	"p_epending\000"
 4047      656E6469 
 4047      6E6700
 4048              	.LASF93:
 4049 04ba 6D5F7175 		.ascii	"m_queue\000"
 4049      65756500 
 4050              	.LASF8:
 4051 04c2 6C6F6E67 		.ascii	"long int\000"
 4051      20696E74 
 4051      00
 4052              	.LASF79:
 4053 04cb 706F7274 		.ascii	"port_intctx\000"
 4053      5F696E74 
 4053      63747800 
 4054              	.LASF125:
 4055 04d7 49544D5F 		.ascii	"ITM_RxBuffer\000"
 4055      52784275 
 4055      66666572 
ARM GAS  /tmp/ccH1CDLU.s 			page 76


 4055      00
 4056              	.LASF70:
 4057 04e4 63685F73 		.ascii	"ch_system\000"
 4057      79737465 
 4057      6D00
 4058              	.LASF103:
 4059 04ee 5F5F7365 		.ascii	"__set_BASEPRI\000"
 4059      745F4241 
 4059      53455052 
 4059      4900
 4060              	.LASF29:
 4061 04fc 705F6E65 		.ascii	"p_next\000"
 4061      787400
 4062              	.LASF18:
 4063 0503 75696E74 		.ascii	"uint64_t\000"
 4063      36345F74 
 4063      00
 4064              	.LASF32:
 4065 050c 705F6374 		.ascii	"p_ctx\000"
 4065      7800
 4066              	.LASF71:
 4067 0512 726C6973 		.ascii	"rlist\000"
 4067      7400
 4068              	.LASF4:
 4069 0518 5F5F7569 		.ascii	"__uint8_t\000"
 4069      6E74385F 
 4069      7400
 4070              	.LASF132:
 4071 0522 2F686F6D 		.ascii	"/home/maciek/ChibiOS_16.1.5/os/rt/src/chcond.c\000"
 4071      652F6D61 
 4071      6369656B 
 4071      2F436869 
 4071      62694F53 
 4072              	.LASF128:
 4073 0551 63685363 		.ascii	"chSchGoSleepS\000"
 4073      68476F53 
 4073      6C656570 
 4073      5300
 4074              	.LASF127:
 4075 055f 63684D74 		.ascii	"chMtxUnlockS\000"
 4075      78556E6C 
 4075      6F636B53 
 4075      00
 4076              	.LASF120:
 4077 056c 6368436F 		.ascii	"chCondWaitS\000"
 4077      6E645761 
 4077      69745300 
 4078              	.LASF129:
 4079 0578 63684D74 		.ascii	"chMtxLockS\000"
 4079      784C6F63 
 4079      6B5300
 4080              	.LASF30:
 4081 0583 705F7072 		.ascii	"p_prev\000"
 4081      657600
 4082              	.LASF75:
 4083 058a 73697A65 		.ascii	"sizetype\000"
 4083      74797065 
ARM GAS  /tmp/ccH1CDLU.s 			page 77


 4083      00
 4084              	.LASF22:
 4085 0593 74726566 		.ascii	"trefs_t\000"
 4085      735F7400 
 4086              	.LASF10:
 4087 059b 6C6F6E67 		.ascii	"long unsigned int\000"
 4087      20756E73 
 4087      69676E65 
 4087      6420696E 
 4087      7400
 4088              	.LASF49:
 4089 05ad 72656164 		.ascii	"ready_list_t\000"
 4089      795F6C69 
 4089      73745F74 
 4089      00
 4090              	.LASF130:
 4091 05ba 63685363 		.ascii	"chSchGoSleepTimeoutS\000"
 4091      68476F53 
 4091      6C656570 
 4091      54696D65 
 4091      6F757453 
 4092              	.LASF16:
 4093 05cf 696E7433 		.ascii	"int32_t\000"
 4093      325F7400 
 4094              	.LASF86:
 4095 05d7 77747365 		.ascii	"wtsemp\000"
 4095      6D7000
 4096              	.LASF97:
 4097 05de 6D757465 		.ascii	"mutex_t\000"
 4097      785F7400 
 4098              	.LASF104:
 4099 05e6 71756575 		.ascii	"queue_init\000"
 4099      655F696E 
 4099      697400
 4100              	.LASF2:
 4101 05f1 756E7369 		.ascii	"unsigned char\000"
 4101      676E6564 
 4101      20636861 
 4101      7200
 4102              	.LASF9:
 4103 05ff 5F5F7569 		.ascii	"__uint32_t\000"
 4103      6E743332 
 4103      5F7400
 4104              	.LASF63:
 4105 060a 76697274 		.ascii	"virtual_timers_list_t\000"
 4105      75616C5F 
 4105      74696D65 
 4105      72735F6C 
 4105      6973745F 
 4106              	.LASF35:
 4107 0620 705F7265 		.ascii	"p_refs\000"
 4107      667300
 4108              	.LASF113:
 4109 0627 63684D74 		.ascii	"chMtxGetNextMutexS\000"
 4109      78476574 
 4109      4E657874 
 4109      4D757465 
ARM GAS  /tmp/ccH1CDLU.s 			page 78


 4109      785300
 4110              	.LASF126:
 4111 063a 63685363 		.ascii	"chSchWakeupS\000"
 4111      6857616B 
 4111      65757053 
 4111      00
 4112              	.LASF58:
 4113 0647 76745F6E 		.ascii	"vt_next\000"
 4113      65787400 
 4114              	.LASF69:
 4115 064f 63685F73 		.ascii	"ch_system_t\000"
 4115      79737465 
 4115      6D5F7400 
 4116              	.LASF85:
 4117 065b 77747472 		.ascii	"wttrp\000"
 4117      7000
 4118              	.LASF95:
 4119 0661 6D5F6E65 		.ascii	"m_next\000"
 4119      787400
 4120              	.LASF1:
 4121 0668 7369676E 		.ascii	"signed char\000"
 4121      65642063 
 4121      68617200 
 4122              	.LASF6:
 4123 0674 73686F72 		.ascii	"short unsigned int\000"
 4123      7420756E 
 4123      7369676E 
 4123      65642069 
 4123      6E7400
 4124              	.LASF53:
 4125 0687 725F6374 		.ascii	"r_ctx\000"
 4125      7800
 4126              	.LASF77:
 4127 068d 73746B61 		.ascii	"stkalign_t\000"
 4127      6C69676E 
 4127      5F7400
 4128              	.LASF122:
 4129 0698 6368436F 		.ascii	"chCondWaitTimeoutS\000"
 4129      6E645761 
 4129      69745469 
 4129      6D656F75 
 4129      745300
 4130              	.LASF112:
 4131 06ab 63685468 		.ascii	"chThdGetSelfX\000"
 4131      64476574 
 4131      53656C66 
 4131      5800
 4132              	.LASF61:
 4133 06b9 76745F66 		.ascii	"vt_func\000"
 4133      756E6300 
 4134              	.LASF102:
 4135 06c1 706F7274 		.ascii	"port_unlock\000"
 4135      5F756E6C 
 4135      6F636B00 
 4136              	.LASF59:
 4137 06cd 76745F70 		.ascii	"vt_prev\000"
 4137      72657600 
ARM GAS  /tmp/ccH1CDLU.s 			page 79


 4138              	.LASF83:
 4139 06d5 65786974 		.ascii	"exitcode\000"
 4139      636F6465 
 4139      00
 4140              		.ident	"GCC: (GNU Tools for ARM Embedded Processors) 4.9.3 20150529 (release) [ARM/embedded-4_9-br
ARM GAS  /tmp/ccH1CDLU.s 			page 80


DEFINED SYMBOLS
                            *ABS*:00000000 chcond.c
     /tmp/ccH1CDLU.s:19     .text.chCondObjectInit:00000000 $t
     /tmp/ccH1CDLU.s:25     .text.chCondObjectInit:00000000 chCondObjectInit
     /tmp/ccH1CDLU.s:48     .text.chCondSignal:00000000 $t
     /tmp/ccH1CDLU.s:54     .text.chCondSignal:00000000 chCondSignal
     /tmp/ccH1CDLU.s:151    .text.chCondSignalI:00000000 $t
     /tmp/ccH1CDLU.s:157    .text.chCondSignalI:00000000 chCondSignalI
     /tmp/ccH1CDLU.s:222    .text.chCondBroadcastI:00000000 $t
     /tmp/ccH1CDLU.s:228    .text.chCondBroadcastI:00000000 chCondBroadcastI
     /tmp/ccH1CDLU.s:287    .text.chCondBroadcast:00000000 $t
     /tmp/ccH1CDLU.s:293    .text.chCondBroadcast:00000000 chCondBroadcast
     /tmp/ccH1CDLU.s:345    .text.chCondWaitS:00000000 $t
     /tmp/ccH1CDLU.s:351    .text.chCondWaitS:00000000 chCondWaitS
     /tmp/ccH1CDLU.s:444    .text.chCondWaitS:00000040 $d
     /tmp/ccH1CDLU.s:449    .text.chCondWait:00000000 $t
     /tmp/ccH1CDLU.s:455    .text.chCondWait:00000000 chCondWait
     /tmp/ccH1CDLU.s:505    .text.chCondWaitTimeoutS:00000000 $t
     /tmp/ccH1CDLU.s:511    .text.chCondWaitTimeoutS:00000000 chCondWaitTimeoutS
     /tmp/ccH1CDLU.s:629    .text.chCondWaitTimeoutS:0000004c $d
     /tmp/ccH1CDLU.s:634    .text.chCondWaitTimeout:00000000 $t
     /tmp/ccH1CDLU.s:640    .text.chCondWaitTimeout:00000000 chCondWaitTimeout
                     .debug_frame:00000010 $d

UNDEFINED SYMBOLS
chSchWakeupS
chSchReadyI
chSchRescheduleS
chMtxUnlockS
chSchGoSleepS
chMtxLockS
ch
chSchGoSleepTimeoutS
