ARM GAS  /tmp/ccBnOoPN.s 			page 1


   1              		.syntax unified
   2              		.cpu cortex-m3
   3              		.fpu softvfp
   4              		.eabi_attribute 20, 1
   5              		.eabi_attribute 21, 1
   6              		.eabi_attribute 23, 3
   7              		.eabi_attribute 24, 1
   8              		.eabi_attribute 25, 1
   9              		.eabi_attribute 26, 1
  10              		.eabi_attribute 30, 2
  11              		.eabi_attribute 34, 1
  12              		.eabi_attribute 18, 4
  13              		.thumb
  14              		.file	"chdynamic.c"
  15              		.text
  16              	.Ltext0:
  17              		.cfi_sections	.debug_frame
  18              		.section	.text.chThdAddRef,"ax",%progbits
  19              		.align	2
  20              		.p2align 4,,15
  21              		.global	chThdAddRef
  22              		.thumb
  23              		.thumb_func
  24              		.type	chThdAddRef, %function
  25              	chThdAddRef:
  26              	.LFB170:
  27              		.file 1 "/home/maciek/ChibiOS_16.1.5/os/rt/src/chdynamic.c"
  28              		.loc 1 68 0
  29              		.cfi_startproc
  30              		@ args = 0, pretend = 0, frame = 0
  31              		@ frame_needed = 0, uses_anonymous_args = 0
  32              		@ link register save eliminated.
  33              	.LVL0:
  34              	.LBB64:
  35              	.LBB65:
  36              	.LBB66:
  37              	.LBB67:
  38              		.file 2 "/home/maciek/ChibiOS_16.1.5/os/ext/CMSIS/include/core_cmFunc.h"
  39              		.loc 2 548 0
  40 0000 2023     		movs	r3, #32
  41              	@ 548 "/home/maciek/ChibiOS_16.1.5/os/ext/CMSIS/include/core_cmFunc.h" 1
  42 0002 83F31188 		MSR basepri, r3
  43              	@ 0 "" 2
  44              		.thumb
  45              	.LBE67:
  46              	.LBE66:
  47              	.LBE65:
  48              	.LBE64:
  49              		.loc 1 72 0
  50 0006 837C     		ldrb	r3, [r0, #18]	@ zero_extendqisi2
  51              	.LBB68:
  52              	.LBB69:
  53              	.LBB70:
  54              	.LBB71:
  55              	.LBB72:
  56              		.loc 2 548 0
  57 0008 0021     		movs	r1, #0
ARM GAS  /tmp/ccBnOoPN.s 			page 2


  58              	.LBE72:
  59              	.LBE71:
  60              	.LBE70:
  61              	.LBE69:
  62              	.LBE68:
  63              		.loc 1 72 0
  64 000a 0133     		adds	r3, r3, #1
  65 000c 8374     		strb	r3, [r0, #18]
  66              	.LVL1:
  67              	.LBB77:
  68              	.LBB76:
  69              	.LBB75:
  70              	.LBB74:
  71              	.LBB73:
  72              		.loc 2 548 0
  73              	@ 548 "/home/maciek/ChibiOS_16.1.5/os/ext/CMSIS/include/core_cmFunc.h" 1
  74 000e 81F31188 		MSR basepri, r1
  75              	@ 0 "" 2
  76              		.thumb
  77              	.LBE73:
  78              	.LBE74:
  79              	.LBE75:
  80              	.LBE76:
  81              	.LBE77:
  82              		.loc 1 76 0
  83 0012 7047     		bx	lr
  84              		.cfi_endproc
  85              	.LFE170:
  86              		.size	chThdAddRef, .-chThdAddRef
  87              		.section	.text.chThdRelease,"ax",%progbits
  88              		.align	2
  89              		.p2align 4,,15
  90              		.global	chThdRelease
  91              		.thumb
  92              		.thumb_func
  93              		.type	chThdRelease, %function
  94              	chThdRelease:
  95              	.LFB171:
  96              		.loc 1 91 0
  97              		.cfi_startproc
  98              		@ args = 0, pretend = 0, frame = 0
  99              		@ frame_needed = 0, uses_anonymous_args = 0
 100              		@ link register save eliminated.
 101              	.LVL2:
 102              		.loc 1 91 0
 103 0000 0146     		mov	r1, r0
 104              	.LBB78:
 105              	.LBB79:
 106              	.LBB80:
 107              	.LBB81:
 108              		.loc 2 548 0
 109 0002 2023     		movs	r3, #32
 110              	@ 548 "/home/maciek/ChibiOS_16.1.5/os/ext/CMSIS/include/core_cmFunc.h" 1
 111 0004 83F31188 		MSR basepri, r3
 112              	@ 0 "" 2
 113              		.thumb
 114              	.LBE81:
ARM GAS  /tmp/ccBnOoPN.s 			page 3


 115              	.LBE80:
 116              	.LBE79:
 117              	.LBE78:
 118              		.loc 1 96 0
 119 0008 837C     		ldrb	r3, [r0, #18]	@ zero_extendqisi2
 120 000a 013B     		subs	r3, r3, #1
 121 000c DBB2     		uxtb	r3, r3
 122 000e 8374     		strb	r3, [r0, #18]
 123              	.LVL3:
 124              		.loc 1 102 0
 125 0010 13B9     		cbnz	r3, .L3
 126              		.loc 1 102 0 is_stmt 0 discriminator 1
 127 0012 027C     		ldrb	r2, [r0, #16]	@ zero_extendqisi2
 128 0014 0F2A     		cmp	r2, #15
 129 0016 03D0     		beq	.L7
 130              	.L3:
 131              	.LVL4:
 132              	.LBB82:
 133              	.LBB83:
 134              	.LBB84:
 135              	.LBB85:
 136              	.LBB86:
 137              		.loc 2 548 0 is_stmt 1
 138 0018 0023     		movs	r3, #0
 139              	.LVL5:
 140              	@ 548 "/home/maciek/ChibiOS_16.1.5/os/ext/CMSIS/include/core_cmFunc.h" 1
 141 001a 83F31188 		MSR basepri, r3
 142              	@ 0 "" 2
 143              		.thumb
 144 001e 7047     		bx	lr
 145              	.LVL6:
 146              	.L7:
 147              	.LBE86:
 148              	.LBE85:
 149              	.LBE84:
 150              	.LBE83:
 151              	.LBE82:
 152              		.loc 1 103 0
 153 0020 427C     		ldrb	r2, [r0, #17]	@ zero_extendqisi2
 154 0022 02F00302 		and	r2, r2, #3
 155 0026 012A     		cmp	r2, #1
 156 0028 06D0     		beq	.L4
 157 002a 022A     		cmp	r2, #2
 158 002c F4D1     		bne	.L3
 159              	.LVL7:
 160              	.LBB87:
 161              	.LBB88:
 162              	.LBB89:
 163              	.LBB90:
 164              	.LBB91:
 165              		.loc 2 548 0
 166              	@ 548 "/home/maciek/ChibiOS_16.1.5/os/ext/CMSIS/include/core_cmFunc.h" 1
 167 002e 83F31188 		MSR basepri, r3
 168              	@ 0 "" 2
 169              		.thumb
 170              	.LBE91:
 171              	.LBE90:
ARM GAS  /tmp/ccBnOoPN.s 			page 4


 172              	.LBE89:
 173              	.LBE88:
 174              	.LBE87:
 175              		.loc 1 119 0
 176 0032 406B     		ldr	r0, [r0, #52]
 177              	.LVL8:
 178 0034 FFF7FEBF 		b	chPoolFree
 179              	.LVL9:
 180              	.L4:
 181              	.LBB92:
 182              	.LBB93:
 183              	.LBB94:
 184              	.LBB95:
 185              	.LBB96:
 186              		.loc 2 548 0
 187              	@ 548 "/home/maciek/ChibiOS_16.1.5/os/ext/CMSIS/include/core_cmFunc.h" 1
 188 0038 83F31188 		MSR basepri, r3
 189              	@ 0 "" 2
 190              		.thumb
 191              	.LBE96:
 192              	.LBE95:
 193              	.LBE94:
 194              	.LBE93:
 195              	.LBE92:
 196              		.loc 1 110 0
 197 003c FFF7FEBF 		b	chHeapFree
 198              	.LVL10:
 199              		.cfi_endproc
 200              	.LFE171:
 201              		.size	chThdRelease, .-chThdRelease
 202              		.section	.text.chThdCreateFromHeap,"ax",%progbits
 203              		.align	2
 204              		.p2align 4,,15
 205              		.global	chThdCreateFromHeap
 206              		.thumb
 207              		.thumb_func
 208              		.type	chThdCreateFromHeap, %function
 209              	chThdCreateFromHeap:
 210              	.LFB172:
 211              		.loc 1 155 0
 212              		.cfi_startproc
 213              		@ args = 4, pretend = 0, frame = 0
 214              		@ frame_needed = 0, uses_anonymous_args = 0
 215              	.LVL11:
 216 0000 F0B5     		push	{r4, r5, r6, r7, lr}
 217              		.cfi_def_cfa_offset 20
 218              		.cfi_offset 4, -20
 219              		.cfi_offset 5, -16
 220              		.cfi_offset 6, -12
 221              		.cfi_offset 7, -8
 222              		.cfi_offset 14, -4
 223 0002 83B0     		sub	sp, sp, #12
 224              		.cfi_def_cfa_offset 32
 225              		.loc 1 155 0
 226 0004 1646     		mov	r6, r2
 227 0006 1D46     		mov	r5, r3
 228 0008 0F46     		mov	r7, r1
ARM GAS  /tmp/ccBnOoPN.s 			page 5


 229              		.loc 1 159 0
 230 000a FFF7FEFF 		bl	chHeapAlloc
 231              	.LVL12:
 232              		.loc 1 160 0
 233 000e 98B1     		cbz	r0, .L9
 234              	.LVL13:
 235              	.LBB97:
 236              	.LBB98:
 237              	.LBB99:
 238              	.LBB100:
 239              		.loc 2 548 0
 240 0010 2023     		movs	r3, #32
 241              	@ 548 "/home/maciek/ChibiOS_16.1.5/os/ext/CMSIS/include/core_cmFunc.h" 1
 242 0012 83F31188 		MSR basepri, r3
 243              	@ 0 "" 2
 244              		.thumb
 245              	.LBE100:
 246              	.LBE99:
 247              	.LBE98:
 248              	.LBE97:
 249              		.loc 1 174 0
 250 0016 089B     		ldr	r3, [sp, #32]
 251 0018 3946     		mov	r1, r7
 252 001a 0093     		str	r3, [sp]
 253 001c 3246     		mov	r2, r6
 254 001e 2B46     		mov	r3, r5
 255 0020 FFF7FEFF 		bl	chThdCreateI
 256              	.LVL14:
 257              		.loc 1 175 0
 258 0024 0123     		movs	r3, #1
 259 0026 4374     		strb	r3, [r0, #17]
 260              		.loc 1 176 0
 261 0028 0021     		movs	r1, #0
 262              		.loc 1 174 0
 263 002a 0446     		mov	r4, r0
 264              	.LVL15:
 265              		.loc 1 176 0
 266 002c FFF7FEFF 		bl	chSchWakeupS
 267              	.LVL16:
 268              	.LBB101:
 269              	.LBB102:
 270              	.LBB103:
 271              	.LBB104:
 272              	.LBB105:
 273              		.loc 2 548 0
 274 0030 0023     		movs	r3, #0
 275              	@ 548 "/home/maciek/ChibiOS_16.1.5/os/ext/CMSIS/include/core_cmFunc.h" 1
 276 0032 83F31188 		MSR basepri, r3
 277              	@ 0 "" 2
 278              		.thumb
 279              	.LBE105:
 280              	.LBE104:
 281              	.LBE103:
 282              	.LBE102:
 283              	.LBE101:
 284              		.loc 1 179 0
 285 0036 2046     		mov	r0, r4
ARM GAS  /tmp/ccBnOoPN.s 			page 6


 286              	.LVL17:
 287              	.L9:
 288              		.loc 1 180 0
 289 0038 03B0     		add	sp, sp, #12
 290              		.cfi_def_cfa_offset 20
 291              		@ sp needed
 292 003a F0BD     		pop	{r4, r5, r6, r7, pc}
 293              		.cfi_endproc
 294              	.LFE172:
 295              		.size	chThdCreateFromHeap, .-chThdCreateFromHeap
 296              		.section	.text.chThdCreateFromMemoryPool,"ax",%progbits
 297              		.align	2
 298              		.p2align 4,,15
 299              		.global	chThdCreateFromMemoryPool
 300              		.thumb
 301              		.thumb_func
 302              		.type	chThdCreateFromMemoryPool, %function
 303              	chThdCreateFromMemoryPool:
 304              	.LFB173:
 305              		.loc 1 207 0
 306              		.cfi_startproc
 307              		@ args = 0, pretend = 0, frame = 0
 308              		@ frame_needed = 0, uses_anonymous_args = 0
 309              	.LVL18:
 310 0000 2DE9F041 		push	{r4, r5, r6, r7, r8, lr}
 311              		.cfi_def_cfa_offset 24
 312              		.cfi_offset 4, -24
 313              		.cfi_offset 5, -20
 314              		.cfi_offset 6, -16
 315              		.cfi_offset 7, -12
 316              		.cfi_offset 8, -8
 317              		.cfi_offset 14, -4
 318 0004 82B0     		sub	sp, sp, #8
 319              		.cfi_def_cfa_offset 32
 320              		.loc 1 207 0
 321 0006 0F46     		mov	r7, r1
 322 0008 1646     		mov	r6, r2
 323 000a 9846     		mov	r8, r3
 324 000c 0546     		mov	r5, r0
 325              		.loc 1 213 0
 326 000e FFF7FEFF 		bl	chPoolAlloc
 327              	.LVL19:
 328              		.loc 1 214 0
 329 0012 A0B1     		cbz	r0, .L13
 330              	.LVL20:
 331              	.LBB106:
 332              	.LBB107:
 333              	.LBB108:
 334              	.LBB109:
 335              		.loc 2 548 0
 336 0014 2023     		movs	r3, #32
 337              	@ 548 "/home/maciek/ChibiOS_16.1.5/os/ext/CMSIS/include/core_cmFunc.h" 1
 338 0016 83F31188 		MSR basepri, r3
 339              	@ 0 "" 2
 340              		.thumb
 341              	.LBE109:
 342              	.LBE108:
ARM GAS  /tmp/ccBnOoPN.s 			page 7


 343              	.LBE107:
 344              	.LBE106:
 345              		.loc 1 228 0
 346 001a 6968     		ldr	r1, [r5, #4]
 347 001c 3A46     		mov	r2, r7
 348 001e 3346     		mov	r3, r6
 349 0020 CDF80080 		str	r8, [sp]
 350 0024 FFF7FEFF 		bl	chThdCreateI
 351              	.LVL21:
 352              		.loc 1 229 0
 353 0028 0223     		movs	r3, #2
 354 002a 4374     		strb	r3, [r0, #17]
 355              		.loc 1 230 0
 356 002c 4563     		str	r5, [r0, #52]
 357              		.loc 1 231 0
 358 002e 0021     		movs	r1, #0
 359              		.loc 1 228 0
 360 0030 0446     		mov	r4, r0
 361              	.LVL22:
 362              		.loc 1 231 0
 363 0032 FFF7FEFF 		bl	chSchWakeupS
 364              	.LVL23:
 365              	.LBB110:
 366              	.LBB111:
 367              	.LBB112:
 368              	.LBB113:
 369              	.LBB114:
 370              		.loc 2 548 0
 371 0036 0023     		movs	r3, #0
 372              	@ 548 "/home/maciek/ChibiOS_16.1.5/os/ext/CMSIS/include/core_cmFunc.h" 1
 373 0038 83F31188 		MSR basepri, r3
 374              	@ 0 "" 2
 375              		.thumb
 376              	.LBE114:
 377              	.LBE113:
 378              	.LBE112:
 379              	.LBE111:
 380              	.LBE110:
 381              		.loc 1 234 0
 382 003c 2046     		mov	r0, r4
 383              	.LVL24:
 384              	.L13:
 385              		.loc 1 235 0
 386 003e 02B0     		add	sp, sp, #8
 387              		.cfi_def_cfa_offset 24
 388              		@ sp needed
 389 0040 BDE8F081 		pop	{r4, r5, r6, r7, r8, pc}
 390              		.cfi_endproc
 391              	.LFE173:
 392              		.size	chThdCreateFromMemoryPool, .-chThdCreateFromMemoryPool
 393              		.text
 394              	.Letext0:
 395              		.file 3 "/opt/stm32/gcc/gcc-arm-none-eabi-4_9-2015q2/lib/gcc/arm-none-eabi/4.9.3/include/stddef.h"
 396              		.file 4 "/opt/stm32/gcc/gcc-arm-none-eabi-4_9-2015q2/arm-none-eabi/include/machine/_default_types.
 397              		.file 5 "/opt/stm32/gcc/gcc-arm-none-eabi-4_9-2015q2/arm-none-eabi/include/sys/_stdint.h"
 398              		.file 6 "/home/maciek/ChibiOS_16.1.5/os/rt/ports/ARMCMx/compilers/GCC/chtypes.h"
 399              		.file 7 "/home/maciek/ChibiOS_16.1.5/os/rt/include/chsystypes.h"
ARM GAS  /tmp/ccBnOoPN.s 			page 8


 400              		.file 8 "/home/maciek/ChibiOS_16.1.5/os/rt/include/chschd.h"
 401              		.file 9 "/home/maciek/ChibiOS_16.1.5/os/rt/ports/ARMCMx/chcore.h"
 402              		.file 10 "/home/maciek/ChibiOS_16.1.5/os/rt/ports/ARMCMx/chcore_v7m.h"
 403              		.file 11 "/home/maciek/ChibiOS_16.1.5/os/rt/include/chtm.h"
 404              		.file 12 "/home/maciek/ChibiOS_16.1.5/os/rt/include/chsem.h"
 405              		.file 13 "/home/maciek/ChibiOS_16.1.5/os/rt/include/chmtx.h"
 406              		.file 14 "/home/maciek/ChibiOS_16.1.5/os/rt/include/chthreads.h"
 407              		.file 15 "/home/maciek/ChibiOS_16.1.5/os/rt/include/chmemcore.h"
 408              		.file 16 "/home/maciek/ChibiOS_16.1.5/os/rt/include/chheap.h"
 409              		.file 17 "/home/maciek/ChibiOS_16.1.5/os/rt/include/chmempools.h"
 410              		.file 18 "/home/maciek/ChibiOS_16.1.5/os/rt/include/chsys.h"
 411              		.file 19 "/home/maciek/ChibiOS_16.1.5/os/ext/CMSIS/include/core_cm3.h"