ARM GAS  /tmp/ccdkT9wg.s 			page 1


   1              		.syntax unified
   2              		.cpu cortex-m3
   3              		.fpu softvfp
   4              		.eabi_attribute 20, 1
   5              		.eabi_attribute 21, 1
   6              		.eabi_attribute 23, 3
   7              		.eabi_attribute 24, 1
   8              		.eabi_attribute 25, 1
   9              		.eabi_attribute 26, 1
  10              		.eabi_attribute 30, 2
  11              		.eabi_attribute 34, 1
  12              		.eabi_attribute 18, 4
  13              		.thumb
  14              		.file	"chmboxes.c"
  15              		.text
  16              	.Ltext0:
  17              		.cfi_sections	.debug_frame
  18              		.section	.text.chMBObjectInit,"ax",%progbits
  19              		.align	2
  20              		.p2align 4,,15
  21              		.global	chMBObjectInit
  22              		.thumb
  23              		.thumb_func
  24              		.type	chMBObjectInit, %function
  25              	chMBObjectInit:
  26              	.LFB170:
  27              		.file 1 "/home/maciek/ChibiOS_16.1.5/os/rt/src/chmboxes.c"
  28              		.loc 1 86 0
  29              		.cfi_startproc
  30              		@ args = 0, pretend = 0, frame = 0
  31              		@ frame_needed = 0, uses_anonymous_args = 0
  32              	.LVL0:
  33 0000 0B46     		mov	r3, r1
  34 0002 10B5     		push	{r4, lr}
  35              		.cfi_def_cfa_offset 8
  36              		.cfi_offset 4, -8
  37              		.cfi_offset 14, -4
  38              		.loc 1 86 0
  39 0004 0446     		mov	r4, r0
  40              		.loc 1 93 0
  41 0006 01EB8201 		add	r1, r1, r2, lsl #2
  42              	.LVL1:
  43 000a 4160     		str	r1, [r0, #4]
  44              		.loc 1 90 0
  45 000c 0360     		str	r3, [r0]
  46              		.loc 1 91 0
  47 000e C360     		str	r3, [r0, #12]
  48              		.loc 1 92 0
  49 0010 8360     		str	r3, [r0, #8]
  50              		.loc 1 94 0
  51 0012 1146     		mov	r1, r2
  52 0014 1C30     		adds	r0, r0, #28
  53              	.LVL2:
  54 0016 FFF7FEFF 		bl	chSemObjectInit
  55              	.LVL3:
  56              		.loc 1 95 0
  57 001a 04F11000 		add	r0, r4, #16
ARM GAS  /tmp/ccdkT9wg.s 			page 2


  58 001e 0021     		movs	r1, #0
  59              		.loc 1 96 0
  60 0020 BDE81040 		pop	{r4, lr}
  61              		.cfi_restore 14
  62              		.cfi_restore 4
  63              		.cfi_def_cfa_offset 0
  64              	.LVL4:
  65              		.loc 1 95 0
  66 0024 FFF7FEBF 		b	chSemObjectInit
  67              	.LVL5:
  68              		.cfi_endproc
  69              	.LFE170:
  70              		.size	chMBObjectInit, .-chMBObjectInit
  71              		.section	.text.chMBResetI,"ax",%progbits
  72              		.align	2
  73              		.p2align 4,,15
  74              		.global	chMBResetI
  75              		.thumb
  76              		.thumb_func
  77              		.type	chMBResetI, %function
  78              	chMBResetI:
  79              	.LFB172:
  80              		.loc 1 124 0
  81              		.cfi_startproc
  82              		@ args = 0, pretend = 0, frame = 0
  83              		@ frame_needed = 0, uses_anonymous_args = 0
  84              	.LVL6:
  85 0000 10B5     		push	{r4, lr}
  86              		.cfi_def_cfa_offset 8
  87              		.cfi_offset 4, -8
  88              		.cfi_offset 14, -4
  89              		.loc 1 124 0
  90 0002 0446     		mov	r4, r0
  91              		.loc 1 129 0
  92 0004 0368     		ldr	r3, [r0]
  93              		.loc 1 131 0
  94 0006 4168     		ldr	r1, [r0, #4]
  95              		.loc 1 129 0
  96 0008 8360     		str	r3, [r0, #8]
  97              		.loc 1 131 0
  98 000a C91A     		subs	r1, r1, r3
  99              		.loc 1 130 0
 100 000c C360     		str	r3, [r0, #12]
 101              		.loc 1 131 0
 102 000e 8910     		asrs	r1, r1, #2
 103 0010 1C30     		adds	r0, r0, #28
 104              	.LVL7:
 105 0012 FFF7FEFF 		bl	chSemResetI
 106              	.LVL8:
 107              		.loc 1 132 0
 108 0016 04F11000 		add	r0, r4, #16
 109 001a 0021     		movs	r1, #0
 110              		.loc 1 133 0
 111 001c BDE81040 		pop	{r4, lr}
 112              		.cfi_restore 14
 113              		.cfi_restore 4
 114              		.cfi_def_cfa_offset 0
ARM GAS  /tmp/ccdkT9wg.s 			page 3


 115              	.LVL9:
 116              		.loc 1 132 0
 117 0020 FFF7FEBF 		b	chSemResetI
 118              	.LVL10:
 119              		.cfi_endproc
 120              	.LFE172:
 121              		.size	chMBResetI, .-chMBResetI
 122              		.section	.text.chMBReset,"ax",%progbits
 123              		.align	2
 124              		.p2align 4,,15
 125              		.global	chMBReset
 126              		.thumb
 127              		.thumb_func
 128              		.type	chMBReset, %function
 129              	chMBReset:
 130              	.LFB171:
 131              		.loc 1 107 0
 132              		.cfi_startproc
 133              		@ args = 0, pretend = 0, frame = 0
 134              		@ frame_needed = 0, uses_anonymous_args = 0
 135              	.LVL11:
 136 0000 08B5     		push	{r3, lr}
 137              		.cfi_def_cfa_offset 8
 138              		.cfi_offset 3, -8
 139              		.cfi_offset 14, -4
 140              	.LBB66:
 141              	.LBB67:
 142              	.LBB68:
 143              	.LBB69:
 144              		.file 2 "/home/maciek/ChibiOS_16.1.5/os/ext/CMSIS/include/core_cmFunc.h"
 145              		.loc 2 548 0
 146 0002 2023     		movs	r3, #32
 147              	@ 548 "/home/maciek/ChibiOS_16.1.5/os/ext/CMSIS/include/core_cmFunc.h" 1
 148 0004 83F31188 		MSR basepri, r3
 149              	@ 0 "" 2
 150              		.thumb
 151              	.LBE69:
 152              	.LBE68:
 153              	.LBE67:
 154              	.LBE66:
 155              		.loc 1 110 0
 156 0008 FFF7FEFF 		bl	chMBResetI
 157              	.LVL12:
 158              		.loc 1 111 0
 159 000c FFF7FEFF 		bl	chSchRescheduleS
 160              	.LVL13:
 161              	.LBB70:
 162              	.LBB71:
 163              	.LBB72:
 164              	.LBB73:
 165              	.LBB74:
 166              		.loc 2 548 0
 167 0010 0023     		movs	r3, #0
 168              	@ 548 "/home/maciek/ChibiOS_16.1.5/os/ext/CMSIS/include/core_cmFunc.h" 1
 169 0012 83F31188 		MSR basepri, r3
 170              	@ 0 "" 2
 171              		.thumb
ARM GAS  /tmp/ccdkT9wg.s 			page 4


 172 0016 08BD     		pop	{r3, pc}
 173              	.LBE74:
 174              	.LBE73:
 175              	.LBE72:
 176              	.LBE71:
 177              	.LBE70:
 178              		.cfi_endproc
 179              	.LFE171:
 180              		.size	chMBReset, .-chMBReset
 181              		.section	.text.chMBPostS,"ax",%progbits
 182              		.align	2
 183              		.p2align 4,,15
 184              		.global	chMBPostS
 185              		.thumb
 186              		.thumb_func
 187              		.type	chMBPostS, %function
 188              	chMBPostS:
 189              	.LFB174:
 190              		.loc 1 183 0
 191              		.cfi_startproc
 192              		@ args = 0, pretend = 0, frame = 0
 193              		@ frame_needed = 0, uses_anonymous_args = 0
 194              	.LVL14:
 195 0000 70B5     		push	{r4, r5, r6, lr}
 196              		.cfi_def_cfa_offset 16
 197              		.cfi_offset 4, -16
 198              		.cfi_offset 5, -12
 199              		.cfi_offset 6, -8
 200              		.cfi_offset 14, -4
 201              		.loc 1 183 0
 202 0002 0446     		mov	r4, r0
 203 0004 0E46     		mov	r6, r1
 204              		.loc 1 189 0
 205 0006 1C30     		adds	r0, r0, #28
 206              	.LVL15:
 207 0008 1146     		mov	r1, r2
 208              	.LVL16:
 209 000a FFF7FEFF 		bl	chSemWaitTimeoutS
 210              	.LVL17:
 211              		.loc 1 190 0
 212 000e 0546     		mov	r5, r0
 213 0010 78B9     		cbnz	r0, .L8
 214              	.LVL18:
 215              	.LBB77:
 216              	.LBB78:
 217              		.loc 1 191 0
 218 0012 A268     		ldr	r2, [r4, #8]
 219              		.loc 1 192 0
 220 0014 6168     		ldr	r1, [r4, #4]
 221              		.loc 1 191 0
 222 0016 131D     		adds	r3, r2, #4
 223              		.loc 1 192 0
 224 0018 8B42     		cmp	r3, r1
 225              		.loc 1 191 0
 226 001a A360     		str	r3, [r4, #8]
 227              		.loc 1 193 0
 228 001c 28BF     		it	cs
ARM GAS  /tmp/ccdkT9wg.s 			page 5


 229 001e 2368     		ldrcs	r3, [r4]
 230              		.loc 1 191 0
 231 0020 1660     		str	r6, [r2]
 232              		.loc 1 195 0
 233 0022 04F11000 		add	r0, r4, #16
 234              	.LVL19:
 235              		.loc 1 193 0
 236 0026 28BF     		it	cs
 237 0028 A360     		strcs	r3, [r4, #8]
 238              		.loc 1 195 0
 239 002a FFF7FEFF 		bl	chSemSignalI
 240              	.LVL20:
 241              		.loc 1 196 0
 242 002e FFF7FEFF 		bl	chSchRescheduleS
 243              	.LVL21:
 244              	.L8:
 245              	.LBE78:
 246              	.LBE77:
 247              		.loc 1 200 0
 248 0032 2846     		mov	r0, r5
 249 0034 70BD     		pop	{r4, r5, r6, pc}
 250              		.cfi_endproc
 251              	.LFE174:
 252              		.size	chMBPostS, .-chMBPostS
 253 0036 00BF     		.section	.text.chMBPost,"ax",%progbits
 254              		.align	2
 255              		.p2align 4,,15
 256              		.global	chMBPost
 257              		.thumb
 258              		.thumb_func
 259              		.type	chMBPost, %function
 260              	chMBPost:
 261              	.LFB173:
 262              		.loc 1 154 0
 263              		.cfi_startproc
 264              		@ args = 0, pretend = 0, frame = 0
 265              		@ frame_needed = 0, uses_anonymous_args = 0
 266              	.LVL22:
 267 0000 08B5     		push	{r3, lr}
 268              		.cfi_def_cfa_offset 8
 269              		.cfi_offset 3, -8
 270              		.cfi_offset 14, -4
 271              	.LBB79:
 272              	.LBB80:
 273              	.LBB81:
 274              	.LBB82:
 275              		.loc 2 548 0
 276 0002 2023     		movs	r3, #32
 277              	@ 548 "/home/maciek/ChibiOS_16.1.5/os/ext/CMSIS/include/core_cmFunc.h" 1
 278 0004 83F31188 		MSR basepri, r3
 279              	@ 0 "" 2
 280              		.thumb
 281              	.LBE82:
 282              	.LBE81:
 283              	.LBE80:
 284              	.LBE79:
 285              		.loc 1 158 0
ARM GAS  /tmp/ccdkT9wg.s 			page 6


 286 0008 FFF7FEFF 		bl	chMBPostS
 287              	.LVL23:
 288              	.LBB83:
 289              	.LBB84:
 290              	.LBB85:
 291              	.LBB86:
 292              	.LBB87:
 293              		.loc 2 548 0
 294 000c 0023     		movs	r3, #0
 295              	@ 548 "/home/maciek/ChibiOS_16.1.5/os/ext/CMSIS/include/core_cmFunc.h" 1
 296 000e 83F31188 		MSR basepri, r3
 297              	@ 0 "" 2
 298              		.thumb
 299              	.LBE87:
 300              	.LBE86:
 301              	.LBE85:
 302              	.LBE84:
 303              	.LBE83:
 304              		.loc 1 162 0
 305 0012 08BD     		pop	{r3, pc}
 306              		.cfi_endproc
 307              	.LFE173:
 308              		.size	chMBPost, .-chMBPost
 309              		.section	.text.chMBPostI,"ax",%progbits
 310              		.align	2
 311              		.p2align 4,,15
 312              		.global	chMBPostI
 313              		.thumb
 314              		.thumb_func
 315              		.type	chMBPostI, %function
 316              	chMBPostI:
 317              	.LFB175:
 318              		.loc 1 216 0
 319              		.cfi_startproc
 320              		@ args = 0, pretend = 0, frame = 0
 321              		@ frame_needed = 0, uses_anonymous_args = 0
 322              	.LVL24:
 323 0000 38B5     		push	{r3, r4, r5, lr}
 324              		.cfi_def_cfa_offset 16
 325              		.cfi_offset 3, -16
 326              		.cfi_offset 4, -12
 327              		.cfi_offset 5, -8
 328              		.cfi_offset 14, -4
 329 0002 436A     		ldr	r3, [r0, #36]
 330              	.LVL25:
 331              		.loc 1 221 0
 332 0004 002B     		cmp	r3, #0
 333 0006 12DD     		ble	.L17
 334              	.LVL26:
 335              		.loc 1 226 0
 336 0008 8468     		ldr	r4, [r0, #8]
 337              		.loc 1 227 0
 338 000a 4568     		ldr	r5, [r0, #4]
 339              		.loc 1 226 0
 340 000c 221D     		adds	r2, r4, #4
 341              	.LBB88:
 342              	.LBB89:
ARM GAS  /tmp/ccdkT9wg.s 			page 7


 343              		.file 3 "/home/maciek/ChibiOS_16.1.5/os/rt/include/chsem.h"
 344              		.loc 3 122 0
 345 000e 013B     		subs	r3, r3, #1
 346              	.LBE89:
 347              	.LBE88:
 348              		.loc 1 227 0
 349 0010 AA42     		cmp	r2, r5
 350              	.LBB91:
 351              	.LBB90:
 352              		.loc 3 122 0
 353 0012 4362     		str	r3, [r0, #36]
 354              	.LBE90:
 355              	.LBE91:
 356              		.loc 1 228 0
 357 0014 28BF     		it	cs
 358 0016 0368     		ldrcs	r3, [r0]
 359              		.loc 1 226 0
 360 0018 8260     		str	r2, [r0, #8]
 361 001a 2160     		str	r1, [r4]
 362              		.loc 1 230 0
 363 001c 00F11000 		add	r0, r0, #16
 364              	.LVL27:
 365              		.loc 1 228 0
 366 0020 28BF     		it	cs
 367 0022 40F8083C 		strcs	r3, [r0, #-8]
 368              		.loc 1 230 0
 369 0026 FFF7FEFF 		bl	chSemSignalI
 370              	.LVL28:
 371              		.loc 1 232 0
 372 002a 0020     		movs	r0, #0
 373 002c 38BD     		pop	{r3, r4, r5, pc}
 374              	.LVL29:
 375              	.L17:
 376              		.loc 1 222 0
 377 002e 4FF0FF30 		mov	r0, #-1
 378              	.LVL30:
 379              		.loc 1 233 0
 380 0032 38BD     		pop	{r3, r4, r5, pc}
 381              		.cfi_endproc
 382              	.LFE175:
 383              		.size	chMBPostI, .-chMBPostI
 384              		.section	.text.chMBPostAheadS,"ax",%progbits
 385              		.align	2
 386              		.p2align 4,,15
 387              		.global	chMBPostAheadS
 388              		.thumb
 389              		.thumb_func
 390              		.type	chMBPostAheadS, %function
 391              	chMBPostAheadS:
 392              	.LFB177:
 393              		.loc 1 283 0
 394              		.cfi_startproc
 395              		@ args = 0, pretend = 0, frame = 0
 396              		@ frame_needed = 0, uses_anonymous_args = 0
 397              	.LVL31:
 398 0000 70B5     		push	{r4, r5, r6, lr}
 399              		.cfi_def_cfa_offset 16
ARM GAS  /tmp/ccdkT9wg.s 			page 8


 400              		.cfi_offset 4, -16
 401              		.cfi_offset 5, -12
 402              		.cfi_offset 6, -8
 403              		.cfi_offset 14, -4
 404              		.loc 1 283 0
 405 0002 0446     		mov	r4, r0
 406 0004 0E46     		mov	r6, r1
 407              		.loc 1 289 0
 408 0006 1C30     		adds	r0, r0, #28
 409              	.LVL32:
 410 0008 1146     		mov	r1, r2
 411              	.LVL33:
 412 000a FFF7FEFF 		bl	chSemWaitTimeoutS
 413              	.LVL34:
 414              		.loc 1 290 0
 415 000e 0546     		mov	r5, r0
 416 0010 60B9     		cbnz	r0, .L20
 417              	.LVL35:
 418              	.LBB94:
 419              	.LBB95:
 420              		.loc 1 291 0
 421 0012 E368     		ldr	r3, [r4, #12]
 422 0014 2268     		ldr	r2, [r4]
 423 0016 043B     		subs	r3, r3, #4
 424 0018 9342     		cmp	r3, r2
 425 001a E360     		str	r3, [r4, #12]
 426 001c 08D3     		bcc	.L23
 427              	.L21:
 428              		.loc 1 294 0
 429 001e 1E60     		str	r6, [r3]
 430              		.loc 1 295 0
 431 0020 04F11000 		add	r0, r4, #16
 432              	.LVL36:
 433 0024 FFF7FEFF 		bl	chSemSignalI
 434              	.LVL37:
 435              		.loc 1 296 0
 436 0028 FFF7FEFF 		bl	chSchRescheduleS
 437              	.LVL38:
 438              	.L20:
 439              	.LBE95:
 440              	.LBE94:
 441              		.loc 1 300 0
 442 002c 2846     		mov	r0, r5
 443 002e 70BD     		pop	{r4, r5, r6, pc}
 444              	.LVL39:
 445              	.L23:
 446              	.LBB97:
 447              	.LBB96:
 448              		.loc 1 292 0
 449 0030 6368     		ldr	r3, [r4, #4]
 450 0032 043B     		subs	r3, r3, #4
 451 0034 E360     		str	r3, [r4, #12]
 452 0036 F2E7     		b	.L21
 453              	.LBE96:
 454              	.LBE97:
 455              		.cfi_endproc
 456              	.LFE177:
ARM GAS  /tmp/ccdkT9wg.s 			page 9


 457              		.size	chMBPostAheadS, .-chMBPostAheadS
 458              		.section	.text.chMBPostAhead,"ax",%progbits
 459              		.align	2
 460              		.p2align 4,,15
 461              		.global	chMBPostAhead
 462              		.thumb
 463              		.thumb_func
 464              		.type	chMBPostAhead, %function
 465              	chMBPostAhead:
 466              	.LFB176:
 467              		.loc 1 254 0
 468              		.cfi_startproc
 469              		@ args = 0, pretend = 0, frame = 0
 470              		@ frame_needed = 0, uses_anonymous_args = 0
 471              	.LVL40:
 472 0000 08B5     		push	{r3, lr}
 473              		.cfi_def_cfa_offset 8
 474              		.cfi_offset 3, -8
 475              		.cfi_offset 14, -4
 476              	.LBB98:
 477              	.LBB99:
 478              	.LBB100:
 479              	.LBB101:
 480              		.loc 2 548 0
 481 0002 2023     		movs	r3, #32
 482              	@ 548 "/home/maciek/ChibiOS_16.1.5/os/ext/CMSIS/include/core_cmFunc.h" 1
 483 0004 83F31188 		MSR basepri, r3
 484              	@ 0 "" 2
 485              		.thumb
 486              	.LBE101:
 487              	.LBE100:
 488              	.LBE99:
 489              	.LBE98:
 490              		.loc 1 258 0
 491 0008 FFF7FEFF 		bl	chMBPostAheadS
 492              	.LVL41:
 493              	.LBB102:
 494              	.LBB103:
 495              	.LBB104:
 496              	.LBB105:
 497              	.LBB106:
 498              		.loc 2 548 0
 499 000c 0023     		movs	r3, #0
 500              	@ 548 "/home/maciek/ChibiOS_16.1.5/os/ext/CMSIS/include/core_cmFunc.h" 1
 501 000e 83F31188 		MSR basepri, r3
 502              	@ 0 "" 2
 503              		.thumb
 504              	.LBE106:
 505              	.LBE105:
 506              	.LBE104:
 507              	.LBE103:
 508              	.LBE102:
 509              		.loc 1 262 0
 510 0012 08BD     		pop	{r3, pc}
 511              		.cfi_endproc
 512              	.LFE176:
 513              		.size	chMBPostAhead, .-chMBPostAhead
ARM GAS  /tmp/ccdkT9wg.s 			page 10


 514              		.section	.text.chMBPostAheadI,"ax",%progbits
 515              		.align	2
 516              		.p2align 4,,15
 517              		.global	chMBPostAheadI
 518              		.thumb
 519              		.thumb_func
 520              		.type	chMBPostAheadI, %function
 521              	chMBPostAheadI:
 522              	.LFB178:
 523              		.loc 1 316 0
 524              		.cfi_startproc
 525              		@ args = 0, pretend = 0, frame = 0
 526              		@ frame_needed = 0, uses_anonymous_args = 0
 527              	.LVL42:
 528 0000 426A     		ldr	r2, [r0, #36]
 529              	.LVL43:
 530              		.loc 1 321 0
 531 0002 002A     		cmp	r2, #0
 532 0004 11DD     		ble	.L29
 533              	.LVL44:
 534              		.loc 1 325 0
 535 0006 C368     		ldr	r3, [r0, #12]
 536              		.loc 1 316 0
 537 0008 10B5     		push	{r4, lr}
 538              		.cfi_def_cfa_offset 8
 539              		.cfi_offset 4, -8
 540              		.cfi_offset 14, -4
 541              		.loc 1 325 0
 542 000a 0468     		ldr	r4, [r0]
 543 000c 043B     		subs	r3, r3, #4
 544              	.LBB107:
 545              	.LBB108:
 546              		.loc 3 122 0
 547 000e 013A     		subs	r2, r2, #1
 548              	.LBE108:
 549              	.LBE107:
 550              		.loc 1 325 0
 551 0010 A342     		cmp	r3, r4
 552              	.LBB110:
 553              	.LBB109:
 554              		.loc 3 122 0
 555 0012 4262     		str	r2, [r0, #36]
 556              	.LBE109:
 557              	.LBE110:
 558              		.loc 1 325 0
 559 0014 C360     		str	r3, [r0, #12]
 560 0016 02D2     		bcs	.L28
 561              		.loc 1 326 0
 562 0018 4368     		ldr	r3, [r0, #4]
 563 001a 043B     		subs	r3, r3, #4
 564 001c C360     		str	r3, [r0, #12]
 565              	.L28:
 566              		.loc 1 328 0
 567 001e 1960     		str	r1, [r3]
 568              		.loc 1 329 0
 569 0020 1030     		adds	r0, r0, #16
 570              	.LVL45:
ARM GAS  /tmp/ccdkT9wg.s 			page 11


 571 0022 FFF7FEFF 		bl	chSemSignalI
 572              	.LVL46:
 573              		.loc 1 331 0
 574 0026 0020     		movs	r0, #0
 575 0028 10BD     		pop	{r4, pc}
 576              	.LVL47:
 577              	.L29:
 578              		.cfi_def_cfa_offset 0
 579              		.cfi_restore 4
 580              		.cfi_restore 14
 581              		.loc 1 322 0
 582 002a 4FF0FF30 		mov	r0, #-1
 583              	.LVL48:
 584 002e 7047     		bx	lr
 585              		.cfi_endproc
 586              	.LFE178:
 587              		.size	chMBPostAheadI, .-chMBPostAheadI
 588              		.section	.text.chMBFetchS,"ax",%progbits
 589              		.align	2
 590              		.p2align 4,,15
 591              		.global	chMBFetchS
 592              		.thumb
 593              		.thumb_func
 594              		.type	chMBFetchS, %function
 595              	chMBFetchS:
 596              	.LFB180:
 597              		.loc 1 382 0
 598              		.cfi_startproc
 599              		@ args = 0, pretend = 0, frame = 0
 600              		@ frame_needed = 0, uses_anonymous_args = 0
 601              	.LVL49:
 602 0000 70B5     		push	{r4, r5, r6, lr}
 603              		.cfi_def_cfa_offset 16
 604              		.cfi_offset 4, -16
 605              		.cfi_offset 5, -12
 606              		.cfi_offset 6, -8
 607              		.cfi_offset 14, -4
 608              		.loc 1 382 0
 609 0002 0446     		mov	r4, r0
 610 0004 0E46     		mov	r6, r1
 611              		.loc 1 388 0
 612 0006 1030     		adds	r0, r0, #16
 613              	.LVL50:
 614 0008 1146     		mov	r1, r2
 615              	.LVL51:
 616 000a FFF7FEFF 		bl	chSemWaitTimeoutS
 617              	.LVL52:
 618              		.loc 1 389 0
 619 000e 0546     		mov	r5, r0
 620 0010 80B9     		cbnz	r0, .L33
 621              	.LVL53:
 622              	.LBB113:
 623              	.LBB114:
 624              		.loc 1 390 0
 625 0012 E368     		ldr	r3, [r4, #12]
 626              		.loc 1 391 0
 627 0014 6268     		ldr	r2, [r4, #4]
ARM GAS  /tmp/ccdkT9wg.s 			page 12


 628              		.loc 1 390 0
 629 0016 1968     		ldr	r1, [r3]
 630 0018 0433     		adds	r3, r3, #4
 631              		.loc 1 391 0
 632 001a 9342     		cmp	r3, r2
 633              		.loc 1 390 0
 634 001c E360     		str	r3, [r4, #12]
 635              		.loc 1 392 0
 636 001e 28BF     		it	cs
 637 0020 2368     		ldrcs	r3, [r4]
 638              		.loc 1 390 0
 639 0022 3160     		str	r1, [r6]
 640              		.loc 1 394 0
 641 0024 04F11C00 		add	r0, r4, #28
 642              	.LVL54:
 643              		.loc 1 392 0
 644 0028 28BF     		it	cs
 645 002a E360     		strcs	r3, [r4, #12]
 646              		.loc 1 394 0
 647 002c FFF7FEFF 		bl	chSemSignalI
 648              	.LVL55:
 649              		.loc 1 395 0
 650 0030 FFF7FEFF 		bl	chSchRescheduleS
 651              	.LVL56:
 652              	.L33:
 653              	.LBE114:
 654              	.LBE113:
 655              		.loc 1 399 0
 656 0034 2846     		mov	r0, r5
 657 0036 70BD     		pop	{r4, r5, r6, pc}
 658              		.cfi_endproc
 659              	.LFE180:
 660              		.size	chMBFetchS, .-chMBFetchS
 661              		.section	.text.chMBFetch,"ax",%progbits
 662              		.align	2
 663              		.p2align 4,,15
 664              		.global	chMBFetch
 665              		.thumb
 666              		.thumb_func
 667              		.type	chMBFetch, %function
 668              	chMBFetch:
 669              	.LFB179:
 670              		.loc 1 353 0
 671              		.cfi_startproc
 672              		@ args = 0, pretend = 0, frame = 0
 673              		@ frame_needed = 0, uses_anonymous_args = 0
 674              	.LVL57:
 675 0000 08B5     		push	{r3, lr}
 676              		.cfi_def_cfa_offset 8
 677              		.cfi_offset 3, -8
 678              		.cfi_offset 14, -4
 679              	.LBB115:
 680              	.LBB116:
 681              	.LBB117:
 682              	.LBB118:
 683              		.loc 2 548 0
 684 0002 2023     		movs	r3, #32
ARM GAS  /tmp/ccdkT9wg.s 			page 13


 685              	@ 548 "/home/maciek/ChibiOS_16.1.5/os/ext/CMSIS/include/core_cmFunc.h" 1
 686 0004 83F31188 		MSR basepri, r3
 687              	@ 0 "" 2
 688              		.thumb
 689              	.LBE118:
 690              	.LBE117:
 691              	.LBE116:
 692              	.LBE115:
 693              		.loc 1 357 0
 694 0008 FFF7FEFF 		bl	chMBFetchS
 695              	.LVL58:
 696              	.LBB119:
 697              	.LBB120:
 698              	.LBB121:
 699              	.LBB122:
 700              	.LBB123:
 701              		.loc 2 548 0
 702 000c 0023     		movs	r3, #0
 703              	@ 548 "/home/maciek/ChibiOS_16.1.5/os/ext/CMSIS/include/core_cmFunc.h" 1
 704 000e 83F31188 		MSR basepri, r3
 705              	@ 0 "" 2
 706              		.thumb
 707              	.LBE123:
 708              	.LBE122:
 709              	.LBE121:
 710              	.LBE120:
 711              	.LBE119:
 712              		.loc 1 361 0
 713 0012 08BD     		pop	{r3, pc}
 714              		.cfi_endproc
 715              	.LFE179:
 716              		.size	chMBFetch, .-chMBFetch
 717              		.section	.text.chMBFetchI,"ax",%progbits
 718              		.align	2
 719              		.p2align 4,,15
 720              		.global	chMBFetchI
 721              		.thumb
 722              		.thumb_func
 723              		.type	chMBFetchI, %function
 724              	chMBFetchI:
 725              	.LFB181:
 726              		.loc 1 415 0
 727              		.cfi_startproc
 728              		@ args = 0, pretend = 0, frame = 0
 729              		@ frame_needed = 0, uses_anonymous_args = 0
 730              	.LVL59:
 731 0000 8369     		ldr	r3, [r0, #24]
 732              	.LVL60:
 733              		.loc 1 420 0
 734 0002 002B     		cmp	r3, #0
 735 0004 14DD     		ble	.L41
 736              	.LVL61:
 737              	.LBB124:
 738              	.LBB125:
 739              		.loc 3 122 0
 740 0006 5A1E     		subs	r2, r3, #1
 741              	.LBE125:
ARM GAS  /tmp/ccdkT9wg.s 			page 14


 742              	.LBE124:
 743              		.loc 1 424 0
 744 0008 C368     		ldr	r3, [r0, #12]
 745              		.loc 1 415 0
 746 000a 10B5     		push	{r4, lr}
 747              		.cfi_def_cfa_offset 8
 748              		.cfi_offset 4, -8
 749              		.cfi_offset 14, -4
 750              	.LBB127:
 751              	.LBB126:
 752              		.loc 3 122 0
 753 000c 8261     		str	r2, [r0, #24]
 754              	.LBE126:
 755              	.LBE127:
 756              		.loc 1 425 0
 757 000e 4268     		ldr	r2, [r0, #4]
 758              		.loc 1 424 0
 759 0010 1C68     		ldr	r4, [r3]
 760 0012 0433     		adds	r3, r3, #4
 761              		.loc 1 425 0
 762 0014 9342     		cmp	r3, r2
 763              		.loc 1 424 0
 764 0016 C360     		str	r3, [r0, #12]
 765              		.loc 1 426 0
 766 0018 28BF     		it	cs
 767 001a 0368     		ldrcs	r3, [r0]
 768              		.loc 1 424 0
 769 001c 0C60     		str	r4, [r1]
 770              		.loc 1 428 0
 771 001e 00F11C00 		add	r0, r0, #28
 772              	.LVL62:
 773              		.loc 1 426 0
 774 0022 28BF     		it	cs
 775 0024 40F8103C 		strcs	r3, [r0, #-16]
 776              		.loc 1 428 0
 777 0028 FFF7FEFF 		bl	chSemSignalI
 778              	.LVL63:
 779              		.loc 1 430 0
 780 002c 0020     		movs	r0, #0
 781 002e 10BD     		pop	{r4, pc}
 782              	.LVL64:
 783              	.L41:
 784              		.cfi_def_cfa_offset 0
 785              		.cfi_restore 4
 786              		.cfi_restore 14
 787              		.loc 1 421 0
 788 0030 4FF0FF30 		mov	r0, #-1
 789              	.LVL65:
 790 0034 7047     		bx	lr
 791              		.cfi_endproc
 792              	.LFE181:
 793              		.size	chMBFetchI, .-chMBFetchI
 794 0036 00BF     		.text
 795              	.Letext0:
 796              		.file 4 "/opt/stm32/gcc/gcc-arm-none-eabi-4_9-2015q2/arm-none-eabi/include/machine/_default_types.
 797              		.file 5 "/opt/stm32/gcc/gcc-arm-none-eabi-4_9-2015q2/arm-none-eabi/include/sys/_stdint.h"
 798              		.file 6 "/home/maciek/ChibiOS_16.1.5/os/rt/ports/ARMCMx/compilers/GCC/chtypes.h"
ARM GAS  /tmp/ccdkT9wg.s 			page 15


 799              		.file 7 "/home/maciek/ChibiOS_16.1.5/os/rt/include/chsystypes.h"
 800              		.file 8 "/home/maciek/ChibiOS_16.1.5/os/rt/include/chschd.h"
 801              		.file 9 "/home/maciek/ChibiOS_16.1.5/os/rt/ports/ARMCMx/chcore.h"
 802              		.file 10 "/home/maciek/ChibiOS_16.1.5/os/rt/ports/ARMCMx/chcore_v7m.h"
 803              		.file 11 "/home/maciek/ChibiOS_16.1.5/os/rt/include/chtm.h"
 804              		.file 12 "/home/maciek/ChibiOS_16.1.5/os/rt/include/chmtx.h"
 805              		.file 13 "/home/maciek/ChibiOS_16.1.5/os/rt/include/chmboxes.h"
 806              		.file 14 "/home/maciek/ChibiOS_16.1.5/os/rt/include/chsys.h"
 807              		.file 15 "/home/maciek/ChibiOS_16.1.5/os/ext/CMSIS/include/core_cm3.h"
 808              		.section	.debug_info,"",%progbits
 809              	.Ldebug_info0:
 810 0000 72100000 		.4byte	0x1072
 811 0004 0400     		.2byte	0x4
 812 0006 00000000 		.4byte	.Ldebug_abbrev0
 813 000a 04       		.byte	0x4
 814 000b 01       		.uleb128 0x1
 815 000c 38030000 		.4byte	.LASF133
 816 0010 01       		.byte	0x1
 817 0011 3F050000 		.4byte	.LASF134
 818 0015 60000000 		.4byte	.Ldebug_ranges0+0x60
 819 0019 00000000 		.4byte	0
 820 001d 00000000 		.4byte	.Ldebug_line0
 821 0021 02       		.uleb128 0x2
 822 0022 04       		.byte	0x4
 823 0023 05       		.byte	0x5
 824 0024 696E7400 		.ascii	"int\000"
 825 0028 03       		.uleb128 0x3
 826 0029 04       		.byte	0x4
 827 002a 07       		.byte	0x7
 828 002b 87000000 		.4byte	.LASF0
 829 002f 03       		.uleb128 0x3
 830 0030 01       		.byte	0x1
 831 0031 06       		.byte	0x6
 832 0032 4B060000 		.4byte	.LASF1
 833 0036 04       		.uleb128 0x4
 834 0037 35050000 		.4byte	.LASF4
 835 003b 04       		.byte	0x4
 836 003c 1D       		.byte	0x1d
 837 003d 41000000 		.4byte	0x41
 838 0041 03       		.uleb128 0x3
 839 0042 01       		.byte	0x1
 840 0043 08       		.byte	0x8
 841 0044 C8050000 		.4byte	.LASF2
 842 0048 03       		.uleb128 0x3
 843 0049 02       		.byte	0x2
 844 004a 05       		.byte	0x5
 845 004b AF040000 		.4byte	.LASF3
 846 004f 04       		.uleb128 0x4
 847 0050 BC010000 		.4byte	.LASF5
 848 0054 04       		.byte	0x4
 849 0055 2B       		.byte	0x2b
 850 0056 5A000000 		.4byte	0x5a
 851 005a 03       		.uleb128 0x3
 852 005b 02       		.byte	0x2
 853 005c 07       		.byte	0x7
 854 005d 57060000 		.4byte	.LASF6
 855 0061 04       		.uleb128 0x4
ARM GAS  /tmp/ccdkT9wg.s 			page 16


 856 0062 B2000000 		.4byte	.LASF7
 857 0066 04       		.byte	0x4
 858 0067 3F       		.byte	0x3f
 859 0068 6C000000 		.4byte	0x6c
 860 006c 03       		.uleb128 0x3
 861 006d 04       		.byte	0x4
 862 006e 05       		.byte	0x5
 863 006f DF040000 		.4byte	.LASF8
 864 0073 04       		.uleb128 0x4
 865 0074 D6050000 		.4byte	.LASF9
 866 0078 04       		.byte	0x4
 867 0079 41       		.byte	0x41
 868 007a 7E000000 		.4byte	0x7e
 869 007e 03       		.uleb128 0x3
 870 007f 04       		.byte	0x4
 871 0080 07       		.byte	0x7
 872 0081 88050000 		.4byte	.LASF10
 873 0085 03       		.uleb128 0x3
 874 0086 08       		.byte	0x8
 875 0087 05       		.byte	0x5
 876 0088 0D030000 		.4byte	.LASF11
 877 008c 04       		.uleb128 0x4
 878 008d 65020000 		.4byte	.LASF12
 879 0091 04       		.byte	0x4
 880 0092 5B       		.byte	0x5b
 881 0093 97000000 		.4byte	0x97
 882 0097 03       		.uleb128 0x3
 883 0098 08       		.byte	0x8
 884 0099 07       		.byte	0x7
 885 009a A5010000 		.4byte	.LASF13
 886 009e 04       		.uleb128 0x4
 887 009f CF020000 		.4byte	.LASF14
 888 00a3 05       		.byte	0x5
 889 00a4 14       		.byte	0x14
 890 00a5 36000000 		.4byte	0x36
 891 00a9 04       		.uleb128 0x4
 892 00aa 93040000 		.4byte	.LASF15
 893 00ae 05       		.byte	0x5
 894 00af 1A       		.byte	0x1a
 895 00b0 4F000000 		.4byte	0x4f
 896 00b4 04       		.uleb128 0x4
 897 00b5 B1050000 		.4byte	.LASF16
 898 00b9 05       		.byte	0x5
 899 00ba 1F       		.byte	0x1f
 900 00bb 61000000 		.4byte	0x61
 901 00bf 04       		.uleb128 0x4
 902 00c0 4F010000 		.4byte	.LASF17
 903 00c4 05       		.byte	0x5
 904 00c5 20       		.byte	0x20
 905 00c6 73000000 		.4byte	0x73
 906 00ca 04       		.uleb128 0x4
 907 00cb 20050000 		.4byte	.LASF18
 908 00cf 05       		.byte	0x5
 909 00d0 26       		.byte	0x26
 910 00d1 8C000000 		.4byte	0x8c
 911 00d5 04       		.uleb128 0x4
 912 00d6 9C040000 		.4byte	.LASF19
ARM GAS  /tmp/ccdkT9wg.s 			page 17


 913 00da 06       		.byte	0x6
 914 00db 39       		.byte	0x39
 915 00dc BF000000 		.4byte	0xbf
 916 00e0 04       		.uleb128 0x4
 917 00e1 68040000 		.4byte	.LASF20
 918 00e5 06       		.byte	0x6
 919 00e6 3C       		.byte	0x3c
 920 00e7 9E000000 		.4byte	0x9e
 921 00eb 04       		.uleb128 0x4
 922 00ec BE020000 		.4byte	.LASF21
 923 00f0 06       		.byte	0x6
 924 00f1 3D       		.byte	0x3d
 925 00f2 9E000000 		.4byte	0x9e
 926 00f6 04       		.uleb128 0x4
 927 00f7 80050000 		.4byte	.LASF22
 928 00fb 06       		.byte	0x6
 929 00fc 3E       		.byte	0x3e
 930 00fd 9E000000 		.4byte	0x9e
 931 0101 04       		.uleb128 0x4
 932 0102 7F010000 		.4byte	.LASF23
 933 0106 06       		.byte	0x6
 934 0107 40       		.byte	0x40
 935 0108 BF000000 		.4byte	0xbf
 936 010c 04       		.uleb128 0x4
 937 010d 32030000 		.4byte	.LASF24
 938 0111 06       		.byte	0x6
 939 0112 41       		.byte	0x41
 940 0113 B4000000 		.4byte	0xb4
 941 0117 04       		.uleb128 0x4
 942 0118 58010000 		.4byte	.LASF25
 943 011c 06       		.byte	0x6
 944 011d 43       		.byte	0x43
 945 011e BF000000 		.4byte	0xbf
 946 0122 04       		.uleb128 0x4
 947 0123 C7010000 		.4byte	.LASF26
 948 0127 06       		.byte	0x6
 949 0128 45       		.byte	0x45
 950 0129 B4000000 		.4byte	0xb4
 951 012d 04       		.uleb128 0x4
 952 012e 57000000 		.4byte	.LASF27
 953 0132 07       		.byte	0x7
 954 0133 35       		.byte	0x35
 955 0134 A9000000 		.4byte	0xa9
 956 0138 04       		.uleb128 0x4
 957 0139 02020000 		.4byte	.LASF28
 958 013d 07       		.byte	0x7
 959 013e 3F       		.byte	0x3f
 960 013f 43010000 		.4byte	0x143
 961 0143 05       		.uleb128 0x5
 962 0144 F4020000 		.4byte	.LASF45
 963 0148 38       		.byte	0x38
 964 0149 08       		.byte	0x8
 965 014a C2       		.byte	0xc2
 966 014b 0C020000 		.4byte	0x20c
 967 014f 06       		.uleb128 0x6
 968 0150 19050000 		.4byte	.LASF29
 969 0154 08       		.byte	0x8
ARM GAS  /tmp/ccdkT9wg.s 			page 18


 970 0155 C3       		.byte	0xc3
 971 0156 17020000 		.4byte	0x217
 972 015a 00       		.byte	0
 973 015b 06       		.uleb128 0x6
 974 015c 70050000 		.4byte	.LASF30
 975 0160 08       		.byte	0x8
 976 0161 C5       		.byte	0xc5
 977 0162 17020000 		.4byte	0x217
 978 0166 04       		.byte	0x4
 979 0167 06       		.uleb128 0x6
 980 0168 50000000 		.4byte	.LASF31
 981 016c 08       		.byte	0x8
 982 016d C7       		.byte	0xc7
 983 016e 01010000 		.4byte	0x101
 984 0172 08       		.byte	0x8
 985 0173 06       		.uleb128 0x6
 986 0174 29050000 		.4byte	.LASF32
 987 0178 08       		.byte	0x8
 988 0179 C8       		.byte	0xc8
 989 017a 2D040000 		.4byte	0x42d
 990 017e 0C       		.byte	0xc
 991 017f 06       		.uleb128 0x6
 992 0180 C7020000 		.4byte	.LASF33
 993 0184 08       		.byte	0x8
 994 0185 DD       		.byte	0xdd
 995 0186 EB000000 		.4byte	0xeb
 996 018a 10       		.byte	0x10
 997 018b 06       		.uleb128 0x6
 998 018c 1A040000 		.4byte	.LASF34
 999 0190 08       		.byte	0x8
 1000 0191 E1       		.byte	0xe1
 1001 0192 E0000000 		.4byte	0xe0
 1002 0196 11       		.byte	0x11
 1003 0197 06       		.uleb128 0x6
 1004 0198 F7050000 		.4byte	.LASF35
 1005 019c 08       		.byte	0x8
 1006 019d E6       		.byte	0xe6
 1007 019e F6000000 		.4byte	0xf6
 1008 01a2 12       		.byte	0x12
 1009 01a3 07       		.uleb128 0x7
 1010 01a4 705F7500 		.ascii	"p_u\000"
 1011 01a8 08       		.byte	0x8
 1012 01a9 3101     		.2byte	0x131
 1013 01ab E7040000 		.4byte	0x4e7
 1014 01af 14       		.byte	0x14
 1015 01b0 08       		.uleb128 0x8
 1016 01b1 20000000 		.4byte	.LASF36
 1017 01b5 08       		.byte	0x8
 1018 01b6 3601     		.2byte	0x136
 1019 01b8 1D020000 		.4byte	0x21d
 1020 01bc 18       		.byte	0x18
 1021 01bd 08       		.uleb128 0x8
 1022 01be 7C000000 		.4byte	.LASF37
 1023 01c2 08       		.byte	0x8
 1024 01c3 3C01     		.2byte	0x13c
 1025 01c5 41020000 		.4byte	0x241
 1026 01c9 1C       		.byte	0x1c
ARM GAS  /tmp/ccdkT9wg.s 			page 19


 1027 01ca 08       		.uleb128 0x8
 1028 01cb 58040000 		.4byte	.LASF38
 1029 01cf 08       		.byte	0x8
 1030 01d0 4001     		.2byte	0x140
 1031 01d2 0C010000 		.4byte	0x10c
 1032 01d6 24       		.byte	0x24
 1033 01d7 08       		.uleb128 0x8
 1034 01d8 CC040000 		.4byte	.LASF39
 1035 01dc 08       		.byte	0x8
 1036 01dd 4601     		.2byte	0x146
 1037 01df 17010000 		.4byte	0x117
 1038 01e3 28       		.byte	0x28
 1039 01e4 08       		.uleb128 0x8
 1040 01e5 EA020000 		.4byte	.LASF40
 1041 01e9 08       		.byte	0x8
 1042 01ea 4D01     		.2byte	0x14d
 1043 01ec A6050000 		.4byte	0x5a6
 1044 01f0 2C       		.byte	0x2c
 1045 01f1 08       		.uleb128 0x8
 1046 01f2 A4040000 		.4byte	.LASF41
 1047 01f6 08       		.byte	0x8
 1048 01f7 5101     		.2byte	0x151
 1049 01f9 01010000 		.4byte	0x101
 1050 01fd 30       		.byte	0x30
 1051 01fe 08       		.uleb128 0x8
 1052 01ff E2020000 		.4byte	.LASF42
 1053 0203 08       		.byte	0x8
 1054 0204 5801     		.2byte	0x158
 1055 0206 DA020000 		.4byte	0x2da
 1056 020a 34       		.byte	0x34
 1057 020b 00       		.byte	0
 1058 020c 04       		.uleb128 0x4
 1059 020d AB020000 		.4byte	.LASF43
 1060 0211 07       		.byte	0x7
 1061 0212 44       		.byte	0x44
 1062 0213 17020000 		.4byte	0x217
 1063 0217 09       		.uleb128 0x9
 1064 0218 04       		.byte	0x4
 1065 0219 38010000 		.4byte	0x138
 1066 021d 04       		.uleb128 0x4
 1067 021e A3000000 		.4byte	.LASF44
 1068 0222 07       		.byte	0x7
 1069 0223 49       		.byte	0x49
 1070 0224 28020000 		.4byte	0x228
 1071 0228 05       		.uleb128 0x5
 1072 0229 00000000 		.4byte	.LASF46
 1073 022d 04       		.byte	0x4
 1074 022e 08       		.byte	0x8
 1075 022f B0       		.byte	0xb0
 1076 0230 41020000 		.4byte	0x241
 1077 0234 06       		.uleb128 0x6
 1078 0235 19050000 		.4byte	.LASF29
 1079 0239 08       		.byte	0x8
 1080 023a B1       		.byte	0xb1
 1081 023b 17020000 		.4byte	0x217
 1082 023f 00       		.byte	0
 1083 0240 00       		.byte	0
ARM GAS  /tmp/ccdkT9wg.s 			page 20


 1084 0241 04       		.uleb128 0x4
 1085 0242 10000000 		.4byte	.LASF47
 1086 0246 07       		.byte	0x7
 1087 0247 50       		.byte	0x50
 1088 0248 4C020000 		.4byte	0x24c
 1089 024c 05       		.uleb128 0x5
 1090 024d 09010000 		.4byte	.LASF48
 1091 0251 08       		.byte	0x8
 1092 0252 08       		.byte	0x8
 1093 0253 B7       		.byte	0xb7
 1094 0254 71020000 		.4byte	0x271
 1095 0258 06       		.uleb128 0x6
 1096 0259 19050000 		.4byte	.LASF29
 1097 025d 08       		.byte	0x8
 1098 025e B8       		.byte	0xb8
 1099 025f 17020000 		.4byte	0x217
 1100 0263 00       		.byte	0
 1101 0264 06       		.uleb128 0x6
 1102 0265 70050000 		.4byte	.LASF30
 1103 0269 08       		.byte	0x8
 1104 026a B9       		.byte	0xb9
 1105 026b 17020000 		.4byte	0x217
 1106 026f 04       		.byte	0x4
 1107 0270 00       		.byte	0
 1108 0271 04       		.uleb128 0x4
 1109 0272 A4050000 		.4byte	.LASF49
 1110 0276 07       		.byte	0x7
 1111 0277 57       		.byte	0x57
 1112 0278 7C020000 		.4byte	0x27c
 1113 027c 0A       		.uleb128 0xa
 1114 027d E5000000 		.4byte	.LASF50
 1115 0281 14       		.byte	0x14
 1116 0282 08       		.byte	0x8
 1117 0283 9001     		.2byte	0x190
 1118 0285 BE020000 		.4byte	0x2be
 1119 0289 08       		.uleb128 0x8
 1120 028a 2A030000 		.4byte	.LASF51
 1121 028e 08       		.byte	0x8
 1122 028f 9101     		.2byte	0x191
 1123 0291 41020000 		.4byte	0x241
 1124 0295 00       		.byte	0
 1125 0296 08       		.uleb128 0x8
 1126 0297 64010000 		.4byte	.LASF52
 1127 029b 08       		.byte	0x8
 1128 029c 9201     		.2byte	0x192
 1129 029e 01010000 		.4byte	0x101
 1130 02a2 08       		.byte	0x8
 1131 02a3 08       		.uleb128 0x8
 1132 02a4 6A060000 		.4byte	.LASF53
 1133 02a8 08       		.byte	0x8
 1134 02a9 9401     		.2byte	0x194
 1135 02ab 2D040000 		.4byte	0x42d
 1136 02af 0C       		.byte	0xc
 1137 02b0 08       		.uleb128 0x8
 1138 02b1 C2040000 		.4byte	.LASF54
 1139 02b5 08       		.byte	0x8
 1140 02b6 9B01     		.2byte	0x19b
ARM GAS  /tmp/ccdkT9wg.s 			page 21


 1141 02b8 17020000 		.4byte	0x217
 1142 02bc 10       		.byte	0x10
 1143 02bd 00       		.byte	0
 1144 02be 04       		.uleb128 0x4
 1145 02bf 1A010000 		.4byte	.LASF55
 1146 02c3 07       		.byte	0x7
 1147 02c4 5C       		.byte	0x5c
 1148 02c5 C9020000 		.4byte	0x2c9
 1149 02c9 09       		.uleb128 0x9
 1150 02ca 04       		.byte	0x4
 1151 02cb CF020000 		.4byte	0x2cf
 1152 02cf 0B       		.uleb128 0xb
 1153 02d0 DA020000 		.4byte	0x2da
 1154 02d4 0C       		.uleb128 0xc
 1155 02d5 DA020000 		.4byte	0x2da
 1156 02d9 00       		.byte	0
 1157 02da 0D       		.uleb128 0xd
 1158 02db 04       		.byte	0x4
 1159 02dc 04       		.uleb128 0x4
 1160 02dd 22040000 		.4byte	.LASF56
 1161 02e1 07       		.byte	0x7
 1162 02e2 61       		.byte	0x61
 1163 02e3 E7020000 		.4byte	0x2e7
 1164 02e7 0A       		.uleb128 0xa
 1165 02e8 94010000 		.4byte	.LASF57
 1166 02ec 14       		.byte	0x14
 1167 02ed 08       		.byte	0x8
 1168 02ee 6B01     		.2byte	0x16b
 1169 02f0 36030000 		.4byte	0x336
 1170 02f4 08       		.uleb128 0x8
 1171 02f5 2A060000 		.4byte	.LASF58
 1172 02f9 08       		.byte	0x8
 1173 02fa 6C01     		.2byte	0x16c
 1174 02fc AC050000 		.4byte	0x5ac
 1175 0300 00       		.byte	0
 1176 0301 08       		.uleb128 0x8
 1177 0302 9D060000 		.4byte	.LASF59
 1178 0306 08       		.byte	0x8
 1179 0307 6D01     		.2byte	0x16d
 1180 0309 AC050000 		.4byte	0x5ac
 1181 030d 04       		.byte	0x4
 1182 030e 08       		.uleb128 0x8
 1183 030f A2020000 		.4byte	.LASF60
 1184 0313 08       		.byte	0x8
 1185 0314 6E01     		.2byte	0x16e
 1186 0316 2D010000 		.4byte	0x12d
 1187 031a 08       		.byte	0x8
 1188 031b 08       		.uleb128 0x8
 1189 031c 89060000 		.4byte	.LASF61
 1190 0320 08       		.byte	0x8
 1191 0321 6F01     		.2byte	0x16f
 1192 0323 BE020000 		.4byte	0x2be
 1193 0327 0C       		.byte	0xc
 1194 0328 08       		.uleb128 0x8
 1195 0329 6B010000 		.4byte	.LASF62
 1196 032d 08       		.byte	0x8
 1197 032e 7101     		.2byte	0x171
ARM GAS  /tmp/ccdkT9wg.s 			page 22


 1198 0330 DA020000 		.4byte	0x2da
 1199 0334 10       		.byte	0x10
 1200 0335 00       		.byte	0
 1201 0336 04       		.uleb128 0x4
 1202 0337 E1050000 		.4byte	.LASF63
 1203 033b 07       		.byte	0x7
 1204 033c 66       		.byte	0x66
 1205 033d 41030000 		.4byte	0x341
 1206 0341 0A       		.uleb128 0xa
 1207 0342 EB010000 		.4byte	.LASF64
 1208 0346 0C       		.byte	0xc
 1209 0347 08       		.byte	0x8
 1210 0348 7B01     		.2byte	0x17b
 1211 034a 83030000 		.4byte	0x383
 1212 034e 08       		.uleb128 0x8
 1213 034f 2A060000 		.4byte	.LASF58
 1214 0353 08       		.byte	0x8
 1215 0354 7C01     		.2byte	0x17c
 1216 0356 AC050000 		.4byte	0x5ac
 1217 035a 00       		.byte	0
 1218 035b 08       		.uleb128 0x8
 1219 035c 9D060000 		.4byte	.LASF59
 1220 0360 08       		.byte	0x8
 1221 0361 7E01     		.2byte	0x17e
 1222 0363 AC050000 		.4byte	0x5ac
 1223 0367 04       		.byte	0x4
 1224 0368 08       		.uleb128 0x8
 1225 0369 A2020000 		.4byte	.LASF60
 1226 036d 08       		.byte	0x8
 1227 036e 8001     		.2byte	0x180
 1228 0370 2D010000 		.4byte	0x12d
 1229 0374 08       		.byte	0x8
 1230 0375 08       		.uleb128 0x8
 1231 0376 71000000 		.4byte	.LASF65
 1232 037a 08       		.byte	0x8
 1233 037b 8201     		.2byte	0x182
 1234 037d B2050000 		.4byte	0x5b2
 1235 0381 0A       		.byte	0xa
 1236 0382 00       		.byte	0
 1237 0383 04       		.uleb128 0x4
 1238 0384 FE020000 		.4byte	.LASF66
 1239 0388 07       		.byte	0x7
 1240 0389 6B       		.byte	0x6b
 1241 038a 8E030000 		.4byte	0x38e
 1242 038e 0A       		.uleb128 0xa
 1243 038f 29010000 		.4byte	.LASF67
 1244 0393 04       		.byte	0x4
 1245 0394 08       		.byte	0x8
 1246 0395 A201     		.2byte	0x1a2
 1247 0397 A9030000 		.4byte	0x3a9
 1248 039b 08       		.uleb128 0x8
 1249 039c 39040000 		.4byte	.LASF68
 1250 03a0 08       		.byte	0x8
 1251 03a1 AA01     		.2byte	0x1aa
 1252 03a3 B7050000 		.4byte	0x5b7
 1253 03a7 00       		.byte	0
 1254 03a8 00       		.byte	0
ARM GAS  /tmp/ccdkT9wg.s 			page 23


 1255 03a9 04       		.uleb128 0x4
 1256 03aa 32060000 		.4byte	.LASF69
 1257 03ae 07       		.byte	0x7
 1258 03af 70       		.byte	0x70
 1259 03b0 B4030000 		.4byte	0x3b4
 1260 03b4 0E       		.uleb128 0xe
 1261 03b5 01050000 		.4byte	.LASF70
 1262 03b9 3001     		.2byte	0x130
 1263 03bb 08       		.byte	0x8
 1264 03bc C201     		.2byte	0x1c2
 1265 03be 10040000 		.4byte	0x410
 1266 03c2 08       		.uleb128 0x8
 1267 03c3 2F050000 		.4byte	.LASF71
 1268 03c7 08       		.byte	0x8
 1269 03c8 C601     		.2byte	0x1c6
 1270 03ca 71020000 		.4byte	0x271
 1271 03ce 00       		.byte	0
 1272 03cf 08       		.uleb128 0x8
 1273 03d0 DE000000 		.4byte	.LASF72
 1274 03d4 08       		.byte	0x8
 1275 03d5 CA01     		.2byte	0x1ca
 1276 03d7 36030000 		.4byte	0x336
 1277 03db 14       		.byte	0x14
 1278 03dc 07       		.uleb128 0x7
 1279 03dd 64626700 		.ascii	"dbg\000"
 1280 03e1 08       		.byte	0x8
 1281 03e2 CE01     		.2byte	0x1ce
 1282 03e4 83030000 		.4byte	0x383
 1283 03e8 20       		.byte	0x20
 1284 03e9 08       		.uleb128 0x8
 1285 03ea 70040000 		.4byte	.LASF73
 1286 03ee 08       		.byte	0x8
 1287 03ef D201     		.2byte	0x1d2
 1288 03f1 38010000 		.4byte	0x138
 1289 03f5 24       		.byte	0x24
 1290 03f6 07       		.uleb128 0x7
 1291 03f7 746D00   		.ascii	"tm\000"
 1292 03fa 08       		.byte	0x8
 1293 03fb D701     		.2byte	0x1d7
 1294 03fd DC040000 		.4byte	0x4dc
 1295 0401 5C       		.byte	0x5c
 1296 0402 08       		.uleb128 0x8
 1297 0403 F3000000 		.4byte	.LASF74
 1298 0407 08       		.byte	0x8
 1299 0408 E301     		.2byte	0x1e3
 1300 040a CE050000 		.4byte	0x5ce
 1301 040e 60       		.byte	0x60
 1302 040f 00       		.byte	0
 1303 0410 03       		.uleb128 0x3
 1304 0411 04       		.byte	0x4
 1305 0412 07       		.byte	0x7
 1306 0413 77050000 		.4byte	.LASF75
 1307 0417 04       		.uleb128 0x4
 1308 0418 47000000 		.4byte	.LASF76
 1309 041c 09       		.byte	0x9
 1310 041d 65       		.byte	0x65
 1311 041e DA020000 		.4byte	0x2da
ARM GAS  /tmp/ccdkT9wg.s 			page 24


 1312 0422 04       		.uleb128 0x4
 1313 0423 70060000 		.4byte	.LASF77
 1314 0427 09       		.byte	0x9
 1315 0428 6D       		.byte	0x6d
 1316 0429 CA000000 		.4byte	0xca
 1317 042d 05       		.uleb128 0x5
 1318 042e 12040000 		.4byte	.LASF78
 1319 0432 04       		.byte	0x4
 1320 0433 09       		.byte	0x9
 1321 0434 89       		.byte	0x89
 1322 0435 46040000 		.4byte	0x446
 1323 0439 0F       		.uleb128 0xf
 1324 043a 72313300 		.ascii	"r13\000"
 1325 043e 09       		.byte	0x9
 1326 043f 8A       		.byte	0x8a
 1327 0440 C1040000 		.4byte	0x4c1
 1328 0444 00       		.byte	0
 1329 0445 00       		.byte	0
 1330 0446 05       		.uleb128 0x5
 1331 0447 E8040000 		.4byte	.LASF79
 1332 044b 24       		.byte	0x24
 1333 044c 0A       		.byte	0xa
 1334 044d FD       		.byte	0xfd
 1335 044e C1040000 		.4byte	0x4c1
 1336 0452 07       		.uleb128 0x7
 1337 0453 723400   		.ascii	"r4\000"
 1338 0456 0A       		.byte	0xa
 1339 0457 1001     		.2byte	0x110
 1340 0459 17040000 		.4byte	0x417
 1341 045d 00       		.byte	0
 1342 045e 07       		.uleb128 0x7
 1343 045f 723500   		.ascii	"r5\000"
 1344 0462 0A       		.byte	0xa
 1345 0463 1101     		.2byte	0x111
 1346 0465 17040000 		.4byte	0x417
 1347 0469 04       		.byte	0x4
 1348 046a 07       		.uleb128 0x7
 1349 046b 723600   		.ascii	"r6\000"
 1350 046e 0A       		.byte	0xa
 1351 046f 1201     		.2byte	0x112
 1352 0471 17040000 		.4byte	0x417
 1353 0475 08       		.byte	0x8
 1354 0476 07       		.uleb128 0x7
 1355 0477 723700   		.ascii	"r7\000"
 1356 047a 0A       		.byte	0xa
 1357 047b 1301     		.2byte	0x113
 1358 047d 17040000 		.4byte	0x417
 1359 0481 0C       		.byte	0xc
 1360 0482 07       		.uleb128 0x7
 1361 0483 723800   		.ascii	"r8\000"
 1362 0486 0A       		.byte	0xa
 1363 0487 1401     		.2byte	0x114
 1364 0489 17040000 		.4byte	0x417
 1365 048d 10       		.byte	0x10
 1366 048e 07       		.uleb128 0x7
 1367 048f 723900   		.ascii	"r9\000"
 1368 0492 0A       		.byte	0xa
ARM GAS  /tmp/ccdkT9wg.s 			page 25


 1369 0493 1501     		.2byte	0x115
 1370 0495 17040000 		.4byte	0x417
 1371 0499 14       		.byte	0x14
 1372 049a 07       		.uleb128 0x7
 1373 049b 72313000 		.ascii	"r10\000"
 1374 049f 0A       		.byte	0xa
 1375 04a0 1601     		.2byte	0x116
 1376 04a2 17040000 		.4byte	0x417
 1377 04a6 18       		.byte	0x18
 1378 04a7 07       		.uleb128 0x7
 1379 04a8 72313100 		.ascii	"r11\000"
 1380 04ac 0A       		.byte	0xa
 1381 04ad 1701     		.2byte	0x117
 1382 04af 17040000 		.4byte	0x417
 1383 04b3 1C       		.byte	0x1c
 1384 04b4 07       		.uleb128 0x7
 1385 04b5 6C7200   		.ascii	"lr\000"
 1386 04b8 0A       		.byte	0xa
 1387 04b9 1801     		.2byte	0x118
 1388 04bb 17040000 		.4byte	0x417
 1389 04bf 20       		.byte	0x20
 1390 04c0 00       		.byte	0
 1391 04c1 09       		.uleb128 0x9
 1392 04c2 04       		.byte	0x4
 1393 04c3 46040000 		.4byte	0x446
 1394 04c7 10       		.uleb128 0x10
 1395 04c8 04       		.byte	0x4
 1396 04c9 0B       		.byte	0xb
 1397 04ca 38       		.byte	0x38
 1398 04cb DC040000 		.4byte	0x4dc
 1399 04cf 06       		.uleb128 0x6
 1400 04d0 24020000 		.4byte	.LASF80
 1401 04d4 0B       		.byte	0xb
 1402 04d5 3C       		.byte	0x3c
 1403 04d6 D5000000 		.4byte	0xd5
 1404 04da 00       		.byte	0
 1405 04db 00       		.byte	0
 1406 04dc 04       		.uleb128 0x4
 1407 04dd 31000000 		.4byte	.LASF81
 1408 04e1 0B       		.byte	0xb
 1409 04e2 3D       		.byte	0x3d
 1410 04e3 C7040000 		.4byte	0x4c7
 1411 04e7 11       		.uleb128 0x11
 1412 04e8 04       		.byte	0x4
 1413 04e9 08       		.byte	0x8
 1414 04ea FA       		.byte	0xfa
 1415 04eb 44050000 		.4byte	0x544
 1416 04ef 12       		.uleb128 0x12
 1417 04f0 1D020000 		.4byte	.LASF82
 1418 04f4 08       		.byte	0x8
 1419 04f5 0101     		.2byte	0x101
 1420 04f7 0C010000 		.4byte	0x10c
 1421 04fb 12       		.uleb128 0x12
 1422 04fc A5060000 		.4byte	.LASF83
 1423 0500 08       		.byte	0x8
 1424 0501 0801     		.2byte	0x108
 1425 0503 0C010000 		.4byte	0x10c
ARM GAS  /tmp/ccdkT9wg.s 			page 26


 1426 0507 12       		.uleb128 0x12
 1427 0508 CD000000 		.4byte	.LASF84
 1428 050c 08       		.byte	0x8
 1429 050d 0F01     		.2byte	0x10f
 1430 050f DA020000 		.4byte	0x2da
 1431 0513 12       		.uleb128 0x12
 1432 0514 3E060000 		.4byte	.LASF85
 1433 0518 08       		.byte	0x8
 1434 0519 1601     		.2byte	0x116
 1435 051b 44050000 		.4byte	0x544
 1436 051f 12       		.uleb128 0x12
 1437 0520 B9050000 		.4byte	.LASF86
 1438 0524 08       		.byte	0x8
 1439 0525 1E01     		.2byte	0x11e
 1440 0527 6F050000 		.4byte	0x56f
 1441 052b 12       		.uleb128 0x12
 1442 052c 2A000000 		.4byte	.LASF87
 1443 0530 08       		.byte	0x8
 1444 0531 2701     		.2byte	0x127
 1445 0533 A6050000 		.4byte	0x5a6
 1446 0537 12       		.uleb128 0x12
 1447 0538 02010000 		.4byte	.LASF88
 1448 053c 08       		.byte	0x8
 1449 053d 2F01     		.2byte	0x12f
 1450 053f 17010000 		.4byte	0x117
 1451 0543 00       		.byte	0
 1452 0544 09       		.uleb128 0x9
 1453 0545 04       		.byte	0x4
 1454 0546 0C020000 		.4byte	0x20c
 1455 054a 05       		.uleb128 0x5
 1456 054b 72010000 		.4byte	.LASF89
 1457 054f 0C       		.byte	0xc
 1458 0550 03       		.byte	0x3
 1459 0551 34       		.byte	0x34
 1460 0552 6F050000 		.4byte	0x56f
 1461 0556 06       		.uleb128 0x6
 1462 0557 69000000 		.4byte	.LASF90
 1463 055b 03       		.byte	0x3
 1464 055c 35       		.byte	0x35
 1465 055d 41020000 		.4byte	0x241
 1466 0561 00       		.byte	0
 1467 0562 06       		.uleb128 0x6
 1468 0563 23010000 		.4byte	.LASF91
 1469 0567 03       		.byte	0x3
 1470 0568 37       		.byte	0x37
 1471 0569 22010000 		.4byte	0x122
 1472 056d 08       		.byte	0x8
 1473 056e 00       		.byte	0
 1474 056f 09       		.uleb128 0x9
 1475 0570 04       		.byte	0x4
 1476 0571 4A050000 		.4byte	0x54a
 1477 0575 05       		.uleb128 0x5
 1478 0576 5C020000 		.4byte	.LASF92
 1479 057a 10       		.byte	0x10
 1480 057b 0C       		.byte	0xc
 1481 057c 39       		.byte	0x39
 1482 057d A6050000 		.4byte	0x5a6
ARM GAS  /tmp/ccdkT9wg.s 			page 27


 1483 0581 06       		.uleb128 0x6
 1484 0582 D7040000 		.4byte	.LASF93
 1485 0586 0C       		.byte	0xc
 1486 0587 3A       		.byte	0x3a
 1487 0588 41020000 		.4byte	0x241
 1488 058c 00       		.byte	0
 1489 058d 06       		.uleb128 0x6
 1490 058e 61000000 		.4byte	.LASF94
 1491 0592 0C       		.byte	0xc
 1492 0593 3C       		.byte	0x3c
 1493 0594 17020000 		.4byte	0x217
 1494 0598 08       		.byte	0x8
 1495 0599 06       		.uleb128 0x6
 1496 059a 44060000 		.4byte	.LASF95
 1497 059e 0C       		.byte	0xc
 1498 059f 3E       		.byte	0x3e
 1499 05a0 F4050000 		.4byte	0x5f4
 1500 05a4 0C       		.byte	0xc
 1501 05a5 00       		.byte	0
 1502 05a6 09       		.uleb128 0x9
 1503 05a7 04       		.byte	0x4
 1504 05a8 75050000 		.4byte	0x575
 1505 05ac 09       		.uleb128 0x9
 1506 05ad 04       		.byte	0x4
 1507 05ae DC020000 		.4byte	0x2dc
 1508 05b2 13       		.uleb128 0x13
 1509 05b3 2D010000 		.4byte	0x12d
 1510 05b7 13       		.uleb128 0x13
 1511 05b8 BC050000 		.4byte	0x5bc
 1512 05bc 09       		.uleb128 0x9
 1513 05bd 04       		.byte	0x4
 1514 05be C2050000 		.4byte	0x5c2
 1515 05c2 14       		.uleb128 0x14
 1516 05c3 C7050000 		.4byte	0x5c7
 1517 05c7 03       		.uleb128 0x3
 1518 05c8 01       		.byte	0x1
 1519 05c9 08       		.byte	0x8
 1520 05ca 42000000 		.4byte	.LASF96
 1521 05ce 15       		.uleb128 0x15
 1522 05cf 22040000 		.4byte	0x422
 1523 05d3 DE050000 		.4byte	0x5de
 1524 05d7 16       		.uleb128 0x16
 1525 05d8 10040000 		.4byte	0x410
 1526 05dc 19       		.byte	0x19
 1527 05dd 00       		.byte	0
 1528 05de 04       		.uleb128 0x4
 1529 05df D9010000 		.4byte	.LASF97
 1530 05e3 03       		.byte	0x3
 1531 05e4 38       		.byte	0x38
 1532 05e5 4A050000 		.4byte	0x54a
 1533 05e9 04       		.uleb128 0x4
 1534 05ea C0050000 		.4byte	.LASF98
 1535 05ee 0C       		.byte	0xc
 1536 05ef 34       		.byte	0x34
 1537 05f0 75050000 		.4byte	0x575
 1538 05f4 09       		.uleb128 0x9
 1539 05f5 04       		.byte	0x4
ARM GAS  /tmp/ccdkT9wg.s 			page 28


 1540 05f6 E9050000 		.4byte	0x5e9
 1541 05fa 10       		.uleb128 0x10
 1542 05fb 28       		.byte	0x28
 1543 05fc 0D       		.byte	0xd
 1544 05fd 38       		.byte	0x38
 1545 05fe 4B060000 		.4byte	0x64b
 1546 0602 06       		.uleb128 0x6
 1547 0603 9A050000 		.4byte	.LASF99
 1548 0607 0D       		.byte	0xd
 1549 0608 39       		.byte	0x39
 1550 0609 4B060000 		.4byte	0x64b
 1551 060d 00       		.byte	0
 1552 060e 06       		.uleb128 0x6
 1553 060f 32040000 		.4byte	.LASF100
 1554 0613 0D       		.byte	0xd
 1555 0614 3B       		.byte	0x3b
 1556 0615 4B060000 		.4byte	0x64b
 1557 0619 04       		.byte	0x4
 1558 061a 06       		.uleb128 0x6
 1559 061b B9040000 		.4byte	.LASF101
 1560 061f 0D       		.byte	0xd
 1561 0620 3D       		.byte	0x3d
 1562 0621 4B060000 		.4byte	0x64b
 1563 0625 08       		.byte	0x8
 1564 0626 06       		.uleb128 0x6
 1565 0627 2B020000 		.4byte	.LASF102
 1566 062b 0D       		.byte	0xd
 1567 062c 3E       		.byte	0x3e
 1568 062d 4B060000 		.4byte	0x64b
 1569 0631 0C       		.byte	0xc
 1570 0632 06       		.uleb128 0x6
 1571 0633 D7020000 		.4byte	.LASF103
 1572 0637 0D       		.byte	0xd
 1573 0638 3F       		.byte	0x3f
 1574 0639 DE050000 		.4byte	0x5de
 1575 063d 10       		.byte	0x10
 1576 063e 06       		.uleb128 0x6
 1577 063f 81020000 		.4byte	.LASF104
 1578 0643 0D       		.byte	0xd
 1579 0644 41       		.byte	0x41
 1580 0645 DE050000 		.4byte	0x5de
 1581 0649 1C       		.byte	0x1c
 1582 064a 00       		.byte	0
 1583 064b 09       		.uleb128 0x9
 1584 064c 04       		.byte	0x4
 1585 064d 0C010000 		.4byte	0x10c
 1586 0651 04       		.uleb128 0x4
 1587 0652 43020000 		.4byte	.LASF105
 1588 0656 0D       		.byte	0xd
 1589 0657 43       		.byte	0x43
 1590 0658 FA050000 		.4byte	0x5fa
 1591 065c 17       		.uleb128 0x17
 1592 065d 0B050000 		.4byte	.LASF108
 1593 0661 02       		.byte	0x2
 1594 0662 2202     		.2byte	0x222
 1595 0664 03       		.byte	0x3
 1596 0665 76060000 		.4byte	0x676
ARM GAS  /tmp/ccdkT9wg.s 			page 29


 1597 0669 18       		.uleb128 0x18
 1598 066a E5010000 		.4byte	.LASF110
 1599 066e 02       		.byte	0x2
 1600 066f 2202     		.2byte	0x222
 1601 0671 BF000000 		.4byte	0xbf
 1602 0675 00       		.byte	0
 1603 0676 19       		.uleb128 0x19
 1604 0677 D4000000 		.4byte	.LASF106
 1605 067b 0A       		.byte	0xa
 1606 067c C801     		.2byte	0x1c8
 1607 067e 03       		.byte	0x3
 1608 067f 19       		.uleb128 0x19
 1609 0680 91060000 		.4byte	.LASF107
 1610 0684 0A       		.byte	0xa
 1611 0685 E001     		.2byte	0x1e0
 1612 0687 03       		.byte	0x3
 1613 0688 1A       		.uleb128 0x1a
 1614 0689 94000000 		.4byte	.LASF109
 1615 068d 03       		.byte	0x3
 1616 068e 76       		.byte	0x76
 1617 068f 03       		.byte	0x3
 1618 0690 9F060000 		.4byte	0x69f
 1619 0694 1B       		.uleb128 0x1b
 1620 0695 737000   		.ascii	"sp\000"
 1621 0698 03       		.byte	0x3
 1622 0699 76       		.byte	0x76
 1623 069a 9F060000 		.4byte	0x69f
 1624 069e 00       		.byte	0
 1625 069f 09       		.uleb128 0x9
 1626 06a0 04       		.byte	0x4
 1627 06a1 DE050000 		.4byte	0x5de
 1628 06a5 1C       		.uleb128 0x1c
 1629 06a6 BC000000 		.4byte	.LASF135
 1630 06aa 03       		.byte	0x3
 1631 06ab 95       		.byte	0x95
 1632 06ac 22010000 		.4byte	0x122
 1633 06b0 03       		.byte	0x3
 1634 06b1 C0060000 		.4byte	0x6c0
 1635 06b5 1B       		.uleb128 0x1b
 1636 06b6 737000   		.ascii	"sp\000"
 1637 06b9 03       		.byte	0x3
 1638 06ba 95       		.byte	0x95
 1639 06bb 9F060000 		.4byte	0x69f
 1640 06bf 00       		.byte	0
 1641 06c0 19       		.uleb128 0x19
 1642 06c1 8D020000 		.4byte	.LASF111
 1643 06c5 0E       		.byte	0xe
 1644 06c6 5A01     		.2byte	0x15a
 1645 06c8 03       		.byte	0x3
 1646 06c9 17       		.uleb128 0x17
 1647 06ca CD010000 		.4byte	.LASF112
 1648 06ce 0E       		.byte	0xe
 1649 06cf 6601     		.2byte	0x166
 1650 06d1 03       		.byte	0x3
 1651 06d2 E4060000 		.4byte	0x6e4
 1652 06d6 1D       		.uleb128 0x1d
 1653 06d7 7B060000 		.4byte	.LASF114
ARM GAS  /tmp/ccdkT9wg.s 			page 30


 1654 06db F4060000 		.4byte	0x6f4
 1655 06df CD010000 		.4byte	.LASF112
 1656 06e3 00       		.byte	0
 1657 06e4 15       		.uleb128 0x15
 1658 06e5 C7050000 		.4byte	0x5c7
 1659 06e9 F4060000 		.4byte	0x6f4
 1660 06ed 16       		.uleb128 0x16
 1661 06ee 10040000 		.4byte	0x410
 1662 06f2 0B       		.byte	0xb
 1663 06f3 00       		.byte	0
 1664 06f4 14       		.uleb128 0x14
 1665 06f5 E4060000 		.4byte	0x6e4
 1666 06f9 1E       		.uleb128 0x1e
 1667 06fa 5E040000 		.4byte	.LASF115
 1668 06fe 01       		.byte	0x1
 1669 06ff B7       		.byte	0xb7
 1670 0700 0C010000 		.4byte	0x10c
 1671 0704 01       		.byte	0x1
 1672 0705 43070000 		.4byte	0x743
 1673 0709 1B       		.uleb128 0x1b
 1674 070a 6D627000 		.ascii	"mbp\000"
 1675 070e 01       		.byte	0x1
 1676 070f B7       		.byte	0xb7
 1677 0710 43070000 		.4byte	0x743
 1678 0714 1B       		.uleb128 0x1b
 1679 0715 6D736700 		.ascii	"msg\000"
 1680 0719 01       		.byte	0x1
 1681 071a B7       		.byte	0xb7
 1682 071b 0C010000 		.4byte	0x10c
 1683 071f 1F       		.uleb128 0x1f
 1684 0720 FE050000 		.4byte	.LASF113
 1685 0724 01       		.byte	0x1
 1686 0725 B7       		.byte	0xb7
 1687 0726 2D010000 		.4byte	0x12d
 1688 072a 20       		.uleb128 0x20
 1689 072b 1D020000 		.4byte	.LASF82
 1690 072f 01       		.byte	0x1
 1691 0730 B8       		.byte	0xb8
 1692 0731 0C010000 		.4byte	0x10c
 1693 0735 1D       		.uleb128 0x1d
 1694 0736 7B060000 		.4byte	.LASF114
 1695 073a 59070000 		.4byte	0x759
 1696 073e 5E040000 		.4byte	.LASF115
 1697 0742 00       		.byte	0
 1698 0743 09       		.uleb128 0x9
 1699 0744 04       		.byte	0x4
 1700 0745 51060000 		.4byte	0x651
 1701 0749 15       		.uleb128 0x15
 1702 074a C7050000 		.4byte	0x5c7
 1703 074e 59070000 		.4byte	0x759
 1704 0752 16       		.uleb128 0x16
 1705 0753 10040000 		.4byte	0x410
 1706 0757 09       		.byte	0x9
 1707 0758 00       		.byte	0
 1708 0759 14       		.uleb128 0x14
 1709 075a 49070000 		.4byte	0x749
 1710 075e 21       		.uleb128 0x21
ARM GAS  /tmp/ccdkT9wg.s 			page 31


 1711 075f 4D020000 		.4byte	.LASF116
 1712 0763 01       		.byte	0x1
 1713 0764 1B01     		.2byte	0x11b
 1714 0766 0C010000 		.4byte	0x10c
 1715 076a 01       		.byte	0x1
 1716 076b AD070000 		.4byte	0x7ad
 1717 076f 22       		.uleb128 0x22
 1718 0770 6D627000 		.ascii	"mbp\000"
 1719 0774 01       		.byte	0x1
 1720 0775 1B01     		.2byte	0x11b
 1721 0777 43070000 		.4byte	0x743
 1722 077b 22       		.uleb128 0x22
 1723 077c 6D736700 		.ascii	"msg\000"
 1724 0780 01       		.byte	0x1
 1725 0781 1B01     		.2byte	0x11b
 1726 0783 0C010000 		.4byte	0x10c
 1727 0787 18       		.uleb128 0x18
 1728 0788 FE050000 		.4byte	.LASF113
 1729 078c 01       		.byte	0x1
 1730 078d 1B01     		.2byte	0x11b
 1731 078f 2D010000 		.4byte	0x12d
 1732 0793 23       		.uleb128 0x23
 1733 0794 1D020000 		.4byte	.LASF82
 1734 0798 01       		.byte	0x1
 1735 0799 1C01     		.2byte	0x11c
 1736 079b 0C010000 		.4byte	0x10c
 1737 079f 1D       		.uleb128 0x1d
 1738 07a0 7B060000 		.4byte	.LASF114
 1739 07a4 BD070000 		.4byte	0x7bd
 1740 07a8 4D020000 		.4byte	.LASF116
 1741 07ac 00       		.byte	0
 1742 07ad 15       		.uleb128 0x15
 1743 07ae C7050000 		.4byte	0x5c7
 1744 07b2 BD070000 		.4byte	0x7bd
 1745 07b6 16       		.uleb128 0x16
 1746 07b7 10040000 		.4byte	0x410
 1747 07bb 0E       		.byte	0xe
 1748 07bc 00       		.byte	0
 1749 07bd 14       		.uleb128 0x14
 1750 07be AD070000 		.4byte	0x7ad
 1751 07c2 21       		.uleb128 0x21
 1752 07c3 97020000 		.4byte	.LASF117
 1753 07c7 01       		.byte	0x1
 1754 07c8 7E01     		.2byte	0x17e
 1755 07ca 0C010000 		.4byte	0x10c
 1756 07ce 01       		.byte	0x1
 1757 07cf 11080000 		.4byte	0x811
 1758 07d3 22       		.uleb128 0x22
 1759 07d4 6D627000 		.ascii	"mbp\000"
 1760 07d8 01       		.byte	0x1
 1761 07d9 7E01     		.2byte	0x17e
 1762 07db 43070000 		.4byte	0x743
 1763 07df 18       		.uleb128 0x18
 1764 07e0 84060000 		.4byte	.LASF118
 1765 07e4 01       		.byte	0x1
 1766 07e5 7E01     		.2byte	0x17e
 1767 07e7 4B060000 		.4byte	0x64b
ARM GAS  /tmp/ccdkT9wg.s 			page 32


 1768 07eb 18       		.uleb128 0x18
 1769 07ec FE050000 		.4byte	.LASF113
 1770 07f0 01       		.byte	0x1
 1771 07f1 7E01     		.2byte	0x17e
 1772 07f3 2D010000 		.4byte	0x12d
 1773 07f7 23       		.uleb128 0x23
 1774 07f8 1D020000 		.4byte	.LASF82
 1775 07fc 01       		.byte	0x1
 1776 07fd 7F01     		.2byte	0x17f
 1777 07ff 0C010000 		.4byte	0x10c
 1778 0803 1D       		.uleb128 0x1d
 1779 0804 7B060000 		.4byte	.LASF114
 1780 0808 21080000 		.4byte	0x821
 1781 080c 97020000 		.4byte	.LASF117
 1782 0810 00       		.byte	0
 1783 0811 15       		.uleb128 0x15
 1784 0812 C7050000 		.4byte	0x5c7
 1785 0816 21080000 		.4byte	0x821
 1786 081a 16       		.uleb128 0x16
 1787 081b 10040000 		.4byte	0x410
 1788 081f 0A       		.byte	0xa
 1789 0820 00       		.byte	0
 1790 0821 14       		.uleb128 0x14
 1791 0822 11080000 		.4byte	0x811
 1792 0826 24       		.uleb128 0x24
 1793 0827 1B030000 		.4byte	.LASF119
 1794 082b 01       		.byte	0x1
 1795 082c 56       		.byte	0x56
 1796 082d 00000000 		.4byte	.LFB170
 1797 0831 28000000 		.4byte	.LFE170-.LFB170
 1798 0835 01       		.uleb128 0x1
 1799 0836 9C       		.byte	0x9c
 1800 0837 A3080000 		.4byte	0x8a3
 1801 083b 25       		.uleb128 0x25
 1802 083c 6D627000 		.ascii	"mbp\000"
 1803 0840 01       		.byte	0x1
 1804 0841 56       		.byte	0x56
 1805 0842 43070000 		.4byte	0x743
 1806 0846 00000000 		.4byte	.LLST0
 1807 084a 25       		.uleb128 0x25
 1808 084b 62756600 		.ascii	"buf\000"
 1809 084f 01       		.byte	0x1
 1810 0850 56       		.byte	0x56
 1811 0851 4B060000 		.4byte	0x64b
 1812 0855 39000000 		.4byte	.LLST1
 1813 0859 25       		.uleb128 0x25
 1814 085a 6E00     		.ascii	"n\000"
 1815 085c 01       		.byte	0x1
 1816 085d 56       		.byte	0x56
 1817 085e 22010000 		.4byte	0x122
 1818 0862 65000000 		.4byte	.LLST2
 1819 0866 26       		.uleb128 0x26
 1820 0867 7B060000 		.4byte	.LASF114
 1821 086b A3080000 		.4byte	0x8a3
 1822 086f 27       		.uleb128 0x27
 1823 0870 1A000000 		.4byte	.LVL3
 1824 0874 1A100000 		.4byte	0x101a
ARM GAS  /tmp/ccdkT9wg.s 			page 33


 1825 0878 8A080000 		.4byte	0x88a
 1826 087c 28       		.uleb128 0x28
 1827 087d 01       		.uleb128 0x1
 1828 087e 51       		.byte	0x51
 1829 087f 03       		.uleb128 0x3
 1830 0880 F3       		.byte	0xf3
 1831 0881 01       		.uleb128 0x1
 1832 0882 52       		.byte	0x52
 1833 0883 28       		.uleb128 0x28
 1834 0884 01       		.uleb128 0x1
 1835 0885 50       		.byte	0x50
 1836 0886 02       		.uleb128 0x2
 1837 0887 74       		.byte	0x74
 1838 0888 1C       		.sleb128 28
 1839 0889 00       		.byte	0
 1840 088a 29       		.uleb128 0x29
 1841 088b 28000000 		.4byte	.LVL5
 1842 088f 1A100000 		.4byte	0x101a
 1843 0893 28       		.uleb128 0x28
 1844 0894 01       		.uleb128 0x1
 1845 0895 51       		.byte	0x51
 1846 0896 01       		.uleb128 0x1
 1847 0897 30       		.byte	0x30
 1848 0898 28       		.uleb128 0x28
 1849 0899 01       		.uleb128 0x1
 1850 089a 50       		.byte	0x50
 1851 089b 05       		.uleb128 0x5
 1852 089c F3       		.byte	0xf3
 1853 089d 01       		.uleb128 0x1
 1854 089e 50       		.byte	0x50
 1855 089f 23       		.byte	0x23
 1856 08a0 10       		.uleb128 0x10
 1857 08a1 00       		.byte	0
 1858 08a2 00       		.byte	0
 1859 08a3 14       		.uleb128 0x14
 1860 08a4 AD070000 		.4byte	0x7ad
 1861 08a8 24       		.uleb128 0x24
 1862 08a9 06060000 		.4byte	.LASF120
 1863 08ad 01       		.byte	0x1
 1864 08ae 7C       		.byte	0x7c
 1865 08af 00000000 		.4byte	.LFB172
 1866 08b3 24000000 		.4byte	.LFE172-.LFB172
 1867 08b7 01       		.uleb128 0x1
 1868 08b8 9C       		.byte	0x9c
 1869 08b9 02090000 		.4byte	0x902
 1870 08bd 25       		.uleb128 0x25
 1871 08be 6D627000 		.ascii	"mbp\000"
 1872 08c2 01       		.byte	0x1
 1873 08c3 7C       		.byte	0x7c
 1874 08c4 43070000 		.4byte	0x743
 1875 08c8 86000000 		.4byte	.LLST3
 1876 08cc 26       		.uleb128 0x26
 1877 08cd 7B060000 		.4byte	.LASF114
 1878 08d1 02090000 		.4byte	0x902
 1879 08d5 27       		.uleb128 0x27
 1880 08d6 16000000 		.4byte	.LVL8
 1881 08da 30100000 		.4byte	0x1030
ARM GAS  /tmp/ccdkT9wg.s 			page 34


 1882 08de E9080000 		.4byte	0x8e9
 1883 08e2 28       		.uleb128 0x28
 1884 08e3 01       		.uleb128 0x1
 1885 08e4 50       		.byte	0x50
 1886 08e5 02       		.uleb128 0x2
 1887 08e6 74       		.byte	0x74
 1888 08e7 1C       		.sleb128 28
 1889 08e8 00       		.byte	0
 1890 08e9 29       		.uleb128 0x29
 1891 08ea 24000000 		.4byte	.LVL10
 1892 08ee 30100000 		.4byte	0x1030
 1893 08f2 28       		.uleb128 0x28
 1894 08f3 01       		.uleb128 0x1
 1895 08f4 51       		.byte	0x51
 1896 08f5 01       		.uleb128 0x1
 1897 08f6 30       		.byte	0x30
 1898 08f7 28       		.uleb128 0x28
 1899 08f8 01       		.uleb128 0x1
 1900 08f9 50       		.byte	0x50
 1901 08fa 05       		.uleb128 0x5
 1902 08fb F3       		.byte	0xf3
 1903 08fc 01       		.uleb128 0x1
 1904 08fd 50       		.byte	0x50
 1905 08fe 23       		.byte	0x23
 1906 08ff 10       		.uleb128 0x10
 1907 0900 00       		.byte	0
 1908 0901 00       		.byte	0
 1909 0902 14       		.uleb128 0x14
 1910 0903 11080000 		.4byte	0x811
 1911 0907 24       		.uleb128 0x24
 1912 0908 39010000 		.4byte	.LASF121
 1913 090c 01       		.byte	0x1
 1914 090d 6B       		.byte	0x6b
 1915 090e 00000000 		.4byte	.LFB171
 1916 0912 18000000 		.4byte	.LFE171-.LFB171
 1917 0916 01       		.uleb128 0x1
 1918 0917 9C       		.byte	0x9c
 1919 0918 D1090000 		.4byte	0x9d1
 1920 091c 25       		.uleb128 0x25
 1921 091d 6D627000 		.ascii	"mbp\000"
 1922 0921 01       		.byte	0x1
 1923 0922 6B       		.byte	0x6b
 1924 0923 43070000 		.4byte	0x743
 1925 0927 BF000000 		.4byte	.LLST4
 1926 092b 2A       		.uleb128 0x2a
 1927 092c C0060000 		.4byte	0x6c0
 1928 0930 02000000 		.4byte	.LBB66
 1929 0934 06000000 		.4byte	.LBE66-.LBB66
 1930 0938 01       		.byte	0x1
 1931 0939 6D       		.byte	0x6d
 1932 093a 67090000 		.4byte	0x967
 1933 093e 2B       		.uleb128 0x2b
 1934 093f 76060000 		.4byte	0x676
 1935 0943 02000000 		.4byte	.LBB67
 1936 0947 06000000 		.4byte	.LBE67-.LBB67
 1937 094b 0E       		.byte	0xe
 1938 094c 5C01     		.2byte	0x15c
ARM GAS  /tmp/ccdkT9wg.s 			page 35


 1939 094e 2B       		.uleb128 0x2b
 1940 094f 5C060000 		.4byte	0x65c
 1941 0953 02000000 		.4byte	.LBB68
 1942 0957 06000000 		.4byte	.LBE68-.LBB68
 1943 095b 0A       		.byte	0xa
 1944 095c D001     		.2byte	0x1d0
 1945 095e 2C       		.uleb128 0x2c
 1946 095f 69060000 		.4byte	0x669
 1947 0963 20       		.byte	0x20
 1948 0964 00       		.byte	0
 1949 0965 00       		.byte	0
 1950 0966 00       		.byte	0
 1951 0967 2A       		.uleb128 0x2a
 1952 0968 C9060000 		.4byte	0x6c9
 1953 096c 10000000 		.4byte	.LBB70
 1954 0970 08000000 		.4byte	.LBE70-.LBB70
 1955 0974 01       		.byte	0x1
 1956 0975 70       		.byte	0x70
 1957 0976 B2090000 		.4byte	0x9b2
 1958 097a 2D       		.uleb128 0x2d
 1959 097b 10000000 		.4byte	.LBB71
 1960 097f 08000000 		.4byte	.LBE71-.LBB71
 1961 0983 2E       		.uleb128 0x2e
 1962 0984 D6060000 		.4byte	0x6d6
 1963 0988 2B       		.uleb128 0x2b
 1964 0989 7F060000 		.4byte	0x67f
 1965 098d 10000000 		.4byte	.LBB72
 1966 0991 08000000 		.4byte	.LBE72-.LBB72
 1967 0995 0E       		.byte	0xe
 1968 0996 7301     		.2byte	0x173
 1969 0998 2B       		.uleb128 0x2b
 1970 0999 5C060000 		.4byte	0x65c
 1971 099d 10000000 		.4byte	.LBB73
 1972 09a1 08000000 		.4byte	.LBE73-.LBB73
 1973 09a5 0A       		.byte	0xa
 1974 09a6 E301     		.2byte	0x1e3
 1975 09a8 2C       		.uleb128 0x2c
 1976 09a9 69060000 		.4byte	0x669
 1977 09ad 00       		.byte	0
 1978 09ae 00       		.byte	0
 1979 09af 00       		.byte	0
 1980 09b0 00       		.byte	0
 1981 09b1 00       		.byte	0
 1982 09b2 27       		.uleb128 0x27
 1983 09b3 0C000000 		.4byte	.LVL12
 1984 09b7 A8080000 		.4byte	0x8a8
 1985 09bb C7090000 		.4byte	0x9c7
 1986 09bf 28       		.uleb128 0x28
 1987 09c0 01       		.uleb128 0x1
 1988 09c1 50       		.byte	0x50
 1989 09c2 03       		.uleb128 0x3
 1990 09c3 F3       		.byte	0xf3
 1991 09c4 01       		.uleb128 0x1
 1992 09c5 50       		.byte	0x50
 1993 09c6 00       		.byte	0
 1994 09c7 2F       		.uleb128 0x2f
 1995 09c8 10000000 		.4byte	.LVL13
ARM GAS  /tmp/ccdkT9wg.s 			page 36


 1996 09cc 46100000 		.4byte	0x1046
 1997 09d0 00       		.byte	0
 1998 09d1 30       		.uleb128 0x30
 1999 09d2 F9060000 		.4byte	0x6f9
 2000 09d6 00000000 		.4byte	.LFB174
 2001 09da 36000000 		.4byte	.LFE174-.LFB174
 2002 09de 01       		.uleb128 0x1
 2003 09df 9C       		.byte	0x9c
 2004 09e0 740A0000 		.4byte	0xa74
 2005 09e4 31       		.uleb128 0x31
 2006 09e5 09070000 		.4byte	0x709
 2007 09e9 E0000000 		.4byte	.LLST5
 2008 09ed 31       		.uleb128 0x31
 2009 09ee 14070000 		.4byte	0x714
 2010 09f2 FE000000 		.4byte	.LLST6
 2011 09f6 31       		.uleb128 0x31
 2012 09f7 1F070000 		.4byte	0x71f
 2013 09fb 1C010000 		.4byte	.LLST7
 2014 09ff 32       		.uleb128 0x32
 2015 0a00 2A070000 		.4byte	0x72a
 2016 0a04 3D010000 		.4byte	.LLST8
 2017 0a08 2E       		.uleb128 0x2e
 2018 0a09 35070000 		.4byte	0x735
 2019 0a0d 33       		.uleb128 0x33
 2020 0a0e 12000000 		.4byte	.LBB77
 2021 0a12 20000000 		.4byte	.LBE77-.LBB77
 2022 0a16 630A0000 		.4byte	0xa63
 2023 0a1a 34       		.uleb128 0x34
 2024 0a1b 1F070000 		.4byte	0x71f
 2025 0a1f 31       		.uleb128 0x31
 2026 0a20 14070000 		.4byte	0x714
 2027 0a24 5B010000 		.4byte	.LLST9
 2028 0a28 31       		.uleb128 0x31
 2029 0a29 09070000 		.4byte	0x709
 2030 0a2d 6E010000 		.4byte	.LLST10
 2031 0a31 2D       		.uleb128 0x2d
 2032 0a32 12000000 		.4byte	.LBB78
 2033 0a36 20000000 		.4byte	.LBE78-.LBB78
 2034 0a3a 2E       		.uleb128 0x2e
 2035 0a3b 2A070000 		.4byte	0x72a
 2036 0a3f 2E       		.uleb128 0x2e
 2037 0a40 35070000 		.4byte	0x735
 2038 0a44 27       		.uleb128 0x27
 2039 0a45 2E000000 		.4byte	.LVL20
 2040 0a49 4E100000 		.4byte	0x104e
 2041 0a4d 580A0000 		.4byte	0xa58
 2042 0a51 28       		.uleb128 0x28
 2043 0a52 01       		.uleb128 0x1
 2044 0a53 50       		.byte	0x50
 2045 0a54 02       		.uleb128 0x2
 2046 0a55 74       		.byte	0x74
 2047 0a56 10       		.sleb128 16
 2048 0a57 00       		.byte	0
 2049 0a58 2F       		.uleb128 0x2f
 2050 0a59 32000000 		.4byte	.LVL21
 2051 0a5d 46100000 		.4byte	0x1046
 2052 0a61 00       		.byte	0
ARM GAS  /tmp/ccdkT9wg.s 			page 37


 2053 0a62 00       		.byte	0
 2054 0a63 35       		.uleb128 0x35
 2055 0a64 0E000000 		.4byte	.LVL17
 2056 0a68 5F100000 		.4byte	0x105f
 2057 0a6c 28       		.uleb128 0x28
 2058 0a6d 01       		.uleb128 0x1
 2059 0a6e 50       		.byte	0x50
 2060 0a6f 02       		.uleb128 0x2
 2061 0a70 74       		.byte	0x74
 2062 0a71 1C       		.sleb128 28
 2063 0a72 00       		.byte	0
 2064 0a73 00       		.byte	0
 2065 0a74 36       		.uleb128 0x36
 2066 0a75 11060000 		.4byte	.LASF122
 2067 0a79 01       		.byte	0x1
 2068 0a7a 9A       		.byte	0x9a
 2069 0a7b 0C010000 		.4byte	0x10c
 2070 0a7f 00000000 		.4byte	.LFB173
 2071 0a83 14000000 		.4byte	.LFE173-.LFB173
 2072 0a87 01       		.uleb128 0x1
 2073 0a88 9C       		.byte	0x9c
 2074 0a89 670B0000 		.4byte	0xb67
 2075 0a8d 25       		.uleb128 0x25
 2076 0a8e 6D627000 		.ascii	"mbp\000"
 2077 0a92 01       		.byte	0x1
 2078 0a93 9A       		.byte	0x9a
 2079 0a94 43070000 		.4byte	0x743
 2080 0a98 81010000 		.4byte	.LLST11
 2081 0a9c 25       		.uleb128 0x25
 2082 0a9d 6D736700 		.ascii	"msg\000"
 2083 0aa1 01       		.byte	0x1
 2084 0aa2 9A       		.byte	0x9a
 2085 0aa3 0C010000 		.4byte	0x10c
 2086 0aa7 A2010000 		.4byte	.LLST12
 2087 0aab 37       		.uleb128 0x37
 2088 0aac FE050000 		.4byte	.LASF113
 2089 0ab0 01       		.byte	0x1
 2090 0ab1 9A       		.byte	0x9a
 2091 0ab2 2D010000 		.4byte	0x12d
 2092 0ab6 C3010000 		.4byte	.LLST13
 2093 0aba 38       		.uleb128 0x38
 2094 0abb 1D020000 		.4byte	.LASF82
 2095 0abf 01       		.byte	0x1
 2096 0ac0 9B       		.byte	0x9b
 2097 0ac1 0C010000 		.4byte	0x10c
 2098 0ac5 01       		.uleb128 0x1
 2099 0ac6 50       		.byte	0x50
 2100 0ac7 2A       		.uleb128 0x2a
 2101 0ac8 C0060000 		.4byte	0x6c0
 2102 0acc 02000000 		.4byte	.LBB79
 2103 0ad0 06000000 		.4byte	.LBE79-.LBB79
 2104 0ad4 01       		.byte	0x1
 2105 0ad5 9D       		.byte	0x9d
 2106 0ad6 030B0000 		.4byte	0xb03
 2107 0ada 2B       		.uleb128 0x2b
 2108 0adb 76060000 		.4byte	0x676
 2109 0adf 02000000 		.4byte	.LBB80
ARM GAS  /tmp/ccdkT9wg.s 			page 38


 2110 0ae3 06000000 		.4byte	.LBE80-.LBB80
 2111 0ae7 0E       		.byte	0xe
 2112 0ae8 5C01     		.2byte	0x15c
 2113 0aea 2B       		.uleb128 0x2b
 2114 0aeb 5C060000 		.4byte	0x65c
 2115 0aef 02000000 		.4byte	.LBB81
 2116 0af3 06000000 		.4byte	.LBE81-.LBB81
 2117 0af7 0A       		.byte	0xa
 2118 0af8 D001     		.2byte	0x1d0
 2119 0afa 2C       		.uleb128 0x2c
 2120 0afb 69060000 		.4byte	0x669
 2121 0aff 20       		.byte	0x20
 2122 0b00 00       		.byte	0
 2123 0b01 00       		.byte	0
 2124 0b02 00       		.byte	0
 2125 0b03 2A       		.uleb128 0x2a
 2126 0b04 C9060000 		.4byte	0x6c9
 2127 0b08 0C000000 		.4byte	.LBB83
 2128 0b0c 06000000 		.4byte	.LBE83-.LBB83
 2129 0b10 01       		.byte	0x1
 2130 0b11 9F       		.byte	0x9f
 2131 0b12 4E0B0000 		.4byte	0xb4e
 2132 0b16 2D       		.uleb128 0x2d
 2133 0b17 0C000000 		.4byte	.LBB84
 2134 0b1b 06000000 		.4byte	.LBE84-.LBB84
 2135 0b1f 2E       		.uleb128 0x2e
 2136 0b20 D6060000 		.4byte	0x6d6
 2137 0b24 2B       		.uleb128 0x2b
 2138 0b25 7F060000 		.4byte	0x67f
 2139 0b29 0C000000 		.4byte	.LBB85
 2140 0b2d 06000000 		.4byte	.LBE85-.LBB85
 2141 0b31 0E       		.byte	0xe
 2142 0b32 7301     		.2byte	0x173
 2143 0b34 2B       		.uleb128 0x2b
 2144 0b35 5C060000 		.4byte	0x65c
 2145 0b39 0C000000 		.4byte	.LBB86
 2146 0b3d 06000000 		.4byte	.LBE86-.LBB86
 2147 0b41 0A       		.byte	0xa
 2148 0b42 E301     		.2byte	0x1e3
 2149 0b44 2C       		.uleb128 0x2c
 2150 0b45 69060000 		.4byte	0x669
 2151 0b49 00       		.byte	0
 2152 0b4a 00       		.byte	0
 2153 0b4b 00       		.byte	0
 2154 0b4c 00       		.byte	0
 2155 0b4d 00       		.byte	0
 2156 0b4e 35       		.uleb128 0x35
 2157 0b4f 0C000000 		.4byte	.LVL23
 2158 0b53 F9060000 		.4byte	0x6f9
 2159 0b57 28       		.uleb128 0x28
 2160 0b58 01       		.uleb128 0x1
 2161 0b59 51       		.byte	0x51
 2162 0b5a 03       		.uleb128 0x3
 2163 0b5b F3       		.byte	0xf3
 2164 0b5c 01       		.uleb128 0x1
 2165 0b5d 51       		.byte	0x51
 2166 0b5e 28       		.uleb128 0x28
ARM GAS  /tmp/ccdkT9wg.s 			page 39


 2167 0b5f 01       		.uleb128 0x1
 2168 0b60 50       		.byte	0x50
 2169 0b61 03       		.uleb128 0x3
 2170 0b62 F3       		.byte	0xf3
 2171 0b63 01       		.uleb128 0x1
 2172 0b64 50       		.byte	0x50
 2173 0b65 00       		.byte	0
 2174 0b66 00       		.byte	0
 2175 0b67 36       		.uleb128 0x36
 2176 0b68 43040000 		.4byte	.LASF123
 2177 0b6c 01       		.byte	0x1
 2178 0b6d D8       		.byte	0xd8
 2179 0b6e 0C010000 		.4byte	0x10c
 2180 0b72 00000000 		.4byte	.LFB175
 2181 0b76 34000000 		.4byte	.LFE175-.LFB175
 2182 0b7a 01       		.uleb128 0x1
 2183 0b7b 9C       		.byte	0x9c
 2184 0b7c D80B0000 		.4byte	0xbd8
 2185 0b80 25       		.uleb128 0x25
 2186 0b81 6D627000 		.ascii	"mbp\000"
 2187 0b85 01       		.byte	0x1
 2188 0b86 D8       		.byte	0xd8
 2189 0b87 43070000 		.4byte	0x743
 2190 0b8b E4010000 		.4byte	.LLST14
 2191 0b8f 25       		.uleb128 0x25
 2192 0b90 6D736700 		.ascii	"msg\000"
 2193 0b94 01       		.byte	0x1
 2194 0b95 D8       		.byte	0xd8
 2195 0b96 0C010000 		.4byte	0x10c
 2196 0b9a 2B020000 		.4byte	.LLST15
 2197 0b9e 26       		.uleb128 0x26
 2198 0b9f 7B060000 		.4byte	.LASF114
 2199 0ba3 D80B0000 		.4byte	0xbd8
 2200 0ba7 39       		.uleb128 0x39
 2201 0ba8 88060000 		.4byte	0x688
 2202 0bac 0E000000 		.4byte	.LBB88
 2203 0bb0 00000000 		.4byte	.Ldebug_ranges0+0
 2204 0bb4 01       		.byte	0x1
 2205 0bb5 E1       		.byte	0xe1
 2206 0bb6 C40B0000 		.4byte	0xbc4
 2207 0bba 31       		.uleb128 0x31
 2208 0bbb 94060000 		.4byte	0x694
 2209 0bbf 57020000 		.4byte	.LLST16
 2210 0bc3 00       		.byte	0
 2211 0bc4 35       		.uleb128 0x35
 2212 0bc5 2A000000 		.4byte	.LVL28
 2213 0bc9 4E100000 		.4byte	0x104e
 2214 0bcd 28       		.uleb128 0x28
 2215 0bce 01       		.uleb128 0x1
 2216 0bcf 50       		.byte	0x50
 2217 0bd0 05       		.uleb128 0x5
 2218 0bd1 F3       		.byte	0xf3
 2219 0bd2 01       		.uleb128 0x1
 2220 0bd3 50       		.byte	0x50
 2221 0bd4 23       		.byte	0x23
 2222 0bd5 10       		.uleb128 0x10
 2223 0bd6 00       		.byte	0
ARM GAS  /tmp/ccdkT9wg.s 			page 40


 2224 0bd7 00       		.byte	0
 2225 0bd8 14       		.uleb128 0x14
 2226 0bd9 49070000 		.4byte	0x749
 2227 0bdd 30       		.uleb128 0x30
 2228 0bde 5E070000 		.4byte	0x75e
 2229 0be2 00000000 		.4byte	.LFB177
 2230 0be6 38000000 		.4byte	.LFE177-.LFB177
 2231 0bea 01       		.uleb128 0x1
 2232 0beb 9C       		.byte	0x9c
 2233 0bec 780C0000 		.4byte	0xc78
 2234 0bf0 31       		.uleb128 0x31
 2235 0bf1 6F070000 		.4byte	0x76f
 2236 0bf5 89020000 		.4byte	.LLST17
 2237 0bf9 31       		.uleb128 0x31
 2238 0bfa 7B070000 		.4byte	0x77b
 2239 0bfe A7020000 		.4byte	.LLST18
 2240 0c02 31       		.uleb128 0x31
 2241 0c03 87070000 		.4byte	0x787
 2242 0c07 C5020000 		.4byte	.LLST19
 2243 0c0b 32       		.uleb128 0x32
 2244 0c0c 93070000 		.4byte	0x793
 2245 0c10 E6020000 		.4byte	.LLST20
 2246 0c14 2E       		.uleb128 0x2e
 2247 0c15 9F070000 		.4byte	0x79f
 2248 0c19 3A       		.uleb128 0x3a
 2249 0c1a 18000000 		.4byte	.Ldebug_ranges0+0x18
 2250 0c1e 670C0000 		.4byte	0xc67
 2251 0c22 34       		.uleb128 0x34
 2252 0c23 87070000 		.4byte	0x787
 2253 0c27 31       		.uleb128 0x31
 2254 0c28 7B070000 		.4byte	0x77b
 2255 0c2c 0F030000 		.4byte	.LLST21
 2256 0c30 31       		.uleb128 0x31
 2257 0c31 6F070000 		.4byte	0x76f
 2258 0c35 2D030000 		.4byte	.LLST22
 2259 0c39 3B       		.uleb128 0x3b
 2260 0c3a 18000000 		.4byte	.Ldebug_ranges0+0x18
 2261 0c3e 2E       		.uleb128 0x2e
 2262 0c3f 93070000 		.4byte	0x793
 2263 0c43 2E       		.uleb128 0x2e
 2264 0c44 9F070000 		.4byte	0x79f
 2265 0c48 27       		.uleb128 0x27
 2266 0c49 28000000 		.4byte	.LVL37
 2267 0c4d 4E100000 		.4byte	0x104e
 2268 0c51 5C0C0000 		.4byte	0xc5c
 2269 0c55 28       		.uleb128 0x28
 2270 0c56 01       		.uleb128 0x1
 2271 0c57 50       		.byte	0x50
 2272 0c58 02       		.uleb128 0x2
 2273 0c59 74       		.byte	0x74
 2274 0c5a 10       		.sleb128 16
 2275 0c5b 00       		.byte	0
 2276 0c5c 2F       		.uleb128 0x2f
 2277 0c5d 2C000000 		.4byte	.LVL38
 2278 0c61 46100000 		.4byte	0x1046
 2279 0c65 00       		.byte	0
 2280 0c66 00       		.byte	0
ARM GAS  /tmp/ccdkT9wg.s 			page 41


 2281 0c67 35       		.uleb128 0x35
 2282 0c68 0E000000 		.4byte	.LVL34
 2283 0c6c 5F100000 		.4byte	0x105f
 2284 0c70 28       		.uleb128 0x28
 2285 0c71 01       		.uleb128 0x1
 2286 0c72 50       		.byte	0x50
 2287 0c73 02       		.uleb128 0x2
 2288 0c74 74       		.byte	0x74
 2289 0c75 1C       		.sleb128 28
 2290 0c76 00       		.byte	0
 2291 0c77 00       		.byte	0
 2292 0c78 36       		.uleb128 0x36
 2293 0c79 7B040000 		.4byte	.LASF124
 2294 0c7d 01       		.byte	0x1
 2295 0c7e FE       		.byte	0xfe
 2296 0c7f 0C010000 		.4byte	0x10c
 2297 0c83 00000000 		.4byte	.LFB176
 2298 0c87 14000000 		.4byte	.LFE176-.LFB176
 2299 0c8b 01       		.uleb128 0x1
 2300 0c8c 9C       		.byte	0x9c
 2301 0c8d 6D0D0000 		.4byte	0xd6d
 2302 0c91 25       		.uleb128 0x25
 2303 0c92 6D627000 		.ascii	"mbp\000"
 2304 0c96 01       		.byte	0x1
 2305 0c97 FE       		.byte	0xfe
 2306 0c98 43070000 		.4byte	0x743
 2307 0c9c 4B030000 		.4byte	.LLST23
 2308 0ca0 25       		.uleb128 0x25
 2309 0ca1 6D736700 		.ascii	"msg\000"
 2310 0ca5 01       		.byte	0x1
 2311 0ca6 FE       		.byte	0xfe
 2312 0ca7 0C010000 		.4byte	0x10c
 2313 0cab 6C030000 		.4byte	.LLST24
 2314 0caf 37       		.uleb128 0x37
 2315 0cb0 FE050000 		.4byte	.LASF113
 2316 0cb4 01       		.byte	0x1
 2317 0cb5 FE       		.byte	0xfe
 2318 0cb6 2D010000 		.4byte	0x12d
 2319 0cba 8D030000 		.4byte	.LLST25
 2320 0cbe 38       		.uleb128 0x38
 2321 0cbf 1D020000 		.4byte	.LASF82
 2322 0cc3 01       		.byte	0x1
 2323 0cc4 FF       		.byte	0xff
 2324 0cc5 0C010000 		.4byte	0x10c
 2325 0cc9 01       		.uleb128 0x1
 2326 0cca 50       		.byte	0x50
 2327 0ccb 3C       		.uleb128 0x3c
 2328 0ccc C0060000 		.4byte	0x6c0
 2329 0cd0 02000000 		.4byte	.LBB98
 2330 0cd4 06000000 		.4byte	.LBE98-.LBB98
 2331 0cd8 01       		.byte	0x1
 2332 0cd9 0101     		.2byte	0x101
 2333 0cdb 080D0000 		.4byte	0xd08
 2334 0cdf 2B       		.uleb128 0x2b
 2335 0ce0 76060000 		.4byte	0x676
 2336 0ce4 02000000 		.4byte	.LBB99
 2337 0ce8 06000000 		.4byte	.LBE99-.LBB99
ARM GAS  /tmp/ccdkT9wg.s 			page 42


 2338 0cec 0E       		.byte	0xe
 2339 0ced 5C01     		.2byte	0x15c
 2340 0cef 2B       		.uleb128 0x2b
 2341 0cf0 5C060000 		.4byte	0x65c
 2342 0cf4 02000000 		.4byte	.LBB100
 2343 0cf8 06000000 		.4byte	.LBE100-.LBB100
 2344 0cfc 0A       		.byte	0xa
 2345 0cfd D001     		.2byte	0x1d0
 2346 0cff 2C       		.uleb128 0x2c
 2347 0d00 69060000 		.4byte	0x669
 2348 0d04 20       		.byte	0x20
 2349 0d05 00       		.byte	0
 2350 0d06 00       		.byte	0
 2351 0d07 00       		.byte	0
 2352 0d08 3C       		.uleb128 0x3c
 2353 0d09 C9060000 		.4byte	0x6c9
 2354 0d0d 0C000000 		.4byte	.LBB102
 2355 0d11 06000000 		.4byte	.LBE102-.LBB102
 2356 0d15 01       		.byte	0x1
 2357 0d16 0301     		.2byte	0x103
 2358 0d18 540D0000 		.4byte	0xd54
 2359 0d1c 2D       		.uleb128 0x2d
 2360 0d1d 0C000000 		.4byte	.LBB103
 2361 0d21 06000000 		.4byte	.LBE103-.LBB103
 2362 0d25 2E       		.uleb128 0x2e
 2363 0d26 D6060000 		.4byte	0x6d6
 2364 0d2a 2B       		.uleb128 0x2b
 2365 0d2b 7F060000 		.4byte	0x67f
 2366 0d2f 0C000000 		.4byte	.LBB104
 2367 0d33 06000000 		.4byte	.LBE104-.LBB104
 2368 0d37 0E       		.byte	0xe
 2369 0d38 7301     		.2byte	0x173
 2370 0d3a 2B       		.uleb128 0x2b
 2371 0d3b 5C060000 		.4byte	0x65c
 2372 0d3f 0C000000 		.4byte	.LBB105
 2373 0d43 06000000 		.4byte	.LBE105-.LBB105
 2374 0d47 0A       		.byte	0xa
 2375 0d48 E301     		.2byte	0x1e3
 2376 0d4a 2C       		.uleb128 0x2c
 2377 0d4b 69060000 		.4byte	0x669
 2378 0d4f 00       		.byte	0
 2379 0d50 00       		.byte	0
 2380 0d51 00       		.byte	0
 2381 0d52 00       		.byte	0
 2382 0d53 00       		.byte	0
 2383 0d54 35       		.uleb128 0x35
 2384 0d55 0C000000 		.4byte	.LVL41
 2385 0d59 5E070000 		.4byte	0x75e
 2386 0d5d 28       		.uleb128 0x28
 2387 0d5e 01       		.uleb128 0x1
 2388 0d5f 51       		.byte	0x51
 2389 0d60 03       		.uleb128 0x3
 2390 0d61 F3       		.byte	0xf3
 2391 0d62 01       		.uleb128 0x1
 2392 0d63 51       		.byte	0x51
 2393 0d64 28       		.uleb128 0x28
 2394 0d65 01       		.uleb128 0x1
ARM GAS  /tmp/ccdkT9wg.s 			page 43


 2395 0d66 50       		.byte	0x50
 2396 0d67 03       		.uleb128 0x3
 2397 0d68 F3       		.byte	0xf3
 2398 0d69 01       		.uleb128 0x1
 2399 0d6a 50       		.byte	0x50
 2400 0d6b 00       		.byte	0
 2401 0d6c 00       		.byte	0
 2402 0d6d 3D       		.uleb128 0x3d
 2403 0d6e 34020000 		.4byte	.LASF125
 2404 0d72 01       		.byte	0x1
 2405 0d73 3C01     		.2byte	0x13c
 2406 0d75 0C010000 		.4byte	0x10c
 2407 0d79 00000000 		.4byte	.LFB178
 2408 0d7d 30000000 		.4byte	.LFE178-.LFB178
 2409 0d81 01       		.uleb128 0x1
 2410 0d82 9C       		.byte	0x9c
 2411 0d83 E20D0000 		.4byte	0xde2
 2412 0d87 3E       		.uleb128 0x3e
 2413 0d88 6D627000 		.ascii	"mbp\000"
 2414 0d8c 01       		.byte	0x1
 2415 0d8d 3C01     		.2byte	0x13c
 2416 0d8f 43070000 		.4byte	0x743
 2417 0d93 AE030000 		.4byte	.LLST26
 2418 0d97 3E       		.uleb128 0x3e
 2419 0d98 6D736700 		.ascii	"msg\000"
 2420 0d9c 01       		.byte	0x1
 2421 0d9d 3C01     		.2byte	0x13c
 2422 0d9f 0C010000 		.4byte	0x10c
 2423 0da3 F5030000 		.4byte	.LLST27
 2424 0da7 26       		.uleb128 0x26
 2425 0da8 7B060000 		.4byte	.LASF114
 2426 0dac E20D0000 		.4byte	0xde2
 2427 0db0 3F       		.uleb128 0x3f
 2428 0db1 88060000 		.4byte	0x688
 2429 0db5 0E000000 		.4byte	.LBB107
 2430 0db9 30000000 		.4byte	.Ldebug_ranges0+0x30
 2431 0dbd 01       		.byte	0x1
 2432 0dbe 4401     		.2byte	0x144
 2433 0dc0 CE0D0000 		.4byte	0xdce
 2434 0dc4 31       		.uleb128 0x31
 2435 0dc5 94060000 		.4byte	0x694
 2436 0dc9 21040000 		.4byte	.LLST28
 2437 0dcd 00       		.byte	0
 2438 0dce 35       		.uleb128 0x35
 2439 0dcf 26000000 		.4byte	.LVL46
 2440 0dd3 4E100000 		.4byte	0x104e
 2441 0dd7 28       		.uleb128 0x28
 2442 0dd8 01       		.uleb128 0x1
 2443 0dd9 50       		.byte	0x50
 2444 0dda 05       		.uleb128 0x5
 2445 0ddb F3       		.byte	0xf3
 2446 0ddc 01       		.uleb128 0x1
 2447 0ddd 50       		.byte	0x50
 2448 0dde 23       		.byte	0x23
 2449 0ddf 10       		.uleb128 0x10
 2450 0de0 00       		.byte	0
 2451 0de1 00       		.byte	0
ARM GAS  /tmp/ccdkT9wg.s 			page 44


 2452 0de2 14       		.uleb128 0x14
 2453 0de3 AD070000 		.4byte	0x7ad
 2454 0de7 30       		.uleb128 0x30
 2455 0de8 C2070000 		.4byte	0x7c2
 2456 0dec 00000000 		.4byte	.LFB180
 2457 0df0 38000000 		.4byte	.LFE180-.LFB180
 2458 0df4 01       		.uleb128 0x1
 2459 0df5 9C       		.byte	0x9c
 2460 0df6 8A0E0000 		.4byte	0xe8a
 2461 0dfa 31       		.uleb128 0x31
 2462 0dfb D3070000 		.4byte	0x7d3
 2463 0dff 53040000 		.4byte	.LLST29
 2464 0e03 31       		.uleb128 0x31
 2465 0e04 DF070000 		.4byte	0x7df
 2466 0e08 71040000 		.4byte	.LLST30
 2467 0e0c 31       		.uleb128 0x31
 2468 0e0d EB070000 		.4byte	0x7eb
 2469 0e11 8F040000 		.4byte	.LLST31
 2470 0e15 32       		.uleb128 0x32
 2471 0e16 F7070000 		.4byte	0x7f7
 2472 0e1a B0040000 		.4byte	.LLST32
 2473 0e1e 2E       		.uleb128 0x2e
 2474 0e1f 03080000 		.4byte	0x803
 2475 0e23 33       		.uleb128 0x33
 2476 0e24 12000000 		.4byte	.LBB113
 2477 0e28 22000000 		.4byte	.LBE113-.LBB113
 2478 0e2c 790E0000 		.4byte	0xe79
 2479 0e30 34       		.uleb128 0x34
 2480 0e31 EB070000 		.4byte	0x7eb
 2481 0e35 31       		.uleb128 0x31
 2482 0e36 DF070000 		.4byte	0x7df
 2483 0e3a CE040000 		.4byte	.LLST33
 2484 0e3e 31       		.uleb128 0x31
 2485 0e3f D3070000 		.4byte	0x7d3
 2486 0e43 E1040000 		.4byte	.LLST34
 2487 0e47 2D       		.uleb128 0x2d
 2488 0e48 12000000 		.4byte	.LBB114
 2489 0e4c 22000000 		.4byte	.LBE114-.LBB114
 2490 0e50 2E       		.uleb128 0x2e
 2491 0e51 F7070000 		.4byte	0x7f7
 2492 0e55 2E       		.uleb128 0x2e
 2493 0e56 03080000 		.4byte	0x803
 2494 0e5a 27       		.uleb128 0x27
 2495 0e5b 30000000 		.4byte	.LVL55
 2496 0e5f 4E100000 		.4byte	0x104e
 2497 0e63 6E0E0000 		.4byte	0xe6e
 2498 0e67 28       		.uleb128 0x28
 2499 0e68 01       		.uleb128 0x1
 2500 0e69 50       		.byte	0x50
 2501 0e6a 02       		.uleb128 0x2
 2502 0e6b 74       		.byte	0x74
 2503 0e6c 1C       		.sleb128 28
 2504 0e6d 00       		.byte	0
 2505 0e6e 2F       		.uleb128 0x2f
 2506 0e6f 34000000 		.4byte	.LVL56
 2507 0e73 46100000 		.4byte	0x1046
 2508 0e77 00       		.byte	0
ARM GAS  /tmp/ccdkT9wg.s 			page 45


 2509 0e78 00       		.byte	0
 2510 0e79 35       		.uleb128 0x35
 2511 0e7a 0E000000 		.4byte	.LVL52
 2512 0e7e 5F100000 		.4byte	0x105f
 2513 0e82 28       		.uleb128 0x28
 2514 0e83 01       		.uleb128 0x1
 2515 0e84 50       		.byte	0x50
 2516 0e85 02       		.uleb128 0x2
 2517 0e86 74       		.byte	0x74
 2518 0e87 10       		.sleb128 16
 2519 0e88 00       		.byte	0
 2520 0e89 00       		.byte	0
 2521 0e8a 3D       		.uleb128 0x3d
 2522 0e8b 89040000 		.4byte	.LASF126
 2523 0e8f 01       		.byte	0x1
 2524 0e90 6101     		.2byte	0x161
 2525 0e92 0C010000 		.4byte	0x10c
 2526 0e96 00000000 		.4byte	.LFB179
 2527 0e9a 14000000 		.4byte	.LFE179-.LFB179
 2528 0e9e 01       		.uleb128 0x1
 2529 0e9f 9C       		.byte	0x9c
 2530 0ea0 840F0000 		.4byte	0xf84
 2531 0ea4 3E       		.uleb128 0x3e
 2532 0ea5 6D627000 		.ascii	"mbp\000"
 2533 0ea9 01       		.byte	0x1
 2534 0eaa 6101     		.2byte	0x161
 2535 0eac 43070000 		.4byte	0x743
 2536 0eb0 F4040000 		.4byte	.LLST35
 2537 0eb4 40       		.uleb128 0x40
 2538 0eb5 84060000 		.4byte	.LASF118
 2539 0eb9 01       		.byte	0x1
 2540 0eba 6101     		.2byte	0x161
 2541 0ebc 4B060000 		.4byte	0x64b
 2542 0ec0 15050000 		.4byte	.LLST36
 2543 0ec4 40       		.uleb128 0x40
 2544 0ec5 FE050000 		.4byte	.LASF113
 2545 0ec9 01       		.byte	0x1
 2546 0eca 6101     		.2byte	0x161
 2547 0ecc 2D010000 		.4byte	0x12d
 2548 0ed0 36050000 		.4byte	.LLST37
 2549 0ed4 41       		.uleb128 0x41
 2550 0ed5 1D020000 		.4byte	.LASF82
 2551 0ed9 01       		.byte	0x1
 2552 0eda 6201     		.2byte	0x162
 2553 0edc 0C010000 		.4byte	0x10c
 2554 0ee0 01       		.uleb128 0x1
 2555 0ee1 50       		.byte	0x50
 2556 0ee2 3C       		.uleb128 0x3c
 2557 0ee3 C0060000 		.4byte	0x6c0
 2558 0ee7 02000000 		.4byte	.LBB115
 2559 0eeb 06000000 		.4byte	.LBE115-.LBB115
 2560 0eef 01       		.byte	0x1
 2561 0ef0 6401     		.2byte	0x164
 2562 0ef2 1F0F0000 		.4byte	0xf1f
 2563 0ef6 2B       		.uleb128 0x2b
 2564 0ef7 76060000 		.4byte	0x676
 2565 0efb 02000000 		.4byte	.LBB116
ARM GAS  /tmp/ccdkT9wg.s 			page 46


 2566 0eff 06000000 		.4byte	.LBE116-.LBB116
 2567 0f03 0E       		.byte	0xe
 2568 0f04 5C01     		.2byte	0x15c
 2569 0f06 2B       		.uleb128 0x2b
 2570 0f07 5C060000 		.4byte	0x65c
 2571 0f0b 02000000 		.4byte	.LBB117
 2572 0f0f 06000000 		.4byte	.LBE117-.LBB117
 2573 0f13 0A       		.byte	0xa
 2574 0f14 D001     		.2byte	0x1d0
 2575 0f16 2C       		.uleb128 0x2c
 2576 0f17 69060000 		.4byte	0x669
 2577 0f1b 20       		.byte	0x20
 2578 0f1c 00       		.byte	0
 2579 0f1d 00       		.byte	0
 2580 0f1e 00       		.byte	0
 2581 0f1f 3C       		.uleb128 0x3c
 2582 0f20 C9060000 		.4byte	0x6c9
 2583 0f24 0C000000 		.4byte	.LBB119
 2584 0f28 06000000 		.4byte	.LBE119-.LBB119
 2585 0f2c 01       		.byte	0x1
 2586 0f2d 6601     		.2byte	0x166
 2587 0f2f 6B0F0000 		.4byte	0xf6b
 2588 0f33 2D       		.uleb128 0x2d
 2589 0f34 0C000000 		.4byte	.LBB120
 2590 0f38 06000000 		.4byte	.LBE120-.LBB120
 2591 0f3c 2E       		.uleb128 0x2e
 2592 0f3d D6060000 		.4byte	0x6d6
 2593 0f41 2B       		.uleb128 0x2b
 2594 0f42 7F060000 		.4byte	0x67f
 2595 0f46 0C000000 		.4byte	.LBB121
 2596 0f4a 06000000 		.4byte	.LBE121-.LBB121
 2597 0f4e 0E       		.byte	0xe
 2598 0f4f 7301     		.2byte	0x173
 2599 0f51 2B       		.uleb128 0x2b
 2600 0f52 5C060000 		.4byte	0x65c
 2601 0f56 0C000000 		.4byte	.LBB122
 2602 0f5a 06000000 		.4byte	.LBE122-.LBB122
 2603 0f5e 0A       		.byte	0xa
 2604 0f5f E301     		.2byte	0x1e3
 2605 0f61 2C       		.uleb128 0x2c
 2606 0f62 69060000 		.4byte	0x669
 2607 0f66 00       		.byte	0
 2608 0f67 00       		.byte	0
 2609 0f68 00       		.byte	0
 2610 0f69 00       		.byte	0
 2611 0f6a 00       		.byte	0
 2612 0f6b 35       		.uleb128 0x35
 2613 0f6c 0C000000 		.4byte	.LVL58
 2614 0f70 C2070000 		.4byte	0x7c2
 2615 0f74 28       		.uleb128 0x28
 2616 0f75 01       		.uleb128 0x1
 2617 0f76 51       		.byte	0x51
 2618 0f77 03       		.uleb128 0x3
 2619 0f78 F3       		.byte	0xf3
 2620 0f79 01       		.uleb128 0x1
 2621 0f7a 51       		.byte	0x51
 2622 0f7b 28       		.uleb128 0x28
ARM GAS  /tmp/ccdkT9wg.s 			page 47


 2623 0f7c 01       		.uleb128 0x1
 2624 0f7d 50       		.byte	0x50
 2625 0f7e 03       		.uleb128 0x3
 2626 0f7f F3       		.byte	0xf3
 2627 0f80 01       		.uleb128 0x1
 2628 0f81 50       		.byte	0x50
 2629 0f82 00       		.byte	0
 2630 0f83 00       		.byte	0
 2631 0f84 3D       		.uleb128 0x3d
 2632 0f85 4D040000 		.4byte	.LASF127
 2633 0f89 01       		.byte	0x1
 2634 0f8a 9F01     		.2byte	0x19f
 2635 0f8c 0C010000 		.4byte	0x10c
 2636 0f90 00000000 		.4byte	.LFB181
 2637 0f94 36000000 		.4byte	.LFE181-.LFB181
 2638 0f98 01       		.uleb128 0x1
 2639 0f99 9C       		.byte	0x9c
 2640 0f9a F90F0000 		.4byte	0xff9
 2641 0f9e 3E       		.uleb128 0x3e
 2642 0f9f 6D627000 		.ascii	"mbp\000"
 2643 0fa3 01       		.byte	0x1
 2644 0fa4 9F01     		.2byte	0x19f
 2645 0fa6 43070000 		.4byte	0x743
 2646 0faa 57050000 		.4byte	.LLST38
 2647 0fae 40       		.uleb128 0x40
 2648 0faf 84060000 		.4byte	.LASF118
 2649 0fb3 01       		.byte	0x1
 2650 0fb4 9F01     		.2byte	0x19f
 2651 0fb6 4B060000 		.4byte	0x64b
 2652 0fba 9E050000 		.4byte	.LLST39
 2653 0fbe 26       		.uleb128 0x26
 2654 0fbf 7B060000 		.4byte	.LASF114
 2655 0fc3 F90F0000 		.4byte	0xff9
 2656 0fc7 3F       		.uleb128 0x3f
 2657 0fc8 88060000 		.4byte	0x688
 2658 0fcc 06000000 		.4byte	.LBB124
 2659 0fd0 48000000 		.4byte	.Ldebug_ranges0+0x48
 2660 0fd4 01       		.byte	0x1
 2661 0fd5 A701     		.2byte	0x1a7
 2662 0fd7 E50F0000 		.4byte	0xfe5
 2663 0fdb 31       		.uleb128 0x31
 2664 0fdc 94060000 		.4byte	0x694
 2665 0fe0 CA050000 		.4byte	.LLST40
 2666 0fe4 00       		.byte	0
 2667 0fe5 35       		.uleb128 0x35
 2668 0fe6 2C000000 		.4byte	.LVL63
 2669 0fea 4E100000 		.4byte	0x104e
 2670 0fee 28       		.uleb128 0x28
 2671 0fef 01       		.uleb128 0x1
 2672 0ff0 50       		.byte	0x50
 2673 0ff1 05       		.uleb128 0x5
 2674 0ff2 F3       		.byte	0xf3
 2675 0ff3 01       		.uleb128 0x1
 2676 0ff4 50       		.byte	0x50
 2677 0ff5 23       		.byte	0x23
 2678 0ff6 1C       		.uleb128 0x1c
 2679 0ff7 00       		.byte	0
ARM GAS  /tmp/ccdkT9wg.s 			page 48


 2680 0ff8 00       		.byte	0
 2681 0ff9 14       		.uleb128 0x14
 2682 0ffa 11080000 		.4byte	0x811
 2683 0ffe 42       		.uleb128 0x42
 2684 0fff F4040000 		.4byte	.LASF128
 2685 1003 0F       		.byte	0xf
 2686 1004 5506     		.2byte	0x655
 2687 1006 0A100000 		.4byte	0x100a
 2688 100a 13       		.uleb128 0x13
 2689 100b B4000000 		.4byte	0xb4
 2690 100f 43       		.uleb128 0x43
 2691 1010 636800   		.ascii	"ch\000"
 2692 1013 08       		.byte	0x8
 2693 1014 0902     		.2byte	0x209
 2694 1016 A9030000 		.4byte	0x3a9
 2695 101a 44       		.uleb128 0x44
 2696 101b 1A060000 		.4byte	.LASF129
 2697 101f 03       		.byte	0x3
 2698 1020 5B       		.byte	0x5b
 2699 1021 30100000 		.4byte	0x1030
 2700 1025 0C       		.uleb128 0xc
 2701 1026 9F060000 		.4byte	0x69f
 2702 102a 0C       		.uleb128 0xc
 2703 102b 22010000 		.4byte	0x122
 2704 102f 00       		.byte	0
 2705 1030 44       		.uleb128 0x44
 2706 1031 43010000 		.4byte	.LASF130
 2707 1035 03       		.byte	0x3
 2708 1036 5D       		.byte	0x5d
 2709 1037 46100000 		.4byte	0x1046
 2710 103b 0C       		.uleb128 0xc
 2711 103c 9F060000 		.4byte	0x69f
 2712 1040 0C       		.uleb128 0xc
 2713 1041 22010000 		.4byte	0x122
 2714 1045 00       		.byte	0
 2715 1046 45       		.uleb128 0x45
 2716 1047 70020000 		.4byte	.LASF136
 2717 104b 08       		.byte	0x8
 2718 104c 1702     		.2byte	0x217
 2719 104e 44       		.uleb128 0x44
 2720 104f 87010000 		.4byte	.LASF131
 2721 1053 03       		.byte	0x3
 2722 1054 63       		.byte	0x63
 2723 1055 5F100000 		.4byte	0x105f
 2724 1059 0C       		.uleb128 0xc
 2725 105a 9F060000 		.4byte	0x69f
 2726 105e 00       		.byte	0
 2727 105f 46       		.uleb128 0x46
 2728 1060 0B020000 		.4byte	.LASF132
 2729 1064 03       		.byte	0x3
 2730 1065 61       		.byte	0x61
 2731 1066 0C010000 		.4byte	0x10c
 2732 106a 0C       		.uleb128 0xc
 2733 106b 9F060000 		.4byte	0x69f
 2734 106f 0C       		.uleb128 0xc
 2735 1070 2D010000 		.4byte	0x12d
 2736 1074 00       		.byte	0
ARM GAS  /tmp/ccdkT9wg.s 			page 49


 2737 1075 00       		.byte	0
 2738              		.section	.debug_abbrev,"",%progbits
 2739              	.Ldebug_abbrev0:
 2740 0000 01       		.uleb128 0x1
 2741 0001 11       		.uleb128 0x11
 2742 0002 01       		.byte	0x1
 2743 0003 25       		.uleb128 0x25
 2744 0004 0E       		.uleb128 0xe
 2745 0005 13       		.uleb128 0x13
 2746 0006 0B       		.uleb128 0xb
 2747 0007 03       		.uleb128 0x3
 2748 0008 0E       		.uleb128 0xe
 2749 0009 55       		.uleb128 0x55
 2750 000a 17       		.uleb128 0x17
 2751 000b 11       		.uleb128 0x11
 2752 000c 01       		.uleb128 0x1
 2753 000d 10       		.uleb128 0x10
 2754 000e 17       		.uleb128 0x17
 2755 000f 00       		.byte	0
 2756 0010 00       		.byte	0
 2757 0011 02       		.uleb128 0x2
 2758 0012 24       		.uleb128 0x24
 2759 0013 00       		.byte	0
 2760 0014 0B       		.uleb128 0xb
 2761 0015 0B       		.uleb128 0xb
 2762 0016 3E       		.uleb128 0x3e
 2763 0017 0B       		.uleb128 0xb
 2764 0018 03       		.uleb128 0x3
 2765 0019 08       		.uleb128 0x8
 2766 001a 00       		.byte	0
 2767 001b 00       		.byte	0
 2768 001c 03       		.uleb128 0x3
 2769 001d 24       		.uleb128 0x24
 2770 001e 00       		.byte	0
 2771 001f 0B       		.uleb128 0xb
 2772 0020 0B       		.uleb128 0xb
 2773 0021 3E       		.uleb128 0x3e
 2774 0022 0B       		.uleb128 0xb
 2775 0023 03       		.uleb128 0x3
 2776 0024 0E       		.uleb128 0xe
 2777 0025 00       		.byte	0
 2778 0026 00       		.byte	0
 2779 0027 04       		.uleb128 0x4
 2780 0028 16       		.uleb128 0x16
 2781 0029 00       		.byte	0
 2782 002a 03       		.uleb128 0x3
 2783 002b 0E       		.uleb128 0xe
 2784 002c 3A       		.uleb128 0x3a
 2785 002d 0B       		.uleb128 0xb
 2786 002e 3B       		.uleb128 0x3b
 2787 002f 0B       		.uleb128 0xb
 2788 0030 49       		.uleb128 0x49
 2789 0031 13       		.uleb128 0x13
 2790 0032 00       		.byte	0
 2791 0033 00       		.byte	0
 2792 0034 05       		.uleb128 0x5
 2793 0035 13       		.uleb128 0x13
ARM GAS  /tmp/ccdkT9wg.s 			page 50


 2794 0036 01       		.byte	0x1
 2795 0037 03       		.uleb128 0x3
 2796 0038 0E       		.uleb128 0xe
 2797 0039 0B       		.uleb128 0xb
 2798 003a 0B       		.uleb128 0xb
 2799 003b 3A       		.uleb128 0x3a
 2800 003c 0B       		.uleb128 0xb
 2801 003d 3B       		.uleb128 0x3b
 2802 003e 0B       		.uleb128 0xb
 2803 003f 01       		.uleb128 0x1
 2804 0040 13       		.uleb128 0x13
 2805 0041 00       		.byte	0
 2806 0042 00       		.byte	0
 2807 0043 06       		.uleb128 0x6
 2808 0044 0D       		.uleb128 0xd
 2809 0045 00       		.byte	0
 2810 0046 03       		.uleb128 0x3
 2811 0047 0E       		.uleb128 0xe
 2812 0048 3A       		.uleb128 0x3a
 2813 0049 0B       		.uleb128 0xb
 2814 004a 3B       		.uleb128 0x3b
 2815 004b 0B       		.uleb128 0xb
 2816 004c 49       		.uleb128 0x49
 2817 004d 13       		.uleb128 0x13
 2818 004e 38       		.uleb128 0x38
 2819 004f 0B       		.uleb128 0xb
 2820 0050 00       		.byte	0
 2821 0051 00       		.byte	0
 2822 0052 07       		.uleb128 0x7
 2823 0053 0D       		.uleb128 0xd
 2824 0054 00       		.byte	0
 2825 0055 03       		.uleb128 0x3
 2826 0056 08       		.uleb128 0x8
 2827 0057 3A       		.uleb128 0x3a
 2828 0058 0B       		.uleb128 0xb
 2829 0059 3B       		.uleb128 0x3b
 2830 005a 05       		.uleb128 0x5
 2831 005b 49       		.uleb128 0x49
 2832 005c 13       		.uleb128 0x13
 2833 005d 38       		.uleb128 0x38
 2834 005e 0B       		.uleb128 0xb
 2835 005f 00       		.byte	0
 2836 0060 00       		.byte	0
 2837 0061 08       		.uleb128 0x8
 2838 0062 0D       		.uleb128 0xd
 2839 0063 00       		.byte	0
 2840 0064 03       		.uleb128 0x3
 2841 0065 0E       		.uleb128 0xe
 2842 0066 3A       		.uleb128 0x3a
 2843 0067 0B       		.uleb128 0xb
 2844 0068 3B       		.uleb128 0x3b
 2845 0069 05       		.uleb128 0x5
 2846 006a 49       		.uleb128 0x49
 2847 006b 13       		.uleb128 0x13
 2848 006c 38       		.uleb128 0x38
 2849 006d 0B       		.uleb128 0xb
 2850 006e 00       		.byte	0
ARM GAS  /tmp/ccdkT9wg.s 			page 51


 2851 006f 00       		.byte	0
 2852 0070 09       		.uleb128 0x9
 2853 0071 0F       		.uleb128 0xf
 2854 0072 00       		.byte	0
 2855 0073 0B       		.uleb128 0xb
 2856 0074 0B       		.uleb128 0xb
 2857 0075 49       		.uleb128 0x49
 2858 0076 13       		.uleb128 0x13
 2859 0077 00       		.byte	0
 2860 0078 00       		.byte	0
 2861 0079 0A       		.uleb128 0xa
 2862 007a 13       		.uleb128 0x13
 2863 007b 01       		.byte	0x1
 2864 007c 03       		.uleb128 0x3
 2865 007d 0E       		.uleb128 0xe
 2866 007e 0B       		.uleb128 0xb
 2867 007f 0B       		.uleb128 0xb
 2868 0080 3A       		.uleb128 0x3a
 2869 0081 0B       		.uleb128 0xb
 2870 0082 3B       		.uleb128 0x3b
 2871 0083 05       		.uleb128 0x5
 2872 0084 01       		.uleb128 0x1
 2873 0085 13       		.uleb128 0x13
 2874 0086 00       		.byte	0
 2875 0087 00       		.byte	0
 2876 0088 0B       		.uleb128 0xb
 2877 0089 15       		.uleb128 0x15
 2878 008a 01       		.byte	0x1
 2879 008b 27       		.uleb128 0x27
 2880 008c 19       		.uleb128 0x19
 2881 008d 01       		.uleb128 0x1
 2882 008e 13       		.uleb128 0x13
 2883 008f 00       		.byte	0
 2884 0090 00       		.byte	0
 2885 0091 0C       		.uleb128 0xc
 2886 0092 05       		.uleb128 0x5
 2887 0093 00       		.byte	0
 2888 0094 49       		.uleb128 0x49
 2889 0095 13       		.uleb128 0x13
 2890 0096 00       		.byte	0
 2891 0097 00       		.byte	0
 2892 0098 0D       		.uleb128 0xd
 2893 0099 0F       		.uleb128 0xf
 2894 009a 00       		.byte	0
 2895 009b 0B       		.uleb128 0xb
 2896 009c 0B       		.uleb128 0xb
 2897 009d 00       		.byte	0
 2898 009e 00       		.byte	0
 2899 009f 0E       		.uleb128 0xe
 2900 00a0 13       		.uleb128 0x13
 2901 00a1 01       		.byte	0x1
 2902 00a2 03       		.uleb128 0x3
 2903 00a3 0E       		.uleb128 0xe
 2904 00a4 0B       		.uleb128 0xb
 2905 00a5 05       		.uleb128 0x5
 2906 00a6 3A       		.uleb128 0x3a
 2907 00a7 0B       		.uleb128 0xb
ARM GAS  /tmp/ccdkT9wg.s 			page 52


 2908 00a8 3B       		.uleb128 0x3b
 2909 00a9 05       		.uleb128 0x5
 2910 00aa 01       		.uleb128 0x1
 2911 00ab 13       		.uleb128 0x13
 2912 00ac 00       		.byte	0
 2913 00ad 00       		.byte	0
 2914 00ae 0F       		.uleb128 0xf
 2915 00af 0D       		.uleb128 0xd
 2916 00b0 00       		.byte	0
 2917 00b1 03       		.uleb128 0x3
 2918 00b2 08       		.uleb128 0x8
 2919 00b3 3A       		.uleb128 0x3a
 2920 00b4 0B       		.uleb128 0xb
 2921 00b5 3B       		.uleb128 0x3b
 2922 00b6 0B       		.uleb128 0xb
 2923 00b7 49       		.uleb128 0x49
 2924 00b8 13       		.uleb128 0x13
 2925 00b9 38       		.uleb128 0x38
 2926 00ba 0B       		.uleb128 0xb
 2927 00bb 00       		.byte	0
 2928 00bc 00       		.byte	0
 2929 00bd 10       		.uleb128 0x10
 2930 00be 13       		.uleb128 0x13
 2931 00bf 01       		.byte	0x1
 2932 00c0 0B       		.uleb128 0xb
 2933 00c1 0B       		.uleb128 0xb
 2934 00c2 3A       		.uleb128 0x3a
 2935 00c3 0B       		.uleb128 0xb
 2936 00c4 3B       		.uleb128 0x3b
 2937 00c5 0B       		.uleb128 0xb
 2938 00c6 01       		.uleb128 0x1
 2939 00c7 13       		.uleb128 0x13
 2940 00c8 00       		.byte	0
 2941 00c9 00       		.byte	0
 2942 00ca 11       		.uleb128 0x11
 2943 00cb 17       		.uleb128 0x17
 2944 00cc 01       		.byte	0x1
 2945 00cd 0B       		.uleb128 0xb
 2946 00ce 0B       		.uleb128 0xb
 2947 00cf 3A       		.uleb128 0x3a
 2948 00d0 0B       		.uleb128 0xb
 2949 00d1 3B       		.uleb128 0x3b
 2950 00d2 0B       		.uleb128 0xb
 2951 00d3 01       		.uleb128 0x1
 2952 00d4 13       		.uleb128 0x13
 2953 00d5 00       		.byte	0
 2954 00d6 00       		.byte	0
 2955 00d7 12       		.uleb128 0x12
 2956 00d8 0D       		.uleb128 0xd
 2957 00d9 00       		.byte	0
 2958 00da 03       		.uleb128 0x3
 2959 00db 0E       		.uleb128 0xe
 2960 00dc 3A       		.uleb128 0x3a
 2961 00dd 0B       		.uleb128 0xb
 2962 00de 3B       		.uleb128 0x3b
 2963 00df 05       		.uleb128 0x5
 2964 00e0 49       		.uleb128 0x49
ARM GAS  /tmp/ccdkT9wg.s 			page 53


 2965 00e1 13       		.uleb128 0x13
 2966 00e2 00       		.byte	0
 2967 00e3 00       		.byte	0
 2968 00e4 13       		.uleb128 0x13
 2969 00e5 35       		.uleb128 0x35
 2970 00e6 00       		.byte	0
 2971 00e7 49       		.uleb128 0x49
 2972 00e8 13       		.uleb128 0x13
 2973 00e9 00       		.byte	0
 2974 00ea 00       		.byte	0
 2975 00eb 14       		.uleb128 0x14
 2976 00ec 26       		.uleb128 0x26
 2977 00ed 00       		.byte	0
 2978 00ee 49       		.uleb128 0x49
 2979 00ef 13       		.uleb128 0x13
 2980 00f0 00       		.byte	0
 2981 00f1 00       		.byte	0
 2982 00f2 15       		.uleb128 0x15
 2983 00f3 01       		.uleb128 0x1
 2984 00f4 01       		.byte	0x1
 2985 00f5 49       		.uleb128 0x49
 2986 00f6 13       		.uleb128 0x13
 2987 00f7 01       		.uleb128 0x1
 2988 00f8 13       		.uleb128 0x13
 2989 00f9 00       		.byte	0
 2990 00fa 00       		.byte	0
 2991 00fb 16       		.uleb128 0x16
 2992 00fc 21       		.uleb128 0x21
 2993 00fd 00       		.byte	0
 2994 00fe 49       		.uleb128 0x49
 2995 00ff 13       		.uleb128 0x13
 2996 0100 2F       		.uleb128 0x2f
 2997 0101 0B       		.uleb128 0xb
 2998 0102 00       		.byte	0
 2999 0103 00       		.byte	0
 3000 0104 17       		.uleb128 0x17
 3001 0105 2E       		.uleb128 0x2e
 3002 0106 01       		.byte	0x1
 3003 0107 03       		.uleb128 0x3
 3004 0108 0E       		.uleb128 0xe
 3005 0109 3A       		.uleb128 0x3a
 3006 010a 0B       		.uleb128 0xb
 3007 010b 3B       		.uleb128 0x3b
 3008 010c 05       		.uleb128 0x5
 3009 010d 27       		.uleb128 0x27
 3010 010e 19       		.uleb128 0x19
 3011 010f 20       		.uleb128 0x20
 3012 0110 0B       		.uleb128 0xb
 3013 0111 01       		.uleb128 0x1
 3014 0112 13       		.uleb128 0x13
 3015 0113 00       		.byte	0
 3016 0114 00       		.byte	0
 3017 0115 18       		.uleb128 0x18
 3018 0116 05       		.uleb128 0x5
 3019 0117 00       		.byte	0
 3020 0118 03       		.uleb128 0x3
 3021 0119 0E       		.uleb128 0xe
ARM GAS  /tmp/ccdkT9wg.s 			page 54


 3022 011a 3A       		.uleb128 0x3a
 3023 011b 0B       		.uleb128 0xb
 3024 011c 3B       		.uleb128 0x3b
 3025 011d 05       		.uleb128 0x5
 3026 011e 49       		.uleb128 0x49
 3027 011f 13       		.uleb128 0x13
 3028 0120 00       		.byte	0
 3029 0121 00       		.byte	0
 3030 0122 19       		.uleb128 0x19
 3031 0123 2E       		.uleb128 0x2e
 3032 0124 00       		.byte	0
 3033 0125 03       		.uleb128 0x3
 3034 0126 0E       		.uleb128 0xe
 3035 0127 3A       		.uleb128 0x3a
 3036 0128 0B       		.uleb128 0xb
 3037 0129 3B       		.uleb128 0x3b
 3038 012a 05       		.uleb128 0x5
 3039 012b 27       		.uleb128 0x27
 3040 012c 19       		.uleb128 0x19
 3041 012d 20       		.uleb128 0x20
 3042 012e 0B       		.uleb128 0xb
 3043 012f 00       		.byte	0
 3044 0130 00       		.byte	0
 3045 0131 1A       		.uleb128 0x1a
 3046 0132 2E       		.uleb128 0x2e
 3047 0133 01       		.byte	0x1
 3048 0134 03       		.uleb128 0x3
 3049 0135 0E       		.uleb128 0xe
 3050 0136 3A       		.uleb128 0x3a
 3051 0137 0B       		.uleb128 0xb
 3052 0138 3B       		.uleb128 0x3b
 3053 0139 0B       		.uleb128 0xb
 3054 013a 27       		.uleb128 0x27
 3055 013b 19       		.uleb128 0x19
 3056 013c 20       		.uleb128 0x20
 3057 013d 0B       		.uleb128 0xb
 3058 013e 01       		.uleb128 0x1
 3059 013f 13       		.uleb128 0x13
 3060 0140 00       		.byte	0
 3061 0141 00       		.byte	0
 3062 0142 1B       		.uleb128 0x1b
 3063 0143 05       		.uleb128 0x5
 3064 0144 00       		.byte	0
 3065 0145 03       		.uleb128 0x3
 3066 0146 08       		.uleb128 0x8
 3067 0147 3A       		.uleb128 0x3a
 3068 0148 0B       		.uleb128 0xb
 3069 0149 3B       		.uleb128 0x3b
 3070 014a 0B       		.uleb128 0xb
 3071 014b 49       		.uleb128 0x49
 3072 014c 13       		.uleb128 0x13
 3073 014d 00       		.byte	0
 3074 014e 00       		.byte	0
 3075 014f 1C       		.uleb128 0x1c
 3076 0150 2E       		.uleb128 0x2e
 3077 0151 01       		.byte	0x1
 3078 0152 03       		.uleb128 0x3
ARM GAS  /tmp/ccdkT9wg.s 			page 55


 3079 0153 0E       		.uleb128 0xe
 3080 0154 3A       		.uleb128 0x3a
 3081 0155 0B       		.uleb128 0xb
 3082 0156 3B       		.uleb128 0x3b
 3083 0157 0B       		.uleb128 0xb
 3084 0158 27       		.uleb128 0x27
 3085 0159 19       		.uleb128 0x19
 3086 015a 49       		.uleb128 0x49
 3087 015b 13       		.uleb128 0x13
 3088 015c 20       		.uleb128 0x20
 3089 015d 0B       		.uleb128 0xb
 3090 015e 01       		.uleb128 0x1
 3091 015f 13       		.uleb128 0x13
 3092 0160 00       		.byte	0
 3093 0161 00       		.byte	0
 3094 0162 1D       		.uleb128 0x1d
 3095 0163 34       		.uleb128 0x34
 3096 0164 00       		.byte	0
 3097 0165 03       		.uleb128 0x3
 3098 0166 0E       		.uleb128 0xe
 3099 0167 49       		.uleb128 0x49
 3100 0168 13       		.uleb128 0x13
 3101 0169 34       		.uleb128 0x34
 3102 016a 19       		.uleb128 0x19
 3103 016b 1C       		.uleb128 0x1c
 3104 016c 0E       		.uleb128 0xe
 3105 016d 00       		.byte	0
 3106 016e 00       		.byte	0
 3107 016f 1E       		.uleb128 0x1e
 3108 0170 2E       		.uleb128 0x2e
 3109 0171 01       		.byte	0x1
 3110 0172 3F       		.uleb128 0x3f
 3111 0173 19       		.uleb128 0x19
 3112 0174 03       		.uleb128 0x3
 3113 0175 0E       		.uleb128 0xe
 3114 0176 3A       		.uleb128 0x3a
 3115 0177 0B       		.uleb128 0xb
 3116 0178 3B       		.uleb128 0x3b
 3117 0179 0B       		.uleb128 0xb
 3118 017a 27       		.uleb128 0x27
 3119 017b 19       		.uleb128 0x19
 3120 017c 49       		.uleb128 0x49
 3121 017d 13       		.uleb128 0x13
 3122 017e 20       		.uleb128 0x20
 3123 017f 0B       		.uleb128 0xb
 3124 0180 01       		.uleb128 0x1
 3125 0181 13       		.uleb128 0x13
 3126 0182 00       		.byte	0
 3127 0183 00       		.byte	0
 3128 0184 1F       		.uleb128 0x1f
 3129 0185 05       		.uleb128 0x5
 3130 0186 00       		.byte	0
 3131 0187 03       		.uleb128 0x3
 3132 0188 0E       		.uleb128 0xe
 3133 0189 3A       		.uleb128 0x3a
 3134 018a 0B       		.uleb128 0xb
 3135 018b 3B       		.uleb128 0x3b
ARM GAS  /tmp/ccdkT9wg.s 			page 56


 3136 018c 0B       		.uleb128 0xb
 3137 018d 49       		.uleb128 0x49
 3138 018e 13       		.uleb128 0x13
 3139 018f 00       		.byte	0
 3140 0190 00       		.byte	0
 3141 0191 20       		.uleb128 0x20
 3142 0192 34       		.uleb128 0x34
 3143 0193 00       		.byte	0
 3144 0194 03       		.uleb128 0x3
 3145 0195 0E       		.uleb128 0xe
 3146 0196 3A       		.uleb128 0x3a
 3147 0197 0B       		.uleb128 0xb
 3148 0198 3B       		.uleb128 0x3b
 3149 0199 0B       		.uleb128 0xb
 3150 019a 49       		.uleb128 0x49
 3151 019b 13       		.uleb128 0x13
 3152 019c 00       		.byte	0
 3153 019d 00       		.byte	0
 3154 019e 21       		.uleb128 0x21
 3155 019f 2E       		.uleb128 0x2e
 3156 01a0 01       		.byte	0x1
 3157 01a1 3F       		.uleb128 0x3f
 3158 01a2 19       		.uleb128 0x19
 3159 01a3 03       		.uleb128 0x3
 3160 01a4 0E       		.uleb128 0xe
 3161 01a5 3A       		.uleb128 0x3a
 3162 01a6 0B       		.uleb128 0xb
 3163 01a7 3B       		.uleb128 0x3b
 3164 01a8 05       		.uleb128 0x5
 3165 01a9 27       		.uleb128 0x27
 3166 01aa 19       		.uleb128 0x19
 3167 01ab 49       		.uleb128 0x49
 3168 01ac 13       		.uleb128 0x13
 3169 01ad 20       		.uleb128 0x20
 3170 01ae 0B       		.uleb128 0xb
 3171 01af 01       		.uleb128 0x1
 3172 01b0 13       		.uleb128 0x13
 3173 01b1 00       		.byte	0
 3174 01b2 00       		.byte	0
 3175 01b3 22       		.uleb128 0x22
 3176 01b4 05       		.uleb128 0x5
 3177 01b5 00       		.byte	0
 3178 01b6 03       		.uleb128 0x3
 3179 01b7 08       		.uleb128 0x8
 3180 01b8 3A       		.uleb128 0x3a
 3181 01b9 0B       		.uleb128 0xb
 3182 01ba 3B       		.uleb128 0x3b
 3183 01bb 05       		.uleb128 0x5
 3184 01bc 49       		.uleb128 0x49
 3185 01bd 13       		.uleb128 0x13
 3186 01be 00       		.byte	0
 3187 01bf 00       		.byte	0
 3188 01c0 23       		.uleb128 0x23
 3189 01c1 34       		.uleb128 0x34
 3190 01c2 00       		.byte	0
 3191 01c3 03       		.uleb128 0x3
 3192 01c4 0E       		.uleb128 0xe
ARM GAS  /tmp/ccdkT9wg.s 			page 57


 3193 01c5 3A       		.uleb128 0x3a
 3194 01c6 0B       		.uleb128 0xb
 3195 01c7 3B       		.uleb128 0x3b
 3196 01c8 05       		.uleb128 0x5
 3197 01c9 49       		.uleb128 0x49
 3198 01ca 13       		.uleb128 0x13
 3199 01cb 00       		.byte	0
 3200 01cc 00       		.byte	0
 3201 01cd 24       		.uleb128 0x24
 3202 01ce 2E       		.uleb128 0x2e
 3203 01cf 01       		.byte	0x1
 3204 01d0 3F       		.uleb128 0x3f
 3205 01d1 19       		.uleb128 0x19
 3206 01d2 03       		.uleb128 0x3
 3207 01d3 0E       		.uleb128 0xe
 3208 01d4 3A       		.uleb128 0x3a
 3209 01d5 0B       		.uleb128 0xb
 3210 01d6 3B       		.uleb128 0x3b
 3211 01d7 0B       		.uleb128 0xb
 3212 01d8 27       		.uleb128 0x27
 3213 01d9 19       		.uleb128 0x19
 3214 01da 11       		.uleb128 0x11
 3215 01db 01       		.uleb128 0x1
 3216 01dc 12       		.uleb128 0x12
 3217 01dd 06       		.uleb128 0x6
 3218 01de 40       		.uleb128 0x40
 3219 01df 18       		.uleb128 0x18
 3220 01e0 9742     		.uleb128 0x2117
 3221 01e2 19       		.uleb128 0x19
 3222 01e3 01       		.uleb128 0x1
 3223 01e4 13       		.uleb128 0x13
 3224 01e5 00       		.byte	0
 3225 01e6 00       		.byte	0
 3226 01e7 25       		.uleb128 0x25
 3227 01e8 05       		.uleb128 0x5
 3228 01e9 00       		.byte	0
 3229 01ea 03       		.uleb128 0x3
 3230 01eb 08       		.uleb128 0x8
 3231 01ec 3A       		.uleb128 0x3a
 3232 01ed 0B       		.uleb128 0xb
 3233 01ee 3B       		.uleb128 0x3b
 3234 01ef 0B       		.uleb128 0xb
 3235 01f0 49       		.uleb128 0x49
 3236 01f1 13       		.uleb128 0x13
 3237 01f2 02       		.uleb128 0x2
 3238 01f3 17       		.uleb128 0x17
 3239 01f4 00       		.byte	0
 3240 01f5 00       		.byte	0
 3241 01f6 26       		.uleb128 0x26
 3242 01f7 34       		.uleb128 0x34
 3243 01f8 00       		.byte	0
 3244 01f9 03       		.uleb128 0x3
 3245 01fa 0E       		.uleb128 0xe
 3246 01fb 49       		.uleb128 0x49
 3247 01fc 13       		.uleb128 0x13
 3248 01fd 34       		.uleb128 0x34
 3249 01fe 19       		.uleb128 0x19
ARM GAS  /tmp/ccdkT9wg.s 			page 58


 3250 01ff 00       		.byte	0
 3251 0200 00       		.byte	0
 3252 0201 27       		.uleb128 0x27
 3253 0202 898201   		.uleb128 0x4109
 3254 0205 01       		.byte	0x1
 3255 0206 11       		.uleb128 0x11
 3256 0207 01       		.uleb128 0x1
 3257 0208 31       		.uleb128 0x31
 3258 0209 13       		.uleb128 0x13
 3259 020a 01       		.uleb128 0x1
 3260 020b 13       		.uleb128 0x13
 3261 020c 00       		.byte	0
 3262 020d 00       		.byte	0
 3263 020e 28       		.uleb128 0x28
 3264 020f 8A8201   		.uleb128 0x410a
 3265 0212 00       		.byte	0
 3266 0213 02       		.uleb128 0x2
 3267 0214 18       		.uleb128 0x18
 3268 0215 9142     		.uleb128 0x2111
 3269 0217 18       		.uleb128 0x18
 3270 0218 00       		.byte	0
 3271 0219 00       		.byte	0
 3272 021a 29       		.uleb128 0x29
 3273 021b 898201   		.uleb128 0x4109
 3274 021e 01       		.byte	0x1
 3275 021f 11       		.uleb128 0x11
 3276 0220 01       		.uleb128 0x1
 3277 0221 9542     		.uleb128 0x2115
 3278 0223 19       		.uleb128 0x19
 3279 0224 31       		.uleb128 0x31
 3280 0225 13       		.uleb128 0x13
 3281 0226 00       		.byte	0
 3282 0227 00       		.byte	0
 3283 0228 2A       		.uleb128 0x2a
 3284 0229 1D       		.uleb128 0x1d
 3285 022a 01       		.byte	0x1
 3286 022b 31       		.uleb128 0x31
 3287 022c 13       		.uleb128 0x13
 3288 022d 11       		.uleb128 0x11
 3289 022e 01       		.uleb128 0x1
 3290 022f 12       		.uleb128 0x12
 3291 0230 06       		.uleb128 0x6
 3292 0231 58       		.uleb128 0x58
 3293 0232 0B       		.uleb128 0xb
 3294 0233 59       		.uleb128 0x59
 3295 0234 0B       		.uleb128 0xb
 3296 0235 01       		.uleb128 0x1
 3297 0236 13       		.uleb128 0x13
 3298 0237 00       		.byte	0
 3299 0238 00       		.byte	0
 3300 0239 2B       		.uleb128 0x2b
 3301 023a 1D       		.uleb128 0x1d
 3302 023b 01       		.byte	0x1
 3303 023c 31       		.uleb128 0x31
 3304 023d 13       		.uleb128 0x13
 3305 023e 11       		.uleb128 0x11
 3306 023f 01       		.uleb128 0x1
ARM GAS  /tmp/ccdkT9wg.s 			page 59


 3307 0240 12       		.uleb128 0x12
 3308 0241 06       		.uleb128 0x6
 3309 0242 58       		.uleb128 0x58
 3310 0243 0B       		.uleb128 0xb
 3311 0244 59       		.uleb128 0x59
 3312 0245 05       		.uleb128 0x5
 3313 0246 00       		.byte	0
 3314 0247 00       		.byte	0
 3315 0248 2C       		.uleb128 0x2c
 3316 0249 05       		.uleb128 0x5
 3317 024a 00       		.byte	0
 3318 024b 31       		.uleb128 0x31
 3319 024c 13       		.uleb128 0x13
 3320 024d 1C       		.uleb128 0x1c
 3321 024e 0B       		.uleb128 0xb
 3322 024f 00       		.byte	0
 3323 0250 00       		.byte	0
 3324 0251 2D       		.uleb128 0x2d
 3325 0252 0B       		.uleb128 0xb
 3326 0253 01       		.byte	0x1
 3327 0254 11       		.uleb128 0x11
 3328 0255 01       		.uleb128 0x1
 3329 0256 12       		.uleb128 0x12
 3330 0257 06       		.uleb128 0x6
 3331 0258 00       		.byte	0
 3332 0259 00       		.byte	0
 3333 025a 2E       		.uleb128 0x2e
 3334 025b 34       		.uleb128 0x34
 3335 025c 00       		.byte	0
 3336 025d 31       		.uleb128 0x31
 3337 025e 13       		.uleb128 0x13
 3338 025f 00       		.byte	0
 3339 0260 00       		.byte	0
 3340 0261 2F       		.uleb128 0x2f
 3341 0262 898201   		.uleb128 0x4109
 3342 0265 00       		.byte	0
 3343 0266 11       		.uleb128 0x11
 3344 0267 01       		.uleb128 0x1
 3345 0268 31       		.uleb128 0x31
 3346 0269 13       		.uleb128 0x13
 3347 026a 00       		.byte	0
 3348 026b 00       		.byte	0
 3349 026c 30       		.uleb128 0x30
 3350 026d 2E       		.uleb128 0x2e
 3351 026e 01       		.byte	0x1
 3352 026f 31       		.uleb128 0x31
 3353 0270 13       		.uleb128 0x13
 3354 0271 11       		.uleb128 0x11
 3355 0272 01       		.uleb128 0x1
 3356 0273 12       		.uleb128 0x12
 3357 0274 06       		.uleb128 0x6
 3358 0275 40       		.uleb128 0x40
 3359 0276 18       		.uleb128 0x18
 3360 0277 9742     		.uleb128 0x2117
 3361 0279 19       		.uleb128 0x19
 3362 027a 01       		.uleb128 0x1
 3363 027b 13       		.uleb128 0x13
ARM GAS  /tmp/ccdkT9wg.s 			page 60


 3364 027c 00       		.byte	0
 3365 027d 00       		.byte	0
 3366 027e 31       		.uleb128 0x31
 3367 027f 05       		.uleb128 0x5
 3368 0280 00       		.byte	0
 3369 0281 31       		.uleb128 0x31
 3370 0282 13       		.uleb128 0x13
 3371 0283 02       		.uleb128 0x2
 3372 0284 17       		.uleb128 0x17
 3373 0285 00       		.byte	0
 3374 0286 00       		.byte	0
 3375 0287 32       		.uleb128 0x32
 3376 0288 34       		.uleb128 0x34
 3377 0289 00       		.byte	0
 3378 028a 31       		.uleb128 0x31
 3379 028b 13       		.uleb128 0x13
 3380 028c 02       		.uleb128 0x2
 3381 028d 17       		.uleb128 0x17
 3382 028e 00       		.byte	0
 3383 028f 00       		.byte	0
 3384 0290 33       		.uleb128 0x33
 3385 0291 0B       		.uleb128 0xb
 3386 0292 01       		.byte	0x1
 3387 0293 11       		.uleb128 0x11
 3388 0294 01       		.uleb128 0x1
 3389 0295 12       		.uleb128 0x12
 3390 0296 06       		.uleb128 0x6
 3391 0297 01       		.uleb128 0x1
 3392 0298 13       		.uleb128 0x13
 3393 0299 00       		.byte	0
 3394 029a 00       		.byte	0
 3395 029b 34       		.uleb128 0x34
 3396 029c 05       		.uleb128 0x5
 3397 029d 00       		.byte	0
 3398 029e 31       		.uleb128 0x31
 3399 029f 13       		.uleb128 0x13
 3400 02a0 00       		.byte	0
 3401 02a1 00       		.byte	0
 3402 02a2 35       		.uleb128 0x35
 3403 02a3 898201   		.uleb128 0x4109
 3404 02a6 01       		.byte	0x1
 3405 02a7 11       		.uleb128 0x11
 3406 02a8 01       		.uleb128 0x1
 3407 02a9 31       		.uleb128 0x31
 3408 02aa 13       		.uleb128 0x13
 3409 02ab 00       		.byte	0
 3410 02ac 00       		.byte	0
 3411 02ad 36       		.uleb128 0x36
 3412 02ae 2E       		.uleb128 0x2e
 3413 02af 01       		.byte	0x1
 3414 02b0 3F       		.uleb128 0x3f
 3415 02b1 19       		.uleb128 0x19
 3416 02b2 03       		.uleb128 0x3
 3417 02b3 0E       		.uleb128 0xe
 3418 02b4 3A       		.uleb128 0x3a
 3419 02b5 0B       		.uleb128 0xb
 3420 02b6 3B       		.uleb128 0x3b
ARM GAS  /tmp/ccdkT9wg.s 			page 61


 3421 02b7 0B       		.uleb128 0xb
 3422 02b8 27       		.uleb128 0x27
 3423 02b9 19       		.uleb128 0x19
 3424 02ba 49       		.uleb128 0x49
 3425 02bb 13       		.uleb128 0x13
 3426 02bc 11       		.uleb128 0x11
 3427 02bd 01       		.uleb128 0x1
 3428 02be 12       		.uleb128 0x12
 3429 02bf 06       		.uleb128 0x6
 3430 02c0 40       		.uleb128 0x40
 3431 02c1 18       		.uleb128 0x18
 3432 02c2 9742     		.uleb128 0x2117
 3433 02c4 19       		.uleb128 0x19
 3434 02c5 01       		.uleb128 0x1
 3435 02c6 13       		.uleb128 0x13
 3436 02c7 00       		.byte	0
 3437 02c8 00       		.byte	0
 3438 02c9 37       		.uleb128 0x37
 3439 02ca 05       		.uleb128 0x5
 3440 02cb 00       		.byte	0
 3441 02cc 03       		.uleb128 0x3
 3442 02cd 0E       		.uleb128 0xe
 3443 02ce 3A       		.uleb128 0x3a
 3444 02cf 0B       		.uleb128 0xb
 3445 02d0 3B       		.uleb128 0x3b
 3446 02d1 0B       		.uleb128 0xb
 3447 02d2 49       		.uleb128 0x49
 3448 02d3 13       		.uleb128 0x13
 3449 02d4 02       		.uleb128 0x2
 3450 02d5 17       		.uleb128 0x17
 3451 02d6 00       		.byte	0
 3452 02d7 00       		.byte	0
 3453 02d8 38       		.uleb128 0x38
 3454 02d9 34       		.uleb128 0x34
 3455 02da 00       		.byte	0
 3456 02db 03       		.uleb128 0x3
 3457 02dc 0E       		.uleb128 0xe
 3458 02dd 3A       		.uleb128 0x3a
 3459 02de 0B       		.uleb128 0xb
 3460 02df 3B       		.uleb128 0x3b
 3461 02e0 0B       		.uleb128 0xb
 3462 02e1 49       		.uleb128 0x49
 3463 02e2 13       		.uleb128 0x13
 3464 02e3 02       		.uleb128 0x2
 3465 02e4 18       		.uleb128 0x18
 3466 02e5 00       		.byte	0
 3467 02e6 00       		.byte	0
 3468 02e7 39       		.uleb128 0x39
 3469 02e8 1D       		.uleb128 0x1d
 3470 02e9 01       		.byte	0x1
 3471 02ea 31       		.uleb128 0x31
 3472 02eb 13       		.uleb128 0x13
 3473 02ec 52       		.uleb128 0x52
 3474 02ed 01       		.uleb128 0x1
 3475 02ee 55       		.uleb128 0x55
 3476 02ef 17       		.uleb128 0x17
 3477 02f0 58       		.uleb128 0x58
ARM GAS  /tmp/ccdkT9wg.s 			page 62


 3478 02f1 0B       		.uleb128 0xb
 3479 02f2 59       		.uleb128 0x59
 3480 02f3 0B       		.uleb128 0xb
 3481 02f4 01       		.uleb128 0x1
 3482 02f5 13       		.uleb128 0x13
 3483 02f6 00       		.byte	0
 3484 02f7 00       		.byte	0
 3485 02f8 3A       		.uleb128 0x3a
 3486 02f9 0B       		.uleb128 0xb
 3487 02fa 01       		.byte	0x1
 3488 02fb 55       		.uleb128 0x55
 3489 02fc 17       		.uleb128 0x17
 3490 02fd 01       		.uleb128 0x1
 3491 02fe 13       		.uleb128 0x13
 3492 02ff 00       		.byte	0
 3493 0300 00       		.byte	0
 3494 0301 3B       		.uleb128 0x3b
 3495 0302 0B       		.uleb128 0xb
 3496 0303 01       		.byte	0x1
 3497 0304 55       		.uleb128 0x55
 3498 0305 17       		.uleb128 0x17
 3499 0306 00       		.byte	0
 3500 0307 00       		.byte	0
 3501 0308 3C       		.uleb128 0x3c
 3502 0309 1D       		.uleb128 0x1d
 3503 030a 01       		.byte	0x1
 3504 030b 31       		.uleb128 0x31
 3505 030c 13       		.uleb128 0x13
 3506 030d 11       		.uleb128 0x11
 3507 030e 01       		.uleb128 0x1
 3508 030f 12       		.uleb128 0x12
 3509 0310 06       		.uleb128 0x6
 3510 0311 58       		.uleb128 0x58
 3511 0312 0B       		.uleb128 0xb
 3512 0313 59       		.uleb128 0x59
 3513 0314 05       		.uleb128 0x5
 3514 0315 01       		.uleb128 0x1
 3515 0316 13       		.uleb128 0x13
 3516 0317 00       		.byte	0
 3517 0318 00       		.byte	0
 3518 0319 3D       		.uleb128 0x3d
 3519 031a 2E       		.uleb128 0x2e
 3520 031b 01       		.byte	0x1
 3521 031c 3F       		.uleb128 0x3f
 3522 031d 19       		.uleb128 0x19
 3523 031e 03       		.uleb128 0x3
 3524 031f 0E       		.uleb128 0xe
 3525 0320 3A       		.uleb128 0x3a
 3526 0321 0B       		.uleb128 0xb
 3527 0322 3B       		.uleb128 0x3b
 3528 0323 05       		.uleb128 0x5
 3529 0324 27       		.uleb128 0x27
 3530 0325 19       		.uleb128 0x19
 3531 0326 49       		.uleb128 0x49
 3532 0327 13       		.uleb128 0x13
 3533 0328 11       		.uleb128 0x11
 3534 0329 01       		.uleb128 0x1
ARM GAS  /tmp/ccdkT9wg.s 			page 63


 3535 032a 12       		.uleb128 0x12
 3536 032b 06       		.uleb128 0x6
 3537 032c 40       		.uleb128 0x40
 3538 032d 18       		.uleb128 0x18
 3539 032e 9742     		.uleb128 0x2117
 3540 0330 19       		.uleb128 0x19
 3541 0331 01       		.uleb128 0x1
 3542 0332 13       		.uleb128 0x13
 3543 0333 00       		.byte	0
 3544 0334 00       		.byte	0
 3545 0335 3E       		.uleb128 0x3e
 3546 0336 05       		.uleb128 0x5
 3547 0337 00       		.byte	0
 3548 0338 03       		.uleb128 0x3
 3549 0339 08       		.uleb128 0x8
 3550 033a 3A       		.uleb128 0x3a
 3551 033b 0B       		.uleb128 0xb
 3552 033c 3B       		.uleb128 0x3b
 3553 033d 05       		.uleb128 0x5
 3554 033e 49       		.uleb128 0x49
 3555 033f 13       		.uleb128 0x13
 3556 0340 02       		.uleb128 0x2
 3557 0341 17       		.uleb128 0x17
 3558 0342 00       		.byte	0
 3559 0343 00       		.byte	0
 3560 0344 3F       		.uleb128 0x3f
 3561 0345 1D       		.uleb128 0x1d
 3562 0346 01       		.byte	0x1
 3563 0347 31       		.uleb128 0x31
 3564 0348 13       		.uleb128 0x13
 3565 0349 52       		.uleb128 0x52
 3566 034a 01       		.uleb128 0x1
 3567 034b 55       		.uleb128 0x55
 3568 034c 17       		.uleb128 0x17
 3569 034d 58       		.uleb128 0x58
 3570 034e 0B       		.uleb128 0xb
 3571 034f 59       		.uleb128 0x59
 3572 0350 05       		.uleb128 0x5
 3573 0351 01       		.uleb128 0x1
 3574 0352 13       		.uleb128 0x13
 3575 0353 00       		.byte	0
 3576 0354 00       		.byte	0
 3577 0355 40       		.uleb128 0x40
 3578 0356 05       		.uleb128 0x5
 3579 0357 00       		.byte	0
 3580 0358 03       		.uleb128 0x3
 3581 0359 0E       		.uleb128 0xe
 3582 035a 3A       		.uleb128 0x3a
 3583 035b 0B       		.uleb128 0xb
 3584 035c 3B       		.uleb128 0x3b
 3585 035d 05       		.uleb128 0x5
 3586 035e 49       		.uleb128 0x49
 3587 035f 13       		.uleb128 0x13
 3588 0360 02       		.uleb128 0x2
 3589 0361 17       		.uleb128 0x17
 3590 0362 00       		.byte	0
 3591 0363 00       		.byte	0
ARM GAS  /tmp/ccdkT9wg.s 			page 64


 3592 0364 41       		.uleb128 0x41
 3593 0365 34       		.uleb128 0x34
 3594 0366 00       		.byte	0
 3595 0367 03       		.uleb128 0x3
 3596 0368 0E       		.uleb128 0xe
 3597 0369 3A       		.uleb128 0x3a
 3598 036a 0B       		.uleb128 0xb
 3599 036b 3B       		.uleb128 0x3b
 3600 036c 05       		.uleb128 0x5
 3601 036d 49       		.uleb128 0x49
 3602 036e 13       		.uleb128 0x13
 3603 036f 02       		.uleb128 0x2
 3604 0370 18       		.uleb128 0x18
 3605 0371 00       		.byte	0
 3606 0372 00       		.byte	0
 3607 0373 42       		.uleb128 0x42
 3608 0374 34       		.uleb128 0x34
 3609 0375 00       		.byte	0
 3610 0376 03       		.uleb128 0x3
 3611 0377 0E       		.uleb128 0xe
 3612 0378 3A       		.uleb128 0x3a
 3613 0379 0B       		.uleb128 0xb
 3614 037a 3B       		.uleb128 0x3b
 3615 037b 05       		.uleb128 0x5
 3616 037c 49       		.uleb128 0x49
 3617 037d 13       		.uleb128 0x13
 3618 037e 3F       		.uleb128 0x3f
 3619 037f 19       		.uleb128 0x19
 3620 0380 3C       		.uleb128 0x3c
 3621 0381 19       		.uleb128 0x19
 3622 0382 00       		.byte	0
 3623 0383 00       		.byte	0
 3624 0384 43       		.uleb128 0x43
 3625 0385 34       		.uleb128 0x34
 3626 0386 00       		.byte	0
 3627 0387 03       		.uleb128 0x3
 3628 0388 08       		.uleb128 0x8
 3629 0389 3A       		.uleb128 0x3a
 3630 038a 0B       		.uleb128 0xb
 3631 038b 3B       		.uleb128 0x3b
 3632 038c 05       		.uleb128 0x5
 3633 038d 49       		.uleb128 0x49
 3634 038e 13       		.uleb128 0x13
 3635 038f 3F       		.uleb128 0x3f
 3636 0390 19       		.uleb128 0x19
 3637 0391 3C       		.uleb128 0x3c
 3638 0392 19       		.uleb128 0x19
 3639 0393 00       		.byte	0
 3640 0394 00       		.byte	0
 3641 0395 44       		.uleb128 0x44
 3642 0396 2E       		.uleb128 0x2e
 3643 0397 01       		.byte	0x1
 3644 0398 3F       		.uleb128 0x3f
 3645 0399 19       		.uleb128 0x19
 3646 039a 03       		.uleb128 0x3
 3647 039b 0E       		.uleb128 0xe
 3648 039c 3A       		.uleb128 0x3a
ARM GAS  /tmp/ccdkT9wg.s 			page 65


 3649 039d 0B       		.uleb128 0xb
 3650 039e 3B       		.uleb128 0x3b
 3651 039f 0B       		.uleb128 0xb
 3652 03a0 27       		.uleb128 0x27
 3653 03a1 19       		.uleb128 0x19
 3654 03a2 3C       		.uleb128 0x3c
 3655 03a3 19       		.uleb128 0x19
 3656 03a4 01       		.uleb128 0x1
 3657 03a5 13       		.uleb128 0x13
 3658 03a6 00       		.byte	0
 3659 03a7 00       		.byte	0
 3660 03a8 45       		.uleb128 0x45
 3661 03a9 2E       		.uleb128 0x2e
 3662 03aa 00       		.byte	0
 3663 03ab 3F       		.uleb128 0x3f
 3664 03ac 19       		.uleb128 0x19
 3665 03ad 03       		.uleb128 0x3
 3666 03ae 0E       		.uleb128 0xe
 3667 03af 3A       		.uleb128 0x3a
 3668 03b0 0B       		.uleb128 0xb
 3669 03b1 3B       		.uleb128 0x3b
 3670 03b2 05       		.uleb128 0x5
 3671 03b3 27       		.uleb128 0x27
 3672 03b4 19       		.uleb128 0x19
 3673 03b5 3C       		.uleb128 0x3c
 3674 03b6 19       		.uleb128 0x19
 3675 03b7 00       		.byte	0
 3676 03b8 00       		.byte	0
 3677 03b9 46       		.uleb128 0x46
 3678 03ba 2E       		.uleb128 0x2e
 3679 03bb 01       		.byte	0x1
 3680 03bc 3F       		.uleb128 0x3f
 3681 03bd 19       		.uleb128 0x19
 3682 03be 03       		.uleb128 0x3
 3683 03bf 0E       		.uleb128 0xe
 3684 03c0 3A       		.uleb128 0x3a
 3685 03c1 0B       		.uleb128 0xb
 3686 03c2 3B       		.uleb128 0x3b
 3687 03c3 0B       		.uleb128 0xb
 3688 03c4 27       		.uleb128 0x27
 3689 03c5 19       		.uleb128 0x19
 3690 03c6 49       		.uleb128 0x49
 3691 03c7 13       		.uleb128 0x13
 3692 03c8 3C       		.uleb128 0x3c
 3693 03c9 19       		.uleb128 0x19
 3694 03ca 00       		.byte	0
 3695 03cb 00       		.byte	0
 3696 03cc 00       		.byte	0
 3697              		.section	.debug_loc,"",%progbits
 3698              	.Ldebug_loc0:
 3699              	.LLST0:
 3700 0000 00000000 		.4byte	.LVL0
 3701 0004 16000000 		.4byte	.LVL2
 3702 0008 0100     		.2byte	0x1
 3703 000a 50       		.byte	0x50
 3704 000b 16000000 		.4byte	.LVL2
 3705 000f 24000000 		.4byte	.LVL4
ARM GAS  /tmp/ccdkT9wg.s 			page 66


 3706 0013 0100     		.2byte	0x1
 3707 0015 54       		.byte	0x54
 3708 0016 24000000 		.4byte	.LVL4
 3709 001a 27000000 		.4byte	.LVL5-1
 3710 001e 0300     		.2byte	0x3
 3711 0020 70       		.byte	0x70
 3712 0021 70       		.sleb128 -16
 3713 0022 9F       		.byte	0x9f
 3714 0023 27000000 		.4byte	.LVL5-1
 3715 0027 28000000 		.4byte	.LFE170
 3716 002b 0400     		.2byte	0x4
 3717 002d F3       		.byte	0xf3
 3718 002e 01       		.uleb128 0x1
 3719 002f 50       		.byte	0x50
 3720 0030 9F       		.byte	0x9f
 3721 0031 00000000 		.4byte	0
 3722 0035 00000000 		.4byte	0
 3723              	.LLST1:
 3724 0039 00000000 		.4byte	.LVL0
 3725 003d 0A000000 		.4byte	.LVL1
 3726 0041 0100     		.2byte	0x1
 3727 0043 51       		.byte	0x51
 3728 0044 0A000000 		.4byte	.LVL1
 3729 0048 19000000 		.4byte	.LVL3-1
 3730 004c 0100     		.2byte	0x1
 3731 004e 53       		.byte	0x53
 3732 004f 19000000 		.4byte	.LVL3-1
 3733 0053 28000000 		.4byte	.LFE170
 3734 0057 0400     		.2byte	0x4
 3735 0059 F3       		.byte	0xf3
 3736 005a 01       		.uleb128 0x1
 3737 005b 51       		.byte	0x51
 3738 005c 9F       		.byte	0x9f
 3739 005d 00000000 		.4byte	0
 3740 0061 00000000 		.4byte	0
 3741              	.LLST2:
 3742 0065 00000000 		.4byte	.LVL0
 3743 0069 19000000 		.4byte	.LVL3-1
 3744 006d 0100     		.2byte	0x1
 3745 006f 52       		.byte	0x52
 3746 0070 19000000 		.4byte	.LVL3-1
 3747 0074 28000000 		.4byte	.LFE170
 3748 0078 0400     		.2byte	0x4
 3749 007a F3       		.byte	0xf3
 3750 007b 01       		.uleb128 0x1
 3751 007c 52       		.byte	0x52
 3752 007d 9F       		.byte	0x9f
 3753 007e 00000000 		.4byte	0
 3754 0082 00000000 		.4byte	0
 3755              	.LLST3:
 3756 0086 00000000 		.4byte	.LVL6
 3757 008a 12000000 		.4byte	.LVL7
 3758 008e 0100     		.2byte	0x1
 3759 0090 50       		.byte	0x50
 3760 0091 12000000 		.4byte	.LVL7
 3761 0095 20000000 		.4byte	.LVL9
 3762 0099 0100     		.2byte	0x1
ARM GAS  /tmp/ccdkT9wg.s 			page 67


 3763 009b 54       		.byte	0x54
 3764 009c 20000000 		.4byte	.LVL9
 3765 00a0 23000000 		.4byte	.LVL10-1
 3766 00a4 0300     		.2byte	0x3
 3767 00a6 70       		.byte	0x70
 3768 00a7 70       		.sleb128 -16
 3769 00a8 9F       		.byte	0x9f
 3770 00a9 23000000 		.4byte	.LVL10-1
 3771 00ad 24000000 		.4byte	.LFE172
 3772 00b1 0400     		.2byte	0x4
 3773 00b3 F3       		.byte	0xf3
 3774 00b4 01       		.uleb128 0x1
 3775 00b5 50       		.byte	0x50
 3776 00b6 9F       		.byte	0x9f
 3777 00b7 00000000 		.4byte	0
 3778 00bb 00000000 		.4byte	0
 3779              	.LLST4:
 3780 00bf 00000000 		.4byte	.LVL11
 3781 00c3 0B000000 		.4byte	.LVL12-1
 3782 00c7 0100     		.2byte	0x1
 3783 00c9 50       		.byte	0x50
 3784 00ca 0B000000 		.4byte	.LVL12-1
 3785 00ce 18000000 		.4byte	.LFE171
 3786 00d2 0400     		.2byte	0x4
 3787 00d4 F3       		.byte	0xf3
 3788 00d5 01       		.uleb128 0x1
 3789 00d6 50       		.byte	0x50
 3790 00d7 9F       		.byte	0x9f
 3791 00d8 00000000 		.4byte	0
 3792 00dc 00000000 		.4byte	0
 3793              	.LLST5:
 3794 00e0 00000000 		.4byte	.LVL14
 3795 00e4 08000000 		.4byte	.LVL15
 3796 00e8 0100     		.2byte	0x1
 3797 00ea 50       		.byte	0x50
 3798 00eb 08000000 		.4byte	.LVL15
 3799 00ef 36000000 		.4byte	.LFE174
 3800 00f3 0100     		.2byte	0x1
 3801 00f5 54       		.byte	0x54
 3802 00f6 00000000 		.4byte	0
 3803 00fa 00000000 		.4byte	0
 3804              	.LLST6:
 3805 00fe 00000000 		.4byte	.LVL14
 3806 0102 0A000000 		.4byte	.LVL16
 3807 0106 0100     		.2byte	0x1
 3808 0108 51       		.byte	0x51
 3809 0109 0A000000 		.4byte	.LVL16
 3810 010d 36000000 		.4byte	.LFE174
 3811 0111 0100     		.2byte	0x1
 3812 0113 56       		.byte	0x56
 3813 0114 00000000 		.4byte	0
 3814 0118 00000000 		.4byte	0
 3815              	.LLST7:
 3816 011c 00000000 		.4byte	.LVL14
 3817 0120 0D000000 		.4byte	.LVL17-1
 3818 0124 0100     		.2byte	0x1
 3819 0126 52       		.byte	0x52
ARM GAS  /tmp/ccdkT9wg.s 			page 68


 3820 0127 0D000000 		.4byte	.LVL17-1
 3821 012b 36000000 		.4byte	.LFE174
 3822 012f 0400     		.2byte	0x4
 3823 0131 F3       		.byte	0xf3
 3824 0132 01       		.uleb128 0x1
 3825 0133 52       		.byte	0x52
 3826 0134 9F       		.byte	0x9f
 3827 0135 00000000 		.4byte	0
 3828 0139 00000000 		.4byte	0
 3829              	.LLST8:
 3830 013d 0E000000 		.4byte	.LVL17
 3831 0141 26000000 		.4byte	.LVL19
 3832 0145 0100     		.2byte	0x1
 3833 0147 50       		.byte	0x50
 3834 0148 26000000 		.4byte	.LVL19
 3835 014c 36000000 		.4byte	.LFE174
 3836 0150 0100     		.2byte	0x1
 3837 0152 55       		.byte	0x55
 3838 0153 00000000 		.4byte	0
 3839 0157 00000000 		.4byte	0
 3840              	.LLST9:
 3841 015b 12000000 		.4byte	.LVL18
 3842 015f 32000000 		.4byte	.LVL21
 3843 0163 0100     		.2byte	0x1
 3844 0165 56       		.byte	0x56
 3845 0166 00000000 		.4byte	0
 3846 016a 00000000 		.4byte	0
 3847              	.LLST10:
 3848 016e 12000000 		.4byte	.LVL18
 3849 0172 32000000 		.4byte	.LVL21
 3850 0176 0100     		.2byte	0x1
 3851 0178 54       		.byte	0x54
 3852 0179 00000000 		.4byte	0
 3853 017d 00000000 		.4byte	0
 3854              	.LLST11:
 3855 0181 00000000 		.4byte	.LVL22
 3856 0185 0B000000 		.4byte	.LVL23-1
 3857 0189 0100     		.2byte	0x1
 3858 018b 50       		.byte	0x50
 3859 018c 0B000000 		.4byte	.LVL23-1
 3860 0190 14000000 		.4byte	.LFE173
 3861 0194 0400     		.2byte	0x4
 3862 0196 F3       		.byte	0xf3
 3863 0197 01       		.uleb128 0x1
 3864 0198 50       		.byte	0x50
 3865 0199 9F       		.byte	0x9f
 3866 019a 00000000 		.4byte	0
 3867 019e 00000000 		.4byte	0
 3868              	.LLST12:
 3869 01a2 00000000 		.4byte	.LVL22
 3870 01a6 0B000000 		.4byte	.LVL23-1
 3871 01aa 0100     		.2byte	0x1
 3872 01ac 51       		.byte	0x51
 3873 01ad 0B000000 		.4byte	.LVL23-1
 3874 01b1 14000000 		.4byte	.LFE173
 3875 01b5 0400     		.2byte	0x4
 3876 01b7 F3       		.byte	0xf3
ARM GAS  /tmp/ccdkT9wg.s 			page 69


 3877 01b8 01       		.uleb128 0x1
 3878 01b9 51       		.byte	0x51
 3879 01ba 9F       		.byte	0x9f
 3880 01bb 00000000 		.4byte	0
 3881 01bf 00000000 		.4byte	0
 3882              	.LLST13:
 3883 01c3 00000000 		.4byte	.LVL22
 3884 01c7 0B000000 		.4byte	.LVL23-1
 3885 01cb 0100     		.2byte	0x1
 3886 01cd 52       		.byte	0x52
 3887 01ce 0B000000 		.4byte	.LVL23-1
 3888 01d2 14000000 		.4byte	.LFE173
 3889 01d6 0400     		.2byte	0x4
 3890 01d8 F3       		.byte	0xf3
 3891 01d9 01       		.uleb128 0x1
 3892 01da 52       		.byte	0x52
 3893 01db 9F       		.byte	0x9f
 3894 01dc 00000000 		.4byte	0
 3895 01e0 00000000 		.4byte	0
 3896              	.LLST14:
 3897 01e4 00000000 		.4byte	.LVL24
 3898 01e8 20000000 		.4byte	.LVL27
 3899 01ec 0100     		.2byte	0x1
 3900 01ee 50       		.byte	0x50
 3901 01ef 20000000 		.4byte	.LVL27
 3902 01f3 29000000 		.4byte	.LVL28-1
 3903 01f7 0300     		.2byte	0x3
 3904 01f9 70       		.byte	0x70
 3905 01fa 70       		.sleb128 -16
 3906 01fb 9F       		.byte	0x9f
 3907 01fc 29000000 		.4byte	.LVL28-1
 3908 0200 2E000000 		.4byte	.LVL29
 3909 0204 0400     		.2byte	0x4
 3910 0206 F3       		.byte	0xf3
 3911 0207 01       		.uleb128 0x1
 3912 0208 50       		.byte	0x50
 3913 0209 9F       		.byte	0x9f
 3914 020a 2E000000 		.4byte	.LVL29
 3915 020e 32000000 		.4byte	.LVL30
 3916 0212 0100     		.2byte	0x1
 3917 0214 50       		.byte	0x50
 3918 0215 32000000 		.4byte	.LVL30
 3919 0219 34000000 		.4byte	.LFE175
 3920 021d 0400     		.2byte	0x4
 3921 021f F3       		.byte	0xf3
 3922 0220 01       		.uleb128 0x1
 3923 0221 50       		.byte	0x50
 3924 0222 9F       		.byte	0x9f
 3925 0223 00000000 		.4byte	0
 3926 0227 00000000 		.4byte	0
 3927              	.LLST15:
 3928 022b 00000000 		.4byte	.LVL24
 3929 022f 29000000 		.4byte	.LVL28-1
 3930 0233 0100     		.2byte	0x1
 3931 0235 51       		.byte	0x51
 3932 0236 29000000 		.4byte	.LVL28-1
 3933 023a 2E000000 		.4byte	.LVL29
ARM GAS  /tmp/ccdkT9wg.s 			page 70


 3934 023e 0400     		.2byte	0x4
 3935 0240 F3       		.byte	0xf3
 3936 0241 01       		.uleb128 0x1
 3937 0242 51       		.byte	0x51
 3938 0243 9F       		.byte	0x9f
 3939 0244 2E000000 		.4byte	.LVL29
 3940 0248 34000000 		.4byte	.LFE175
 3941 024c 0100     		.2byte	0x1
 3942 024e 51       		.byte	0x51
 3943 024f 00000000 		.4byte	0
 3944 0253 00000000 		.4byte	0
 3945              	.LLST16:
 3946 0257 08000000 		.4byte	.LVL26
 3947 025b 20000000 		.4byte	.LVL27
 3948 025f 0300     		.2byte	0x3
 3949 0261 70       		.byte	0x70
 3950 0262 1C       		.sleb128 28
 3951 0263 9F       		.byte	0x9f
 3952 0264 20000000 		.4byte	.LVL27
 3953 0268 29000000 		.4byte	.LVL28-1
 3954 026c 0300     		.2byte	0x3
 3955 026e 70       		.byte	0x70
 3956 026f 0C       		.sleb128 12
 3957 0270 9F       		.byte	0x9f
 3958 0271 29000000 		.4byte	.LVL28-1
 3959 0275 2E000000 		.4byte	.LVL29
 3960 0279 0600     		.2byte	0x6
 3961 027b F3       		.byte	0xf3
 3962 027c 01       		.uleb128 0x1
 3963 027d 50       		.byte	0x50
 3964 027e 23       		.byte	0x23
 3965 027f 1C       		.uleb128 0x1c
 3966 0280 9F       		.byte	0x9f
 3967 0281 00000000 		.4byte	0
 3968 0285 00000000 		.4byte	0
 3969              	.LLST17:
 3970 0289 00000000 		.4byte	.LVL31
 3971 028d 08000000 		.4byte	.LVL32
 3972 0291 0100     		.2byte	0x1
 3973 0293 50       		.byte	0x50
 3974 0294 08000000 		.4byte	.LVL32
 3975 0298 38000000 		.4byte	.LFE177
 3976 029c 0100     		.2byte	0x1
 3977 029e 54       		.byte	0x54
 3978 029f 00000000 		.4byte	0
 3979 02a3 00000000 		.4byte	0
 3980              	.LLST18:
 3981 02a7 00000000 		.4byte	.LVL31
 3982 02ab 0A000000 		.4byte	.LVL33
 3983 02af 0100     		.2byte	0x1
 3984 02b1 51       		.byte	0x51
 3985 02b2 0A000000 		.4byte	.LVL33
 3986 02b6 38000000 		.4byte	.LFE177
 3987 02ba 0100     		.2byte	0x1
 3988 02bc 56       		.byte	0x56
 3989 02bd 00000000 		.4byte	0
 3990 02c1 00000000 		.4byte	0
ARM GAS  /tmp/ccdkT9wg.s 			page 71


 3991              	.LLST19:
 3992 02c5 00000000 		.4byte	.LVL31
 3993 02c9 0D000000 		.4byte	.LVL34-1
 3994 02cd 0100     		.2byte	0x1
 3995 02cf 52       		.byte	0x52
 3996 02d0 0D000000 		.4byte	.LVL34-1
 3997 02d4 38000000 		.4byte	.LFE177
 3998 02d8 0400     		.2byte	0x4
 3999 02da F3       		.byte	0xf3
 4000 02db 01       		.uleb128 0x1
 4001 02dc 52       		.byte	0x52
 4002 02dd 9F       		.byte	0x9f
 4003 02de 00000000 		.4byte	0
 4004 02e2 00000000 		.4byte	0
 4005              	.LLST20:
 4006 02e6 0E000000 		.4byte	.LVL34
 4007 02ea 24000000 		.4byte	.LVL36
 4008 02ee 0100     		.2byte	0x1
 4009 02f0 50       		.byte	0x50
 4010 02f1 24000000 		.4byte	.LVL36
 4011 02f5 30000000 		.4byte	.LVL39
 4012 02f9 0100     		.2byte	0x1
 4013 02fb 55       		.byte	0x55
 4014 02fc 30000000 		.4byte	.LVL39
 4015 0300 38000000 		.4byte	.LFE177
 4016 0304 0100     		.2byte	0x1
 4017 0306 50       		.byte	0x50
 4018 0307 00000000 		.4byte	0
 4019 030b 00000000 		.4byte	0
 4020              	.LLST21:
 4021 030f 12000000 		.4byte	.LVL35
 4022 0313 2C000000 		.4byte	.LVL38
 4023 0317 0100     		.2byte	0x1
 4024 0319 56       		.byte	0x56
 4025 031a 30000000 		.4byte	.LVL39
 4026 031e 38000000 		.4byte	.LFE177
 4027 0322 0100     		.2byte	0x1
 4028 0324 56       		.byte	0x56
 4029 0325 00000000 		.4byte	0
 4030 0329 00000000 		.4byte	0
 4031              	.LLST22:
 4032 032d 12000000 		.4byte	.LVL35
 4033 0331 2C000000 		.4byte	.LVL38
 4034 0335 0100     		.2byte	0x1
 4035 0337 54       		.byte	0x54
 4036 0338 30000000 		.4byte	.LVL39
 4037 033c 38000000 		.4byte	.LFE177
 4038 0340 0100     		.2byte	0x1
 4039 0342 54       		.byte	0x54
 4040 0343 00000000 		.4byte	0
 4041 0347 00000000 		.4byte	0
 4042              	.LLST23:
 4043 034b 00000000 		.4byte	.LVL40
 4044 034f 0B000000 		.4byte	.LVL41-1
 4045 0353 0100     		.2byte	0x1
 4046 0355 50       		.byte	0x50
 4047 0356 0B000000 		.4byte	.LVL41-1
ARM GAS  /tmp/ccdkT9wg.s 			page 72


 4048 035a 14000000 		.4byte	.LFE176
 4049 035e 0400     		.2byte	0x4
 4050 0360 F3       		.byte	0xf3
 4051 0361 01       		.uleb128 0x1
 4052 0362 50       		.byte	0x50
 4053 0363 9F       		.byte	0x9f
 4054 0364 00000000 		.4byte	0
 4055 0368 00000000 		.4byte	0
 4056              	.LLST24:
 4057 036c 00000000 		.4byte	.LVL40
 4058 0370 0B000000 		.4byte	.LVL41-1
 4059 0374 0100     		.2byte	0x1
 4060 0376 51       		.byte	0x51
 4061 0377 0B000000 		.4byte	.LVL41-1
 4062 037b 14000000 		.4byte	.LFE176
 4063 037f 0400     		.2byte	0x4
 4064 0381 F3       		.byte	0xf3
 4065 0382 01       		.uleb128 0x1
 4066 0383 51       		.byte	0x51
 4067 0384 9F       		.byte	0x9f
 4068 0385 00000000 		.4byte	0
 4069 0389 00000000 		.4byte	0
 4070              	.LLST25:
 4071 038d 00000000 		.4byte	.LVL40
 4072 0391 0B000000 		.4byte	.LVL41-1
 4073 0395 0100     		.2byte	0x1
 4074 0397 52       		.byte	0x52
 4075 0398 0B000000 		.4byte	.LVL41-1
 4076 039c 14000000 		.4byte	.LFE176
 4077 03a0 0400     		.2byte	0x4
 4078 03a2 F3       		.byte	0xf3
 4079 03a3 01       		.uleb128 0x1
 4080 03a4 52       		.byte	0x52
 4081 03a5 9F       		.byte	0x9f
 4082 03a6 00000000 		.4byte	0
 4083 03aa 00000000 		.4byte	0
 4084              	.LLST26:
 4085 03ae 00000000 		.4byte	.LVL42
 4086 03b2 22000000 		.4byte	.LVL45
 4087 03b6 0100     		.2byte	0x1
 4088 03b8 50       		.byte	0x50
 4089 03b9 22000000 		.4byte	.LVL45
 4090 03bd 25000000 		.4byte	.LVL46-1
 4091 03c1 0300     		.2byte	0x3
 4092 03c3 70       		.byte	0x70
 4093 03c4 70       		.sleb128 -16
 4094 03c5 9F       		.byte	0x9f
 4095 03c6 25000000 		.4byte	.LVL46-1
 4096 03ca 2A000000 		.4byte	.LVL47
 4097 03ce 0400     		.2byte	0x4
 4098 03d0 F3       		.byte	0xf3
 4099 03d1 01       		.uleb128 0x1
 4100 03d2 50       		.byte	0x50
 4101 03d3 9F       		.byte	0x9f
 4102 03d4 2A000000 		.4byte	.LVL47
 4103 03d8 2E000000 		.4byte	.LVL48
 4104 03dc 0100     		.2byte	0x1
ARM GAS  /tmp/ccdkT9wg.s 			page 73


 4105 03de 50       		.byte	0x50
 4106 03df 2E000000 		.4byte	.LVL48
 4107 03e3 30000000 		.4byte	.LFE178
 4108 03e7 0400     		.2byte	0x4
 4109 03e9 F3       		.byte	0xf3
 4110 03ea 01       		.uleb128 0x1
 4111 03eb 50       		.byte	0x50
 4112 03ec 9F       		.byte	0x9f
 4113 03ed 00000000 		.4byte	0
 4114 03f1 00000000 		.4byte	0
 4115              	.LLST27:
 4116 03f5 00000000 		.4byte	.LVL42
 4117 03f9 25000000 		.4byte	.LVL46-1
 4118 03fd 0100     		.2byte	0x1
 4119 03ff 51       		.byte	0x51
 4120 0400 25000000 		.4byte	.LVL46-1
 4121 0404 2A000000 		.4byte	.LVL47
 4122 0408 0400     		.2byte	0x4
 4123 040a F3       		.byte	0xf3
 4124 040b 01       		.uleb128 0x1
 4125 040c 51       		.byte	0x51
 4126 040d 9F       		.byte	0x9f
 4127 040e 2A000000 		.4byte	.LVL47
 4128 0412 30000000 		.4byte	.LFE178
 4129 0416 0100     		.2byte	0x1
 4130 0418 51       		.byte	0x51
 4131 0419 00000000 		.4byte	0
 4132 041d 00000000 		.4byte	0
 4133              	.LLST28:
 4134 0421 06000000 		.4byte	.LVL44
 4135 0425 22000000 		.4byte	.LVL45
 4136 0429 0300     		.2byte	0x3
 4137 042b 70       		.byte	0x70
 4138 042c 1C       		.sleb128 28
 4139 042d 9F       		.byte	0x9f
 4140 042e 22000000 		.4byte	.LVL45
 4141 0432 25000000 		.4byte	.LVL46-1
 4142 0436 0300     		.2byte	0x3
 4143 0438 70       		.byte	0x70
 4144 0439 0C       		.sleb128 12
 4145 043a 9F       		.byte	0x9f
 4146 043b 25000000 		.4byte	.LVL46-1
 4147 043f 2A000000 		.4byte	.LVL47
 4148 0443 0600     		.2byte	0x6
 4149 0445 F3       		.byte	0xf3
 4150 0446 01       		.uleb128 0x1
 4151 0447 50       		.byte	0x50
 4152 0448 23       		.byte	0x23
 4153 0449 1C       		.uleb128 0x1c
 4154 044a 9F       		.byte	0x9f
 4155 044b 00000000 		.4byte	0
 4156 044f 00000000 		.4byte	0
 4157              	.LLST29:
 4158 0453 00000000 		.4byte	.LVL49
 4159 0457 08000000 		.4byte	.LVL50
 4160 045b 0100     		.2byte	0x1
 4161 045d 50       		.byte	0x50
ARM GAS  /tmp/ccdkT9wg.s 			page 74


 4162 045e 08000000 		.4byte	.LVL50
 4163 0462 38000000 		.4byte	.LFE180
 4164 0466 0100     		.2byte	0x1
 4165 0468 54       		.byte	0x54
 4166 0469 00000000 		.4byte	0
 4167 046d 00000000 		.4byte	0
 4168              	.LLST30:
 4169 0471 00000000 		.4byte	.LVL49
 4170 0475 0A000000 		.4byte	.LVL51
 4171 0479 0100     		.2byte	0x1
 4172 047b 51       		.byte	0x51
 4173 047c 0A000000 		.4byte	.LVL51
 4174 0480 38000000 		.4byte	.LFE180
 4175 0484 0100     		.2byte	0x1
 4176 0486 56       		.byte	0x56
 4177 0487 00000000 		.4byte	0
 4178 048b 00000000 		.4byte	0
 4179              	.LLST31:
 4180 048f 00000000 		.4byte	.LVL49
 4181 0493 0D000000 		.4byte	.LVL52-1
 4182 0497 0100     		.2byte	0x1
 4183 0499 52       		.byte	0x52
 4184 049a 0D000000 		.4byte	.LVL52-1
 4185 049e 38000000 		.4byte	.LFE180
 4186 04a2 0400     		.2byte	0x4
 4187 04a4 F3       		.byte	0xf3
 4188 04a5 01       		.uleb128 0x1
 4189 04a6 52       		.byte	0x52
 4190 04a7 9F       		.byte	0x9f
 4191 04a8 00000000 		.4byte	0
 4192 04ac 00000000 		.4byte	0
 4193              	.LLST32:
 4194 04b0 0E000000 		.4byte	.LVL52
 4195 04b4 28000000 		.4byte	.LVL54
 4196 04b8 0100     		.2byte	0x1
 4197 04ba 50       		.byte	0x50
 4198 04bb 28000000 		.4byte	.LVL54
 4199 04bf 38000000 		.4byte	.LFE180
 4200 04c3 0100     		.2byte	0x1
 4201 04c5 55       		.byte	0x55
 4202 04c6 00000000 		.4byte	0
 4203 04ca 00000000 		.4byte	0
 4204              	.LLST33:
 4205 04ce 12000000 		.4byte	.LVL53
 4206 04d2 34000000 		.4byte	.LVL56
 4207 04d6 0100     		.2byte	0x1
 4208 04d8 56       		.byte	0x56
 4209 04d9 00000000 		.4byte	0
 4210 04dd 00000000 		.4byte	0
 4211              	.LLST34:
 4212 04e1 12000000 		.4byte	.LVL53
 4213 04e5 34000000 		.4byte	.LVL56
 4214 04e9 0100     		.2byte	0x1
 4215 04eb 54       		.byte	0x54
 4216 04ec 00000000 		.4byte	0
 4217 04f0 00000000 		.4byte	0
 4218              	.LLST35:
ARM GAS  /tmp/ccdkT9wg.s 			page 75


 4219 04f4 00000000 		.4byte	.LVL57
 4220 04f8 0B000000 		.4byte	.LVL58-1
 4221 04fc 0100     		.2byte	0x1
 4222 04fe 50       		.byte	0x50
 4223 04ff 0B000000 		.4byte	.LVL58-1
 4224 0503 14000000 		.4byte	.LFE179
 4225 0507 0400     		.2byte	0x4
 4226 0509 F3       		.byte	0xf3
 4227 050a 01       		.uleb128 0x1
 4228 050b 50       		.byte	0x50
 4229 050c 9F       		.byte	0x9f
 4230 050d 00000000 		.4byte	0
 4231 0511 00000000 		.4byte	0
 4232              	.LLST36:
 4233 0515 00000000 		.4byte	.LVL57
 4234 0519 0B000000 		.4byte	.LVL58-1
 4235 051d 0100     		.2byte	0x1
 4236 051f 51       		.byte	0x51
 4237 0520 0B000000 		.4byte	.LVL58-1
 4238 0524 14000000 		.4byte	.LFE179
 4239 0528 0400     		.2byte	0x4
 4240 052a F3       		.byte	0xf3
 4241 052b 01       		.uleb128 0x1
 4242 052c 51       		.byte	0x51
 4243 052d 9F       		.byte	0x9f
 4244 052e 00000000 		.4byte	0
 4245 0532 00000000 		.4byte	0
 4246              	.LLST37:
 4247 0536 00000000 		.4byte	.LVL57
 4248 053a 0B000000 		.4byte	.LVL58-1
 4249 053e 0100     		.2byte	0x1
 4250 0540 52       		.byte	0x52
 4251 0541 0B000000 		.4byte	.LVL58-1
 4252 0545 14000000 		.4byte	.LFE179
 4253 0549 0400     		.2byte	0x4
 4254 054b F3       		.byte	0xf3
 4255 054c 01       		.uleb128 0x1
 4256 054d 52       		.byte	0x52
 4257 054e 9F       		.byte	0x9f
 4258 054f 00000000 		.4byte	0
 4259 0553 00000000 		.4byte	0
 4260              	.LLST38:
 4261 0557 00000000 		.4byte	.LVL59
 4262 055b 22000000 		.4byte	.LVL62
 4263 055f 0100     		.2byte	0x1
 4264 0561 50       		.byte	0x50
 4265 0562 22000000 		.4byte	.LVL62
 4266 0566 2B000000 		.4byte	.LVL63-1
 4267 056a 0300     		.2byte	0x3
 4268 056c 70       		.byte	0x70
 4269 056d 64       		.sleb128 -28
 4270 056e 9F       		.byte	0x9f
 4271 056f 2B000000 		.4byte	.LVL63-1
 4272 0573 30000000 		.4byte	.LVL64
 4273 0577 0400     		.2byte	0x4
 4274 0579 F3       		.byte	0xf3
 4275 057a 01       		.uleb128 0x1
ARM GAS  /tmp/ccdkT9wg.s 			page 76


 4276 057b 50       		.byte	0x50
 4277 057c 9F       		.byte	0x9f
 4278 057d 30000000 		.4byte	.LVL64
 4279 0581 34000000 		.4byte	.LVL65
 4280 0585 0100     		.2byte	0x1
 4281 0587 50       		.byte	0x50
 4282 0588 34000000 		.4byte	.LVL65
 4283 058c 36000000 		.4byte	.LFE181
 4284 0590 0400     		.2byte	0x4
 4285 0592 F3       		.byte	0xf3
 4286 0593 01       		.uleb128 0x1
 4287 0594 50       		.byte	0x50
 4288 0595 9F       		.byte	0x9f
 4289 0596 00000000 		.4byte	0
 4290 059a 00000000 		.4byte	0
 4291              	.LLST39:
 4292 059e 00000000 		.4byte	.LVL59
 4293 05a2 2B000000 		.4byte	.LVL63-1
 4294 05a6 0100     		.2byte	0x1
 4295 05a8 51       		.byte	0x51
 4296 05a9 2B000000 		.4byte	.LVL63-1
 4297 05ad 30000000 		.4byte	.LVL64
 4298 05b1 0400     		.2byte	0x4
 4299 05b3 F3       		.byte	0xf3
 4300 05b4 01       		.uleb128 0x1
 4301 05b5 51       		.byte	0x51
 4302 05b6 9F       		.byte	0x9f
 4303 05b7 30000000 		.4byte	.LVL64
 4304 05bb 36000000 		.4byte	.LFE181
 4305 05bf 0100     		.2byte	0x1
 4306 05c1 51       		.byte	0x51
 4307 05c2 00000000 		.4byte	0
 4308 05c6 00000000 		.4byte	0
 4309              	.LLST40:
 4310 05ca 06000000 		.4byte	.LVL61
 4311 05ce 22000000 		.4byte	.LVL62
 4312 05d2 0300     		.2byte	0x3
 4313 05d4 70       		.byte	0x70
 4314 05d5 10       		.sleb128 16
 4315 05d6 9F       		.byte	0x9f
 4316 05d7 22000000 		.4byte	.LVL62
 4317 05db 2B000000 		.4byte	.LVL63-1
 4318 05df 0300     		.2byte	0x3
 4319 05e1 70       		.byte	0x70
 4320 05e2 74       		.sleb128 -12
 4321 05e3 9F       		.byte	0x9f
 4322 05e4 2B000000 		.4byte	.LVL63-1
 4323 05e8 30000000 		.4byte	.LVL64
 4324 05ec 0600     		.2byte	0x6
 4325 05ee F3       		.byte	0xf3
 4326 05ef 01       		.uleb128 0x1
 4327 05f0 50       		.byte	0x50
 4328 05f1 23       		.byte	0x23
 4329 05f2 10       		.uleb128 0x10
 4330 05f3 9F       		.byte	0x9f
 4331 05f4 00000000 		.4byte	0
 4332 05f8 00000000 		.4byte	0
ARM GAS  /tmp/ccdkT9wg.s 			page 77


 4333              		.section	.debug_aranges,"",%progbits
 4334 0000 74000000 		.4byte	0x74
 4335 0004 0200     		.2byte	0x2
 4336 0006 00000000 		.4byte	.Ldebug_info0
 4337 000a 04       		.byte	0x4
 4338 000b 00       		.byte	0
 4339 000c 0000     		.2byte	0
 4340 000e 0000     		.2byte	0
 4341 0010 00000000 		.4byte	.LFB170
 4342 0014 28000000 		.4byte	.LFE170-.LFB170
 4343 0018 00000000 		.4byte	.LFB172
 4344 001c 24000000 		.4byte	.LFE172-.LFB172
 4345 0020 00000000 		.4byte	.LFB171
 4346 0024 18000000 		.4byte	.LFE171-.LFB171
 4347 0028 00000000 		.4byte	.LFB174
 4348 002c 36000000 		.4byte	.LFE174-.LFB174
 4349 0030 00000000 		.4byte	.LFB173
 4350 0034 14000000 		.4byte	.LFE173-.LFB173
 4351 0038 00000000 		.4byte	.LFB175
 4352 003c 34000000 		.4byte	.LFE175-.LFB175
 4353 0040 00000000 		.4byte	.LFB177
 4354 0044 38000000 		.4byte	.LFE177-.LFB177
 4355 0048 00000000 		.4byte	.LFB176
 4356 004c 14000000 		.4byte	.LFE176-.LFB176
 4357 0050 00000000 		.4byte	.LFB178
 4358 0054 30000000 		.4byte	.LFE178-.LFB178
 4359 0058 00000000 		.4byte	.LFB180
 4360 005c 38000000 		.4byte	.LFE180-.LFB180
 4361 0060 00000000 		.4byte	.LFB179
 4362 0064 14000000 		.4byte	.LFE179-.LFB179
 4363 0068 00000000 		.4byte	.LFB181
 4364 006c 36000000 		.4byte	.LFE181-.LFB181
 4365 0070 00000000 		.4byte	0
 4366 0074 00000000 		.4byte	0
 4367              		.section	.debug_ranges,"",%progbits
 4368              	.Ldebug_ranges0:
 4369 0000 0E000000 		.4byte	.LBB88
 4370 0004 10000000 		.4byte	.LBE88
 4371 0008 12000000 		.4byte	.LBB91
 4372 000c 14000000 		.4byte	.LBE91
 4373 0010 00000000 		.4byte	0
 4374 0014 00000000 		.4byte	0
 4375 0018 12000000 		.4byte	.LBB94
 4376 001c 2C000000 		.4byte	.LBE94
 4377 0020 30000000 		.4byte	.LBB97
 4378 0024 38000000 		.4byte	.LBE97
 4379 0028 00000000 		.4byte	0
 4380 002c 00000000 		.4byte	0
 4381 0030 0E000000 		.4byte	.LBB107
 4382 0034 10000000 		.4byte	.LBE107
 4383 0038 12000000 		.4byte	.LBB110
 4384 003c 14000000 		.4byte	.LBE110
 4385 0040 00000000 		.4byte	0
 4386 0044 00000000 		.4byte	0
 4387 0048 06000000 		.4byte	.LBB124
 4388 004c 08000000 		.4byte	.LBE124
 4389 0050 0C000000 		.4byte	.LBB127
ARM GAS  /tmp/ccdkT9wg.s 			page 78


 4390 0054 0E000000 		.4byte	.LBE127
 4391 0058 00000000 		.4byte	0
 4392 005c 00000000 		.4byte	0
 4393 0060 00000000 		.4byte	.LFB170
 4394 0064 28000000 		.4byte	.LFE170
 4395 0068 00000000 		.4byte	.LFB172
 4396 006c 24000000 		.4byte	.LFE172
 4397 0070 00000000 		.4byte	.LFB171
 4398 0074 18000000 		.4byte	.LFE171
 4399 0078 00000000 		.4byte	.LFB174
 4400 007c 36000000 		.4byte	.LFE174
 4401 0080 00000000 		.4byte	.LFB173
 4402 0084 14000000 		.4byte	.LFE173
 4403 0088 00000000 		.4byte	.LFB175
 4404 008c 34000000 		.4byte	.LFE175
 4405 0090 00000000 		.4byte	.LFB177
 4406 0094 38000000 		.4byte	.LFE177
 4407 0098 00000000 		.4byte	.LFB176
 4408 009c 14000000 		.4byte	.LFE176
 4409 00a0 00000000 		.4byte	.LFB178
 4410 00a4 30000000 		.4byte	.LFE178
 4411 00a8 00000000 		.4byte	.LFB180
 4412 00ac 38000000 		.4byte	.LFE180
 4413 00b0 00000000 		.4byte	.LFB179
 4414 00b4 14000000 		.4byte	.LFE179
 4415 00b8 00000000 		.4byte	.LFB181
 4416 00bc 36000000 		.4byte	.LFE181
 4417 00c0 00000000 		.4byte	0
 4418 00c4 00000000 		.4byte	0
 4419              		.section	.debug_line,"",%progbits
 4420              	.Ldebug_line0:
 4421 0000 2F040000 		.section	.debug_str,"MS",%progbits,1
 4421      02005C02 
 4421      00000201 
 4421      FB0E0D00 
 4421      01010101 
 4422              	.LASF46:
 4423 0000 63685F74 		.ascii	"ch_threads_list\000"
 4423      68726561 
 4423      64735F6C 
 4423      69737400 
 4424              	.LASF47:
 4425 0010 74687265 		.ascii	"threads_queue_t\000"
 4425      6164735F 
 4425      71756575 
 4425      655F7400 
 4426              	.LASF36:
 4427 0020 705F7761 		.ascii	"p_waiting\000"
 4427      6974696E 
 4427      6700
 4428              	.LASF87:
 4429 002a 77746D74 		.ascii	"wtmtxp\000"
 4429      787000
 4430              	.LASF81:
 4431 0031 746D5F63 		.ascii	"tm_calibration_t\000"
 4431      616C6962 
 4431      72617469 
ARM GAS  /tmp/ccdkT9wg.s 			page 79


 4431      6F6E5F74 
 4431      00
 4432              	.LASF96:
 4433 0042 63686172 		.ascii	"char\000"
 4433      00
 4434              	.LASF76:
 4435 0047 72656761 		.ascii	"regarm_t\000"
 4435      726D5F74 
 4435      00
 4436              	.LASF31:
 4437 0050 705F7072 		.ascii	"p_prio\000"
 4437      696F00
 4438              	.LASF27:
 4439 0057 73797374 		.ascii	"systime_t\000"
 4439      696D655F 
 4439      7400
 4440              	.LASF94:
 4441 0061 6D5F6F77 		.ascii	"m_owner\000"
 4441      6E657200 
 4442              	.LASF90:
 4443 0069 735F7175 		.ascii	"s_queue\000"
 4443      65756500 
 4444              	.LASF65:
 4445 0071 76745F73 		.ascii	"vt_systime\000"
 4445      79737469 
 4445      6D6500
 4446              	.LASF37:
 4447 007c 705F6D73 		.ascii	"p_msgqueue\000"
 4447      67717565 
 4447      756500
 4448              	.LASF0:
 4449 0087 756E7369 		.ascii	"unsigned int\000"
 4449      676E6564 
 4449      20696E74 
 4449      00
 4450              	.LASF109:
 4451 0094 63685365 		.ascii	"chSemFastWaitI\000"
 4451      6D466173 
 4451      74576169 
 4451      744900
 4452              	.LASF44:
 4453 00a3 74687265 		.ascii	"threads_list_t\000"
 4453      6164735F 
 4453      6C697374 
 4453      5F7400
 4454              	.LASF7:
 4455 00b2 5F5F696E 		.ascii	"__int32_t\000"
 4455      7433325F 
 4455      7400
 4456              	.LASF135:
 4457 00bc 63685365 		.ascii	"chSemGetCounterI\000"
 4457      6D476574 
 4457      436F756E 
 4457      74657249 
 4457      00
 4458              	.LASF84:
 4459 00cd 77746F62 		.ascii	"wtobjp\000"
ARM GAS  /tmp/ccdkT9wg.s 			page 80


 4459      6A7000
 4460              	.LASF106:
 4461 00d4 706F7274 		.ascii	"port_lock\000"
 4461      5F6C6F63 
 4461      6B00
 4462              	.LASF72:
 4463 00de 76746C69 		.ascii	"vtlist\000"
 4463      737400
 4464              	.LASF50:
 4465 00e5 63685F72 		.ascii	"ch_ready_list\000"
 4465      65616479 
 4465      5F6C6973 
 4465      7400
 4466              	.LASF74:
 4467 00f3 69646C65 		.ascii	"idle_thread_wa\000"
 4467      5F746872 
 4467      6561645F 
 4467      776100
 4468              	.LASF88:
 4469 0102 65776D61 		.ascii	"ewmask\000"
 4469      736B00
 4470              	.LASF48:
 4471 0109 63685F74 		.ascii	"ch_threads_queue\000"
 4471      68726561 
 4471      64735F71 
 4471      75657565 
 4471      00
 4472              	.LASF55:
 4473 011a 76746675 		.ascii	"vtfunc_t\000"
 4473      6E635F74 
 4473      00
 4474              	.LASF91:
 4475 0123 735F636E 		.ascii	"s_cnt\000"
 4475      7400
 4476              	.LASF67:
 4477 0129 63685F73 		.ascii	"ch_system_debug\000"
 4477      79737465 
 4477      6D5F6465 
 4477      62756700 
 4478              	.LASF121:
 4479 0139 63684D42 		.ascii	"chMBReset\000"
 4479      52657365 
 4479      7400
 4480              	.LASF130:
 4481 0143 63685365 		.ascii	"chSemResetI\000"
 4481      6D526573 
 4481      65744900 
 4482              	.LASF17:
 4483 014f 75696E74 		.ascii	"uint32_t\000"
 4483      33325F74 
 4483      00
 4484              	.LASF25:
 4485 0158 6576656E 		.ascii	"eventmask_t\000"
 4485      746D6173 
 4485      6B5F7400 
 4486              	.LASF52:
 4487 0164 725F7072 		.ascii	"r_prio\000"
ARM GAS  /tmp/ccdkT9wg.s 			page 81


 4487      696F00
 4488              	.LASF62:
 4489 016b 76745F70 		.ascii	"vt_par\000"
 4489      617200
 4490              	.LASF89:
 4491 0172 63685F73 		.ascii	"ch_semaphore\000"
 4491      656D6170 
 4491      686F7265 
 4491      00
 4492              	.LASF23:
 4493 017f 74707269 		.ascii	"tprio_t\000"
 4493      6F5F7400 
 4494              	.LASF131:
 4495 0187 63685365 		.ascii	"chSemSignalI\000"
 4495      6D536967 
 4495      6E616C49 
 4495      00
 4496              	.LASF57:
 4497 0194 63685F76 		.ascii	"ch_virtual_timer\000"
 4497      69727475 
 4497      616C5F74 
 4497      696D6572 
 4497      00
 4498              	.LASF13:
 4499 01a5 6C6F6E67 		.ascii	"long long unsigned int\000"
 4499      206C6F6E 
 4499      6720756E 
 4499      7369676E 
 4499      65642069 
 4500              	.LASF5:
 4501 01bc 5F5F7569 		.ascii	"__uint16_t\000"
 4501      6E743136 
 4501      5F7400
 4502              	.LASF26:
 4503 01c7 636E745F 		.ascii	"cnt_t\000"
 4503      7400
 4504              	.LASF112:
 4505 01cd 63685379 		.ascii	"chSysUnlock\000"
 4505      73556E6C 
 4505      6F636B00 
 4506              	.LASF97:
 4507 01d9 73656D61 		.ascii	"semaphore_t\000"
 4507      70686F72 
 4507      655F7400 
 4508              	.LASF110:
 4509 01e5 76616C75 		.ascii	"value\000"
 4509      6500
 4510              	.LASF64:
 4511 01eb 63685F76 		.ascii	"ch_virtual_timers_list\000"
 4511      69727475 
 4511      616C5F74 
 4511      696D6572 
 4511      735F6C69 
 4512              	.LASF28:
 4513 0202 74687265 		.ascii	"thread_t\000"
 4513      61645F74 
 4513      00
ARM GAS  /tmp/ccdkT9wg.s 			page 82


 4514              	.LASF132:
 4515 020b 63685365 		.ascii	"chSemWaitTimeoutS\000"
 4515      6D576169 
 4515      7454696D 
 4515      656F7574 
 4515      5300
 4516              	.LASF82:
 4517 021d 7264796D 		.ascii	"rdymsg\000"
 4517      736700
 4518              	.LASF80:
 4519 0224 6F666673 		.ascii	"offset\000"
 4519      657400
 4520              	.LASF102:
 4521 022b 6D625F72 		.ascii	"mb_rdptr\000"
 4521      64707472 
 4521      00
 4522              	.LASF125:
 4523 0234 63684D42 		.ascii	"chMBPostAheadI\000"
 4523      506F7374 
 4523      41686561 
 4523      644900
 4524              	.LASF105:
 4525 0243 6D61696C 		.ascii	"mailbox_t\000"
 4525      626F785F 
 4525      7400
 4526              	.LASF116:
 4527 024d 63684D42 		.ascii	"chMBPostAheadS\000"
 4527      506F7374 
 4527      41686561 
 4527      645300
 4528              	.LASF92:
 4529 025c 63685F6D 		.ascii	"ch_mutex\000"
 4529      75746578 
 4529      00
 4530              	.LASF12:
 4531 0265 5F5F7569 		.ascii	"__uint64_t\000"
 4531      6E743634 
 4531      5F7400
 4532              	.LASF136:
 4533 0270 63685363 		.ascii	"chSchRescheduleS\000"
 4533      68526573 
 4533      63686564 
 4533      756C6553 
 4533      00
 4534              	.LASF104:
 4535 0281 6D625F65 		.ascii	"mb_emptysem\000"
 4535      6D707479 
 4535      73656D00 
 4536              	.LASF111:
 4537 028d 63685379 		.ascii	"chSysLock\000"
 4537      734C6F63 
 4537      6B00
 4538              	.LASF117:
 4539 0297 63684D42 		.ascii	"chMBFetchS\000"
 4539      46657463 
 4539      685300
 4540              	.LASF60:
ARM GAS  /tmp/ccdkT9wg.s 			page 83


 4541 02a2 76745F64 		.ascii	"vt_delta\000"
 4541      656C7461 
 4541      00
 4542              	.LASF43:
 4543 02ab 74687265 		.ascii	"thread_reference_t\000"
 4543      61645F72 
 4543      65666572 
 4543      656E6365 
 4543      5F7400
 4544              	.LASF21:
 4545 02be 74737461 		.ascii	"tstate_t\000"
 4545      74655F74 
 4545      00
 4546              	.LASF33:
 4547 02c7 705F7374 		.ascii	"p_state\000"
 4547      61746500 
 4548              	.LASF14:
 4549 02cf 75696E74 		.ascii	"uint8_t\000"
 4549      385F7400 
 4550              	.LASF103:
 4551 02d7 6D625F66 		.ascii	"mb_fullsem\000"
 4551      756C6C73 
 4551      656D00
 4552              	.LASF42:
 4553 02e2 705F6D70 		.ascii	"p_mpool\000"
 4553      6F6F6C00 
 4554              	.LASF40:
 4555 02ea 705F6D74 		.ascii	"p_mtxlist\000"
 4555      786C6973 
 4555      7400
 4556              	.LASF45:
 4557 02f4 63685F74 		.ascii	"ch_thread\000"
 4557      68726561 
 4557      6400
 4558              	.LASF66:
 4559 02fe 73797374 		.ascii	"system_debug_t\000"
 4559      656D5F64 
 4559      65627567 
 4559      5F7400
 4560              	.LASF11:
 4561 030d 6C6F6E67 		.ascii	"long long int\000"
 4561      206C6F6E 
 4561      6720696E 
 4561      7400
 4562              	.LASF119:
 4563 031b 63684D42 		.ascii	"chMBObjectInit\000"
 4563      4F626A65 
 4563      6374496E 
 4563      697400
 4564              	.LASF51:
 4565 032a 725F7175 		.ascii	"r_queue\000"
 4565      65756500 
 4566              	.LASF24:
 4567 0332 6D73675F 		.ascii	"msg_t\000"
 4567      7400
 4568              	.LASF133:
 4569 0338 474E5520 		.ascii	"GNU C 4.9.3 20150529 (release) [ARM/embedded-4_9-br"
ARM GAS  /tmp/ccdkT9wg.s 			page 84


 4569      4320342E 
 4569      392E3320 
 4569      32303135 
 4569      30353239 
 4570 036b 616E6368 		.ascii	"anch revision 224288] -mcpu=cortex-m3 -mno-thumb-in"
 4570      20726576 
 4570      6973696F 
 4570      6E203232 
 4570      34323838 
 4571 039e 74657277 		.ascii	"terwork -mthumb -ggdb -O2 -fomit-frame-pointer -fal"
 4571      6F726B20 
 4571      2D6D7468 
 4571      756D6220 
 4571      2D676764 
 4572 03d1 69676E2D 		.ascii	"ign-functions=16 -ffunction-sections -fdata-section"
 4572      66756E63 
 4572      74696F6E 
 4572      733D3136 
 4572      202D6666 
 4573 0404 73202D66 		.ascii	"s -fno-common\000"
 4573      6E6F2D63 
 4573      6F6D6D6F 
 4573      6E00
 4574              	.LASF78:
 4575 0412 636F6E74 		.ascii	"context\000"
 4575      65787400 
 4576              	.LASF34:
 4577 041a 705F666C 		.ascii	"p_flags\000"
 4577      61677300 
 4578              	.LASF56:
 4579 0422 76697274 		.ascii	"virtual_timer_t\000"
 4579      75616C5F 
 4579      74696D65 
 4579      725F7400 
 4580              	.LASF100:
 4581 0432 6D625F74 		.ascii	"mb_top\000"
 4581      6F7000
 4582              	.LASF68:
 4583 0439 70616E69 		.ascii	"panic_msg\000"
 4583      635F6D73 
 4583      6700
 4584              	.LASF123:
 4585 0443 63684D42 		.ascii	"chMBPostI\000"
 4585      506F7374 
 4585      4900
 4586              	.LASF127:
 4587 044d 63684D42 		.ascii	"chMBFetchI\000"
 4587      46657463 
 4587      684900
 4588              	.LASF38:
 4589 0458 705F6D73 		.ascii	"p_msg\000"
 4589      6700
 4590              	.LASF115:
 4591 045e 63684D42 		.ascii	"chMBPostS\000"
 4591      506F7374 
 4591      5300
 4592              	.LASF20:
ARM GAS  /tmp/ccdkT9wg.s 			page 85


 4593 0468 746D6F64 		.ascii	"tmode_t\000"
 4593      655F7400 
 4594              	.LASF73:
 4595 0470 6D61696E 		.ascii	"mainthread\000"
 4595      74687265 
 4595      616400
 4596              	.LASF124:
 4597 047b 63684D42 		.ascii	"chMBPostAhead\000"
 4597      506F7374 
 4597      41686561 
 4597      6400
 4598              	.LASF126:
 4599 0489 63684D42 		.ascii	"chMBFetch\000"
 4599      46657463 
 4599      6800
 4600              	.LASF15:
 4601 0493 75696E74 		.ascii	"uint16_t\000"
 4601      31365F74 
 4601      00
 4602              	.LASF19:
 4603 049c 7274636E 		.ascii	"rtcnt_t\000"
 4603      745F7400 
 4604              	.LASF41:
 4605 04a4 705F7265 		.ascii	"p_realprio\000"
 4605      616C7072 
 4605      696F00
 4606              	.LASF3:
 4607 04af 73686F72 		.ascii	"short int\000"
 4607      7420696E 
 4607      7400
 4608              	.LASF101:
 4609 04b9 6D625F77 		.ascii	"mb_wrptr\000"
 4609      72707472 
 4609      00
 4610              	.LASF54:
 4611 04c2 725F6375 		.ascii	"r_current\000"
 4611      7272656E 
 4611      7400
 4612              	.LASF39:
 4613 04cc 705F6570 		.ascii	"p_epending\000"
 4613      656E6469 
 4613      6E6700
 4614              	.LASF93:
 4615 04d7 6D5F7175 		.ascii	"m_queue\000"
 4615      65756500 
 4616              	.LASF8:
 4617 04df 6C6F6E67 		.ascii	"long int\000"
 4617      20696E74 
 4617      00
 4618              	.LASF79:
 4619 04e8 706F7274 		.ascii	"port_intctx\000"
 4619      5F696E74 
 4619      63747800 
 4620              	.LASF128:
 4621 04f4 49544D5F 		.ascii	"ITM_RxBuffer\000"
 4621      52784275 
 4621      66666572 
ARM GAS  /tmp/ccdkT9wg.s 			page 86


 4621      00
 4622              	.LASF70:
 4623 0501 63685F73 		.ascii	"ch_system\000"
 4623      79737465 
 4623      6D00
 4624              	.LASF108:
 4625 050b 5F5F7365 		.ascii	"__set_BASEPRI\000"
 4625      745F4241 
 4625      53455052 
 4625      4900
 4626              	.LASF29:
 4627 0519 705F6E65 		.ascii	"p_next\000"
 4627      787400
 4628              	.LASF18:
 4629 0520 75696E74 		.ascii	"uint64_t\000"
 4629      36345F74 
 4629      00
 4630              	.LASF32:
 4631 0529 705F6374 		.ascii	"p_ctx\000"
 4631      7800
 4632              	.LASF71:
 4633 052f 726C6973 		.ascii	"rlist\000"
 4633      7400
 4634              	.LASF4:
 4635 0535 5F5F7569 		.ascii	"__uint8_t\000"
 4635      6E74385F 
 4635      7400
 4636              	.LASF134:
 4637 053f 2F686F6D 		.ascii	"/home/maciek/ChibiOS_16.1.5/os/rt/src/chmboxes.c\000"
 4637      652F6D61 
 4637      6369656B 
 4637      2F436869 
 4637      62694F53 
 4638              	.LASF30:
 4639 0570 705F7072 		.ascii	"p_prev\000"
 4639      657600
 4640              	.LASF75:
 4641 0577 73697A65 		.ascii	"sizetype\000"
 4641      74797065 
 4641      00
 4642              	.LASF22:
 4643 0580 74726566 		.ascii	"trefs_t\000"
 4643      735F7400 
 4644              	.LASF10:
 4645 0588 6C6F6E67 		.ascii	"long unsigned int\000"
 4645      20756E73 
 4645      69676E65 
 4645      6420696E 
 4645      7400
 4646              	.LASF99:
 4647 059a 6D625F62 		.ascii	"mb_buffer\000"
 4647      75666665 
 4647      7200
 4648              	.LASF49:
 4649 05a4 72656164 		.ascii	"ready_list_t\000"
 4649      795F6C69 
 4649      73745F74 
ARM GAS  /tmp/ccdkT9wg.s 			page 87


 4649      00
 4650              	.LASF16:
 4651 05b1 696E7433 		.ascii	"int32_t\000"
 4651      325F7400 
 4652              	.LASF86:
 4653 05b9 77747365 		.ascii	"wtsemp\000"
 4653      6D7000
 4654              	.LASF98:
 4655 05c0 6D757465 		.ascii	"mutex_t\000"
 4655      785F7400 
 4656              	.LASF2:
 4657 05c8 756E7369 		.ascii	"unsigned char\000"
 4657      676E6564 
 4657      20636861 
 4657      7200
 4658              	.LASF9:
 4659 05d6 5F5F7569 		.ascii	"__uint32_t\000"
 4659      6E743332 
 4659      5F7400
 4660              	.LASF63:
 4661 05e1 76697274 		.ascii	"virtual_timers_list_t\000"
 4661      75616C5F 
 4661      74696D65 
 4661      72735F6C 
 4661      6973745F 
 4662              	.LASF35:
 4663 05f7 705F7265 		.ascii	"p_refs\000"
 4663      667300
 4664              	.LASF113:
 4665 05fe 74696D65 		.ascii	"timeout\000"
 4665      6F757400 
 4666              	.LASF120:
 4667 0606 63684D42 		.ascii	"chMBResetI\000"
 4667      52657365 
 4667      744900
 4668              	.LASF122:
 4669 0611 63684D42 		.ascii	"chMBPost\000"
 4669      506F7374 
 4669      00
 4670              	.LASF129:
 4671 061a 63685365 		.ascii	"chSemObjectInit\000"
 4671      6D4F626A 
 4671      65637449 
 4671      6E697400 
 4672              	.LASF58:
 4673 062a 76745F6E 		.ascii	"vt_next\000"
 4673      65787400 
 4674              	.LASF69:
 4675 0632 63685F73 		.ascii	"ch_system_t\000"
 4675      79737465 
 4675      6D5F7400 
 4676              	.LASF85:
 4677 063e 77747472 		.ascii	"wttrp\000"
 4677      7000
 4678              	.LASF95:
 4679 0644 6D5F6E65 		.ascii	"m_next\000"
 4679      787400
ARM GAS  /tmp/ccdkT9wg.s 			page 88


 4680              	.LASF1:
 4681 064b 7369676E 		.ascii	"signed char\000"
 4681      65642063 
 4681      68617200 
 4682              	.LASF6:
 4683 0657 73686F72 		.ascii	"short unsigned int\000"
 4683      7420756E 
 4683      7369676E 
 4683      65642069 
 4683      6E7400
 4684              	.LASF53:
 4685 066a 725F6374 		.ascii	"r_ctx\000"
 4685      7800
 4686              	.LASF77:
 4687 0670 73746B61 		.ascii	"stkalign_t\000"
 4687      6C69676E 
 4687      5F7400
 4688              	.LASF114:
 4689 067b 5F5F6675 		.ascii	"__func__\000"
 4689      6E635F5F 
 4689      00
 4690              	.LASF118:
 4691 0684 6D736770 		.ascii	"msgp\000"
 4691      00
 4692              	.LASF61:
 4693 0689 76745F66 		.ascii	"vt_func\000"
 4693      756E6300 
 4694              	.LASF107:
 4695 0691 706F7274 		.ascii	"port_unlock\000"
 4695      5F756E6C 
 4695      6F636B00 
 4696              	.LASF59:
 4697 069d 76745F70 		.ascii	"vt_prev\000"
 4697      72657600 
 4698              	.LASF83:
 4699 06a5 65786974 		.ascii	"exitcode\000"
 4699      636F6465 
 4699      00
 4700              		.ident	"GCC: (GNU Tools for ARM Embedded Processors) 4.9.3 20150529 (release) [ARM/embedded-4_9-br
ARM GAS  /tmp/ccdkT9wg.s 			page 89


DEFINED SYMBOLS
                            *ABS*:00000000 chmboxes.c
     /tmp/ccdkT9wg.s:19     .text.chMBObjectInit:00000000 $t
     /tmp/ccdkT9wg.s:25     .text.chMBObjectInit:00000000 chMBObjectInit
     /tmp/ccdkT9wg.s:72     .text.chMBResetI:00000000 $t
     /tmp/ccdkT9wg.s:78     .text.chMBResetI:00000000 chMBResetI
     /tmp/ccdkT9wg.s:123    .text.chMBReset:00000000 $t
     /tmp/ccdkT9wg.s:129    .text.chMBReset:00000000 chMBReset
     /tmp/ccdkT9wg.s:182    .text.chMBPostS:00000000 $t
     /tmp/ccdkT9wg.s:188    .text.chMBPostS:00000000 chMBPostS
     /tmp/ccdkT9wg.s:254    .text.chMBPost:00000000 $t
     /tmp/ccdkT9wg.s:260    .text.chMBPost:00000000 chMBPost
     /tmp/ccdkT9wg.s:310    .text.chMBPostI:00000000 $t
     /tmp/ccdkT9wg.s:316    .text.chMBPostI:00000000 chMBPostI
     /tmp/ccdkT9wg.s:385    .text.chMBPostAheadS:00000000 $t
     /tmp/ccdkT9wg.s:391    .text.chMBPostAheadS:00000000 chMBPostAheadS
     /tmp/ccdkT9wg.s:459    .text.chMBPostAhead:00000000 $t
     /tmp/ccdkT9wg.s:465    .text.chMBPostAhead:00000000 chMBPostAhead
     /tmp/ccdkT9wg.s:515    .text.chMBPostAheadI:00000000 $t
     /tmp/ccdkT9wg.s:521    .text.chMBPostAheadI:00000000 chMBPostAheadI
     /tmp/ccdkT9wg.s:589    .text.chMBFetchS:00000000 $t
     /tmp/ccdkT9wg.s:595    .text.chMBFetchS:00000000 chMBFetchS
     /tmp/ccdkT9wg.s:662    .text.chMBFetch:00000000 $t
     /tmp/ccdkT9wg.s:668    .text.chMBFetch:00000000 chMBFetch
     /tmp/ccdkT9wg.s:718    .text.chMBFetchI:00000000 $t
     /tmp/ccdkT9wg.s:724    .text.chMBFetchI:00000000 chMBFetchI
                     .debug_frame:00000010 $d

UNDEFINED SYMBOLS
chSemObjectInit
chSemResetI
chSchRescheduleS
chSemWaitTimeoutS
chSemSignalI
