ARM GAS  /tmp/ccdkT9wg.s 			page 1


   1              		.syntax unified
   2              		.cpu cortex-m3
   3              		.fpu softvfp
   4              		.eabi_attribute 20, 1
   5              		.eabi_attribute 21, 1
   6              		.eabi_attribute 23, 3
   7              		.eabi_attribute 24, 1
   8              		.eabi_attribute 25, 1
   9              		.eabi_attribute 26, 1
  10              		.eabi_attribute 30, 2
  11              		.eabi_attribute 34, 1
  12              		.eabi_attribute 18, 4
  13              		.thumb
  14              		.file	"chmboxes.c"
  15              		.text
  16              	.Ltext0:
  17              		.cfi_sections	.debug_frame
  18              		.section	.text.chMBObjectInit,"ax",%progbits
  19              		.align	2
  20              		.p2align 4,,15
  21              		.global	chMBObjectInit
  22              		.thumb
  23              		.thumb_func
  24              		.type	chMBObjectInit, %function
  25              	chMBObjectInit:
  26              	.LFB170:
  27              		.file 1 "/home/maciek/ChibiOS_16.1.5/os/rt/src/chmboxes.c"
  28              		.loc 1 86 0
  29              		.cfi_startproc
  30              		@ args = 0, pretend = 0, frame = 0
  31              		@ frame_needed = 0, uses_anonymous_args = 0
  32              	.LVL0:
  33 0000 0B46     		mov	r3, r1
  34 0002 10B5     		push	{r4, lr}
  35              		.cfi_def_cfa_offset 8
  36              		.cfi_offset 4, -8
  37              		.cfi_offset 14, -4
  38              		.loc 1 86 0
  39 0004 0446     		mov	r4, r0
  40              		.loc 1 93 0
  41 0006 01EB8201 		add	r1, r1, r2, lsl #2
  42              	.LVL1:
  43 000a 4160     		str	r1, [r0, #4]
  44              		.loc 1 90 0
  45 000c 0360     		str	r3, [r0]
  46              		.loc 1 91 0
  47 000e C360     		str	r3, [r0, #12]
  48              		.loc 1 92 0
  49 0010 8360     		str	r3, [r0, #8]
  50              		.loc 1 94 0
  51 0012 1146     		mov	r1, r2
  52 0014 1C30     		adds	r0, r0, #28
  53              	.LVL2:
  54 0016 FFF7FEFF 		bl	chSemObjectInit
  55              	.LVL3:
  56              		.loc 1 95 0
  57 001a 04F11000 		add	r0, r4, #16
ARM GAS  /tmp/ccdkT9wg.s 			page 2


  58 001e 0021     		movs	r1, #0
  59              		.loc 1 96 0
  60 0020 BDE81040 		pop	{r4, lr}
  61              		.cfi_restore 14
  62              		.cfi_restore 4
  63              		.cfi_def_cfa_offset 0
  64              	.LVL4:
  65              		.loc 1 95 0
  66 0024 FFF7FEBF 		b	chSemObjectInit
  67              	.LVL5:
  68              		.cfi_endproc
  69              	.LFE170:
  70              		.size	chMBObjectInit, .-chMBObjectInit
  71              		.section	.text.chMBResetI,"ax",%progbits
  72              		.align	2
  73              		.p2align 4,,15
  74              		.global	chMBResetI
  75              		.thumb
  76              		.thumb_func
  77              		.type	chMBResetI, %function
  78              	chMBResetI:
  79              	.LFB172:
  80              		.loc 1 124 0
  81              		.cfi_startproc
  82              		@ args = 0, pretend = 0, frame = 0
  83              		@ frame_needed = 0, uses_anonymous_args = 0
  84              	.LVL6:
  85 0000 10B5     		push	{r4, lr}
  86              		.cfi_def_cfa_offset 8
  87              		.cfi_offset 4, -8
  88              		.cfi_offset 14, -4
  89              		.loc 1 124 0
  90 0002 0446     		mov	r4, r0
  91              		.loc 1 129 0
  92 0004 0368     		ldr	r3, [r0]
  93              		.loc 1 131 0
  94 0006 4168     		ldr	r1, [r0, #4]
  95              		.loc 1 129 0
  96 0008 8360     		str	r3, [r0, #8]
  97              		.loc 1 131 0
  98 000a C91A     		subs	r1, r1, r3
  99              		.loc 1 130 0
 100 000c C360     		str	r3, [r0, #12]
 101              		.loc 1 131 0
 102 000e 8910     		asrs	r1, r1, #2
 103 0010 1C30     		adds	r0, r0, #28
 104              	.LVL7:
 105 0012 FFF7FEFF 		bl	chSemResetI
 106              	.LVL8:
 107              		.loc 1 132 0
 108 0016 04F11000 		add	r0, r4, #16
 109 001a 0021     		movs	r1, #0
 110              		.loc 1 133 0
 111 001c BDE81040 		pop	{r4, lr}
 112              		.cfi_restore 14
 113              		.cfi_restore 4
 114              		.cfi_def_cfa_offset 0
ARM GAS  /tmp/ccdkT9wg.s 			page 3


 115              	.LVL9:
 116              		.loc 1 132 0
 117 0020 FFF7FEBF 		b	chSemResetI
 118              	.LVL10:
 119              		.cfi_endproc
 120              	.LFE172:
 121              		.size	chMBResetI, .-chMBResetI
 122              		.section	.text.chMBReset,"ax",%progbits
 123              		.align	2
 124              		.p2align 4,,15
 125              		.global	chMBReset
 126              		.thumb
 127              		.thumb_func
 128              		.type	chMBReset, %function
 129              	chMBReset:
 130              	.LFB171:
 131              		.loc 1 107 0
 132              		.cfi_startproc
 133              		@ args = 0, pretend = 0, frame = 0
 134              		@ frame_needed = 0, uses_anonymous_args = 0
 135              	.LVL11:
 136 0000 08B5     		push	{r3, lr}
 137              		.cfi_def_cfa_offset 8
 138              		.cfi_offset 3, -8
 139              		.cfi_offset 14, -4
 140              	.LBB66:
 141              	.LBB67:
 142              	.LBB68:
 143              	.LBB69:
 144              		.file 2 "/home/maciek/ChibiOS_16.1.5/os/ext/CMSIS/include/core_cmFunc.h"
 145              		.loc 2 548 0
 146 0002 2023     		movs	r3, #32
 147              	@ 548 "/home/maciek/ChibiOS_16.1.5/os/ext/CMSIS/include/core_cmFunc.h" 1
 148 0004 83F31188 		MSR basepri, r3
 149              	@ 0 "" 2
 150              		.thumb
 151              	.LBE69:
 152              	.LBE68:
 153              	.LBE67:
 154              	.LBE66:
 155              		.loc 1 110 0
 156 0008 FFF7FEFF 		bl	chMBResetI
 157              	.LVL12:
 158              		.loc 1 111 0
 159 000c FFF7FEFF 		bl	chSchRescheduleS
 160              	.LVL13:
 161              	.LBB70:
 162              	.LBB71:
 163              	.LBB72:
 164              	.LBB73:
 165              	.LBB74:
 166              		.loc 2 548 0
 167 0010 0023     		movs	r3, #0
 168              	@ 548 "/home/maciek/ChibiOS_16.1.5/os/ext/CMSIS/include/core_cmFunc.h" 1
 169 0012 83F31188 		MSR basepri, r3
 170              	@ 0 "" 2
 171              		.thumb
ARM GAS  /tmp/ccdkT9wg.s 			page 4


 172 0016 08BD     		pop	{r3, pc}
 173              	.LBE74:
 174              	.LBE73:
 175              	.LBE72:
 176              	.LBE71:
 177              	.LBE70:
 178              		.cfi_endproc
 179              	.LFE171:
 180              		.size	chMBReset, .-chMBReset
 181              		.section	.text.chMBPostS,"ax",%progbits
 182              		.align	2
 183              		.p2align 4,,15
 184              		.global	chMBPostS
 185              		.thumb
 186              		.thumb_func
 187              		.type	chMBPostS, %function
 188              	chMBPostS:
 189              	.LFB174:
 190              		.loc 1 183 0
 191              		.cfi_startproc
 192              		@ args = 0, pretend = 0, frame = 0
 193              		@ frame_needed = 0, uses_anonymous_args = 0
 194              	.LVL14:
 195 0000 70B5     		push	{r4, r5, r6, lr}
 196              		.cfi_def_cfa_offset 16
 197              		.cfi_offset 4, -16
 198              		.cfi_offset 5, -12
 199              		.cfi_offset 6, -8
 200              		.cfi_offset 14, -4
 201              		.loc 1 183 0
 202 0002 0446     		mov	r4, r0
 203 0004 0E46     		mov	r6, r1
 204              		.loc 1 189 0
 205 0006 1C30     		adds	r0, r0, #28
 206              	.LVL15:
 207 0008 1146     		mov	r1, r2
 208              	.LVL16:
 209 000a FFF7FEFF 		bl	chSemWaitTimeoutS
 210              	.LVL17:
 211              		.loc 1 190 0
 212 000e 0546     		mov	r5, r0
 213 0010 78B9     		cbnz	r0, .L8
 214              	.LVL18:
 215              	.LBB77:
 216              	.LBB78:
 217              		.loc 1 191 0
 218 0012 A268     		ldr	r2, [r4, #8]
 219              		.loc 1 192 0
 220 0014 6168     		ldr	r1, [r4, #4]
 221              		.loc 1 191 0
 222 0016 131D     		adds	r3, r2, #4
 223              		.loc 1 192 0
 224 0018 8B42     		cmp	r3, r1
 225              		.loc 1 191 0
 226 001a A360     		str	r3, [r4, #8]
 227              		.loc 1 193 0
 228 001c 28BF     		it	cs
ARM GAS  /tmp/ccdkT9wg.s 			page 5


 229 001e 2368     		ldrcs	r3, [r4]
 230              		.loc 1 191 0
 231 0020 1660     		str	r6, [r2]
 232              		.loc 1 195 0
 233 0022 04F11000 		add	r0, r4, #16
 234              	.LVL19:
 235              		.loc 1 193 0
 236 0026 28BF     		it	cs
 237 0028 A360     		strcs	r3, [r4, #8]
 238              		.loc 1 195 0
 239 002a FFF7FEFF 		bl	chSemSignalI
 240              	.LVL20:
 241              		.loc 1 196 0
 242 002e FFF7FEFF 		bl	chSchRescheduleS
 243              	.LVL21:
 244              	.L8:
 245              	.LBE78:
 246              	.LBE77:
 247              		.loc 1 200 0
 248 0032 2846     		mov	r0, r5
 249 0034 70BD     		pop	{r4, r5, r6, pc}
 250              		.cfi_endproc
 251              	.LFE174:
 252              		.size	chMBPostS, .-chMBPostS
 253 0036 00BF     		.section	.text.chMBPost,"ax",%progbits
 254              		.align	2
 255              		.p2align 4,,15
 256              		.global	chMBPost
 257              		.thumb
 258              		.thumb_func
 259              		.type	chMBPost, %function
 260              	chMBPost:
 261              	.LFB173:
 262              		.loc 1 154 0
 263              		.cfi_startproc
 264              		@ args = 0, pretend = 0, frame = 0
 265              		@ frame_needed = 0, uses_anonymous_args = 0
 266              	.LVL22:
 267 0000 08B5     		push	{r3, lr}
 268              		.cfi_def_cfa_offset 8
 269              		.cfi_offset 3, -8
 270              		.cfi_offset 14, -4
 271              	.LBB79:
 272              	.LBB80:
 273              	.LBB81:
 274              	.LBB82:
 275              		.loc 2 548 0
 276 0002 2023     		movs	r3, #32
 277              	@ 548 "/home/maciek/ChibiOS_16.1.5/os/ext/CMSIS/include/core_cmFunc.h" 1
 278 0004 83F31188 		MSR basepri, r3
 279              	@ 0 "" 2
 280              		.thumb
 281              	.LBE82:
 282              	.LBE81:
 283              	.LBE80:
 284              	.LBE79:
 285              		.loc 1 158 0
ARM GAS  /tmp/ccdkT9wg.s 			page 6


 286 0008 FFF7FEFF 		bl	chMBPostS
 287              	.LVL23:
 288              	.LBB83:
 289              	.LBB84:
 290              	.LBB85:
 291              	.LBB86:
 292              	.LBB87:
 293              		.loc 2 548 0
 294 000c 0023     		movs	r3, #0
 295              	@ 548 "/home/maciek/ChibiOS_16.1.5/os/ext/CMSIS/include/core_cmFunc.h" 1
 296 000e 83F31188 		MSR basepri, r3
 297              	@ 0 "" 2
 298              		.thumb
 299              	.LBE87:
 300              	.LBE86:
 301              	.LBE85:
 302              	.LBE84:
 303              	.LBE83:
 304              		.loc 1 162 0
 305 0012 08BD     		pop	{r3, pc}
 306              		.cfi_endproc
 307              	.LFE173:
 308              		.size	chMBPost, .-chMBPost
 309              		.section	.text.chMBPostI,"ax",%progbits
 310              		.align	2
 311              		.p2align 4,,15
 312              		.global	chMBPostI
 313              		.thumb
 314              		.thumb_func
 315              		.type	chMBPostI, %function
 316              	chMBPostI:
 317              	.LFB175:
 318              		.loc 1 216 0
 319              		.cfi_startproc
 320              		@ args = 0, pretend = 0, frame = 0
 321              		@ frame_needed = 0, uses_anonymous_args = 0
 322              	.LVL24:
 323 0000 38B5     		push	{r3, r4, r5, lr}
 324              		.cfi_def_cfa_offset 16
 325              		.cfi_offset 3, -16
 326              		.cfi_offset 4, -12
 327              		.cfi_offset 5, -8
 328              		.cfi_offset 14, -4
 329 0002 436A     		ldr	r3, [r0, #36]
 330              	.LVL25:
 331              		.loc 1 221 0
 332 0004 002B     		cmp	r3, #0
 333 0006 12DD     		ble	.L17
 334              	.LVL26:
 335              		.loc 1 226 0
 336 0008 8468     		ldr	r4, [r0, #8]
 337              		.loc 1 227 0
 338 000a 4568     		ldr	r5, [r0, #4]
 339              		.loc 1 226 0
 340 000c 221D     		adds	r2, r4, #4
 341              	.LBB88:
 342              	.LBB89:
ARM GAS  /tmp/ccdkT9wg.s 			page 7


 343              		.file 3 "/home/maciek/ChibiOS_16.1.5/os/rt/include/chsem.h"
 344              		.loc 3 122 0
 345 000e 013B     		subs	r3, r3, #1
 346              	.LBE89:
 347              	.LBE88:
 348              		.loc 1 227 0
 349 0010 AA42     		cmp	r2, r5
 350              	.LBB91:
 351              	.LBB90:
 352              		.loc 3 122 0
 353 0012 4362     		str	r3, [r0, #36]
 354              	.LBE90:
 355              	.LBE91:
 356              		.loc 1 228 0
 357 0014 28BF     		it	cs
 358 0016 0368     		ldrcs	r3, [r0]
 359              		.loc 1 226 0
 360 0018 8260     		str	r2, [r0, #8]
 361 001a 2160     		str	r1, [r4]
 362              		.loc 1 230 0
 363 001c 00F11000 		add	r0, r0, #16
 364              	.LVL27:
 365              		.loc 1 228 0
 366 0020 28BF     		it	cs
 367 0022 40F8083C 		strcs	r3, [r0, #-8]
 368              		.loc 1 230 0
 369 0026 FFF7FEFF 		bl	chSemSignalI
 370              	.LVL28:
 371              		.loc 1 232 0
 372 002a 0020     		movs	r0, #0
 373 002c 38BD     		pop	{r3, r4, r5, pc}
 374              	.LVL29:
 375              	.L17:
 376              		.loc 1 222 0
 377 002e 4FF0FF30 		mov	r0, #-1
 378              	.LVL30:
 379              		.loc 1 233 0
 380 0032 38BD     		pop	{r3, r4, r5, pc}
 381              		.cfi_endproc
 382              	.LFE175:
 383              		.size	chMBPostI, .-chMBPostI
 384              		.section	.text.chMBPostAheadS,"ax",%progbits
 385              		.align	2
 386              		.p2align 4,,15
 387              		.global	chMBPostAheadS
 388              		.thumb
 389              		.thumb_func
 390              		.type	chMBPostAheadS, %function
 391              	chMBPostAheadS:
 392              	.LFB177:
 393              		.loc 1 283 0
 394              		.cfi_startproc
 395              		@ args = 0, pretend = 0, frame = 0
 396              		@ frame_needed = 0, uses_anonymous_args = 0
 397              	.LVL31:
 398 0000 70B5     		push	{r4, r5, r6, lr}
 399              		.cfi_def_cfa_offset 16
ARM GAS  /tmp/ccdkT9wg.s 			page 8


 400              		.cfi_offset 4, -16
 401              		.cfi_offset 5, -12
 402              		.cfi_offset 6, -8
 403              		.cfi_offset 14, -4
 404              		.loc 1 283 0
 405 0002 0446     		mov	r4, r0
 406 0004 0E46     		mov	r6, r1
 407              		.loc 1 289 0
 408 0006 1C30     		adds	r0, r0, #28
 409              	.LVL32:
 410 0008 1146     		mov	r1, r2
 411              	.LVL33:
 412 000a FFF7FEFF 		bl	chSemWaitTimeoutS
 413              	.LVL34:
 414              		.loc 1 290 0
 415 000e 0546     		mov	r5, r0
 416 0010 60B9     		cbnz	r0, .L20
 417              	.LVL35:
 418              	.LBB94:
 419              	.LBB95:
 420              		.loc 1 291 0
 421 0012 E368     		ldr	r3, [r4, #12]
 422 0014 2268     		ldr	r2, [r4]
 423 0016 043B     		subs	r3, r3, #4
 424 0018 9342     		cmp	r3, r2
 425 001a E360     		str	r3, [r4, #12]
 426 001c 08D3     		bcc	.L23
 427              	.L21:
 428              		.loc 1 294 0
 429 001e 1E60     		str	r6, [r3]
 430              		.loc 1 295 0
 431 0020 04F11000 		add	r0, r4, #16
 432              	.LVL36:
 433 0024 FFF7FEFF 		bl	chSemSignalI
 434              	.LVL37:
 435              		.loc 1 296 0
 436 0028 FFF7FEFF 		bl	chSchRescheduleS
 437              	.LVL38:
 438              	.L20:
 439              	.LBE95:
 440              	.LBE94:
 441              		.loc 1 300 0
 442 002c 2846     		mov	r0, r5
 443 002e 70BD     		pop	{r4, r5, r6, pc}
 444              	.LVL39:
 445              	.L23:
 446              	.LBB97:
 447              	.LBB96:
 448              		.loc 1 292 0
 449 0030 6368     		ldr	r3, [r4, #4]
 450 0032 043B     		subs	r3, r3, #4
 451 0034 E360     		str	r3, [r4, #12]
 452 0036 F2E7     		b	.L21
 453              	.LBE96:
 454              	.LBE97:
 455              		.cfi_endproc
 456              	.LFE177:
ARM GAS  /tmp/ccdkT9wg.s 			page 9


 457              		.size	chMBPostAheadS, .-chMBPostAheadS
 458              		.section	.text.chMBPostAhead,"ax",%progbits
 459              		.align	2
 460              		.p2align 4,,15
 461              		.global	chMBPostAhead
 462              		.thumb
 463              		.thumb_func
 464              		.type	chMBPostAhead, %function
 465              	chMBPostAhead:
 466              	.LFB176:
 467              		.loc 1 254 0
 468              		.cfi_startproc
 469              		@ args = 0, pretend = 0, frame = 0
 470              		@ frame_needed = 0, uses_anonymous_args = 0
 471              	.LVL40:
 472 0000 08B5     		push	{r3, lr}
 473              		.cfi_def_cfa_offset 8
 474              		.cfi_offset 3, -8
 475              		.cfi_offset 14, -4
 476              	.LBB98:
 477              	.LBB99:
 478              	.LBB100:
 479              	.LBB101:
 480              		.loc 2 548 0
 481 0002 2023     		movs	r3, #32
 482              	@ 548 "/home/maciek/ChibiOS_16.1.5/os/ext/CMSIS/include/core_cmFunc.h" 1
 483 0004 83F31188 		MSR basepri, r3
 484              	@ 0 "" 2
 485              		.thumb
 486              	.LBE101:
 487              	.LBE100:
 488              	.LBE99:
 489              	.LBE98:
 490              		.loc 1 258 0
 491 0008 FFF7FEFF 		bl	chMBPostAheadS
 492              	.LVL41:
 493              	.LBB102:
 494              	.LBB103:
 495              	.LBB104:
 496              	.LBB105:
 497              	.LBB106:
 498              		.loc 2 548 0
 499 000c 0023     		movs	r3, #0
 500              	@ 548 "/home/maciek/ChibiOS_16.1.5/os/ext/CMSIS/include/core_cmFunc.h" 1
 501 000e 83F31188 		MSR basepri, r3
 502              	@ 0 "" 2
 503              		.thumb
 504              	.LBE106:
 505              	.LBE105:
 506              	.LBE104:
 507              	.LBE103:
 508              	.LBE102:
 509              		.loc 1 262 0
 510 0012 08BD     		pop	{r3, pc}
 511              		.cfi_endproc
 512              	.LFE176:
 513              		.size	chMBPostAhead, .-chMBPostAhead
ARM GAS  /tmp/ccdkT9wg.s 			page 10


 514              		.section	.text.chMBPostAheadI,"ax",%progbits
 515              		.align	2
 516              		.p2align 4,,15
 517              		.global	chMBPostAheadI
 518              		.thumb
 519              		.thumb_func
 520              		.type	chMBPostAheadI, %function
 521              	chMBPostAheadI:
 522              	.LFB178:
 523              		.loc 1 316 0
 524              		.cfi_startproc
 525              		@ args = 0, pretend = 0, frame = 0
 526              		@ frame_needed = 0, uses_anonymous_args = 0
 527              	.LVL42:
 528 0000 426A     		ldr	r2, [r0, #36]
 529              	.LVL43:
 530              		.loc 1 321 0
 531 0002 002A     		cmp	r2, #0
 532 0004 11DD     		ble	.L29
 533              	.LVL44:
 534              		.loc 1 325 0
 535 0006 C368     		ldr	r3, [r0, #12]
 536              		.loc 1 316 0
 537 0008 10B5     		push	{r4, lr}
 538              		.cfi_def_cfa_offset 8
 539              		.cfi_offset 4, -8
 540              		.cfi_offset 14, -4
 541              		.loc 1 325 0
 542 000a 0468     		ldr	r4, [r0]
 543 000c 043B     		subs	r3, r3, #4
 544              	.LBB107:
 545              	.LBB108:
 546              		.loc 3 122 0
 547 000e 013A     		subs	r2, r2, #1
 548              	.LBE108:
 549              	.LBE107:
 550              		.loc 1 325 0
 551 0010 A342     		cmp	r3, r4
 552              	.LBB110:
 553              	.LBB109:
 554              		.loc 3 122 0
 555 0012 4262     		str	r2, [r0, #36]
 556              	.LBE109:
 557              	.LBE110:
 558              		.loc 1 325 0
 559 0014 C360     		str	r3, [r0, #12]
 560 0016 02D2     		bcs	.L28
 561              		.loc 1 326 0
 562 0018 4368     		ldr	r3, [r0, #4]
 563 001a 043B     		subs	r3, r3, #4
 564 001c C360     		str	r3, [r0, #12]
 565              	.L28:
 566              		.loc 1 328 0
 567 001e 1960     		str	r1, [r3]
 568              		.loc 1 329 0
 569 0020 1030     		adds	r0, r0, #16
 570              	.LVL45:
ARM GAS  /tmp/ccdkT9wg.s 			page 11


 571 0022 FFF7FEFF 		bl	chSemSignalI
 572              	.LVL46:
 573              		.loc 1 331 0
 574 0026 0020     		movs	r0, #0
 575 0028 10BD     		pop	{r4, pc}
 576              	.LVL47:
 577              	.L29:
 578              		.cfi_def_cfa_offset 0
 579              		.cfi_restore 4
 580              		.cfi_restore 14
 581              		.loc 1 322 0
 582 002a 4FF0FF30 		mov	r0, #-1
 583              	.LVL48:
 584 002e 7047     		bx	lr
 585              		.cfi_endproc
 586              	.LFE178:
 587              		.size	chMBPostAheadI, .-chMBPostAheadI
 588              		.section	.text.chMBFetchS,"ax",%progbits
 589              		.align	2
 590              		.p2align 4,,15
 591              		.global	chMBFetchS
 592              		.thumb
 593              		.thumb_func
 594              		.type	chMBFetchS, %function
 595              	chMBFetchS:
 596              	.LFB180:
 597              		.loc 1 382 0
 598              		.cfi_startproc
 599              		@ args = 0, pretend = 0, frame = 0
 600              		@ frame_needed = 0, uses_anonymous_args = 0
 601              	.LVL49:
 602 0000 70B5     		push	{r4, r5, r6, lr}
 603              		.cfi_def_cfa_offset 16
 604              		.cfi_offset 4, -16
 605              		.cfi_offset 5, -12
 606              		.cfi_offset 6, -8
 607              		.cfi_offset 14, -4
 608              		.loc 1 382 0
 609 0002 0446     		mov	r4, r0
 610 0004 0E46     		mov	r6, r1
 611              		.loc 1 388 0
 612 0006 1030     		adds	r0, r0, #16
 613              	.LVL50:
 614 0008 1146     		mov	r1, r2
 615              	.LVL51:
 616 000a FFF7FEFF 		bl	chSemWaitTimeoutS
 617              	.LVL52:
 618              		.loc 1 389 0
 619 000e 0546     		mov	r5, r0
 620 0010 80B9     		cbnz	r0, .L33
 621              	.LVL53:
 622              	.LBB113:
 623              	.LBB114:
 624              		.loc 1 390 0
 625 0012 E368     		ldr	r3, [r4, #12]
 626              		.loc 1 391 0
 627 0014 6268     		ldr	r2, [r4, #4]
ARM GAS  /tmp/ccdkT9wg.s 			page 12


 628              		.loc 1 390 0
 629 0016 1968     		ldr	r1, [r3]
 630 0018 0433     		adds	r3, r3, #4
 631              		.loc 1 391 0
 632 001a 9342     		cmp	r3, r2
 633              		.loc 1 390 0
 634 001c E360     		str	r3, [r4, #12]
 635              		.loc 1 392 0
 636 001e 28BF     		it	cs
 637 0020 2368     		ldrcs	r3, [r4]
 638              		.loc 1 390 0
 639 0022 3160     		str	r1, [r6]
 640              		.loc 1 394 0
 641 0024 04F11C00 		add	r0, r4, #28
 642              	.LVL54:
 643              		.loc 1 392 0
 644 0028 28BF     		it	cs
 645 002a E360     		strcs	r3, [r4, #12]
 646              		.loc 1 394 0
 647 002c FFF7FEFF 		bl	chSemSignalI
 648              	.LVL55:
 649              		.loc 1 395 0
 650 0030 FFF7FEFF 		bl	chSchRescheduleS
 651              	.LVL56:
 652              	.L33:
 653              	.LBE114:
 654              	.LBE113:
 655              		.loc 1 399 0
 656 0034 2846     		mov	r0, r5
 657 0036 70BD     		pop	{r4, r5, r6, pc}
 658              		.cfi_endproc
 659              	.LFE180:
 660              		.size	chMBFetchS, .-chMBFetchS
 661              		.section	.text.chMBFetch,"ax",%progbits
 662              		.align	2
 663              		.p2align 4,,15
 664              		.global	chMBFetch
 665              		.thumb
 666              		.thumb_func
 667              		.type	chMBFetch, %function
 668              	chMBFetch:
 669              	.LFB179:
 670              		.loc 1 353 0
 671              		.cfi_startproc
 672              		@ args = 0, pretend = 0, frame = 0
 673              		@ frame_needed = 0, uses_anonymous_args = 0
 674              	.LVL57:
 675 0000 08B5     		push	{r3, lr}
 676              		.cfi_def_cfa_offset 8
 677              		.cfi_offset 3, -8
 678              		.cfi_offset 14, -4
 679              	.LBB115:
 680              	.LBB116:
 681              	.LBB117:
 682              	.LBB118:
 683              		.loc 2 548 0
 684 0002 2023     		movs	r3, #32
ARM GAS  /tmp/ccdkT9wg.s 			page 13


 685              	@ 548 "/home/maciek/ChibiOS_16.1.5/os/ext/CMSIS/include/core_cmFunc.h" 1
 686 0004 83F31188 		MSR basepri, r3
 687              	@ 0 "" 2
 688              		.thumb
 689              	.LBE118:
 690              	.LBE117:
 691              	.LBE116:
 692              	.LBE115:
 693              		.loc 1 357 0
 694 0008 FFF7FEFF 		bl	chMBFetchS
 695              	.LVL58:
 696              	.LBB119:
 697              	.LBB120:
 698              	.LBB121:
 699              	.LBB122:
 700              	.LBB123:
 701              		.loc 2 548 0
 702 000c 0023     		movs	r3, #0
 703              	@ 548 "/home/maciek/ChibiOS_16.1.5/os/ext/CMSIS/include/core_cmFunc.h" 1
 704 000e 83F31188 		MSR basepri, r3
 705              	@ 0 "" 2
 706              		.thumb
 707              	.LBE123:
 708              	.LBE122:
 709              	.LBE121:
 710              	.LBE120:
 711              	.LBE119:
 712              		.loc 1 361 0
 713 0012 08BD     		pop	{r3, pc}
 714              		.cfi_endproc
 715              	.LFE179:
 716              		.size	chMBFetch, .-chMBFetch
 717              		.section	.text.chMBFetchI,"ax",%progbits
 718              		.align	2
 719              		.p2align 4,,15
 720              		.global	chMBFetchI
 721              		.thumb
 722              		.thumb_func
 723              		.type	chMBFetchI, %function
 724              	chMBFetchI:
 725              	.LFB181:
 726              		.loc 1 415 0
 727              		.cfi_startproc
 728              		@ args = 0, pretend = 0, frame = 0
 729              		@ frame_needed = 0, uses_anonymous_args = 0
 730              	.LVL59:
 731 0000 8369     		ldr	r3, [r0, #24]
 732              	.LVL60:
 733              		.loc 1 420 0
 734 0002 002B     		cmp	r3, #0
 735 0004 14DD     		ble	.L41
 736              	.LVL61:
 737              	.LBB124:
 738              	.LBB125:
 739              		.loc 3 122 0
 740 0006 5A1E     		subs	r2, r3, #1
 741              	.LBE125:
ARM GAS  /tmp/ccdkT9wg.s 			page 14


 742              	.LBE124:
 743              		.loc 1 424 0
 744 0008 C368     		ldr	r3, [r0, #12]
 745              		.loc 1 415 0
 746 000a 10B5     		push	{r4, lr}
 747              		.cfi_def_cfa_offset 8
 748              		.cfi_offset 4, -8
 749              		.cfi_offset 14, -4
 750              	.LBB127:
 751              	.LBB126:
 752              		.loc 3 122 0
 753 000c 8261     		str	r2, [r0, #24]
 754              	.LBE126:
 755              	.LBE127:
 756              		.loc 1 425 0
 757 000e 4268     		ldr	r2, [r0, #4]
 758              		.loc 1 424 0
 759 0010 1C68     		ldr	r4, [r3]
 760 0012 0433     		adds	r3, r3, #4
 761              		.loc 1 425 0
 762 0014 9342     		cmp	r3, r2
 763              		.loc 1 424 0
 764 0016 C360     		str	r3, [r0, #12]
 765              		.loc 1 426 0
 766 0018 28BF     		it	cs
 767 001a 0368     		ldrcs	r3, [r0]
 768              		.loc 1 424 0
 769 001c 0C60     		str	r4, [r1]
 770              		.loc 1 428 0
 771 001e 00F11C00 		add	r0, r0, #28
 772              	.LVL62:
 773              		.loc 1 426 0
 774 0022 28BF     		it	cs
 775 0024 40F8103C 		strcs	r3, [r0, #-16]
 776              		.loc 1 428 0
 777 0028 FFF7FEFF 		bl	chSemSignalI
 778              	.LVL63:
 779              		.loc 1 430 0
 780 002c 0020     		movs	r0, #0
 781 002e 10BD     		pop	{r4, pc}
 782              	.LVL64:
 783              	.L41:
 784              		.cfi_def_cfa_offset 0
 785              		.cfi_restore 4
 786              		.cfi_restore 14
 787              		.loc 1 421 0
 788 0030 4FF0FF30 		mov	r0, #-1
 789              	.LVL65:
 790 0034 7047     		bx	lr
 791              		.cfi_endproc
 792              	.LFE181:
 793              		.size	chMBFetchI, .-chMBFetchI
 794 0036 00BF     		.text
 795              	.Letext0:
 796              		.file 4 "/opt/stm32/gcc/gcc-arm-none-eabi-4_9-2015q2/arm-none-eabi/include/machine/_default_types.
 797              		.file 5 "/opt/stm32/gcc/gcc-arm-none-eabi-4_9-2015q2/arm-none-eabi/include/sys/_stdint.h"
 798              		.file 6 "/home/maciek/ChibiOS_16.1.5/os/rt/ports/ARMCMx/compilers/GCC/chtypes.h"
ARM GAS  /tmp/ccdkT9wg.s 			page 15


 799              		.file 7 "/home/maciek/ChibiOS_16.1.5/os/rt/include/chsystypes.h"
 800              		.file 8 "/home/maciek/ChibiOS_16.1.5/os/rt/include/chschd.h"
 801              		.file 9 "/home/maciek/ChibiOS_16.1.5/os/rt/ports/ARMCMx/chcore.h"
 802              		.file 10 "/home/maciek/ChibiOS_16.1.5/os/rt/ports/ARMCMx/chcore_v7m.h"
 803              		.file 11 "/home/maciek/ChibiOS_16.1.5/os/rt/include/chtm.h"
 804              		.file 12 "/home/maciek/ChibiOS_16.1.5/os/rt/include/chmtx.h"
 805              		.file 13 "/home/maciek/ChibiOS_16.1.5/os/rt/include/chmboxes.h"
 806              		.file 14 "/home/maciek/ChibiOS_16.1.5/os/rt/include/chsys.h"
 807              		.file 15 "/home/maciek/ChibiOS_16.1.5/os/ext/CMSIS/include/core_cm3.h"