ARM GAS  /tmp/ccoZlpry.s 			page 1


   1              		.syntax unified
   2              		.cpu cortex-m3
   3              		.fpu softvfp
   4              		.eabi_attribute 20, 1
   5              		.eabi_attribute 21, 1
   6              		.eabi_attribute 23, 3
   7              		.eabi_attribute 24, 1
   8              		.eabi_attribute 25, 1
   9              		.eabi_attribute 26, 1
  10              		.eabi_attribute 30, 2
  11              		.eabi_attribute 34, 1
  12              		.eabi_attribute 18, 4
  13              		.thumb
  14              		.file	"chmempools.c"
  15              		.text
  16              	.Ltext0:
  17              		.cfi_sections	.debug_frame
  18              		.section	.text.chPoolObjectInit,"ax",%progbits
  19              		.align	2
  20              		.p2align 4,,15
  21              		.global	chPoolObjectInit
  22              		.thumb
  23              		.thumb_func
  24              		.type	chPoolObjectInit, %function
  25              	chPoolObjectInit:
  26              	.LFB170:
  27              		.file 1 "/home/maciek/ChibiOS_16.1.5/os/rt/src/chmempools.c"
  28              		.loc 1 75 0
  29              		.cfi_startproc
  30              		@ args = 0, pretend = 0, frame = 0
  31              		@ frame_needed = 0, uses_anonymous_args = 0
  32              		@ link register save eliminated.
  33              	.LVL0:
  34              		.loc 1 79 0
  35 0000 0023     		movs	r3, #0
  36              		.loc 1 80 0
  37 0002 4160     		str	r1, [r0, #4]
  38              		.loc 1 81 0
  39 0004 8260     		str	r2, [r0, #8]
  40              		.loc 1 79 0
  41 0006 0360     		str	r3, [r0]
  42 0008 7047     		bx	lr
  43              		.cfi_endproc
  44              	.LFE170:
  45              		.size	chPoolObjectInit, .-chPoolObjectInit
  46 000a 00BF     		.section	.text.chPoolLoadArray,"ax",%progbits
  47              		.align	2
  48              		.p2align 4,,15
  49              		.global	chPoolLoadArray
  50              		.thumb
  51              		.thumb_func
  52              		.type	chPoolLoadArray, %function
  53              	chPoolLoadArray:
  54              	.LFB171:
  55              		.loc 1 97 0
  56              		.cfi_startproc
  57              		@ args = 0, pretend = 0, frame = 0
ARM GAS  /tmp/ccoZlpry.s 			page 2


  58              		@ frame_needed = 0, uses_anonymous_args = 0
  59              		@ link register save eliminated.
  60              	.LVL1:
  61              		.loc 1 101 0
  62 0000 72B1     		cbz	r2, .L9
  63              		.loc 1 97 0
  64 0002 30B4     		push	{r4, r5}
  65              		.cfi_def_cfa_offset 8
  66              		.cfi_offset 4, -8
  67              		.cfi_offset 5, -4
  68              	.LBB77:
  69              	.LBB78:
  70              	.LBB79:
  71              	.LBB80:
  72              	.LBB81:
  73              	.LBB82:
  74              		.file 2 "/home/maciek/ChibiOS_16.1.5/os/ext/CMSIS/include/core_cmFunc.h"
  75              		.loc 2 548 0
  76 0004 2025     		movs	r5, #32
  77              	.LBE82:
  78              	.LBE81:
  79              	.LBE80:
  80              	.LBE79:
  81              	.LBB86:
  82              	.LBB87:
  83              	.LBB88:
  84              	.LBB89:
  85              	.LBB90:
  86 0006 0024     		movs	r4, #0
  87              	.LVL2:
  88              	.L4:
  89              	.LBE90:
  90              	.LBE89:
  91              	.LBE88:
  92              	.LBE87:
  93              	.LBE86:
  94              	.LBB95:
  95              	.LBB85:
  96              	.LBB84:
  97              	.LBB83:
  98              	@ 548 "/home/maciek/ChibiOS_16.1.5/os/ext/CMSIS/include/core_cmFunc.h" 1
  99 0008 85F31188 		MSR basepri, r5
 100              	@ 0 "" 2
 101              	.LVL3:
 102              		.thumb
 103              	.LBE83:
 104              	.LBE84:
 105              	.LBE85:
 106              	.LBE95:
 107              	.LBB96:
 108              	.LBB97:
 109              		.loc 1 177 0
 110 000c 0368     		ldr	r3, [r0]
 111 000e 0B60     		str	r3, [r1]
 112              		.loc 1 178 0
 113 0010 0160     		str	r1, [r0]
 114              	.LVL4:
ARM GAS  /tmp/ccoZlpry.s 			page 3


 115              	.LBE97:
 116              	.LBE96:
 117              	.LBB98:
 118              	.LBB94:
 119              	.LBB93:
 120              	.LBB92:
 121              	.LBB91:
 122              		.loc 2 548 0
 123              	@ 548 "/home/maciek/ChibiOS_16.1.5/os/ext/CMSIS/include/core_cmFunc.h" 1
 124 0012 84F31188 		MSR basepri, r4
 125              	@ 0 "" 2
 126              		.thumb
 127              	.LBE91:
 128              	.LBE92:
 129              	.LBE93:
 130              	.LBE94:
 131              	.LBE98:
 132              	.LBE78:
 133              	.LBE77:
 134              		.loc 1 104 0
 135 0016 4368     		ldr	r3, [r0, #4]
 136              		.loc 1 101 0
 137 0018 013A     		subs	r2, r2, #1
 138              	.LVL5:
 139              		.loc 1 104 0
 140 001a 1944     		add	r1, r1, r3
 141              	.LVL6:
 142              		.loc 1 101 0
 143 001c F4D1     		bne	.L4
 144              		.loc 1 108 0
 145 001e 30BC     		pop	{r4, r5}
 146              		.cfi_restore 5
 147              		.cfi_restore 4
 148              		.cfi_def_cfa_offset 0
 149              	.LVL7:
 150              	.L9:
 151 0020 7047     		bx	lr
 152              		.cfi_endproc
 153              	.LFE171:
 154              		.size	chPoolLoadArray, .-chPoolLoadArray
 155 0022 00BF     		.section	.text.chPoolAllocI,"ax",%progbits
 156              		.align	2
 157              		.p2align 4,,15
 158              		.global	chPoolAllocI
 159              		.thumb
 160              		.thumb_func
 161              		.type	chPoolAllocI, %function
 162              	chPoolAllocI:
 163              	.LFB172:
 164              		.loc 1 120 0
 165              		.cfi_startproc
 166              		@ args = 0, pretend = 0, frame = 0
 167              		@ frame_needed = 0, uses_anonymous_args = 0
 168              		@ link register save eliminated.
 169              	.LVL8:
 170              		.loc 1 126 0
 171 0000 0368     		ldr	r3, [r0]
ARM GAS  /tmp/ccoZlpry.s 			page 4


 172              	.LVL9:
 173              		.loc 1 128 0
 174 0002 1BB1     		cbz	r3, .L12
 175              		.loc 1 129 0
 176 0004 1A68     		ldr	r2, [r3]
 177 0006 0260     		str	r2, [r0]
 178              	.L13:
 179              		.loc 1 137 0
 180 0008 1846     		mov	r0, r3
 181              	.LVL10:
 182 000a 7047     		bx	lr
 183              	.LVL11:
 184              	.L12:
 185              		.loc 1 131 0
 186 000c 8268     		ldr	r2, [r0, #8]
 187 000e 002A     		cmp	r2, #0
 188 0010 FAD0     		beq	.L13
 189              		.loc 1 132 0
 190 0012 4068     		ldr	r0, [r0, #4]
 191              	.LVL12:
 192 0014 1047     		bx	r2
 193              	.LVL13:
 194              		.cfi_endproc
 195              	.LFE172:
 196              		.size	chPoolAllocI, .-chPoolAllocI
 197 0016 00BF     		.section	.text.chPoolAlloc,"ax",%progbits
 198              		.align	2
 199              		.p2align 4,,15
 200              		.global	chPoolAlloc
 201              		.thumb
 202              		.thumb_func
 203              		.type	chPoolAlloc, %function
 204              	chPoolAlloc:
 205              	.LFB173:
 206              		.loc 1 149 0
 207              		.cfi_startproc
 208              		@ args = 0, pretend = 0, frame = 0
 209              		@ frame_needed = 0, uses_anonymous_args = 0
 210              	.LVL14:
 211 0000 08B5     		push	{r3, lr}
 212              		.cfi_def_cfa_offset 8
 213              		.cfi_offset 3, -8
 214              		.cfi_offset 14, -4
 215              	.LBB99:
 216              	.LBB100:
 217              	.LBB101:
 218              	.LBB102:
 219              		.loc 2 548 0
 220 0002 2022     		movs	r2, #32
 221              	.LBE102:
 222              	.LBE101:
 223              	.LBE100:
 224              	.LBE99:
 225              		.loc 1 149 0
 226 0004 0346     		mov	r3, r0
 227              	.LBB106:
 228              	.LBB105:
ARM GAS  /tmp/ccoZlpry.s 			page 5


 229              	.LBB104:
 230              	.LBB103:
 231              		.loc 2 548 0
 232              	@ 548 "/home/maciek/ChibiOS_16.1.5/os/ext/CMSIS/include/core_cmFunc.h" 1
 233 0006 82F31188 		MSR basepri, r2
 234              	@ 0 "" 2
 235              	.LVL15:
 236              		.thumb
 237              	.LBE103:
 238              	.LBE104:
 239              	.LBE105:
 240              	.LBE106:
 241              	.LBB107:
 242              	.LBB108:
 243              		.loc 1 126 0
 244 000a 0068     		ldr	r0, [r0]
 245              	.LVL16:
 246              		.loc 1 128 0
 247 000c 28B1     		cbz	r0, .L18
 248              		.loc 1 129 0
 249 000e 0268     		ldr	r2, [r0]
 250 0010 1A60     		str	r2, [r3]
 251              	.L19:
 252              	.LVL17:
 253              	.LBE108:
 254              	.LBE107:
 255              	.LBB110:
 256              	.LBB111:
 257              	.LBB112:
 258              	.LBB113:
 259              	.LBB114:
 260              		.loc 2 548 0
 261 0012 0023     		movs	r3, #0
 262              	.LVL18:
 263              	@ 548 "/home/maciek/ChibiOS_16.1.5/os/ext/CMSIS/include/core_cmFunc.h" 1
 264 0014 83F31188 		MSR basepri, r3
 265              	@ 0 "" 2
 266              		.thumb
 267              	.LBE114:
 268              	.LBE113:
 269              	.LBE112:
 270              	.LBE111:
 271              	.LBE110:
 272              		.loc 1 157 0
 273 0018 08BD     		pop	{r3, pc}
 274              	.LVL19:
 275              	.L18:
 276              	.LBB119:
 277              	.LBB109:
 278              		.loc 1 131 0
 279 001a 9A68     		ldr	r2, [r3, #8]
 280 001c 002A     		cmp	r2, #0
 281 001e F8D0     		beq	.L19
 282              		.loc 1 132 0
 283 0020 5868     		ldr	r0, [r3, #4]
 284              	.LVL20:
 285 0022 9047     		blx	r2
ARM GAS  /tmp/ccoZlpry.s 			page 6


 286              	.LVL21:
 287              	.LBE109:
 288              	.LBE119:
 289              	.LBB120:
 290              	.LBB118:
 291              	.LBB117:
 292              	.LBB116:
 293              	.LBB115:
 294              		.loc 2 548 0
 295 0024 0023     		movs	r3, #0
 296              	@ 548 "/home/maciek/ChibiOS_16.1.5/os/ext/CMSIS/include/core_cmFunc.h" 1
 297 0026 83F31188 		MSR basepri, r3
 298              	@ 0 "" 2
 299              		.thumb
 300              	.LBE115:
 301              	.LBE116:
 302              	.LBE117:
 303              	.LBE118:
 304              	.LBE120:
 305              		.loc 1 157 0
 306 002a 08BD     		pop	{r3, pc}
 307              		.cfi_endproc
 308              	.LFE173:
 309              		.size	chPoolAlloc, .-chPoolAlloc
 310              		.section	.text.chPoolFreeI,"ax",%progbits
 311              		.align	2
 312              		.p2align 4,,15
 313              		.global	chPoolFreeI
 314              		.thumb
 315              		.thumb_func
 316              		.type	chPoolFreeI, %function
 317              	chPoolFreeI:
 318              	.LFB174:
 319              		.loc 1 171 0
 320              		.cfi_startproc
 321              		@ args = 0, pretend = 0, frame = 0
 322              		@ frame_needed = 0, uses_anonymous_args = 0
 323              		@ link register save eliminated.
 324              	.LVL22:
 325              		.loc 1 177 0
 326 0000 0368     		ldr	r3, [r0]
 327 0002 0B60     		str	r3, [r1]
 328              		.loc 1 178 0
 329 0004 0160     		str	r1, [r0]
 330 0006 7047     		bx	lr
 331              		.cfi_endproc
 332              	.LFE174:
 333              		.size	chPoolFreeI, .-chPoolFreeI
 334              		.section	.text.chPoolFree,"ax",%progbits
 335              		.align	2
 336              		.p2align 4,,15
 337              		.global	chPoolFree
 338              		.thumb
 339              		.thumb_func
 340              		.type	chPoolFree, %function
 341              	chPoolFree:
 342              	.LFB175:
ARM GAS  /tmp/ccoZlpry.s 			page 7


 343              		.loc 1 193 0
 344              		.cfi_startproc
 345              		@ args = 0, pretend = 0, frame = 0
 346              		@ frame_needed = 0, uses_anonymous_args = 0
 347              		@ link register save eliminated.
 348              	.LVL23:
 349              	.LBB121:
 350              	.LBB122:
 351              	.LBB123:
 352              	.LBB124:
 353              		.loc 2 548 0
 354 0000 2023     		movs	r3, #32
 355              	@ 548 "/home/maciek/ChibiOS_16.1.5/os/ext/CMSIS/include/core_cmFunc.h" 1
 356 0002 83F31188 		MSR basepri, r3
 357              	@ 0 "" 2
 358              	.LVL24:
 359              		.thumb
 360              	.LBE124:
 361              	.LBE123:
 362              	.LBE122:
 363              	.LBE121:
 364              	.LBB125:
 365              	.LBB126:
 366              		.loc 1 177 0
 367 0006 0268     		ldr	r2, [r0]
 368              	.LBE126:
 369              	.LBE125:
 370              	.LBB128:
 371              	.LBB129:
 372              	.LBB130:
 373              	.LBB131:
 374              	.LBB132:
 375              		.loc 2 548 0
 376 0008 0023     		movs	r3, #0
 377              	.LBE132:
 378              	.LBE131:
 379              	.LBE130:
 380              	.LBE129:
 381              	.LBE128:
 382              	.LBB137:
 383              	.LBB127:
 384              		.loc 1 177 0
 385 000a 0A60     		str	r2, [r1]
 386              		.loc 1 178 0
 387 000c 0160     		str	r1, [r0]
 388              	.LVL25:
 389              	.LBE127:
 390              	.LBE137:
 391              	.LBB138:
 392              	.LBB136:
 393              	.LBB135:
 394              	.LBB134:
 395              	.LBB133:
 396              		.loc 2 548 0
 397              	@ 548 "/home/maciek/ChibiOS_16.1.5/os/ext/CMSIS/include/core_cmFunc.h" 1
 398 000e 83F31188 		MSR basepri, r3
 399              	@ 0 "" 2
ARM GAS  /tmp/ccoZlpry.s 			page 8


 400              		.thumb
 401 0012 7047     		bx	lr
 402              	.LBE133:
 403              	.LBE134:
 404              	.LBE135:
 405              	.LBE136:
 406              	.LBE138:
 407              		.cfi_endproc
 408              	.LFE175:
 409              		.size	chPoolFree, .-chPoolFree
 410              		.text
 411              	.Letext0:
 412              		.file 3 "/opt/stm32/gcc/gcc-arm-none-eabi-4_9-2015q2/lib/gcc/arm-none-eabi/4.9.3/include/stddef.h"
 413              		.file 4 "/opt/stm32/gcc/gcc-arm-none-eabi-4_9-2015q2/arm-none-eabi/include/machine/_default_types.
 414              		.file 5 "/opt/stm32/gcc/gcc-arm-none-eabi-4_9-2015q2/arm-none-eabi/include/sys/_stdint.h"
 415              		.file 6 "/home/maciek/ChibiOS_16.1.5/os/rt/ports/ARMCMx/compilers/GCC/chtypes.h"
 416              		.file 7 "/home/maciek/ChibiOS_16.1.5/os/rt/include/chsystypes.h"
 417              		.file 8 "/home/maciek/ChibiOS_16.1.5/os/rt/include/chschd.h"
 418              		.file 9 "/home/maciek/ChibiOS_16.1.5/os/rt/ports/ARMCMx/chcore.h"
 419              		.file 10 "/home/maciek/ChibiOS_16.1.5/os/rt/ports/ARMCMx/chcore_v7m.h"
 420              		.file 11 "/home/maciek/ChibiOS_16.1.5/os/rt/include/chtm.h"
 421              		.file 12 "/home/maciek/ChibiOS_16.1.5/os/rt/include/chsem.h"
 422              		.file 13 "/home/maciek/ChibiOS_16.1.5/os/rt/include/chmtx.h"
 423              		.file 14 "/home/maciek/ChibiOS_16.1.5/os/rt/include/chmemcore.h"
 424              		.file 15 "/home/maciek/ChibiOS_16.1.5/os/rt/include/chmempools.h"
 425              		.file 16 "/home/maciek/ChibiOS_16.1.5/os/rt/include/chsys.h"
 426              		.file 17 "/home/maciek/ChibiOS_16.1.5/os/ext/CMSIS/include/core_cm3.h"