ARM GAS  /tmp/ccF804Lc.s 			page 1


   1              		.syntax unified
   2              		.cpu cortex-m3
   3              		.fpu softvfp
   4              		.eabi_attribute 20, 1
   5              		.eabi_attribute 21, 1
   6              		.eabi_attribute 23, 3
   7              		.eabi_attribute 24, 1
   8              		.eabi_attribute 25, 1
   9              		.eabi_attribute 26, 1
  10              		.eabi_attribute 30, 2
  11              		.eabi_attribute 34, 1
  12              		.eabi_attribute 18, 4
  13              		.thumb
  14              		.file	"chmsg.c"
  15              		.text
  16              	.Ltext0:
  17              		.cfi_sections	.debug_frame
  18              		.section	.text.chMsgSend,"ax",%progbits
  19              		.align	2
  20              		.p2align 4,,15
  21              		.global	chMsgSend
  22              		.thumb
  23              		.thumb_func
  24              		.type	chMsgSend, %function
  25              	chMsgSend:
  26              	.LFB170:
  27              		.file 1 "/home/maciek/ChibiOS_16.1.5/os/rt/src/chmsg.c"
  28              		.loc 1 87 0
  29              		.cfi_startproc
  30              		@ args = 0, pretend = 0, frame = 0
  31              		@ frame_needed = 0, uses_anonymous_args = 0
  32              	.LVL0:
  33              		.loc 1 88 0
  34 0000 0E4B     		ldr	r3, .L6
  35              		.loc 1 87 0
  36 0002 70B5     		push	{r4, r5, r6, lr}
  37              		.cfi_def_cfa_offset 16
  38              		.cfi_offset 4, -16
  39              		.cfi_offset 5, -12
  40              		.cfi_offset 6, -8
  41              		.cfi_offset 14, -4
  42              	.LBB52:
  43              	.LBB53:
  44              	.LBB54:
  45              	.LBB55:
  46              		.file 2 "/home/maciek/ChibiOS_16.1.5/os/ext/CMSIS/include/core_cmFunc.h"
  47              		.loc 2 548 0
  48 0004 2022     		movs	r2, #32
  49              	.LBE55:
  50              	.LBE54:
  51              	.LBE53:
  52              	.LBE52:
  53              		.loc 1 88 0
  54 0006 1C69     		ldr	r4, [r3, #16]
  55              	.LVL1:
  56              	.LBB59:
  57              	.LBB58:
ARM GAS  /tmp/ccF804Lc.s 			page 2


  58              	.LBB57:
  59              	.LBB56:
  60              		.loc 2 548 0
  61              	@ 548 "/home/maciek/ChibiOS_16.1.5/os/ext/CMSIS/include/core_cmFunc.h" 1
  62 0008 82F31188 		MSR basepri, r2
  63              	@ 0 "" 2
  64              		.thumb
  65              	.LBE56:
  66              	.LBE57:
  67              	.LBE58:
  68              	.LBE59:
  69              		.loc 1 94 0
  70 000c 00F11C05 		add	r5, r0, #28
  71              		.loc 1 96 0
  72 0010 067C     		ldrb	r6, [r0, #16]	@ zero_extendqisi2
  73              		.loc 1 94 0
  74 0012 6561     		str	r5, [r4, #20]
  75              	.LVL2:
  76              	.LBB60:
  77              	.LBB61:
  78              		.file 3 "/home/maciek/ChibiOS_16.1.5/os/rt/include/chschd.h"
  79              		.loc 3 666 0
  80 0014 026A     		ldr	r2, [r0, #32]
  81              	.LBE61:
  82              	.LBE60:
  83              		.loc 1 96 0
  84 0016 0E2E     		cmp	r6, #14
  85              		.loc 1 93 0
  86 0018 6162     		str	r1, [r4, #36]
  87              	.LBB63:
  88              	.LBB62:
  89              		.loc 3 665 0
  90 001a 2560     		str	r5, [r4]
  91              		.loc 3 666 0
  92 001c 6260     		str	r2, [r4, #4]
  93              		.loc 3 667 0
  94 001e 1460     		str	r4, [r2]
  95              		.loc 3 668 0
  96 0020 0462     		str	r4, [r0, #32]
  97              	.LBE62:
  98              	.LBE63:
  99              		.loc 1 96 0
 100 0022 07D0     		beq	.L5
 101              	.LVL3:
 102              	.L2:
 103              		.loc 1 99 0
 104 0024 0C20     		movs	r0, #12
 105 0026 FFF7FEFF 		bl	chSchGoSleepS
 106              	.LVL4:
 107              		.loc 1 100 0
 108 002a 6069     		ldr	r0, [r4, #20]
 109              	.LVL5:
 110              	.LBB64:
 111              	.LBB65:
 112              	.LBB66:
 113              	.LBB67:
 114              	.LBB68:
ARM GAS  /tmp/ccF804Lc.s 			page 3


 115              		.loc 2 548 0
 116 002c 0023     		movs	r3, #0
 117              	@ 548 "/home/maciek/ChibiOS_16.1.5/os/ext/CMSIS/include/core_cmFunc.h" 1
 118 002e 83F31188 		MSR basepri, r3
 119              	@ 0 "" 2
 120              		.thumb
 121              	.LBE68:
 122              	.LBE67:
 123              	.LBE66:
 124              	.LBE65:
 125              	.LBE64:
 126              		.loc 1 104 0
 127 0032 70BD     		pop	{r4, r5, r6, pc}
 128              	.LVL6:
 129              	.L5:
 130              		.loc 1 97 0
 131 0034 FFF7FEFF 		bl	chSchReadyI
 132              	.LVL7:
 133 0038 F4E7     		b	.L2
 134              	.L7:
 135 003a 00BF     		.align	2
 136              	.L6:
 137 003c 00000000 		.word	ch
 138              		.cfi_endproc
 139              	.LFE170:
 140              		.size	chMsgSend, .-chMsgSend
 141              		.section	.text.chMsgWait,"ax",%progbits
 142              		.align	2
 143              		.p2align 4,,15
 144              		.global	chMsgWait
 145              		.thumb
 146              		.thumb_func
 147              		.type	chMsgWait, %function
 148              	chMsgWait:
 149              	.LFB171:
 150              		.loc 1 120 0
 151              		.cfi_startproc
 152              		@ args = 0, pretend = 0, frame = 0
 153              		@ frame_needed = 0, uses_anonymous_args = 0
 154              	.LVL8:
 155 0000 10B5     		push	{r4, lr}
 156              		.cfi_def_cfa_offset 8
 157              		.cfi_offset 4, -8
 158              		.cfi_offset 14, -4
 159              	.LBB69:
 160              	.LBB70:
 161              	.LBB71:
 162              	.LBB72:
 163              		.loc 2 548 0
 164 0002 2023     		movs	r3, #32
 165              	@ 548 "/home/maciek/ChibiOS_16.1.5/os/ext/CMSIS/include/core_cmFunc.h" 1
 166 0004 83F31188 		MSR basepri, r3
 167              	@ 0 "" 2
 168              		.thumb
 169              	.LBE72:
 170              	.LBE71:
 171              	.LBE70:
ARM GAS  /tmp/ccF804Lc.s 			page 4


 172              	.LBE69:
 173              		.loc 1 124 0
 174 0008 0B4C     		ldr	r4, .L12
 175 000a 2269     		ldr	r2, [r4, #16]
 176              	.LVL9:
 177              	.LBB73:
 178              	.LBB74:
 179              		.file 4 "/home/maciek/ChibiOS_16.1.5/os/rt/include/chmsg.h"
 180              		.loc 4 83 0
 181 000c 1346     		mov	r3, r2
 182 000e 53F81C0F 		ldr	r0, [r3, #28]!
 183              	.LBE74:
 184              	.LBE73:
 185              		.loc 1 124 0
 186 0012 9842     		cmp	r0, r3
 187 0014 08D0     		beq	.L11
 188              	.LVL10:
 189              	.L9:
 190              	.LBB75:
 191              	.LBB76:
 192              		.loc 3 674 0
 193 0016 0168     		ldr	r1, [r0]
 194              	.LBE76:
 195              	.LBE75:
 196              		.loc 1 128 0
 197 0018 0D24     		movs	r4, #13
 198              	.LBB78:
 199              	.LBB77:
 200              		.loc 3 674 0
 201 001a D161     		str	r1, [r2, #28]
 202              		.loc 3 675 0
 203 001c 4B60     		str	r3, [r1, #4]
 204              	.LBE77:
 205              	.LBE78:
 206              	.LBB79:
 207              	.LBB80:
 208              	.LBB81:
 209              	.LBB82:
 210              	.LBB83:
 211              		.loc 2 548 0
 212 001e 0022     		movs	r2, #0
 213              	.LBE83:
 214              	.LBE82:
 215              	.LBE81:
 216              	.LBE80:
 217              	.LBE79:
 218              		.loc 1 128 0
 219 0020 0474     		strb	r4, [r0, #16]
 220              	.LVL11:
 221              	.LBB88:
 222              	.LBB87:
 223              	.LBB86:
 224              	.LBB85:
 225              	.LBB84:
 226              		.loc 2 548 0
 227              	@ 548 "/home/maciek/ChibiOS_16.1.5/os/ext/CMSIS/include/core_cmFunc.h" 1
 228 0022 82F31188 		MSR basepri, r2
ARM GAS  /tmp/ccF804Lc.s 			page 5


 229              	@ 0 "" 2
 230              		.thumb
 231              	.LBE84:
 232              	.LBE85:
 233              	.LBE86:
 234              	.LBE87:
 235              	.LBE88:
 236              		.loc 1 132 0
 237 0026 10BD     		pop	{r4, pc}
 238              	.LVL12:
 239              	.L11:
 240              		.loc 1 125 0
 241 0028 0E20     		movs	r0, #14
 242 002a FFF7FEFF 		bl	chSchGoSleepS
 243              	.LVL13:
 244 002e 2269     		ldr	r2, [r4, #16]
 245 0030 D069     		ldr	r0, [r2, #28]
 246 0032 02F11C03 		add	r3, r2, #28
 247 0036 EEE7     		b	.L9
 248              	.L13:
 249              		.align	2
 250              	.L12:
 251 0038 00000000 		.word	ch
 252              		.cfi_endproc
 253              	.LFE171:
 254              		.size	chMsgWait, .-chMsgWait
 255              		.section	.text.chMsgRelease,"ax",%progbits
 256              		.align	2
 257              		.p2align 4,,15
 258              		.global	chMsgRelease
 259              		.thumb
 260              		.thumb_func
 261              		.type	chMsgRelease, %function
 262              	chMsgRelease:
 263              	.LFB172:
 264              		.loc 1 144 0
 265              		.cfi_startproc
 266              		@ args = 0, pretend = 0, frame = 0
 267              		@ frame_needed = 0, uses_anonymous_args = 0
 268              	.LVL14:
 269 0000 08B5     		push	{r3, lr}
 270              		.cfi_def_cfa_offset 8
 271              		.cfi_offset 3, -8
 272              		.cfi_offset 14, -4
 273              	.LBB89:
 274              	.LBB90:
 275              	.LBB91:
 276              	.LBB92:
 277              		.loc 2 548 0
 278 0002 2023     		movs	r3, #32
 279              	@ 548 "/home/maciek/ChibiOS_16.1.5/os/ext/CMSIS/include/core_cmFunc.h" 1
 280 0004 83F31188 		MSR basepri, r3
 281              	@ 0 "" 2
 282              	.LVL15:
 283              		.thumb
 284              	.LBE92:
 285              	.LBE91:
ARM GAS  /tmp/ccF804Lc.s 			page 6


 286              	.LBE90:
 287              	.LBE89:
 288              	.LBB93:
 289              	.LBB94:
 290              		.loc 4 115 0
 291 0008 FFF7FEFF 		bl	chSchWakeupS
 292              	.LVL16:
 293              	.LBE94:
 294              	.LBE93:
 295              	.LBB95:
 296              	.LBB96:
 297              	.LBB97:
 298              	.LBB98:
 299              	.LBB99:
 300              		.loc 2 548 0
 301 000c 0023     		movs	r3, #0
 302              	@ 548 "/home/maciek/ChibiOS_16.1.5/os/ext/CMSIS/include/core_cmFunc.h" 1
 303 000e 83F31188 		MSR basepri, r3
 304              	@ 0 "" 2
 305              		.thumb
 306 0012 08BD     		pop	{r3, pc}
 307              	.LBE99:
 308              	.LBE98:
 309              	.LBE97:
 310              	.LBE96:
 311              	.LBE95:
 312              		.cfi_endproc
 313              	.LFE172:
 314              		.size	chMsgRelease, .-chMsgRelease
 315              		.text
 316              	.Letext0:
 317              		.file 5 "/opt/stm32/gcc/gcc-arm-none-eabi-4_9-2015q2/arm-none-eabi/include/machine/_default_types.
 318              		.file 6 "/opt/stm32/gcc/gcc-arm-none-eabi-4_9-2015q2/arm-none-eabi/include/sys/_stdint.h"
 319              		.file 7 "/home/maciek/ChibiOS_16.1.5/os/rt/ports/ARMCMx/compilers/GCC/chtypes.h"
 320              		.file 8 "/home/maciek/ChibiOS_16.1.5/os/rt/include/chsystypes.h"
 321              		.file 9 "/home/maciek/ChibiOS_16.1.5/os/rt/ports/ARMCMx/chcore.h"
 322              		.file 10 "/home/maciek/ChibiOS_16.1.5/os/rt/ports/ARMCMx/chcore_v7m.h"
 323              		.file 11 "/home/maciek/ChibiOS_16.1.5/os/rt/include/chtm.h"
 324              		.file 12 "/home/maciek/ChibiOS_16.1.5/os/rt/include/chsem.h"
 325              		.file 13 "/home/maciek/ChibiOS_16.1.5/os/rt/include/chmtx.h"
 326              		.file 14 "/home/maciek/ChibiOS_16.1.5/os/rt/include/chsys.h"
 327              		.file 15 "/home/maciek/ChibiOS_16.1.5/os/ext/CMSIS/include/core_cm3.h"
 328              		.section	.debug_info,"",%progbits
 329              	.Ldebug_info0:
 330 0000 7E0A0000 		.4byte	0xa7e
 331 0004 0400     		.2byte	0x4
 332 0006 00000000 		.4byte	.Ldebug_abbrev0
 333 000a 04       		.byte	0x4
 334 000b 01       		.uleb128 0x1
 335 000c D5020000 		.4byte	.LASF113
 336 0010 01       		.byte	0x1
 337 0011 72020000 		.4byte	.LASF114
 338 0015 60000000 		.4byte	.Ldebug_ranges0+0x60
 339 0019 00000000 		.4byte	0
 340 001d 00000000 		.4byte	.Ldebug_line0
 341 0021 02       		.uleb128 0x2
 342 0022 04       		.byte	0x4
ARM GAS  /tmp/ccF804Lc.s 			page 7


 343 0023 05       		.byte	0x5
 344 0024 696E7400 		.ascii	"int\000"
 345 0028 03       		.uleb128 0x3
 346 0029 04       		.byte	0x4
 347 002a 07       		.byte	0x7
 348 002b 87000000 		.4byte	.LASF0
 349 002f 03       		.uleb128 0x3
 350 0030 01       		.byte	0x1
 351 0031 06       		.byte	0x6
 352 0032 82050000 		.4byte	.LASF1
 353 0036 04       		.uleb128 0x4
 354 0037 AA040000 		.4byte	.LASF4
 355 003b 05       		.byte	0x5
 356 003c 1D       		.byte	0x1d
 357 003d 41000000 		.4byte	0x41
 358 0041 03       		.uleb128 0x3
 359 0042 01       		.byte	0x1
 360 0043 08       		.byte	0x8
 361 0044 10050000 		.4byte	.LASF2
 362 0048 03       		.uleb128 0x3
 363 0049 02       		.byte	0x2
 364 004a 05       		.byte	0x5
 365 004b 20040000 		.4byte	.LASF3
 366 004f 04       		.uleb128 0x4
 367 0050 9C010000 		.4byte	.LASF5
 368 0054 05       		.byte	0x5
 369 0055 2B       		.byte	0x2b
 370 0056 5A000000 		.4byte	0x5a
 371 005a 03       		.uleb128 0x3
 372 005b 02       		.byte	0x2
 373 005c 07       		.byte	0x7
 374 005d 8E050000 		.4byte	.LASF6
 375 0061 04       		.uleb128 0x4
 376 0062 A3000000 		.4byte	.LASF7
 377 0066 05       		.byte	0x5
 378 0067 3F       		.byte	0x3f
 379 0068 6C000000 		.4byte	0x6c
 380 006c 03       		.uleb128 0x3
 381 006d 04       		.byte	0x4
 382 006e 05       		.byte	0x5
 383 006f 47040000 		.4byte	.LASF8
 384 0073 04       		.uleb128 0x4
 385 0074 1E050000 		.4byte	.LASF9
 386 0078 05       		.byte	0x5
 387 0079 41       		.byte	0x41
 388 007a 7E000000 		.4byte	0x7e
 389 007e 03       		.uleb128 0x3
 390 007f 04       		.byte	0x4
 391 0080 07       		.byte	0x7
 392 0081 DA040000 		.4byte	.LASF10
 393 0085 03       		.uleb128 0x3
 394 0086 08       		.byte	0x8
 395 0087 05       		.byte	0x5
 396 0088 AF020000 		.4byte	.LASF11
 397 008c 04       		.uleb128 0x4
 398 008d FC010000 		.4byte	.LASF12
 399 0091 05       		.byte	0x5
ARM GAS  /tmp/ccF804Lc.s 			page 8


 400 0092 5B       		.byte	0x5b
 401 0093 97000000 		.4byte	0x97
 402 0097 03       		.uleb128 0x3
 403 0098 08       		.byte	0x8
 404 0099 07       		.byte	0x7
 405 009a 85010000 		.4byte	.LASF13
 406 009e 04       		.uleb128 0x4
 407 009f 4E020000 		.4byte	.LASF14
 408 00a3 06       		.byte	0x6
 409 00a4 14       		.byte	0x14
 410 00a5 36000000 		.4byte	0x36
 411 00a9 04       		.uleb128 0x4
 412 00aa 04040000 		.4byte	.LASF15
 413 00ae 06       		.byte	0x6
 414 00af 1A       		.byte	0x1a
 415 00b0 4F000000 		.4byte	0x4f
 416 00b4 04       		.uleb128 0x4
 417 00b5 F9040000 		.4byte	.LASF16
 418 00b9 06       		.byte	0x6
 419 00ba 1F       		.byte	0x1f
 420 00bb 61000000 		.4byte	0x61
 421 00bf 04       		.uleb128 0x4
 422 00c0 3C010000 		.4byte	.LASF17
 423 00c4 06       		.byte	0x6
 424 00c5 20       		.byte	0x20
 425 00c6 73000000 		.4byte	0x73
 426 00ca 04       		.uleb128 0x4
 427 00cb 95040000 		.4byte	.LASF18
 428 00cf 06       		.byte	0x6
 429 00d0 26       		.byte	0x26
 430 00d1 8C000000 		.4byte	0x8c
 431 00d5 04       		.uleb128 0x4
 432 00d6 0D040000 		.4byte	.LASF19
 433 00da 07       		.byte	0x7
 434 00db 39       		.byte	0x39
 435 00dc BF000000 		.4byte	0xbf
 436 00e0 04       		.uleb128 0x4
 437 00e1 F1030000 		.4byte	.LASF20
 438 00e5 07       		.byte	0x7
 439 00e6 3C       		.byte	0x3c
 440 00e7 9E000000 		.4byte	0x9e
 441 00eb 04       		.uleb128 0x4
 442 00ec 3D020000 		.4byte	.LASF21
 443 00f0 07       		.byte	0x7
 444 00f1 3D       		.byte	0x3d
 445 00f2 9E000000 		.4byte	0x9e
 446 00f6 04       		.uleb128 0x4
 447 00f7 D2040000 		.4byte	.LASF22
 448 00fb 07       		.byte	0x7
 449 00fc 3E       		.byte	0x3e
 450 00fd 9E000000 		.4byte	0x9e
 451 0101 04       		.uleb128 0x4
 452 0102 6C010000 		.4byte	.LASF23
 453 0106 07       		.byte	0x7
 454 0107 40       		.byte	0x40
 455 0108 BF000000 		.4byte	0xbf
 456 010c 04       		.uleb128 0x4
ARM GAS  /tmp/ccF804Lc.s 			page 9


 457 010d C5020000 		.4byte	.LASF24
 458 0111 07       		.byte	0x7
 459 0112 41       		.byte	0x41
 460 0113 B4000000 		.4byte	0xb4
 461 0117 04       		.uleb128 0x4
 462 0118 45010000 		.4byte	.LASF25
 463 011c 07       		.byte	0x7
 464 011d 43       		.byte	0x43
 465 011e BF000000 		.4byte	0xbf
 466 0122 04       		.uleb128 0x4
 467 0123 A7010000 		.4byte	.LASF26
 468 0127 07       		.byte	0x7
 469 0128 45       		.byte	0x45
 470 0129 B4000000 		.4byte	0xb4
 471 012d 04       		.uleb128 0x4
 472 012e 57000000 		.4byte	.LASF27
 473 0132 08       		.byte	0x8
 474 0133 35       		.byte	0x35
 475 0134 A9000000 		.4byte	0xa9
 476 0138 04       		.uleb128 0x4
 477 0139 D6010000 		.4byte	.LASF28
 478 013d 08       		.byte	0x8
 479 013e 3F       		.byte	0x3f
 480 013f 43010000 		.4byte	0x143
 481 0143 05       		.uleb128 0x5
 482 0144 68020000 		.4byte	.LASF45
 483 0148 38       		.byte	0x38
 484 0149 03       		.byte	0x3
 485 014a C2       		.byte	0xc2
 486 014b 0C020000 		.4byte	0x20c
 487 014f 06       		.uleb128 0x6
 488 0150 8E040000 		.4byte	.LASF29
 489 0154 03       		.byte	0x3
 490 0155 C3       		.byte	0xc3
 491 0156 17020000 		.4byte	0x217
 492 015a 00       		.byte	0
 493 015b 06       		.uleb128 0x6
 494 015c C2040000 		.4byte	.LASF30
 495 0160 03       		.byte	0x3
 496 0161 C5       		.byte	0xc5
 497 0162 17020000 		.4byte	0x217
 498 0166 04       		.byte	0x4
 499 0167 06       		.uleb128 0x6
 500 0168 50000000 		.4byte	.LASF31
 501 016c 03       		.byte	0x3
 502 016d C7       		.byte	0xc7
 503 016e 01010000 		.4byte	0x101
 504 0172 08       		.byte	0x8
 505 0173 06       		.uleb128 0x6
 506 0174 9E040000 		.4byte	.LASF32
 507 0178 03       		.byte	0x3
 508 0179 C8       		.byte	0xc8
 509 017a 2D040000 		.4byte	0x42d
 510 017e 0C       		.byte	0xc
 511 017f 06       		.uleb128 0x6
 512 0180 46020000 		.4byte	.LASF33
 513 0184 03       		.byte	0x3
ARM GAS  /tmp/ccF804Lc.s 			page 10


 514 0185 DD       		.byte	0xdd
 515 0186 EB000000 		.4byte	0xeb
 516 018a 10       		.byte	0x10
 517 018b 06       		.uleb128 0x6
 518 018c B7030000 		.4byte	.LASF34
 519 0190 03       		.byte	0x3
 520 0191 E1       		.byte	0xe1
 521 0192 E0000000 		.4byte	0xe0
 522 0196 11       		.byte	0x11
 523 0197 06       		.uleb128 0x6
 524 0198 3F050000 		.4byte	.LASF35
 525 019c 03       		.byte	0x3
 526 019d E6       		.byte	0xe6
 527 019e F6000000 		.4byte	0xf6
 528 01a2 12       		.byte	0x12
 529 01a3 07       		.uleb128 0x7
 530 01a4 705F7500 		.ascii	"p_u\000"
 531 01a8 03       		.byte	0x3
 532 01a9 3101     		.2byte	0x131
 533 01ab E7040000 		.4byte	0x4e7
 534 01af 14       		.byte	0x14
 535 01b0 08       		.uleb128 0x8
 536 01b1 20000000 		.4byte	.LASF36
 537 01b5 03       		.byte	0x3
 538 01b6 3601     		.2byte	0x136
 539 01b8 1D020000 		.4byte	0x21d
 540 01bc 18       		.byte	0x18
 541 01bd 08       		.uleb128 0x8
 542 01be 7C000000 		.4byte	.LASF37
 543 01c2 03       		.byte	0x3
 544 01c3 3C01     		.2byte	0x13c
 545 01c5 41020000 		.4byte	0x241
 546 01c9 1C       		.byte	0x1c
 547 01ca 08       		.uleb128 0x8
 548 01cb EB030000 		.4byte	.LASF38
 549 01cf 03       		.byte	0x3
 550 01d0 4001     		.2byte	0x140
 551 01d2 0C010000 		.4byte	0x10c
 552 01d6 24       		.byte	0x24
 553 01d7 08       		.uleb128 0x8
 554 01d8 34040000 		.4byte	.LASF39
 555 01dc 03       		.byte	0x3
 556 01dd 4601     		.2byte	0x146
 557 01df 17010000 		.4byte	0x117
 558 01e3 28       		.byte	0x28
 559 01e4 08       		.uleb128 0x8
 560 01e5 5E020000 		.4byte	.LASF40
 561 01e9 03       		.byte	0x3
 562 01ea 4D01     		.2byte	0x14d
 563 01ec A6050000 		.4byte	0x5a6
 564 01f0 2C       		.byte	0x2c
 565 01f1 08       		.uleb128 0x8
 566 01f2 15040000 		.4byte	.LASF41
 567 01f6 03       		.byte	0x3
 568 01f7 5101     		.2byte	0x151
 569 01f9 01010000 		.4byte	0x101
 570 01fd 30       		.byte	0x30
ARM GAS  /tmp/ccF804Lc.s 			page 11


 571 01fe 08       		.uleb128 0x8
 572 01ff 56020000 		.4byte	.LASF42
 573 0203 03       		.byte	0x3
 574 0204 5801     		.2byte	0x158
 575 0206 DA020000 		.4byte	0x2da
 576 020a 34       		.byte	0x34
 577 020b 00       		.byte	0
 578 020c 04       		.uleb128 0x4
 579 020d 2A020000 		.4byte	.LASF43
 580 0211 08       		.byte	0x8
 581 0212 44       		.byte	0x44
 582 0213 17020000 		.4byte	0x217
 583 0217 09       		.uleb128 0x9
 584 0218 04       		.byte	0x4
 585 0219 38010000 		.4byte	0x138
 586 021d 04       		.uleb128 0x4
 587 021e 94000000 		.4byte	.LASF44
 588 0222 08       		.byte	0x8
 589 0223 49       		.byte	0x49
 590 0224 28020000 		.4byte	0x228
 591 0228 05       		.uleb128 0x5
 592 0229 00000000 		.4byte	.LASF46
 593 022d 04       		.byte	0x4
 594 022e 03       		.byte	0x3
 595 022f B0       		.byte	0xb0
 596 0230 41020000 		.4byte	0x241
 597 0234 06       		.uleb128 0x6
 598 0235 8E040000 		.4byte	.LASF29
 599 0239 03       		.byte	0x3
 600 023a B1       		.byte	0xb1
 601 023b 17020000 		.4byte	0x217
 602 023f 00       		.byte	0
 603 0240 00       		.byte	0
 604 0241 04       		.uleb128 0x4
 605 0242 10000000 		.4byte	.LASF47
 606 0246 08       		.byte	0x8
 607 0247 50       		.byte	0x50
 608 0248 4C020000 		.4byte	0x24c
 609 024c 05       		.uleb128 0x5
 610 024d F3000000 		.4byte	.LASF48
 611 0251 08       		.byte	0x8
 612 0252 03       		.byte	0x3
 613 0253 B7       		.byte	0xb7
 614 0254 71020000 		.4byte	0x271
 615 0258 06       		.uleb128 0x6
 616 0259 8E040000 		.4byte	.LASF29
 617 025d 03       		.byte	0x3
 618 025e B8       		.byte	0xb8
 619 025f 17020000 		.4byte	0x217
 620 0263 00       		.byte	0
 621 0264 06       		.uleb128 0x6
 622 0265 C2040000 		.4byte	.LASF30
 623 0269 03       		.byte	0x3
 624 026a B9       		.byte	0xb9
 625 026b 17020000 		.4byte	0x217
 626 026f 04       		.byte	0x4
 627 0270 00       		.byte	0
ARM GAS  /tmp/ccF804Lc.s 			page 12


 628 0271 04       		.uleb128 0x4
 629 0272 EC040000 		.4byte	.LASF49
 630 0276 08       		.byte	0x8
 631 0277 57       		.byte	0x57
 632 0278 7C020000 		.4byte	0x27c
 633 027c 0A       		.uleb128 0xa
 634 027d CF000000 		.4byte	.LASF50
 635 0281 14       		.byte	0x14
 636 0282 03       		.byte	0x3
 637 0283 9001     		.2byte	0x190
 638 0285 BE020000 		.4byte	0x2be
 639 0289 08       		.uleb128 0x8
 640 028a BD020000 		.4byte	.LASF51
 641 028e 03       		.byte	0x3
 642 028f 9101     		.2byte	0x191
 643 0291 41020000 		.4byte	0x241
 644 0295 00       		.byte	0
 645 0296 08       		.uleb128 0x8
 646 0297 51010000 		.4byte	.LASF52
 647 029b 03       		.byte	0x3
 648 029c 9201     		.2byte	0x192
 649 029e 01010000 		.4byte	0x101
 650 02a2 08       		.byte	0x8
 651 02a3 08       		.uleb128 0x8
 652 02a4 A1050000 		.4byte	.LASF53
 653 02a8 03       		.byte	0x3
 654 02a9 9401     		.2byte	0x194
 655 02ab 2D040000 		.4byte	0x42d
 656 02af 0C       		.byte	0xc
 657 02b0 08       		.uleb128 0x8
 658 02b1 2A040000 		.4byte	.LASF54
 659 02b5 03       		.byte	0x3
 660 02b6 9B01     		.2byte	0x19b
 661 02b8 17020000 		.4byte	0x217
 662 02bc 10       		.byte	0x10
 663 02bd 00       		.byte	0
 664 02be 04       		.uleb128 0x4
 665 02bf 04010000 		.4byte	.LASF55
 666 02c3 08       		.byte	0x8
 667 02c4 5C       		.byte	0x5c
 668 02c5 C9020000 		.4byte	0x2c9
 669 02c9 09       		.uleb128 0x9
 670 02ca 04       		.byte	0x4
 671 02cb CF020000 		.4byte	0x2cf
 672 02cf 0B       		.uleb128 0xb
 673 02d0 DA020000 		.4byte	0x2da
 674 02d4 0C       		.uleb128 0xc
 675 02d5 DA020000 		.4byte	0x2da
 676 02d9 00       		.byte	0
 677 02da 0D       		.uleb128 0xd
 678 02db 04       		.byte	0x4
 679 02dc 04       		.uleb128 0x4
 680 02dd BF030000 		.4byte	.LASF56
 681 02e1 08       		.byte	0x8
 682 02e2 61       		.byte	0x61
 683 02e3 E7020000 		.4byte	0x2e7
 684 02e7 0A       		.uleb128 0xa
ARM GAS  /tmp/ccF804Lc.s 			page 13


 685 02e8 74010000 		.4byte	.LASF57
 686 02ec 14       		.byte	0x14
 687 02ed 03       		.byte	0x3
 688 02ee 6B01     		.2byte	0x16b
 689 02f0 36030000 		.4byte	0x336
 690 02f4 08       		.uleb128 0x8
 691 02f5 61050000 		.4byte	.LASF58
 692 02f9 03       		.byte	0x3
 693 02fa 6C01     		.2byte	0x16c
 694 02fc AC050000 		.4byte	0x5ac
 695 0300 00       		.byte	0
 696 0301 08       		.uleb128 0x8
 697 0302 CF050000 		.4byte	.LASF59
 698 0306 03       		.byte	0x3
 699 0307 6D01     		.2byte	0x16d
 700 0309 AC050000 		.4byte	0x5ac
 701 030d 04       		.byte	0x4
 702 030e 08       		.uleb128 0x8
 703 030f 21020000 		.4byte	.LASF60
 704 0313 03       		.byte	0x3
 705 0314 6E01     		.2byte	0x16e
 706 0316 2D010000 		.4byte	0x12d
 707 031a 08       		.byte	0x8
 708 031b 08       		.uleb128 0x8
 709 031c BB050000 		.4byte	.LASF61
 710 0320 03       		.byte	0x3
 711 0321 6F01     		.2byte	0x16f
 712 0323 BE020000 		.4byte	0x2be
 713 0327 0C       		.byte	0xc
 714 0328 08       		.uleb128 0x8
 715 0329 58010000 		.4byte	.LASF62
 716 032d 03       		.byte	0x3
 717 032e 7101     		.2byte	0x171
 718 0330 DA020000 		.4byte	0x2da
 719 0334 10       		.byte	0x10
 720 0335 00       		.byte	0
 721 0336 04       		.uleb128 0x4
 722 0337 29050000 		.4byte	.LASF63
 723 033b 08       		.byte	0x8
 724 033c 66       		.byte	0x66
 725 033d 41030000 		.4byte	0x341
 726 0341 0A       		.uleb128 0xa
 727 0342 BF010000 		.4byte	.LASF64
 728 0346 0C       		.byte	0xc
 729 0347 03       		.byte	0x3
 730 0348 7B01     		.2byte	0x17b
 731 034a 83030000 		.4byte	0x383
 732 034e 08       		.uleb128 0x8
 733 034f 61050000 		.4byte	.LASF58
 734 0353 03       		.byte	0x3
 735 0354 7C01     		.2byte	0x17c
 736 0356 AC050000 		.4byte	0x5ac
 737 035a 00       		.byte	0
 738 035b 08       		.uleb128 0x8
 739 035c CF050000 		.4byte	.LASF59
 740 0360 03       		.byte	0x3
 741 0361 7E01     		.2byte	0x17e
ARM GAS  /tmp/ccF804Lc.s 			page 14


 742 0363 AC050000 		.4byte	0x5ac
 743 0367 04       		.byte	0x4
 744 0368 08       		.uleb128 0x8
 745 0369 21020000 		.4byte	.LASF60
 746 036d 03       		.byte	0x3
 747 036e 8001     		.2byte	0x180
 748 0370 2D010000 		.4byte	0x12d
 749 0374 08       		.byte	0x8
 750 0375 08       		.uleb128 0x8
 751 0376 71000000 		.4byte	.LASF65
 752 037a 03       		.byte	0x3
 753 037b 8201     		.2byte	0x182
 754 037d B2050000 		.4byte	0x5b2
 755 0381 0A       		.byte	0xa
 756 0382 00       		.byte	0
 757 0383 04       		.uleb128 0x4
 758 0384 A0020000 		.4byte	.LASF66
 759 0388 08       		.byte	0x8
 760 0389 6B       		.byte	0x6b
 761 038a 8E030000 		.4byte	0x38e
 762 038e 0A       		.uleb128 0xa
 763 038f 2C010000 		.4byte	.LASF67
 764 0393 04       		.byte	0x4
 765 0394 03       		.byte	0x3
 766 0395 A201     		.2byte	0x1a2
 767 0397 A9030000 		.4byte	0x3a9
 768 039b 08       		.uleb128 0x8
 769 039c E1030000 		.4byte	.LASF68
 770 03a0 03       		.byte	0x3
 771 03a1 AA01     		.2byte	0x1aa
 772 03a3 B7050000 		.4byte	0x5b7
 773 03a7 00       		.byte	0
 774 03a8 00       		.byte	0
 775 03a9 04       		.uleb128 0x4
 776 03aa 69050000 		.4byte	.LASF69
 777 03ae 08       		.byte	0x8
 778 03af 70       		.byte	0x70
 779 03b0 B4030000 		.4byte	0x3b4
 780 03b4 0E       		.uleb128 0xe
 781 03b5 69040000 		.4byte	.LASF70
 782 03b9 3001     		.2byte	0x130
 783 03bb 03       		.byte	0x3
 784 03bc C201     		.2byte	0x1c2
 785 03be 10040000 		.4byte	0x410
 786 03c2 08       		.uleb128 0x8
 787 03c3 A4040000 		.4byte	.LASF71
 788 03c7 03       		.byte	0x3
 789 03c8 C601     		.2byte	0x1c6
 790 03ca 71020000 		.4byte	0x271
 791 03ce 00       		.byte	0
 792 03cf 08       		.uleb128 0x8
 793 03d0 C8000000 		.4byte	.LASF72
 794 03d4 03       		.byte	0x3
 795 03d5 CA01     		.2byte	0x1ca
 796 03d7 36030000 		.4byte	0x336
 797 03db 14       		.byte	0x14
 798 03dc 07       		.uleb128 0x7
ARM GAS  /tmp/ccF804Lc.s 			page 15


 799 03dd 64626700 		.ascii	"dbg\000"
 800 03e1 03       		.byte	0x3
 801 03e2 CE01     		.2byte	0x1ce
 802 03e4 83030000 		.4byte	0x383
 803 03e8 20       		.byte	0x20
 804 03e9 08       		.uleb128 0x8
 805 03ea F9030000 		.4byte	.LASF73
 806 03ee 03       		.byte	0x3
 807 03ef D201     		.2byte	0x1d2
 808 03f1 38010000 		.4byte	0x138
 809 03f5 24       		.byte	0x24
 810 03f6 07       		.uleb128 0x7
 811 03f7 746D00   		.ascii	"tm\000"
 812 03fa 03       		.byte	0x3
 813 03fb D701     		.2byte	0x1d7
 814 03fd DC040000 		.4byte	0x4dc
 815 0401 5C       		.byte	0x5c
 816 0402 08       		.uleb128 0x8
 817 0403 DD000000 		.4byte	.LASF74
 818 0407 03       		.byte	0x3
 819 0408 E301     		.2byte	0x1e3
 820 040a CE050000 		.4byte	0x5ce
 821 040e 60       		.byte	0x60
 822 040f 00       		.byte	0
 823 0410 03       		.uleb128 0x3
 824 0411 04       		.byte	0x4
 825 0412 07       		.byte	0x7
 826 0413 C9040000 		.4byte	.LASF75
 827 0417 04       		.uleb128 0x4
 828 0418 47000000 		.4byte	.LASF76
 829 041c 09       		.byte	0x9
 830 041d 65       		.byte	0x65
 831 041e DA020000 		.4byte	0x2da
 832 0422 04       		.uleb128 0x4
 833 0423 A7050000 		.4byte	.LASF77
 834 0427 09       		.byte	0x9
 835 0428 6D       		.byte	0x6d
 836 0429 CA000000 		.4byte	0xca
 837 042d 05       		.uleb128 0x5
 838 042e AF030000 		.4byte	.LASF78
 839 0432 04       		.byte	0x4
 840 0433 09       		.byte	0x9
 841 0434 89       		.byte	0x89
 842 0435 46040000 		.4byte	0x446
 843 0439 0F       		.uleb128 0xf
 844 043a 72313300 		.ascii	"r13\000"
 845 043e 09       		.byte	0x9
 846 043f 8A       		.byte	0x8a
 847 0440 C1040000 		.4byte	0x4c1
 848 0444 00       		.byte	0
 849 0445 00       		.byte	0
 850 0446 05       		.uleb128 0x5
 851 0447 50040000 		.4byte	.LASF79
 852 044b 24       		.byte	0x24
 853 044c 0A       		.byte	0xa
 854 044d FD       		.byte	0xfd
 855 044e C1040000 		.4byte	0x4c1
ARM GAS  /tmp/ccF804Lc.s 			page 16


 856 0452 07       		.uleb128 0x7
 857 0453 723400   		.ascii	"r4\000"
 858 0456 0A       		.byte	0xa
 859 0457 1001     		.2byte	0x110
 860 0459 17040000 		.4byte	0x417
 861 045d 00       		.byte	0
 862 045e 07       		.uleb128 0x7
 863 045f 723500   		.ascii	"r5\000"
 864 0462 0A       		.byte	0xa
 865 0463 1101     		.2byte	0x111
 866 0465 17040000 		.4byte	0x417
 867 0469 04       		.byte	0x4
 868 046a 07       		.uleb128 0x7
 869 046b 723600   		.ascii	"r6\000"
 870 046e 0A       		.byte	0xa
 871 046f 1201     		.2byte	0x112
 872 0471 17040000 		.4byte	0x417
 873 0475 08       		.byte	0x8
 874 0476 07       		.uleb128 0x7
 875 0477 723700   		.ascii	"r7\000"
 876 047a 0A       		.byte	0xa
 877 047b 1301     		.2byte	0x113
 878 047d 17040000 		.4byte	0x417
 879 0481 0C       		.byte	0xc
 880 0482 07       		.uleb128 0x7
 881 0483 723800   		.ascii	"r8\000"
 882 0486 0A       		.byte	0xa
 883 0487 1401     		.2byte	0x114
 884 0489 17040000 		.4byte	0x417
 885 048d 10       		.byte	0x10
 886 048e 07       		.uleb128 0x7
 887 048f 723900   		.ascii	"r9\000"
 888 0492 0A       		.byte	0xa
 889 0493 1501     		.2byte	0x115
 890 0495 17040000 		.4byte	0x417
 891 0499 14       		.byte	0x14
 892 049a 07       		.uleb128 0x7
 893 049b 72313000 		.ascii	"r10\000"
 894 049f 0A       		.byte	0xa
 895 04a0 1601     		.2byte	0x116
 896 04a2 17040000 		.4byte	0x417
 897 04a6 18       		.byte	0x18
 898 04a7 07       		.uleb128 0x7
 899 04a8 72313100 		.ascii	"r11\000"
 900 04ac 0A       		.byte	0xa
 901 04ad 1701     		.2byte	0x117
 902 04af 17040000 		.4byte	0x417
 903 04b3 1C       		.byte	0x1c
 904 04b4 07       		.uleb128 0x7
 905 04b5 6C7200   		.ascii	"lr\000"
 906 04b8 0A       		.byte	0xa
 907 04b9 1801     		.2byte	0x118
 908 04bb 17040000 		.4byte	0x417
 909 04bf 20       		.byte	0x20
 910 04c0 00       		.byte	0
 911 04c1 09       		.uleb128 0x9
 912 04c2 04       		.byte	0x4
ARM GAS  /tmp/ccF804Lc.s 			page 17


 913 04c3 46040000 		.4byte	0x446
 914 04c7 10       		.uleb128 0x10
 915 04c8 04       		.byte	0x4
 916 04c9 0B       		.byte	0xb
 917 04ca 38       		.byte	0x38
 918 04cb DC040000 		.4byte	0x4dc
 919 04cf 06       		.uleb128 0x6
 920 04d0 E6010000 		.4byte	.LASF80
 921 04d4 0B       		.byte	0xb
 922 04d5 3C       		.byte	0x3c
 923 04d6 D5000000 		.4byte	0xd5
 924 04da 00       		.byte	0
 925 04db 00       		.byte	0
 926 04dc 04       		.uleb128 0x4
 927 04dd 31000000 		.4byte	.LASF81
 928 04e1 0B       		.byte	0xb
 929 04e2 3D       		.byte	0x3d
 930 04e3 C7040000 		.4byte	0x4c7
 931 04e7 11       		.uleb128 0x11
 932 04e8 04       		.byte	0x4
 933 04e9 03       		.byte	0x3
 934 04ea FA       		.byte	0xfa
 935 04eb 44050000 		.4byte	0x544
 936 04ef 12       		.uleb128 0x12
 937 04f0 DF010000 		.4byte	.LASF82
 938 04f4 03       		.byte	0x3
 939 04f5 0101     		.2byte	0x101
 940 04f7 0C010000 		.4byte	0x10c
 941 04fb 12       		.uleb128 0x12
 942 04fc D7050000 		.4byte	.LASF83
 943 0500 03       		.byte	0x3
 944 0501 0801     		.2byte	0x108
 945 0503 0C010000 		.4byte	0x10c
 946 0507 12       		.uleb128 0x12
 947 0508 B7000000 		.4byte	.LASF84
 948 050c 03       		.byte	0x3
 949 050d 0F01     		.2byte	0x10f
 950 050f DA020000 		.4byte	0x2da
 951 0513 12       		.uleb128 0x12
 952 0514 75050000 		.4byte	.LASF85
 953 0518 03       		.byte	0x3
 954 0519 1601     		.2byte	0x116
 955 051b 44050000 		.4byte	0x544
 956 051f 12       		.uleb128 0x12
 957 0520 01050000 		.4byte	.LASF86
 958 0524 03       		.byte	0x3
 959 0525 1E01     		.2byte	0x11e
 960 0527 6F050000 		.4byte	0x56f
 961 052b 12       		.uleb128 0x12
 962 052c 2A000000 		.4byte	.LASF87
 963 0530 03       		.byte	0x3
 964 0531 2701     		.2byte	0x127
 965 0533 A6050000 		.4byte	0x5a6
 966 0537 12       		.uleb128 0x12
 967 0538 EC000000 		.4byte	.LASF88
 968 053c 03       		.byte	0x3
 969 053d 2F01     		.2byte	0x12f
ARM GAS  /tmp/ccF804Lc.s 			page 18


 970 053f 17010000 		.4byte	0x117
 971 0543 00       		.byte	0
 972 0544 09       		.uleb128 0x9
 973 0545 04       		.byte	0x4
 974 0546 0C020000 		.4byte	0x20c
 975 054a 05       		.uleb128 0x5
 976 054b 5F010000 		.4byte	.LASF89
 977 054f 0C       		.byte	0xc
 978 0550 0C       		.byte	0xc
 979 0551 34       		.byte	0x34
 980 0552 6F050000 		.4byte	0x56f
 981 0556 06       		.uleb128 0x6
 982 0557 69000000 		.4byte	.LASF90
 983 055b 0C       		.byte	0xc
 984 055c 35       		.byte	0x35
 985 055d 41020000 		.4byte	0x241
 986 0561 00       		.byte	0
 987 0562 06       		.uleb128 0x6
 988 0563 26010000 		.4byte	.LASF91
 989 0567 0C       		.byte	0xc
 990 0568 37       		.byte	0x37
 991 0569 22010000 		.4byte	0x122
 992 056d 08       		.byte	0x8
 993 056e 00       		.byte	0
 994 056f 09       		.uleb128 0x9
 995 0570 04       		.byte	0x4
 996 0571 4A050000 		.4byte	0x54a
 997 0575 05       		.uleb128 0x5
 998 0576 F3010000 		.4byte	.LASF92
 999 057a 10       		.byte	0x10
 1000 057b 0D       		.byte	0xd
 1001 057c 39       		.byte	0x39
 1002 057d A6050000 		.4byte	0x5a6
 1003 0581 06       		.uleb128 0x6
 1004 0582 3F040000 		.4byte	.LASF93
 1005 0586 0D       		.byte	0xd
 1006 0587 3A       		.byte	0x3a
 1007 0588 41020000 		.4byte	0x241
 1008 058c 00       		.byte	0
 1009 058d 06       		.uleb128 0x6
 1010 058e 61000000 		.4byte	.LASF94
 1011 0592 0D       		.byte	0xd
 1012 0593 3C       		.byte	0x3c
 1013 0594 17020000 		.4byte	0x217
 1014 0598 08       		.byte	0x8
 1015 0599 06       		.uleb128 0x6
 1016 059a 7B050000 		.4byte	.LASF95
 1017 059e 0D       		.byte	0xd
 1018 059f 3E       		.byte	0x3e
 1019 05a0 E9050000 		.4byte	0x5e9
 1020 05a4 0C       		.byte	0xc
 1021 05a5 00       		.byte	0
 1022 05a6 09       		.uleb128 0x9
 1023 05a7 04       		.byte	0x4
 1024 05a8 75050000 		.4byte	0x575
 1025 05ac 09       		.uleb128 0x9
 1026 05ad 04       		.byte	0x4
ARM GAS  /tmp/ccF804Lc.s 			page 19


 1027 05ae DC020000 		.4byte	0x2dc
 1028 05b2 13       		.uleb128 0x13
 1029 05b3 2D010000 		.4byte	0x12d
 1030 05b7 13       		.uleb128 0x13
 1031 05b8 BC050000 		.4byte	0x5bc
 1032 05bc 09       		.uleb128 0x9
 1033 05bd 04       		.byte	0x4
 1034 05be C2050000 		.4byte	0x5c2
 1035 05c2 14       		.uleb128 0x14
 1036 05c3 C7050000 		.4byte	0x5c7
 1037 05c7 03       		.uleb128 0x3
 1038 05c8 01       		.byte	0x1
 1039 05c9 08       		.byte	0x8
 1040 05ca 42000000 		.4byte	.LASF96
 1041 05ce 15       		.uleb128 0x15
 1042 05cf 22040000 		.4byte	0x422
 1043 05d3 DE050000 		.4byte	0x5de
 1044 05d7 16       		.uleb128 0x16
 1045 05d8 10040000 		.4byte	0x410
 1046 05dc 19       		.byte	0x19
 1047 05dd 00       		.byte	0
 1048 05de 04       		.uleb128 0x4
 1049 05df 08050000 		.4byte	.LASF97
 1050 05e3 0D       		.byte	0xd
 1051 05e4 34       		.byte	0x34
 1052 05e5 75050000 		.4byte	0x575
 1053 05e9 09       		.uleb128 0x9
 1054 05ea 04       		.byte	0x4
 1055 05eb DE050000 		.4byte	0x5de
 1056 05ef 17       		.uleb128 0x17
 1057 05f0 80040000 		.4byte	.LASF101
 1058 05f4 02       		.byte	0x2
 1059 05f5 2202     		.2byte	0x222
 1060 05f7 03       		.byte	0x3
 1061 05f8 09060000 		.4byte	0x609
 1062 05fc 18       		.uleb128 0x18
 1063 05fd B9010000 		.4byte	.LASF103
 1064 0601 02       		.byte	0x2
 1065 0602 2202     		.2byte	0x222
 1066 0604 BF000000 		.4byte	0xbf
 1067 0608 00       		.byte	0
 1068 0609 19       		.uleb128 0x19
 1069 060a BE000000 		.4byte	.LASF98
 1070 060e 0A       		.byte	0xa
 1071 060f C801     		.2byte	0x1c8
 1072 0611 03       		.byte	0x3
 1073 0612 19       		.uleb128 0x19
 1074 0613 C3050000 		.4byte	.LASF99
 1075 0617 0A       		.byte	0xa
 1076 0618 E001     		.2byte	0x1e0
 1077 061a 03       		.byte	0x3
 1078 061b 19       		.uleb128 0x19
 1079 061c 07020000 		.4byte	.LASF100
 1080 0620 0E       		.byte	0xe
 1081 0621 5A01     		.2byte	0x15a
 1082 0623 03       		.byte	0x3
 1083 0624 17       		.uleb128 0x17
ARM GAS  /tmp/ccF804Lc.s 			page 20


 1084 0625 73040000 		.4byte	.LASF102
 1085 0629 03       		.byte	0x3
 1086 062a 9702     		.2byte	0x297
 1087 062c 03       		.byte	0x3
 1088 062d 49060000 		.4byte	0x649
 1089 0631 1A       		.uleb128 0x1a
 1090 0632 747000   		.ascii	"tp\000"
 1091 0635 03       		.byte	0x3
 1092 0636 9702     		.2byte	0x297
 1093 0638 17020000 		.4byte	0x217
 1094 063c 1A       		.uleb128 0x1a
 1095 063d 74717000 		.ascii	"tqp\000"
 1096 0641 03       		.byte	0x3
 1097 0642 9702     		.2byte	0x297
 1098 0644 49060000 		.4byte	0x649
 1099 0648 00       		.byte	0
 1100 0649 09       		.uleb128 0x9
 1101 064a 04       		.byte	0x4
 1102 064b 41020000 		.4byte	0x241
 1103 064f 17       		.uleb128 0x17
 1104 0650 AD010000 		.4byte	.LASF104
 1105 0654 0E       		.byte	0xe
 1106 0655 6601     		.2byte	0x166
 1107 0657 03       		.byte	0x3
 1108 0658 6A060000 		.4byte	0x66a
 1109 065c 1B       		.uleb128 0x1b
 1110 065d B2050000 		.4byte	.LASF108
 1111 0661 7A060000 		.4byte	0x67a
 1112 0665 AD010000 		.4byte	.LASF104
 1113 0669 00       		.byte	0
 1114 066a 15       		.uleb128 0x15
 1115 066b C7050000 		.4byte	0x5c7
 1116 066f 7A060000 		.4byte	0x67a
 1117 0673 16       		.uleb128 0x16
 1118 0674 10040000 		.4byte	0x410
 1119 0678 0B       		.byte	0xb
 1120 0679 00       		.byte	0
 1121 067a 14       		.uleb128 0x14
 1122 067b 6A060000 		.4byte	0x66a
 1123 067f 1C       		.uleb128 0x1c
 1124 0680 11020000 		.4byte	.LASF106
 1125 0684 04       		.byte	0x4
 1126 0685 4F       		.byte	0x4f
 1127 0686 9A060000 		.4byte	0x69a
 1128 068a 03       		.byte	0x3
 1129 068b 9A060000 		.4byte	0x69a
 1130 068f 1D       		.uleb128 0x1d
 1131 0690 747000   		.ascii	"tp\000"
 1132 0693 04       		.byte	0x4
 1133 0694 4F       		.byte	0x4f
 1134 0695 17020000 		.4byte	0x217
 1135 0699 00       		.byte	0
 1136 069a 03       		.uleb128 0x3
 1137 069b 01       		.byte	0x1
 1138 069c 02       		.byte	0x2
 1139 069d ED010000 		.4byte	.LASF105
 1140 06a1 1E       		.uleb128 0x1e
ARM GAS  /tmp/ccF804Lc.s 			page 21


 1141 06a2 CF030000 		.4byte	.LASF107
 1142 06a6 03       		.byte	0x3
 1143 06a7 9F02     		.2byte	0x29f
 1144 06a9 17020000 		.4byte	0x217
 1145 06ad 03       		.byte	0x3
 1146 06ae CA060000 		.4byte	0x6ca
 1147 06b2 1A       		.uleb128 0x1a
 1148 06b3 74717000 		.ascii	"tqp\000"
 1149 06b7 03       		.byte	0x3
 1150 06b8 9F02     		.2byte	0x29f
 1151 06ba 49060000 		.4byte	0x649
 1152 06be 1F       		.uleb128 0x1f
 1153 06bf 747000   		.ascii	"tp\000"
 1154 06c2 03       		.byte	0x3
 1155 06c3 A002     		.2byte	0x2a0
 1156 06c5 17020000 		.4byte	0x217
 1157 06c9 00       		.byte	0
 1158 06ca 20       		.uleb128 0x20
 1159 06cb 46050000 		.4byte	.LASF109
 1160 06cf 04       		.byte	0x4
 1161 06d0 6F       		.byte	0x6f
 1162 06d1 03       		.byte	0x3
 1163 06d2 EC060000 		.4byte	0x6ec
 1164 06d6 1D       		.uleb128 0x1d
 1165 06d7 747000   		.ascii	"tp\000"
 1166 06da 04       		.byte	0x4
 1167 06db 6F       		.byte	0x6f
 1168 06dc 17020000 		.4byte	0x217
 1169 06e0 1D       		.uleb128 0x1d
 1170 06e1 6D736700 		.ascii	"msg\000"
 1171 06e5 04       		.byte	0x4
 1172 06e6 6F       		.byte	0x6f
 1173 06e7 0C010000 		.4byte	0x10c
 1174 06eb 00       		.byte	0
 1175 06ec 21       		.uleb128 0x21
 1176 06ed AD000000 		.4byte	.LASF110
 1177 06f1 01       		.byte	0x1
 1178 06f2 57       		.byte	0x57
 1179 06f3 0C010000 		.4byte	0x10c
 1180 06f7 00000000 		.4byte	.LFB170
 1181 06fb 40000000 		.4byte	.LFE170-.LFB170
 1182 06ff 01       		.uleb128 0x1
 1183 0700 9C       		.byte	0x9c
 1184 0701 01080000 		.4byte	0x801
 1185 0705 22       		.uleb128 0x22
 1186 0706 747000   		.ascii	"tp\000"
 1187 0709 01       		.byte	0x1
 1188 070a 57       		.byte	0x57
 1189 070b 17020000 		.4byte	0x217
 1190 070f 00000000 		.4byte	.LLST0
 1191 0713 22       		.uleb128 0x22
 1192 0714 6D736700 		.ascii	"msg\000"
 1193 0718 01       		.byte	0x1
 1194 0719 57       		.byte	0x57
 1195 071a 0C010000 		.4byte	0x10c
 1196 071e 38000000 		.4byte	.LLST1
 1197 0722 23       		.uleb128 0x23
ARM GAS  /tmp/ccF804Lc.s 			page 22


 1198 0723 63747000 		.ascii	"ctp\000"
 1199 0727 01       		.byte	0x1
 1200 0728 58       		.byte	0x58
 1201 0729 17020000 		.4byte	0x217
 1202 072d 01       		.uleb128 0x1
 1203 072e 54       		.byte	0x54
 1204 072f 24       		.uleb128 0x24
 1205 0730 B2050000 		.4byte	.LASF108
 1206 0734 11080000 		.4byte	0x811
 1207 0738 25       		.uleb128 0x25
 1208 0739 1B060000 		.4byte	0x61b
 1209 073d 04000000 		.4byte	.LBB52
 1210 0741 00000000 		.4byte	.Ldebug_ranges0+0
 1211 0745 01       		.byte	0x1
 1212 0746 5C       		.byte	0x5c
 1213 0747 74070000 		.4byte	0x774
 1214 074b 26       		.uleb128 0x26
 1215 074c 09060000 		.4byte	0x609
 1216 0750 04000000 		.4byte	.LBB53
 1217 0754 00000000 		.4byte	.Ldebug_ranges0+0
 1218 0758 0E       		.byte	0xe
 1219 0759 5C01     		.2byte	0x15c
 1220 075b 26       		.uleb128 0x26
 1221 075c EF050000 		.4byte	0x5ef
 1222 0760 04000000 		.4byte	.LBB54
 1223 0764 00000000 		.4byte	.Ldebug_ranges0+0
 1224 0768 0A       		.byte	0xa
 1225 0769 D001     		.2byte	0x1d0
 1226 076b 27       		.uleb128 0x27
 1227 076c FC050000 		.4byte	0x5fc
 1228 0770 20       		.byte	0x20
 1229 0771 00       		.byte	0
 1230 0772 00       		.byte	0
 1231 0773 00       		.byte	0
 1232 0774 25       		.uleb128 0x25
 1233 0775 24060000 		.4byte	0x624
 1234 0779 14000000 		.4byte	.LBB60
 1235 077d 18000000 		.4byte	.Ldebug_ranges0+0x18
 1236 0781 01       		.byte	0x1
 1237 0782 5F       		.byte	0x5f
 1238 0783 96070000 		.4byte	0x796
 1239 0787 28       		.uleb128 0x28
 1240 0788 3C060000 		.4byte	0x63c
 1241 078c 01       		.uleb128 0x1
 1242 078d 55       		.byte	0x55
 1243 078e 28       		.uleb128 0x28
 1244 078f 31060000 		.4byte	0x631
 1245 0793 01       		.uleb128 0x1
 1246 0794 54       		.byte	0x54
 1247 0795 00       		.byte	0
 1248 0796 29       		.uleb128 0x29
 1249 0797 4F060000 		.4byte	0x64f
 1250 079b 2C000000 		.4byte	.LBB64
 1251 079f 06000000 		.4byte	.LBE64-.LBB64
 1252 07a3 01       		.byte	0x1
 1253 07a4 65       		.byte	0x65
 1254 07a5 E4070000 		.4byte	0x7e4
ARM GAS  /tmp/ccF804Lc.s 			page 23


 1255 07a9 2A       		.uleb128 0x2a
 1256 07aa 2C000000 		.4byte	.LBB65
 1257 07ae 06000000 		.4byte	.LBE65-.LBB65
 1258 07b2 2B       		.uleb128 0x2b
 1259 07b3 5C060000 		.4byte	0x65c
 1260 07b7 2C       		.uleb128 0x2c
 1261 07b8 12060000 		.4byte	0x612
 1262 07bc 2C000000 		.4byte	.LBB66
 1263 07c0 06000000 		.4byte	.LBE66-.LBB66
 1264 07c4 0E       		.byte	0xe
 1265 07c5 7301     		.2byte	0x173
 1266 07c7 2C       		.uleb128 0x2c
 1267 07c8 EF050000 		.4byte	0x5ef
 1268 07cc 2C000000 		.4byte	.LBB67
 1269 07d0 06000000 		.4byte	.LBE67-.LBB67
 1270 07d4 0A       		.byte	0xa
 1271 07d5 E301     		.2byte	0x1e3
 1272 07d7 2D       		.uleb128 0x2d
 1273 07d8 FC050000 		.4byte	0x5fc
 1274 07dc 7D000000 		.4byte	.LLST2
 1275 07e0 00       		.byte	0
 1276 07e1 00       		.byte	0
 1277 07e2 00       		.byte	0
 1278 07e3 00       		.byte	0
 1279 07e4 2E       		.uleb128 0x2e
 1280 07e5 2A000000 		.4byte	.LVL4
 1281 07e9 460A0000 		.4byte	0xa46
 1282 07ed F7070000 		.4byte	0x7f7
 1283 07f1 2F       		.uleb128 0x2f
 1284 07f2 01       		.uleb128 0x1
 1285 07f3 50       		.byte	0x50
 1286 07f4 01       		.uleb128 0x1
 1287 07f5 3C       		.byte	0x3c
 1288 07f6 00       		.byte	0
 1289 07f7 30       		.uleb128 0x30
 1290 07f8 38000000 		.4byte	.LVL7
 1291 07fc 580A0000 		.4byte	0xa58
 1292 0800 00       		.byte	0
 1293 0801 15       		.uleb128 0x15
 1294 0802 C7050000 		.4byte	0x5c7
 1295 0806 11080000 		.4byte	0x811
 1296 080a 16       		.uleb128 0x16
 1297 080b 10040000 		.4byte	0x410
 1298 080f 09       		.byte	0x9
 1299 0810 00       		.byte	0
 1300 0811 14       		.uleb128 0x14
 1301 0812 01080000 		.4byte	0x801
 1302 0816 21       		.uleb128 0x21
 1303 0817 CB020000 		.4byte	.LASF111
 1304 081b 01       		.byte	0x1
 1305 081c 78       		.byte	0x78
 1306 081d 17020000 		.4byte	0x217
 1307 0821 00000000 		.4byte	.LFB171
 1308 0825 3C000000 		.4byte	.LFE171-.LFB171
 1309 0829 01       		.uleb128 0x1
 1310 082a 9C       		.byte	0x9c
 1311 082b 18090000 		.4byte	0x918
ARM GAS  /tmp/ccF804Lc.s 			page 24


 1312 082f 31       		.uleb128 0x31
 1313 0830 747000   		.ascii	"tp\000"
 1314 0833 01       		.byte	0x1
 1315 0834 79       		.byte	0x79
 1316 0835 17020000 		.4byte	0x217
 1317 0839 29       		.uleb128 0x29
 1318 083a 1B060000 		.4byte	0x61b
 1319 083e 02000000 		.4byte	.LBB69
 1320 0842 06000000 		.4byte	.LBE69-.LBB69
 1321 0846 01       		.byte	0x1
 1322 0847 7B       		.byte	0x7b
 1323 0848 75080000 		.4byte	0x875
 1324 084c 2C       		.uleb128 0x2c
 1325 084d 09060000 		.4byte	0x609
 1326 0851 02000000 		.4byte	.LBB70
 1327 0855 06000000 		.4byte	.LBE70-.LBB70
 1328 0859 0E       		.byte	0xe
 1329 085a 5C01     		.2byte	0x15c
 1330 085c 2C       		.uleb128 0x2c
 1331 085d EF050000 		.4byte	0x5ef
 1332 0861 02000000 		.4byte	.LBB71
 1333 0865 06000000 		.4byte	.LBE71-.LBB71
 1334 0869 0A       		.byte	0xa
 1335 086a D001     		.2byte	0x1d0
 1336 086c 27       		.uleb128 0x27
 1337 086d FC050000 		.4byte	0x5fc
 1338 0871 20       		.byte	0x20
 1339 0872 00       		.byte	0
 1340 0873 00       		.byte	0
 1341 0874 00       		.byte	0
 1342 0875 29       		.uleb128 0x29
 1343 0876 7F060000 		.4byte	0x67f
 1344 087a 0C000000 		.4byte	.LBB73
 1345 087e 06000000 		.4byte	.LBE73-.LBB73
 1346 0882 01       		.byte	0x1
 1347 0883 7C       		.byte	0x7c
 1348 0884 92080000 		.4byte	0x892
 1349 0888 2D       		.uleb128 0x2d
 1350 0889 8F060000 		.4byte	0x68f
 1351 088d 91000000 		.4byte	.LLST3
 1352 0891 00       		.byte	0
 1353 0892 25       		.uleb128 0x25
 1354 0893 A1060000 		.4byte	0x6a1
 1355 0897 16000000 		.4byte	.LBB75
 1356 089b 30000000 		.4byte	.Ldebug_ranges0+0x30
 1357 089f 01       		.byte	0x1
 1358 08a0 7F       		.byte	0x7f
 1359 08a1 BE080000 		.4byte	0x8be
 1360 08a5 2D       		.uleb128 0x2d
 1361 08a6 B2060000 		.4byte	0x6b2
 1362 08aa AF000000 		.4byte	.LLST4
 1363 08ae 32       		.uleb128 0x32
 1364 08af 30000000 		.4byte	.Ldebug_ranges0+0x30
 1365 08b3 33       		.uleb128 0x33
 1366 08b4 BE060000 		.4byte	0x6be
 1367 08b8 C2000000 		.4byte	.LLST5
 1368 08bc 00       		.byte	0
ARM GAS  /tmp/ccF804Lc.s 			page 25


 1369 08bd 00       		.byte	0
 1370 08be 25       		.uleb128 0x25
 1371 08bf 4F060000 		.4byte	0x64f
 1372 08c3 1E000000 		.4byte	.LBB79
 1373 08c7 48000000 		.4byte	.Ldebug_ranges0+0x48
 1374 08cb 01       		.byte	0x1
 1375 08cc 81       		.byte	0x81
 1376 08cd 08090000 		.4byte	0x908
 1377 08d1 32       		.uleb128 0x32
 1378 08d2 48000000 		.4byte	.Ldebug_ranges0+0x48
 1379 08d6 2B       		.uleb128 0x2b
 1380 08d7 5C060000 		.4byte	0x65c
 1381 08db 26       		.uleb128 0x26
 1382 08dc 12060000 		.4byte	0x612
 1383 08e0 1E000000 		.4byte	.LBB81
 1384 08e4 48000000 		.4byte	.Ldebug_ranges0+0x48
 1385 08e8 0E       		.byte	0xe
 1386 08e9 7301     		.2byte	0x173
 1387 08eb 26       		.uleb128 0x26
 1388 08ec EF050000 		.4byte	0x5ef
 1389 08f0 1E000000 		.4byte	.LBB82
 1390 08f4 48000000 		.4byte	.Ldebug_ranges0+0x48
 1391 08f8 0A       		.byte	0xa
 1392 08f9 E301     		.2byte	0x1e3
 1393 08fb 2D       		.uleb128 0x2d
 1394 08fc FC050000 		.4byte	0x5fc
 1395 0900 D5000000 		.4byte	.LLST6
 1396 0904 00       		.byte	0
 1397 0905 00       		.byte	0
 1398 0906 00       		.byte	0
 1399 0907 00       		.byte	0
 1400 0908 34       		.uleb128 0x34
 1401 0909 2E000000 		.4byte	.LVL13
 1402 090d 460A0000 		.4byte	0xa46
 1403 0911 2F       		.uleb128 0x2f
 1404 0912 01       		.uleb128 0x1
 1405 0913 50       		.byte	0x50
 1406 0914 01       		.uleb128 0x1
 1407 0915 3E       		.byte	0x3e
 1408 0916 00       		.byte	0
 1409 0917 00       		.byte	0
 1410 0918 35       		.uleb128 0x35
 1411 0919 0D010000 		.4byte	.LASF115
 1412 091d 01       		.byte	0x1
 1413 091e 90       		.byte	0x90
 1414 091f 00000000 		.4byte	.LFB172
 1415 0923 14000000 		.4byte	.LFE172-.LFB172
 1416 0927 01       		.uleb128 0x1
 1417 0928 9C       		.byte	0x9c
 1418 0929 150A0000 		.4byte	0xa15
 1419 092d 22       		.uleb128 0x22
 1420 092e 747000   		.ascii	"tp\000"
 1421 0931 01       		.byte	0x1
 1422 0932 90       		.byte	0x90
 1423 0933 17020000 		.4byte	0x217
 1424 0937 E9000000 		.4byte	.LLST7
 1425 093b 22       		.uleb128 0x22
ARM GAS  /tmp/ccF804Lc.s 			page 26


 1426 093c 6D736700 		.ascii	"msg\000"
 1427 0940 01       		.byte	0x1
 1428 0941 90       		.byte	0x90
 1429 0942 0C010000 		.4byte	0x10c
 1430 0946 0A010000 		.4byte	.LLST8
 1431 094a 24       		.uleb128 0x24
 1432 094b B2050000 		.4byte	.LASF108
 1433 094f 250A0000 		.4byte	0xa25
 1434 0953 29       		.uleb128 0x29
 1435 0954 1B060000 		.4byte	0x61b
 1436 0958 02000000 		.4byte	.LBB89
 1437 095c 06000000 		.4byte	.LBE89-.LBB89
 1438 0960 01       		.byte	0x1
 1439 0961 92       		.byte	0x92
 1440 0962 8F090000 		.4byte	0x98f
 1441 0966 2C       		.uleb128 0x2c
 1442 0967 09060000 		.4byte	0x609
 1443 096b 02000000 		.4byte	.LBB90
 1444 096f 06000000 		.4byte	.LBE90-.LBB90
 1445 0973 0E       		.byte	0xe
 1446 0974 5C01     		.2byte	0x15c
 1447 0976 2C       		.uleb128 0x2c
 1448 0977 EF050000 		.4byte	0x5ef
 1449 097b 02000000 		.4byte	.LBB91
 1450 097f 06000000 		.4byte	.LBE91-.LBB91
 1451 0983 0A       		.byte	0xa
 1452 0984 D001     		.2byte	0x1d0
 1453 0986 27       		.uleb128 0x27
 1454 0987 FC050000 		.4byte	0x5fc
 1455 098b 20       		.byte	0x20
 1456 098c 00       		.byte	0
 1457 098d 00       		.byte	0
 1458 098e 00       		.byte	0
 1459 098f 29       		.uleb128 0x29
 1460 0990 CA060000 		.4byte	0x6ca
 1461 0994 08000000 		.4byte	.LBB93
 1462 0998 04000000 		.4byte	.LBE93-.LBB93
 1463 099c 01       		.byte	0x1
 1464 099d 94       		.byte	0x94
 1465 099e CD090000 		.4byte	0x9cd
 1466 09a2 2D       		.uleb128 0x2d
 1467 09a3 E0060000 		.4byte	0x6e0
 1468 09a7 2B010000 		.4byte	.LLST9
 1469 09ab 2D       		.uleb128 0x2d
 1470 09ac D6060000 		.4byte	0x6d6
 1471 09b0 4C010000 		.4byte	.LLST10
 1472 09b4 34       		.uleb128 0x34
 1473 09b5 0C000000 		.4byte	.LVL16
 1474 09b9 6E0A0000 		.4byte	0xa6e
 1475 09bd 2F       		.uleb128 0x2f
 1476 09be 01       		.uleb128 0x1
 1477 09bf 51       		.byte	0x51
 1478 09c0 03       		.uleb128 0x3
 1479 09c1 F3       		.byte	0xf3
 1480 09c2 01       		.uleb128 0x1
 1481 09c3 51       		.byte	0x51
 1482 09c4 2F       		.uleb128 0x2f
ARM GAS  /tmp/ccF804Lc.s 			page 27


 1483 09c5 01       		.uleb128 0x1
 1484 09c6 50       		.byte	0x50
 1485 09c7 03       		.uleb128 0x3
 1486 09c8 F3       		.byte	0xf3
 1487 09c9 01       		.uleb128 0x1
 1488 09ca 50       		.byte	0x50
 1489 09cb 00       		.byte	0
 1490 09cc 00       		.byte	0
 1491 09cd 36       		.uleb128 0x36
 1492 09ce 4F060000 		.4byte	0x64f
 1493 09d2 0C000000 		.4byte	.LBB95
 1494 09d6 08000000 		.4byte	.LBE95-.LBB95
 1495 09da 01       		.byte	0x1
 1496 09db 95       		.byte	0x95
 1497 09dc 2A       		.uleb128 0x2a
 1498 09dd 0C000000 		.4byte	.LBB96
 1499 09e1 08000000 		.4byte	.LBE96-.LBB96
 1500 09e5 2B       		.uleb128 0x2b
 1501 09e6 5C060000 		.4byte	0x65c
 1502 09ea 2C       		.uleb128 0x2c
 1503 09eb 12060000 		.4byte	0x612
 1504 09ef 0C000000 		.4byte	.LBB97
 1505 09f3 08000000 		.4byte	.LBE97-.LBB97
 1506 09f7 0E       		.byte	0xe
 1507 09f8 7301     		.2byte	0x173
 1508 09fa 2C       		.uleb128 0x2c
 1509 09fb EF050000 		.4byte	0x5ef
 1510 09ff 0C000000 		.4byte	.LBB98
 1511 0a03 08000000 		.4byte	.LBE98-.LBB98
 1512 0a07 0A       		.byte	0xa
 1513 0a08 E301     		.2byte	0x1e3
 1514 0a0a 27       		.uleb128 0x27
 1515 0a0b FC050000 		.4byte	0x5fc
 1516 0a0f 00       		.byte	0
 1517 0a10 00       		.byte	0
 1518 0a11 00       		.byte	0
 1519 0a12 00       		.byte	0
 1520 0a13 00       		.byte	0
 1521 0a14 00       		.byte	0
 1522 0a15 15       		.uleb128 0x15
 1523 0a16 C7050000 		.4byte	0x5c7
 1524 0a1a 250A0000 		.4byte	0xa25
 1525 0a1e 16       		.uleb128 0x16
 1526 0a1f 10040000 		.4byte	0x410
 1527 0a23 0C       		.byte	0xc
 1528 0a24 00       		.byte	0
 1529 0a25 14       		.uleb128 0x14
 1530 0a26 150A0000 		.4byte	0xa15
 1531 0a2a 37       		.uleb128 0x37
 1532 0a2b 5C040000 		.4byte	.LASF112
 1533 0a2f 0F       		.byte	0xf
 1534 0a30 5506     		.2byte	0x655
 1535 0a32 360A0000 		.4byte	0xa36
 1536 0a36 13       		.uleb128 0x13
 1537 0a37 B4000000 		.4byte	0xb4
 1538 0a3b 38       		.uleb128 0x38
 1539 0a3c 636800   		.ascii	"ch\000"
ARM GAS  /tmp/ccF804Lc.s 			page 28


 1540 0a3f 03       		.byte	0x3
 1541 0a40 0902     		.2byte	0x209
 1542 0a42 A9030000 		.4byte	0x3a9
 1543 0a46 39       		.uleb128 0x39
 1544 0a47 B4040000 		.4byte	.LASF116
 1545 0a4b 03       		.byte	0x3
 1546 0a4c 1402     		.2byte	0x214
 1547 0a4e 580A0000 		.4byte	0xa58
 1548 0a52 0C       		.uleb128 0xc
 1549 0a53 EB000000 		.4byte	0xeb
 1550 0a57 00       		.byte	0
 1551 0a58 3A       		.uleb128 0x3a
 1552 0a59 1A010000 		.4byte	.LASF117
 1553 0a5d 03       		.byte	0x3
 1554 0a5e 1302     		.2byte	0x213
 1555 0a60 17020000 		.4byte	0x217
 1556 0a64 6E0A0000 		.4byte	0xa6e
 1557 0a68 0C       		.uleb128 0xc
 1558 0a69 17020000 		.4byte	0x217
 1559 0a6d 00       		.byte	0
 1560 0a6e 3B       		.uleb128 0x3b
 1561 0a6f 54050000 		.4byte	.LASF118
 1562 0a73 03       		.byte	0x3
 1563 0a74 1602     		.2byte	0x216
 1564 0a76 0C       		.uleb128 0xc
 1565 0a77 17020000 		.4byte	0x217
 1566 0a7b 0C       		.uleb128 0xc
 1567 0a7c 0C010000 		.4byte	0x10c
 1568 0a80 00       		.byte	0
 1569 0a81 00       		.byte	0
 1570              		.section	.debug_abbrev,"",%progbits
 1571              	.Ldebug_abbrev0:
 1572 0000 01       		.uleb128 0x1
 1573 0001 11       		.uleb128 0x11
 1574 0002 01       		.byte	0x1
 1575 0003 25       		.uleb128 0x25
 1576 0004 0E       		.uleb128 0xe
 1577 0005 13       		.uleb128 0x13
 1578 0006 0B       		.uleb128 0xb
 1579 0007 03       		.uleb128 0x3
 1580 0008 0E       		.uleb128 0xe
 1581 0009 55       		.uleb128 0x55
 1582 000a 17       		.uleb128 0x17
 1583 000b 11       		.uleb128 0x11
 1584 000c 01       		.uleb128 0x1
 1585 000d 10       		.uleb128 0x10
 1586 000e 17       		.uleb128 0x17
 1587 000f 00       		.byte	0
 1588 0010 00       		.byte	0
 1589 0011 02       		.uleb128 0x2
 1590 0012 24       		.uleb128 0x24
 1591 0013 00       		.byte	0
 1592 0014 0B       		.uleb128 0xb
 1593 0015 0B       		.uleb128 0xb
 1594 0016 3E       		.uleb128 0x3e
 1595 0017 0B       		.uleb128 0xb
 1596 0018 03       		.uleb128 0x3
ARM GAS  /tmp/ccF804Lc.s 			page 29


 1597 0019 08       		.uleb128 0x8
 1598 001a 00       		.byte	0
 1599 001b 00       		.byte	0
 1600 001c 03       		.uleb128 0x3
 1601 001d 24       		.uleb128 0x24
 1602 001e 00       		.byte	0
 1603 001f 0B       		.uleb128 0xb
 1604 0020 0B       		.uleb128 0xb
 1605 0021 3E       		.uleb128 0x3e
 1606 0022 0B       		.uleb128 0xb
 1607 0023 03       		.uleb128 0x3
 1608 0024 0E       		.uleb128 0xe
 1609 0025 00       		.byte	0
 1610 0026 00       		.byte	0
 1611 0027 04       		.uleb128 0x4
 1612 0028 16       		.uleb128 0x16
 1613 0029 00       		.byte	0
 1614 002a 03       		.uleb128 0x3
 1615 002b 0E       		.uleb128 0xe
 1616 002c 3A       		.uleb128 0x3a
 1617 002d 0B       		.uleb128 0xb
 1618 002e 3B       		.uleb128 0x3b
 1619 002f 0B       		.uleb128 0xb
 1620 0030 49       		.uleb128 0x49
 1621 0031 13       		.uleb128 0x13
 1622 0032 00       		.byte	0
 1623 0033 00       		.byte	0
 1624 0034 05       		.uleb128 0x5
 1625 0035 13       		.uleb128 0x13
 1626 0036 01       		.byte	0x1
 1627 0037 03       		.uleb128 0x3
 1628 0038 0E       		.uleb128 0xe
 1629 0039 0B       		.uleb128 0xb
 1630 003a 0B       		.uleb128 0xb
 1631 003b 3A       		.uleb128 0x3a
 1632 003c 0B       		.uleb128 0xb
 1633 003d 3B       		.uleb128 0x3b
 1634 003e 0B       		.uleb128 0xb
 1635 003f 01       		.uleb128 0x1
 1636 0040 13       		.uleb128 0x13
 1637 0041 00       		.byte	0
 1638 0042 00       		.byte	0
 1639 0043 06       		.uleb128 0x6
 1640 0044 0D       		.uleb128 0xd
 1641 0045 00       		.byte	0
 1642 0046 03       		.uleb128 0x3
 1643 0047 0E       		.uleb128 0xe
 1644 0048 3A       		.uleb128 0x3a
 1645 0049 0B       		.uleb128 0xb
 1646 004a 3B       		.uleb128 0x3b
 1647 004b 0B       		.uleb128 0xb
 1648 004c 49       		.uleb128 0x49
 1649 004d 13       		.uleb128 0x13
 1650 004e 38       		.uleb128 0x38
 1651 004f 0B       		.uleb128 0xb
 1652 0050 00       		.byte	0
 1653 0051 00       		.byte	0
ARM GAS  /tmp/ccF804Lc.s 			page 30


 1654 0052 07       		.uleb128 0x7
 1655 0053 0D       		.uleb128 0xd
 1656 0054 00       		.byte	0
 1657 0055 03       		.uleb128 0x3
 1658 0056 08       		.uleb128 0x8
 1659 0057 3A       		.uleb128 0x3a
 1660 0058 0B       		.uleb128 0xb
 1661 0059 3B       		.uleb128 0x3b
 1662 005a 05       		.uleb128 0x5
 1663 005b 49       		.uleb128 0x49
 1664 005c 13       		.uleb128 0x13
 1665 005d 38       		.uleb128 0x38
 1666 005e 0B       		.uleb128 0xb
 1667 005f 00       		.byte	0
 1668 0060 00       		.byte	0
 1669 0061 08       		.uleb128 0x8
 1670 0062 0D       		.uleb128 0xd
 1671 0063 00       		.byte	0
 1672 0064 03       		.uleb128 0x3
 1673 0065 0E       		.uleb128 0xe
 1674 0066 3A       		.uleb128 0x3a
 1675 0067 0B       		.uleb128 0xb
 1676 0068 3B       		.uleb128 0x3b
 1677 0069 05       		.uleb128 0x5
 1678 006a 49       		.uleb128 0x49
 1679 006b 13       		.uleb128 0x13
 1680 006c 38       		.uleb128 0x38
 1681 006d 0B       		.uleb128 0xb
 1682 006e 00       		.byte	0
 1683 006f 00       		.byte	0
 1684 0070 09       		.uleb128 0x9
 1685 0071 0F       		.uleb128 0xf
 1686 0072 00       		.byte	0
 1687 0073 0B       		.uleb128 0xb
 1688 0074 0B       		.uleb128 0xb
 1689 0075 49       		.uleb128 0x49
 1690 0076 13       		.uleb128 0x13
 1691 0077 00       		.byte	0
 1692 0078 00       		.byte	0
 1693 0079 0A       		.uleb128 0xa
 1694 007a 13       		.uleb128 0x13
 1695 007b 01       		.byte	0x1
 1696 007c 03       		.uleb128 0x3
 1697 007d 0E       		.uleb128 0xe
 1698 007e 0B       		.uleb128 0xb
 1699 007f 0B       		.uleb128 0xb
 1700 0080 3A       		.uleb128 0x3a
 1701 0081 0B       		.uleb128 0xb
 1702 0082 3B       		.uleb128 0x3b
 1703 0083 05       		.uleb128 0x5
 1704 0084 01       		.uleb128 0x1
 1705 0085 13       		.uleb128 0x13
 1706 0086 00       		.byte	0
 1707 0087 00       		.byte	0
 1708 0088 0B       		.uleb128 0xb
 1709 0089 15       		.uleb128 0x15
 1710 008a 01       		.byte	0x1
ARM GAS  /tmp/ccF804Lc.s 			page 31


 1711 008b 27       		.uleb128 0x27
 1712 008c 19       		.uleb128 0x19
 1713 008d 01       		.uleb128 0x1
 1714 008e 13       		.uleb128 0x13
 1715 008f 00       		.byte	0
 1716 0090 00       		.byte	0
 1717 0091 0C       		.uleb128 0xc
 1718 0092 05       		.uleb128 0x5
 1719 0093 00       		.byte	0
 1720 0094 49       		.uleb128 0x49
 1721 0095 13       		.uleb128 0x13
 1722 0096 00       		.byte	0
 1723 0097 00       		.byte	0
 1724 0098 0D       		.uleb128 0xd
 1725 0099 0F       		.uleb128 0xf
 1726 009a 00       		.byte	0
 1727 009b 0B       		.uleb128 0xb
 1728 009c 0B       		.uleb128 0xb
 1729 009d 00       		.byte	0
 1730 009e 00       		.byte	0
 1731 009f 0E       		.uleb128 0xe
 1732 00a0 13       		.uleb128 0x13
 1733 00a1 01       		.byte	0x1
 1734 00a2 03       		.uleb128 0x3
 1735 00a3 0E       		.uleb128 0xe
 1736 00a4 0B       		.uleb128 0xb
 1737 00a5 05       		.uleb128 0x5
 1738 00a6 3A       		.uleb128 0x3a
 1739 00a7 0B       		.uleb128 0xb
 1740 00a8 3B       		.uleb128 0x3b
 1741 00a9 05       		.uleb128 0x5
 1742 00aa 01       		.uleb128 0x1
 1743 00ab 13       		.uleb128 0x13
 1744 00ac 00       		.byte	0
 1745 00ad 00       		.byte	0
 1746 00ae 0F       		.uleb128 0xf
 1747 00af 0D       		.uleb128 0xd
 1748 00b0 00       		.byte	0
 1749 00b1 03       		.uleb128 0x3
 1750 00b2 08       		.uleb128 0x8
 1751 00b3 3A       		.uleb128 0x3a
 1752 00b4 0B       		.uleb128 0xb
 1753 00b5 3B       		.uleb128 0x3b
 1754 00b6 0B       		.uleb128 0xb
 1755 00b7 49       		.uleb128 0x49
 1756 00b8 13       		.uleb128 0x13
 1757 00b9 38       		.uleb128 0x38
 1758 00ba 0B       		.uleb128 0xb
 1759 00bb 00       		.byte	0
 1760 00bc 00       		.byte	0
 1761 00bd 10       		.uleb128 0x10
 1762 00be 13       		.uleb128 0x13
 1763 00bf 01       		.byte	0x1
 1764 00c0 0B       		.uleb128 0xb
 1765 00c1 0B       		.uleb128 0xb
 1766 00c2 3A       		.uleb128 0x3a
 1767 00c3 0B       		.uleb128 0xb
ARM GAS  /tmp/ccF804Lc.s 			page 32


 1768 00c4 3B       		.uleb128 0x3b
 1769 00c5 0B       		.uleb128 0xb
 1770 00c6 01       		.uleb128 0x1
 1771 00c7 13       		.uleb128 0x13
 1772 00c8 00       		.byte	0
 1773 00c9 00       		.byte	0
 1774 00ca 11       		.uleb128 0x11
 1775 00cb 17       		.uleb128 0x17
 1776 00cc 01       		.byte	0x1
 1777 00cd 0B       		.uleb128 0xb
 1778 00ce 0B       		.uleb128 0xb
 1779 00cf 3A       		.uleb128 0x3a
 1780 00d0 0B       		.uleb128 0xb
 1781 00d1 3B       		.uleb128 0x3b
 1782 00d2 0B       		.uleb128 0xb
 1783 00d3 01       		.uleb128 0x1
 1784 00d4 13       		.uleb128 0x13
 1785 00d5 00       		.byte	0
 1786 00d6 00       		.byte	0
 1787 00d7 12       		.uleb128 0x12
 1788 00d8 0D       		.uleb128 0xd
 1789 00d9 00       		.byte	0
 1790 00da 03       		.uleb128 0x3
 1791 00db 0E       		.uleb128 0xe
 1792 00dc 3A       		.uleb128 0x3a
 1793 00dd 0B       		.uleb128 0xb
 1794 00de 3B       		.uleb128 0x3b
 1795 00df 05       		.uleb128 0x5
 1796 00e0 49       		.uleb128 0x49
 1797 00e1 13       		.uleb128 0x13
 1798 00e2 00       		.byte	0
 1799 00e3 00       		.byte	0
 1800 00e4 13       		.uleb128 0x13
 1801 00e5 35       		.uleb128 0x35
 1802 00e6 00       		.byte	0
 1803 00e7 49       		.uleb128 0x49
 1804 00e8 13       		.uleb128 0x13
 1805 00e9 00       		.byte	0
 1806 00ea 00       		.byte	0
 1807 00eb 14       		.uleb128 0x14
 1808 00ec 26       		.uleb128 0x26
 1809 00ed 00       		.byte	0
 1810 00ee 49       		.uleb128 0x49
 1811 00ef 13       		.uleb128 0x13
 1812 00f0 00       		.byte	0
 1813 00f1 00       		.byte	0
 1814 00f2 15       		.uleb128 0x15
 1815 00f3 01       		.uleb128 0x1
 1816 00f4 01       		.byte	0x1
 1817 00f5 49       		.uleb128 0x49
 1818 00f6 13       		.uleb128 0x13
 1819 00f7 01       		.uleb128 0x1
 1820 00f8 13       		.uleb128 0x13
 1821 00f9 00       		.byte	0
 1822 00fa 00       		.byte	0
 1823 00fb 16       		.uleb128 0x16
 1824 00fc 21       		.uleb128 0x21
ARM GAS  /tmp/ccF804Lc.s 			page 33


 1825 00fd 00       		.byte	0
 1826 00fe 49       		.uleb128 0x49
 1827 00ff 13       		.uleb128 0x13
 1828 0100 2F       		.uleb128 0x2f
 1829 0101 0B       		.uleb128 0xb
 1830 0102 00       		.byte	0
 1831 0103 00       		.byte	0
 1832 0104 17       		.uleb128 0x17
 1833 0105 2E       		.uleb128 0x2e
 1834 0106 01       		.byte	0x1
 1835 0107 03       		.uleb128 0x3
 1836 0108 0E       		.uleb128 0xe
 1837 0109 3A       		.uleb128 0x3a
 1838 010a 0B       		.uleb128 0xb
 1839 010b 3B       		.uleb128 0x3b
 1840 010c 05       		.uleb128 0x5
 1841 010d 27       		.uleb128 0x27
 1842 010e 19       		.uleb128 0x19
 1843 010f 20       		.uleb128 0x20
 1844 0110 0B       		.uleb128 0xb
 1845 0111 01       		.uleb128 0x1
 1846 0112 13       		.uleb128 0x13
 1847 0113 00       		.byte	0
 1848 0114 00       		.byte	0
 1849 0115 18       		.uleb128 0x18
 1850 0116 05       		.uleb128 0x5
 1851 0117 00       		.byte	0
 1852 0118 03       		.uleb128 0x3
 1853 0119 0E       		.uleb128 0xe
 1854 011a 3A       		.uleb128 0x3a
 1855 011b 0B       		.uleb128 0xb
 1856 011c 3B       		.uleb128 0x3b
 1857 011d 05       		.uleb128 0x5
 1858 011e 49       		.uleb128 0x49
 1859 011f 13       		.uleb128 0x13
 1860 0120 00       		.byte	0
 1861 0121 00       		.byte	0
 1862 0122 19       		.uleb128 0x19
 1863 0123 2E       		.uleb128 0x2e
 1864 0124 00       		.byte	0
 1865 0125 03       		.uleb128 0x3
 1866 0126 0E       		.uleb128 0xe
 1867 0127 3A       		.uleb128 0x3a
 1868 0128 0B       		.uleb128 0xb
 1869 0129 3B       		.uleb128 0x3b
 1870 012a 05       		.uleb128 0x5
 1871 012b 27       		.uleb128 0x27
 1872 012c 19       		.uleb128 0x19
 1873 012d 20       		.uleb128 0x20
 1874 012e 0B       		.uleb128 0xb
 1875 012f 00       		.byte	0
 1876 0130 00       		.byte	0
 1877 0131 1A       		.uleb128 0x1a
 1878 0132 05       		.uleb128 0x5
 1879 0133 00       		.byte	0
 1880 0134 03       		.uleb128 0x3
 1881 0135 08       		.uleb128 0x8
ARM GAS  /tmp/ccF804Lc.s 			page 34


 1882 0136 3A       		.uleb128 0x3a
 1883 0137 0B       		.uleb128 0xb
 1884 0138 3B       		.uleb128 0x3b
 1885 0139 05       		.uleb128 0x5
 1886 013a 49       		.uleb128 0x49
 1887 013b 13       		.uleb128 0x13
 1888 013c 00       		.byte	0
 1889 013d 00       		.byte	0
 1890 013e 1B       		.uleb128 0x1b
 1891 013f 34       		.uleb128 0x34
 1892 0140 00       		.byte	0
 1893 0141 03       		.uleb128 0x3
 1894 0142 0E       		.uleb128 0xe
 1895 0143 49       		.uleb128 0x49
 1896 0144 13       		.uleb128 0x13
 1897 0145 34       		.uleb128 0x34
 1898 0146 19       		.uleb128 0x19
 1899 0147 1C       		.uleb128 0x1c
 1900 0148 0E       		.uleb128 0xe
 1901 0149 00       		.byte	0
 1902 014a 00       		.byte	0
 1903 014b 1C       		.uleb128 0x1c
 1904 014c 2E       		.uleb128 0x2e
 1905 014d 01       		.byte	0x1
 1906 014e 03       		.uleb128 0x3
 1907 014f 0E       		.uleb128 0xe
 1908 0150 3A       		.uleb128 0x3a
 1909 0151 0B       		.uleb128 0xb
 1910 0152 3B       		.uleb128 0x3b
 1911 0153 0B       		.uleb128 0xb
 1912 0154 27       		.uleb128 0x27
 1913 0155 19       		.uleb128 0x19
 1914 0156 49       		.uleb128 0x49
 1915 0157 13       		.uleb128 0x13
 1916 0158 20       		.uleb128 0x20
 1917 0159 0B       		.uleb128 0xb
 1918 015a 01       		.uleb128 0x1
 1919 015b 13       		.uleb128 0x13
 1920 015c 00       		.byte	0
 1921 015d 00       		.byte	0
 1922 015e 1D       		.uleb128 0x1d
 1923 015f 05       		.uleb128 0x5
 1924 0160 00       		.byte	0
 1925 0161 03       		.uleb128 0x3
 1926 0162 08       		.uleb128 0x8
 1927 0163 3A       		.uleb128 0x3a
 1928 0164 0B       		.uleb128 0xb
 1929 0165 3B       		.uleb128 0x3b
 1930 0166 0B       		.uleb128 0xb
 1931 0167 49       		.uleb128 0x49
 1932 0168 13       		.uleb128 0x13
 1933 0169 00       		.byte	0
 1934 016a 00       		.byte	0
 1935 016b 1E       		.uleb128 0x1e
 1936 016c 2E       		.uleb128 0x2e
 1937 016d 01       		.byte	0x1
 1938 016e 03       		.uleb128 0x3
ARM GAS  /tmp/ccF804Lc.s 			page 35


 1939 016f 0E       		.uleb128 0xe
 1940 0170 3A       		.uleb128 0x3a
 1941 0171 0B       		.uleb128 0xb
 1942 0172 3B       		.uleb128 0x3b
 1943 0173 05       		.uleb128 0x5
 1944 0174 27       		.uleb128 0x27
 1945 0175 19       		.uleb128 0x19
 1946 0176 49       		.uleb128 0x49
 1947 0177 13       		.uleb128 0x13
 1948 0178 20       		.uleb128 0x20
 1949 0179 0B       		.uleb128 0xb
 1950 017a 01       		.uleb128 0x1
 1951 017b 13       		.uleb128 0x13
 1952 017c 00       		.byte	0
 1953 017d 00       		.byte	0
 1954 017e 1F       		.uleb128 0x1f
 1955 017f 34       		.uleb128 0x34
 1956 0180 00       		.byte	0
 1957 0181 03       		.uleb128 0x3
 1958 0182 08       		.uleb128 0x8
 1959 0183 3A       		.uleb128 0x3a
 1960 0184 0B       		.uleb128 0xb
 1961 0185 3B       		.uleb128 0x3b
 1962 0186 05       		.uleb128 0x5
 1963 0187 49       		.uleb128 0x49
 1964 0188 13       		.uleb128 0x13
 1965 0189 00       		.byte	0
 1966 018a 00       		.byte	0
 1967 018b 20       		.uleb128 0x20
 1968 018c 2E       		.uleb128 0x2e
 1969 018d 01       		.byte	0x1
 1970 018e 03       		.uleb128 0x3
 1971 018f 0E       		.uleb128 0xe
 1972 0190 3A       		.uleb128 0x3a
 1973 0191 0B       		.uleb128 0xb
 1974 0192 3B       		.uleb128 0x3b
 1975 0193 0B       		.uleb128 0xb
 1976 0194 27       		.uleb128 0x27
 1977 0195 19       		.uleb128 0x19
 1978 0196 20       		.uleb128 0x20
 1979 0197 0B       		.uleb128 0xb
 1980 0198 01       		.uleb128 0x1
 1981 0199 13       		.uleb128 0x13
 1982 019a 00       		.byte	0
 1983 019b 00       		.byte	0
 1984 019c 21       		.uleb128 0x21
 1985 019d 2E       		.uleb128 0x2e
 1986 019e 01       		.byte	0x1
 1987 019f 3F       		.uleb128 0x3f
 1988 01a0 19       		.uleb128 0x19
 1989 01a1 03       		.uleb128 0x3
 1990 01a2 0E       		.uleb128 0xe
 1991 01a3 3A       		.uleb128 0x3a
 1992 01a4 0B       		.uleb128 0xb
 1993 01a5 3B       		.uleb128 0x3b
 1994 01a6 0B       		.uleb128 0xb
 1995 01a7 27       		.uleb128 0x27
ARM GAS  /tmp/ccF804Lc.s 			page 36


 1996 01a8 19       		.uleb128 0x19
 1997 01a9 49       		.uleb128 0x49
 1998 01aa 13       		.uleb128 0x13
 1999 01ab 11       		.uleb128 0x11
 2000 01ac 01       		.uleb128 0x1
 2001 01ad 12       		.uleb128 0x12
 2002 01ae 06       		.uleb128 0x6
 2003 01af 40       		.uleb128 0x40
 2004 01b0 18       		.uleb128 0x18
 2005 01b1 9742     		.uleb128 0x2117
 2006 01b3 19       		.uleb128 0x19
 2007 01b4 01       		.uleb128 0x1
 2008 01b5 13       		.uleb128 0x13
 2009 01b6 00       		.byte	0
 2010 01b7 00       		.byte	0
 2011 01b8 22       		.uleb128 0x22
 2012 01b9 05       		.uleb128 0x5
 2013 01ba 00       		.byte	0
 2014 01bb 03       		.uleb128 0x3
 2015 01bc 08       		.uleb128 0x8
 2016 01bd 3A       		.uleb128 0x3a
 2017 01be 0B       		.uleb128 0xb
 2018 01bf 3B       		.uleb128 0x3b
 2019 01c0 0B       		.uleb128 0xb
 2020 01c1 49       		.uleb128 0x49
 2021 01c2 13       		.uleb128 0x13
 2022 01c3 02       		.uleb128 0x2
 2023 01c4 17       		.uleb128 0x17
 2024 01c5 00       		.byte	0
 2025 01c6 00       		.byte	0
 2026 01c7 23       		.uleb128 0x23
 2027 01c8 34       		.uleb128 0x34
 2028 01c9 00       		.byte	0
 2029 01ca 03       		.uleb128 0x3
 2030 01cb 08       		.uleb128 0x8
 2031 01cc 3A       		.uleb128 0x3a
 2032 01cd 0B       		.uleb128 0xb
 2033 01ce 3B       		.uleb128 0x3b
 2034 01cf 0B       		.uleb128 0xb
 2035 01d0 49       		.uleb128 0x49
 2036 01d1 13       		.uleb128 0x13
 2037 01d2 02       		.uleb128 0x2
 2038 01d3 18       		.uleb128 0x18
 2039 01d4 00       		.byte	0
 2040 01d5 00       		.byte	0
 2041 01d6 24       		.uleb128 0x24
 2042 01d7 34       		.uleb128 0x34
 2043 01d8 00       		.byte	0
 2044 01d9 03       		.uleb128 0x3
 2045 01da 0E       		.uleb128 0xe
 2046 01db 49       		.uleb128 0x49
 2047 01dc 13       		.uleb128 0x13
 2048 01dd 34       		.uleb128 0x34
 2049 01de 19       		.uleb128 0x19
 2050 01df 00       		.byte	0
 2051 01e0 00       		.byte	0
 2052 01e1 25       		.uleb128 0x25
ARM GAS  /tmp/ccF804Lc.s 			page 37


 2053 01e2 1D       		.uleb128 0x1d
 2054 01e3 01       		.byte	0x1
 2055 01e4 31       		.uleb128 0x31
 2056 01e5 13       		.uleb128 0x13
 2057 01e6 52       		.uleb128 0x52
 2058 01e7 01       		.uleb128 0x1
 2059 01e8 55       		.uleb128 0x55
 2060 01e9 17       		.uleb128 0x17
 2061 01ea 58       		.uleb128 0x58
 2062 01eb 0B       		.uleb128 0xb
 2063 01ec 59       		.uleb128 0x59
 2064 01ed 0B       		.uleb128 0xb
 2065 01ee 01       		.uleb128 0x1
 2066 01ef 13       		.uleb128 0x13
 2067 01f0 00       		.byte	0
 2068 01f1 00       		.byte	0
 2069 01f2 26       		.uleb128 0x26
 2070 01f3 1D       		.uleb128 0x1d
 2071 01f4 01       		.byte	0x1
 2072 01f5 31       		.uleb128 0x31
 2073 01f6 13       		.uleb128 0x13
 2074 01f7 52       		.uleb128 0x52
 2075 01f8 01       		.uleb128 0x1
 2076 01f9 55       		.uleb128 0x55
 2077 01fa 17       		.uleb128 0x17
 2078 01fb 58       		.uleb128 0x58
 2079 01fc 0B       		.uleb128 0xb
 2080 01fd 59       		.uleb128 0x59
 2081 01fe 05       		.uleb128 0x5
 2082 01ff 00       		.byte	0
 2083 0200 00       		.byte	0
 2084 0201 27       		.uleb128 0x27
 2085 0202 05       		.uleb128 0x5
 2086 0203 00       		.byte	0
 2087 0204 31       		.uleb128 0x31
 2088 0205 13       		.uleb128 0x13
 2089 0206 1C       		.uleb128 0x1c
 2090 0207 0B       		.uleb128 0xb
 2091 0208 00       		.byte	0
 2092 0209 00       		.byte	0
 2093 020a 28       		.uleb128 0x28
 2094 020b 05       		.uleb128 0x5
 2095 020c 00       		.byte	0
 2096 020d 31       		.uleb128 0x31
 2097 020e 13       		.uleb128 0x13
 2098 020f 02       		.uleb128 0x2
 2099 0210 18       		.uleb128 0x18
 2100 0211 00       		.byte	0
 2101 0212 00       		.byte	0
 2102 0213 29       		.uleb128 0x29
 2103 0214 1D       		.uleb128 0x1d
 2104 0215 01       		.byte	0x1
 2105 0216 31       		.uleb128 0x31
 2106 0217 13       		.uleb128 0x13
 2107 0218 11       		.uleb128 0x11
 2108 0219 01       		.uleb128 0x1
 2109 021a 12       		.uleb128 0x12
ARM GAS  /tmp/ccF804Lc.s 			page 38


 2110 021b 06       		.uleb128 0x6
 2111 021c 58       		.uleb128 0x58
 2112 021d 0B       		.uleb128 0xb
 2113 021e 59       		.uleb128 0x59
 2114 021f 0B       		.uleb128 0xb
 2115 0220 01       		.uleb128 0x1
 2116 0221 13       		.uleb128 0x13
 2117 0222 00       		.byte	0
 2118 0223 00       		.byte	0
 2119 0224 2A       		.uleb128 0x2a
 2120 0225 0B       		.uleb128 0xb
 2121 0226 01       		.byte	0x1
 2122 0227 11       		.uleb128 0x11
 2123 0228 01       		.uleb128 0x1
 2124 0229 12       		.uleb128 0x12
 2125 022a 06       		.uleb128 0x6
 2126 022b 00       		.byte	0
 2127 022c 00       		.byte	0
 2128 022d 2B       		.uleb128 0x2b
 2129 022e 34       		.uleb128 0x34
 2130 022f 00       		.byte	0
 2131 0230 31       		.uleb128 0x31
 2132 0231 13       		.uleb128 0x13
 2133 0232 00       		.byte	0
 2134 0233 00       		.byte	0
 2135 0234 2C       		.uleb128 0x2c
 2136 0235 1D       		.uleb128 0x1d
 2137 0236 01       		.byte	0x1
 2138 0237 31       		.uleb128 0x31
 2139 0238 13       		.uleb128 0x13
 2140 0239 11       		.uleb128 0x11
 2141 023a 01       		.uleb128 0x1
 2142 023b 12       		.uleb128 0x12
 2143 023c 06       		.uleb128 0x6
 2144 023d 58       		.uleb128 0x58
 2145 023e 0B       		.uleb128 0xb
 2146 023f 59       		.uleb128 0x59
 2147 0240 05       		.uleb128 0x5
 2148 0241 00       		.byte	0
 2149 0242 00       		.byte	0
 2150 0243 2D       		.uleb128 0x2d
 2151 0244 05       		.uleb128 0x5
 2152 0245 00       		.byte	0
 2153 0246 31       		.uleb128 0x31
 2154 0247 13       		.uleb128 0x13
 2155 0248 02       		.uleb128 0x2
 2156 0249 17       		.uleb128 0x17
 2157 024a 00       		.byte	0
 2158 024b 00       		.byte	0
 2159 024c 2E       		.uleb128 0x2e
 2160 024d 898201   		.uleb128 0x4109
 2161 0250 01       		.byte	0x1
 2162 0251 11       		.uleb128 0x11
 2163 0252 01       		.uleb128 0x1
 2164 0253 31       		.uleb128 0x31
 2165 0254 13       		.uleb128 0x13
 2166 0255 01       		.uleb128 0x1
ARM GAS  /tmp/ccF804Lc.s 			page 39


 2167 0256 13       		.uleb128 0x13
 2168 0257 00       		.byte	0
 2169 0258 00       		.byte	0
 2170 0259 2F       		.uleb128 0x2f
 2171 025a 8A8201   		.uleb128 0x410a
 2172 025d 00       		.byte	0
 2173 025e 02       		.uleb128 0x2
 2174 025f 18       		.uleb128 0x18
 2175 0260 9142     		.uleb128 0x2111
 2176 0262 18       		.uleb128 0x18
 2177 0263 00       		.byte	0
 2178 0264 00       		.byte	0
 2179 0265 30       		.uleb128 0x30
 2180 0266 898201   		.uleb128 0x4109
 2181 0269 00       		.byte	0
 2182 026a 11       		.uleb128 0x11
 2183 026b 01       		.uleb128 0x1
 2184 026c 31       		.uleb128 0x31
 2185 026d 13       		.uleb128 0x13
 2186 026e 00       		.byte	0
 2187 026f 00       		.byte	0
 2188 0270 31       		.uleb128 0x31
 2189 0271 34       		.uleb128 0x34
 2190 0272 00       		.byte	0
 2191 0273 03       		.uleb128 0x3
 2192 0274 08       		.uleb128 0x8
 2193 0275 3A       		.uleb128 0x3a
 2194 0276 0B       		.uleb128 0xb
 2195 0277 3B       		.uleb128 0x3b
 2196 0278 0B       		.uleb128 0xb
 2197 0279 49       		.uleb128 0x49
 2198 027a 13       		.uleb128 0x13
 2199 027b 00       		.byte	0
 2200 027c 00       		.byte	0
 2201 027d 32       		.uleb128 0x32
 2202 027e 0B       		.uleb128 0xb
 2203 027f 01       		.byte	0x1
 2204 0280 55       		.uleb128 0x55
 2205 0281 17       		.uleb128 0x17
 2206 0282 00       		.byte	0
 2207 0283 00       		.byte	0
 2208 0284 33       		.uleb128 0x33
 2209 0285 34       		.uleb128 0x34
 2210 0286 00       		.byte	0
 2211 0287 31       		.uleb128 0x31
 2212 0288 13       		.uleb128 0x13
 2213 0289 02       		.uleb128 0x2
 2214 028a 17       		.uleb128 0x17
 2215 028b 00       		.byte	0
 2216 028c 00       		.byte	0
 2217 028d 34       		.uleb128 0x34
 2218 028e 898201   		.uleb128 0x4109
 2219 0291 01       		.byte	0x1
 2220 0292 11       		.uleb128 0x11
 2221 0293 01       		.uleb128 0x1
 2222 0294 31       		.uleb128 0x31
 2223 0295 13       		.uleb128 0x13
ARM GAS  /tmp/ccF804Lc.s 			page 40


 2224 0296 00       		.byte	0
 2225 0297 00       		.byte	0
 2226 0298 35       		.uleb128 0x35
 2227 0299 2E       		.uleb128 0x2e
 2228 029a 01       		.byte	0x1
 2229 029b 3F       		.uleb128 0x3f
 2230 029c 19       		.uleb128 0x19
 2231 029d 03       		.uleb128 0x3
 2232 029e 0E       		.uleb128 0xe
 2233 029f 3A       		.uleb128 0x3a
 2234 02a0 0B       		.uleb128 0xb
 2235 02a1 3B       		.uleb128 0x3b
 2236 02a2 0B       		.uleb128 0xb
 2237 02a3 27       		.uleb128 0x27
 2238 02a4 19       		.uleb128 0x19
 2239 02a5 11       		.uleb128 0x11
 2240 02a6 01       		.uleb128 0x1
 2241 02a7 12       		.uleb128 0x12
 2242 02a8 06       		.uleb128 0x6
 2243 02a9 40       		.uleb128 0x40
 2244 02aa 18       		.uleb128 0x18
 2245 02ab 9742     		.uleb128 0x2117
 2246 02ad 19       		.uleb128 0x19
 2247 02ae 01       		.uleb128 0x1
 2248 02af 13       		.uleb128 0x13
 2249 02b0 00       		.byte	0
 2250 02b1 00       		.byte	0
 2251 02b2 36       		.uleb128 0x36
 2252 02b3 1D       		.uleb128 0x1d
 2253 02b4 01       		.byte	0x1
 2254 02b5 31       		.uleb128 0x31
 2255 02b6 13       		.uleb128 0x13
 2256 02b7 11       		.uleb128 0x11
 2257 02b8 01       		.uleb128 0x1
 2258 02b9 12       		.uleb128 0x12
 2259 02ba 06       		.uleb128 0x6
 2260 02bb 58       		.uleb128 0x58
 2261 02bc 0B       		.uleb128 0xb
 2262 02bd 59       		.uleb128 0x59
 2263 02be 0B       		.uleb128 0xb
 2264 02bf 00       		.byte	0
 2265 02c0 00       		.byte	0
 2266 02c1 37       		.uleb128 0x37
 2267 02c2 34       		.uleb128 0x34
 2268 02c3 00       		.byte	0
 2269 02c4 03       		.uleb128 0x3
 2270 02c5 0E       		.uleb128 0xe
 2271 02c6 3A       		.uleb128 0x3a
 2272 02c7 0B       		.uleb128 0xb
 2273 02c8 3B       		.uleb128 0x3b
 2274 02c9 05       		.uleb128 0x5
 2275 02ca 49       		.uleb128 0x49
 2276 02cb 13       		.uleb128 0x13
 2277 02cc 3F       		.uleb128 0x3f
 2278 02cd 19       		.uleb128 0x19
 2279 02ce 3C       		.uleb128 0x3c
 2280 02cf 19       		.uleb128 0x19
ARM GAS  /tmp/ccF804Lc.s 			page 41


 2281 02d0 00       		.byte	0
 2282 02d1 00       		.byte	0
 2283 02d2 38       		.uleb128 0x38
 2284 02d3 34       		.uleb128 0x34
 2285 02d4 00       		.byte	0
 2286 02d5 03       		.uleb128 0x3
 2287 02d6 08       		.uleb128 0x8
 2288 02d7 3A       		.uleb128 0x3a
 2289 02d8 0B       		.uleb128 0xb
 2290 02d9 3B       		.uleb128 0x3b
 2291 02da 05       		.uleb128 0x5
 2292 02db 49       		.uleb128 0x49
 2293 02dc 13       		.uleb128 0x13
 2294 02dd 3F       		.uleb128 0x3f
 2295 02de 19       		.uleb128 0x19
 2296 02df 3C       		.uleb128 0x3c
 2297 02e0 19       		.uleb128 0x19
 2298 02e1 00       		.byte	0
 2299 02e2 00       		.byte	0
 2300 02e3 39       		.uleb128 0x39
 2301 02e4 2E       		.uleb128 0x2e
 2302 02e5 01       		.byte	0x1
 2303 02e6 3F       		.uleb128 0x3f
 2304 02e7 19       		.uleb128 0x19
 2305 02e8 03       		.uleb128 0x3
 2306 02e9 0E       		.uleb128 0xe
 2307 02ea 3A       		.uleb128 0x3a
 2308 02eb 0B       		.uleb128 0xb
 2309 02ec 3B       		.uleb128 0x3b
 2310 02ed 05       		.uleb128 0x5
 2311 02ee 27       		.uleb128 0x27
 2312 02ef 19       		.uleb128 0x19
 2313 02f0 3C       		.uleb128 0x3c
 2314 02f1 19       		.uleb128 0x19
 2315 02f2 01       		.uleb128 0x1
 2316 02f3 13       		.uleb128 0x13
 2317 02f4 00       		.byte	0
 2318 02f5 00       		.byte	0
 2319 02f6 3A       		.uleb128 0x3a
 2320 02f7 2E       		.uleb128 0x2e
 2321 02f8 01       		.byte	0x1
 2322 02f9 3F       		.uleb128 0x3f
 2323 02fa 19       		.uleb128 0x19
 2324 02fb 03       		.uleb128 0x3
 2325 02fc 0E       		.uleb128 0xe
 2326 02fd 3A       		.uleb128 0x3a
 2327 02fe 0B       		.uleb128 0xb
 2328 02ff 3B       		.uleb128 0x3b
 2329 0300 05       		.uleb128 0x5
 2330 0301 27       		.uleb128 0x27
 2331 0302 19       		.uleb128 0x19
 2332 0303 49       		.uleb128 0x49
 2333 0304 13       		.uleb128 0x13
 2334 0305 3C       		.uleb128 0x3c
 2335 0306 19       		.uleb128 0x19
 2336 0307 01       		.uleb128 0x1
 2337 0308 13       		.uleb128 0x13
ARM GAS  /tmp/ccF804Lc.s 			page 42


 2338 0309 00       		.byte	0
 2339 030a 00       		.byte	0
 2340 030b 3B       		.uleb128 0x3b
 2341 030c 2E       		.uleb128 0x2e
 2342 030d 01       		.byte	0x1
 2343 030e 3F       		.uleb128 0x3f
 2344 030f 19       		.uleb128 0x19
 2345 0310 03       		.uleb128 0x3
 2346 0311 0E       		.uleb128 0xe
 2347 0312 3A       		.uleb128 0x3a
 2348 0313 0B       		.uleb128 0xb
 2349 0314 3B       		.uleb128 0x3b
 2350 0315 05       		.uleb128 0x5
 2351 0316 27       		.uleb128 0x27
 2352 0317 19       		.uleb128 0x19
 2353 0318 3C       		.uleb128 0x3c
 2354 0319 19       		.uleb128 0x19
 2355 031a 00       		.byte	0
 2356 031b 00       		.byte	0
 2357 031c 00       		.byte	0
 2358              		.section	.debug_loc,"",%progbits
 2359              	.Ldebug_loc0:
 2360              	.LLST0:
 2361 0000 00000000 		.4byte	.LVL0
 2362 0004 24000000 		.4byte	.LVL3
 2363 0008 0100     		.2byte	0x1
 2364 000a 50       		.byte	0x50
 2365 000b 24000000 		.4byte	.LVL3
 2366 000f 34000000 		.4byte	.LVL6
 2367 0013 0300     		.2byte	0x3
 2368 0015 75       		.byte	0x75
 2369 0016 64       		.sleb128 -28
 2370 0017 9F       		.byte	0x9f
 2371 0018 34000000 		.4byte	.LVL6
 2372 001c 37000000 		.4byte	.LVL7-1
 2373 0020 0100     		.2byte	0x1
 2374 0022 50       		.byte	0x50
 2375 0023 37000000 		.4byte	.LVL7-1
 2376 0027 40000000 		.4byte	.LFE170
 2377 002b 0300     		.2byte	0x3
 2378 002d 75       		.byte	0x75
 2379 002e 64       		.sleb128 -28
 2380 002f 9F       		.byte	0x9f
 2381 0030 00000000 		.4byte	0
 2382 0034 00000000 		.4byte	0
 2383              	.LLST1:
 2384 0038 00000000 		.4byte	.LVL0
 2385 003c 24000000 		.4byte	.LVL3
 2386 0040 0100     		.2byte	0x1
 2387 0042 51       		.byte	0x51
 2388 0043 24000000 		.4byte	.LVL3
 2389 0047 2C000000 		.4byte	.LVL5
 2390 004b 0400     		.2byte	0x4
 2391 004d F3       		.byte	0xf3
 2392 004e 01       		.uleb128 0x1
 2393 004f 51       		.byte	0x51
 2394 0050 9F       		.byte	0x9f
ARM GAS  /tmp/ccF804Lc.s 			page 43


 2395 0051 2C000000 		.4byte	.LVL5
 2396 0055 34000000 		.4byte	.LVL6
 2397 0059 0100     		.2byte	0x1
 2398 005b 50       		.byte	0x50
 2399 005c 34000000 		.4byte	.LVL6
 2400 0060 37000000 		.4byte	.LVL7-1
 2401 0064 0100     		.2byte	0x1
 2402 0066 51       		.byte	0x51
 2403 0067 37000000 		.4byte	.LVL7-1
 2404 006b 40000000 		.4byte	.LFE170
 2405 006f 0400     		.2byte	0x4
 2406 0071 F3       		.byte	0xf3
 2407 0072 01       		.uleb128 0x1
 2408 0073 51       		.byte	0x51
 2409 0074 9F       		.byte	0x9f
 2410 0075 00000000 		.4byte	0
 2411 0079 00000000 		.4byte	0
 2412              	.LLST2:
 2413 007d 2C000000 		.4byte	.LVL5
 2414 0081 34000000 		.4byte	.LVL6
 2415 0085 0200     		.2byte	0x2
 2416 0087 30       		.byte	0x30
 2417 0088 9F       		.byte	0x9f
 2418 0089 00000000 		.4byte	0
 2419 008d 00000000 		.4byte	0
 2420              	.LLST3:
 2421 0091 0C000000 		.4byte	.LVL9
 2422 0095 16000000 		.4byte	.LVL10
 2423 0099 0100     		.2byte	0x1
 2424 009b 52       		.byte	0x52
 2425 009c 28000000 		.4byte	.LVL12
 2426 00a0 2D000000 		.4byte	.LVL13-1
 2427 00a4 0100     		.2byte	0x1
 2428 00a6 52       		.byte	0x52
 2429 00a7 00000000 		.4byte	0
 2430 00ab 00000000 		.4byte	0
 2431              	.LLST4:
 2432 00af 16000000 		.4byte	.LVL10
 2433 00b3 28000000 		.4byte	.LVL12
 2434 00b7 0100     		.2byte	0x1
 2435 00b9 53       		.byte	0x53
 2436 00ba 00000000 		.4byte	0
 2437 00be 00000000 		.4byte	0
 2438              	.LLST5:
 2439 00c2 16000000 		.4byte	.LVL10
 2440 00c6 28000000 		.4byte	.LVL12
 2441 00ca 0100     		.2byte	0x1
 2442 00cc 50       		.byte	0x50
 2443 00cd 00000000 		.4byte	0
 2444 00d1 00000000 		.4byte	0
 2445              	.LLST6:
 2446 00d5 22000000 		.4byte	.LVL11
 2447 00d9 28000000 		.4byte	.LVL12
 2448 00dd 0200     		.2byte	0x2
 2449 00df 30       		.byte	0x30
 2450 00e0 9F       		.byte	0x9f
 2451 00e1 00000000 		.4byte	0
ARM GAS  /tmp/ccF804Lc.s 			page 44


 2452 00e5 00000000 		.4byte	0
 2453              	.LLST7:
 2454 00e9 00000000 		.4byte	.LVL14
 2455 00ed 0B000000 		.4byte	.LVL16-1
 2456 00f1 0100     		.2byte	0x1
 2457 00f3 50       		.byte	0x50
 2458 00f4 0B000000 		.4byte	.LVL16-1
 2459 00f8 14000000 		.4byte	.LFE172
 2460 00fc 0400     		.2byte	0x4
 2461 00fe F3       		.byte	0xf3
 2462 00ff 01       		.uleb128 0x1
 2463 0100 50       		.byte	0x50
 2464 0101 9F       		.byte	0x9f
 2465 0102 00000000 		.4byte	0
 2466 0106 00000000 		.4byte	0
 2467              	.LLST8:
 2468 010a 00000000 		.4byte	.LVL14
 2469 010e 0B000000 		.4byte	.LVL16-1
 2470 0112 0100     		.2byte	0x1
 2471 0114 51       		.byte	0x51
 2472 0115 0B000000 		.4byte	.LVL16-1
 2473 0119 14000000 		.4byte	.LFE172
 2474 011d 0400     		.2byte	0x4
 2475 011f F3       		.byte	0xf3
 2476 0120 01       		.uleb128 0x1
 2477 0121 51       		.byte	0x51
 2478 0122 9F       		.byte	0x9f
 2479 0123 00000000 		.4byte	0
 2480 0127 00000000 		.4byte	0
 2481              	.LLST9:
 2482 012b 08000000 		.4byte	.LVL15
 2483 012f 0B000000 		.4byte	.LVL16-1
 2484 0133 0100     		.2byte	0x1
 2485 0135 51       		.byte	0x51
 2486 0136 0B000000 		.4byte	.LVL16-1
 2487 013a 14000000 		.4byte	.LFE172
 2488 013e 0400     		.2byte	0x4
 2489 0140 F3       		.byte	0xf3
 2490 0141 01       		.uleb128 0x1
 2491 0142 51       		.byte	0x51
 2492 0143 9F       		.byte	0x9f
 2493 0144 00000000 		.4byte	0
 2494 0148 00000000 		.4byte	0
 2495              	.LLST10:
 2496 014c 08000000 		.4byte	.LVL15
 2497 0150 0B000000 		.4byte	.LVL16-1
 2498 0154 0100     		.2byte	0x1
 2499 0156 50       		.byte	0x50
 2500 0157 0B000000 		.4byte	.LVL16-1
 2501 015b 14000000 		.4byte	.LFE172
 2502 015f 0400     		.2byte	0x4
 2503 0161 F3       		.byte	0xf3
 2504 0162 01       		.uleb128 0x1
 2505 0163 50       		.byte	0x50
 2506 0164 9F       		.byte	0x9f
 2507 0165 00000000 		.4byte	0
 2508 0169 00000000 		.4byte	0
ARM GAS  /tmp/ccF804Lc.s 			page 45


 2509              		.section	.debug_aranges,"",%progbits
 2510 0000 2C000000 		.4byte	0x2c
 2511 0004 0200     		.2byte	0x2
 2512 0006 00000000 		.4byte	.Ldebug_info0
 2513 000a 04       		.byte	0x4
 2514 000b 00       		.byte	0
 2515 000c 0000     		.2byte	0
 2516 000e 0000     		.2byte	0
 2517 0010 00000000 		.4byte	.LFB170
 2518 0014 40000000 		.4byte	.LFE170-.LFB170
 2519 0018 00000000 		.4byte	.LFB171
 2520 001c 3C000000 		.4byte	.LFE171-.LFB171
 2521 0020 00000000 		.4byte	.LFB172
 2522 0024 14000000 		.4byte	.LFE172-.LFB172
 2523 0028 00000000 		.4byte	0
 2524 002c 00000000 		.4byte	0
 2525              		.section	.debug_ranges,"",%progbits
 2526              	.Ldebug_ranges0:
 2527 0000 04000000 		.4byte	.LBB52
 2528 0004 06000000 		.4byte	.LBE52
 2529 0008 08000000 		.4byte	.LBB59
 2530 000c 0C000000 		.4byte	.LBE59
 2531 0010 00000000 		.4byte	0
 2532 0014 00000000 		.4byte	0
 2533 0018 14000000 		.4byte	.LBB60
 2534 001c 16000000 		.4byte	.LBE60
 2535 0020 1A000000 		.4byte	.LBB63
 2536 0024 22000000 		.4byte	.LBE63
 2537 0028 00000000 		.4byte	0
 2538 002c 00000000 		.4byte	0
 2539 0030 16000000 		.4byte	.LBB75
 2540 0034 18000000 		.4byte	.LBE75
 2541 0038 1A000000 		.4byte	.LBB78
 2542 003c 1E000000 		.4byte	.LBE78
 2543 0040 00000000 		.4byte	0
 2544 0044 00000000 		.4byte	0
 2545 0048 1E000000 		.4byte	.LBB79
 2546 004c 20000000 		.4byte	.LBE79
 2547 0050 22000000 		.4byte	.LBB88
 2548 0054 26000000 		.4byte	.LBE88
 2549 0058 00000000 		.4byte	0
 2550 005c 00000000 		.4byte	0
 2551 0060 00000000 		.4byte	.LFB170
 2552 0064 40000000 		.4byte	.LFE170
 2553 0068 00000000 		.4byte	.LFB171
 2554 006c 3C000000 		.4byte	.LFE171
 2555 0070 00000000 		.4byte	.LFB172
 2556 0074 14000000 		.4byte	.LFE172
 2557 0078 00000000 		.4byte	0
 2558 007c 00000000 		.4byte	0
 2559              		.section	.debug_line,"",%progbits
 2560              	.Ldebug_line0:
 2561 0000 2B030000 		.section	.debug_str,"MS",%progbits,1
 2561      02005602 
 2561      00000201 
 2561      FB0E0D00 
 2561      01010101 
ARM GAS  /tmp/ccF804Lc.s 			page 46


 2562              	.LASF46:
 2563 0000 63685F74 		.ascii	"ch_threads_list\000"
 2563      68726561 
 2563      64735F6C 
 2563      69737400 
 2564              	.LASF47:
 2565 0010 74687265 		.ascii	"threads_queue_t\000"
 2565      6164735F 
 2565      71756575 
 2565      655F7400 
 2566              	.LASF36:
 2567 0020 705F7761 		.ascii	"p_waiting\000"
 2567      6974696E 
 2567      6700
 2568              	.LASF87:
 2569 002a 77746D74 		.ascii	"wtmtxp\000"
 2569      787000
 2570              	.LASF81:
 2571 0031 746D5F63 		.ascii	"tm_calibration_t\000"
 2571      616C6962 
 2571      72617469 
 2571      6F6E5F74 
 2571      00
 2572              	.LASF96:
 2573 0042 63686172 		.ascii	"char\000"
 2573      00
 2574              	.LASF76:
 2575 0047 72656761 		.ascii	"regarm_t\000"
 2575      726D5F74 
 2575      00
 2576              	.LASF31:
 2577 0050 705F7072 		.ascii	"p_prio\000"
 2577      696F00
 2578              	.LASF27:
 2579 0057 73797374 		.ascii	"systime_t\000"
 2579      696D655F 
 2579      7400
 2580              	.LASF94:
 2581 0061 6D5F6F77 		.ascii	"m_owner\000"
 2581      6E657200 
 2582              	.LASF90:
 2583 0069 735F7175 		.ascii	"s_queue\000"
 2583      65756500 
 2584              	.LASF65:
 2585 0071 76745F73 		.ascii	"vt_systime\000"
 2585      79737469 
 2585      6D6500
 2586              	.LASF37:
 2587 007c 705F6D73 		.ascii	"p_msgqueue\000"
 2587      67717565 
 2587      756500
 2588              	.LASF0:
 2589 0087 756E7369 		.ascii	"unsigned int\000"
 2589      676E6564 
 2589      20696E74 
 2589      00
 2590              	.LASF44:
ARM GAS  /tmp/ccF804Lc.s 			page 47


 2591 0094 74687265 		.ascii	"threads_list_t\000"
 2591      6164735F 
 2591      6C697374 
 2591      5F7400
 2592              	.LASF7:
 2593 00a3 5F5F696E 		.ascii	"__int32_t\000"
 2593      7433325F 
 2593      7400
 2594              	.LASF110:
 2595 00ad 63684D73 		.ascii	"chMsgSend\000"
 2595      6753656E 
 2595      6400
 2596              	.LASF84:
 2597 00b7 77746F62 		.ascii	"wtobjp\000"
 2597      6A7000
 2598              	.LASF98:
 2599 00be 706F7274 		.ascii	"port_lock\000"
 2599      5F6C6F63 
 2599      6B00
 2600              	.LASF72:
 2601 00c8 76746C69 		.ascii	"vtlist\000"
 2601      737400
 2602              	.LASF50:
 2603 00cf 63685F72 		.ascii	"ch_ready_list\000"
 2603      65616479 
 2603      5F6C6973 
 2603      7400
 2604              	.LASF74:
 2605 00dd 69646C65 		.ascii	"idle_thread_wa\000"
 2605      5F746872 
 2605      6561645F 
 2605      776100
 2606              	.LASF88:
 2607 00ec 65776D61 		.ascii	"ewmask\000"
 2607      736B00
 2608              	.LASF48:
 2609 00f3 63685F74 		.ascii	"ch_threads_queue\000"
 2609      68726561 
 2609      64735F71 
 2609      75657565 
 2609      00
 2610              	.LASF55:
 2611 0104 76746675 		.ascii	"vtfunc_t\000"
 2611      6E635F74 
 2611      00
 2612              	.LASF115:
 2613 010d 63684D73 		.ascii	"chMsgRelease\000"
 2613      6752656C 
 2613      65617365 
 2613      00
 2614              	.LASF117:
 2615 011a 63685363 		.ascii	"chSchReadyI\000"
 2615      68526561 
 2615      64794900 
 2616              	.LASF91:
 2617 0126 735F636E 		.ascii	"s_cnt\000"
 2617      7400
ARM GAS  /tmp/ccF804Lc.s 			page 48


 2618              	.LASF67:
 2619 012c 63685F73 		.ascii	"ch_system_debug\000"
 2619      79737465 
 2619      6D5F6465 
 2619      62756700 
 2620              	.LASF17:
 2621 013c 75696E74 		.ascii	"uint32_t\000"
 2621      33325F74 
 2621      00
 2622              	.LASF25:
 2623 0145 6576656E 		.ascii	"eventmask_t\000"
 2623      746D6173 
 2623      6B5F7400 
 2624              	.LASF52:
 2625 0151 725F7072 		.ascii	"r_prio\000"
 2625      696F00
 2626              	.LASF62:
 2627 0158 76745F70 		.ascii	"vt_par\000"
 2627      617200
 2628              	.LASF89:
 2629 015f 63685F73 		.ascii	"ch_semaphore\000"
 2629      656D6170 
 2629      686F7265 
 2629      00
 2630              	.LASF23:
 2631 016c 74707269 		.ascii	"tprio_t\000"
 2631      6F5F7400 
 2632              	.LASF57:
 2633 0174 63685F76 		.ascii	"ch_virtual_timer\000"
 2633      69727475 
 2633      616C5F74 
 2633      696D6572 
 2633      00
 2634              	.LASF13:
 2635 0185 6C6F6E67 		.ascii	"long long unsigned int\000"
 2635      206C6F6E 
 2635      6720756E 
 2635      7369676E 
 2635      65642069 
 2636              	.LASF5:
 2637 019c 5F5F7569 		.ascii	"__uint16_t\000"
 2637      6E743136 
 2637      5F7400
 2638              	.LASF26:
 2639 01a7 636E745F 		.ascii	"cnt_t\000"
 2639      7400
 2640              	.LASF104:
 2641 01ad 63685379 		.ascii	"chSysUnlock\000"
 2641      73556E6C 
 2641      6F636B00 
 2642              	.LASF103:
 2643 01b9 76616C75 		.ascii	"value\000"
 2643      6500
 2644              	.LASF64:
 2645 01bf 63685F76 		.ascii	"ch_virtual_timers_list\000"
 2645      69727475 
 2645      616C5F74 
ARM GAS  /tmp/ccF804Lc.s 			page 49


 2645      696D6572 
 2645      735F6C69 
 2646              	.LASF28:
 2647 01d6 74687265 		.ascii	"thread_t\000"
 2647      61645F74 
 2647      00
 2648              	.LASF82:
 2649 01df 7264796D 		.ascii	"rdymsg\000"
 2649      736700
 2650              	.LASF80:
 2651 01e6 6F666673 		.ascii	"offset\000"
 2651      657400
 2652              	.LASF105:
 2653 01ed 5F426F6F 		.ascii	"_Bool\000"
 2653      6C00
 2654              	.LASF92:
 2655 01f3 63685F6D 		.ascii	"ch_mutex\000"
 2655      75746578 
 2655      00
 2656              	.LASF12:
 2657 01fc 5F5F7569 		.ascii	"__uint64_t\000"
 2657      6E743634 
 2657      5F7400
 2658              	.LASF100:
 2659 0207 63685379 		.ascii	"chSysLock\000"
 2659      734C6F63 
 2659      6B00
 2660              	.LASF106:
 2661 0211 63684D73 		.ascii	"chMsgIsPendingI\000"
 2661      67497350 
 2661      656E6469 
 2661      6E674900 
 2662              	.LASF60:
 2663 0221 76745F64 		.ascii	"vt_delta\000"
 2663      656C7461 
 2663      00
 2664              	.LASF43:
 2665 022a 74687265 		.ascii	"thread_reference_t\000"
 2665      61645F72 
 2665      65666572 
 2665      656E6365 
 2665      5F7400
 2666              	.LASF21:
 2667 023d 74737461 		.ascii	"tstate_t\000"
 2667      74655F74 
 2667      00
 2668              	.LASF33:
 2669 0246 705F7374 		.ascii	"p_state\000"
 2669      61746500 
 2670              	.LASF14:
 2671 024e 75696E74 		.ascii	"uint8_t\000"
 2671      385F7400 
 2672              	.LASF42:
 2673 0256 705F6D70 		.ascii	"p_mpool\000"
 2673      6F6F6C00 
 2674              	.LASF40:
 2675 025e 705F6D74 		.ascii	"p_mtxlist\000"
ARM GAS  /tmp/ccF804Lc.s 			page 50


 2675      786C6973 
 2675      7400
 2676              	.LASF45:
 2677 0268 63685F74 		.ascii	"ch_thread\000"
 2677      68726561 
 2677      6400
 2678              	.LASF114:
 2679 0272 2F686F6D 		.ascii	"/home/maciek/ChibiOS_16.1.5/os/rt/src/chmsg.c\000"
 2679      652F6D61 
 2679      6369656B 
 2679      2F436869 
 2679      62694F53 
 2680              	.LASF66:
 2681 02a0 73797374 		.ascii	"system_debug_t\000"
 2681      656D5F64 
 2681      65627567 
 2681      5F7400
 2682              	.LASF11:
 2683 02af 6C6F6E67 		.ascii	"long long int\000"
 2683      206C6F6E 
 2683      6720696E 
 2683      7400
 2684              	.LASF51:
 2685 02bd 725F7175 		.ascii	"r_queue\000"
 2685      65756500 
 2686              	.LASF24:
 2687 02c5 6D73675F 		.ascii	"msg_t\000"
 2687      7400
 2688              	.LASF111:
 2689 02cb 63684D73 		.ascii	"chMsgWait\000"
 2689      67576169 
 2689      7400
 2690              	.LASF113:
 2691 02d5 474E5520 		.ascii	"GNU C 4.9.3 20150529 (release) [ARM/embedded-4_9-br"
 2691      4320342E 
 2691      392E3320 
 2691      32303135 
 2691      30353239 
 2692 0308 616E6368 		.ascii	"anch revision 224288] -mcpu=cortex-m3 -mno-thumb-in"
 2692      20726576 
 2692      6973696F 
 2692      6E203232 
 2692      34323838 
 2693 033b 74657277 		.ascii	"terwork -mthumb -ggdb -O2 -fomit-frame-pointer -fal"
 2693      6F726B20 
 2693      2D6D7468 
 2693      756D6220 
 2693      2D676764 
 2694 036e 69676E2D 		.ascii	"ign-functions=16 -ffunction-sections -fdata-section"
 2694      66756E63 
 2694      74696F6E 
 2694      733D3136 
 2694      202D6666 
 2695 03a1 73202D66 		.ascii	"s -fno-common\000"
 2695      6E6F2D63 
 2695      6F6D6D6F 
 2695      6E00
ARM GAS  /tmp/ccF804Lc.s 			page 51


 2696              	.LASF78:
 2697 03af 636F6E74 		.ascii	"context\000"
 2697      65787400 
 2698              	.LASF34:
 2699 03b7 705F666C 		.ascii	"p_flags\000"
 2699      61677300 
 2700              	.LASF56:
 2701 03bf 76697274 		.ascii	"virtual_timer_t\000"
 2701      75616C5F 
 2701      74696D65 
 2701      725F7400 
 2702              	.LASF107:
 2703 03cf 71756575 		.ascii	"queue_fifo_remove\000"
 2703      655F6669 
 2703      666F5F72 
 2703      656D6F76 
 2703      6500
 2704              	.LASF68:
 2705 03e1 70616E69 		.ascii	"panic_msg\000"
 2705      635F6D73 
 2705      6700
 2706              	.LASF38:
 2707 03eb 705F6D73 		.ascii	"p_msg\000"
 2707      6700
 2708              	.LASF20:
 2709 03f1 746D6F64 		.ascii	"tmode_t\000"
 2709      655F7400 
 2710              	.LASF73:
 2711 03f9 6D61696E 		.ascii	"mainthread\000"
 2711      74687265 
 2711      616400
 2712              	.LASF15:
 2713 0404 75696E74 		.ascii	"uint16_t\000"
 2713      31365F74 
 2713      00
 2714              	.LASF19:
 2715 040d 7274636E 		.ascii	"rtcnt_t\000"
 2715      745F7400 
 2716              	.LASF41:
 2717 0415 705F7265 		.ascii	"p_realprio\000"
 2717      616C7072 
 2717      696F00
 2718              	.LASF3:
 2719 0420 73686F72 		.ascii	"short int\000"
 2719      7420696E 
 2719      7400
 2720              	.LASF54:
 2721 042a 725F6375 		.ascii	"r_current\000"
 2721      7272656E 
 2721      7400
 2722              	.LASF39:
 2723 0434 705F6570 		.ascii	"p_epending\000"
 2723      656E6469 
 2723      6E6700
 2724              	.LASF93:
 2725 043f 6D5F7175 		.ascii	"m_queue\000"
 2725      65756500 
ARM GAS  /tmp/ccF804Lc.s 			page 52


 2726              	.LASF8:
 2727 0447 6C6F6E67 		.ascii	"long int\000"
 2727      20696E74 
 2727      00
 2728              	.LASF79:
 2729 0450 706F7274 		.ascii	"port_intctx\000"
 2729      5F696E74 
 2729      63747800 
 2730              	.LASF112:
 2731 045c 49544D5F 		.ascii	"ITM_RxBuffer\000"
 2731      52784275 
 2731      66666572 
 2731      00
 2732              	.LASF70:
 2733 0469 63685F73 		.ascii	"ch_system\000"
 2733      79737465 
 2733      6D00
 2734              	.LASF102:
 2735 0473 71756575 		.ascii	"queue_insert\000"
 2735      655F696E 
 2735      73657274 
 2735      00
 2736              	.LASF101:
 2737 0480 5F5F7365 		.ascii	"__set_BASEPRI\000"
 2737      745F4241 
 2737      53455052 
 2737      4900
 2738              	.LASF29:
 2739 048e 705F6E65 		.ascii	"p_next\000"
 2739      787400
 2740              	.LASF18:
 2741 0495 75696E74 		.ascii	"uint64_t\000"
 2741      36345F74 
 2741      00
 2742              	.LASF32:
 2743 049e 705F6374 		.ascii	"p_ctx\000"
 2743      7800
 2744              	.LASF71:
 2745 04a4 726C6973 		.ascii	"rlist\000"
 2745      7400
 2746              	.LASF4:
 2747 04aa 5F5F7569 		.ascii	"__uint8_t\000"
 2747      6E74385F 
 2747      7400
 2748              	.LASF116:
 2749 04b4 63685363 		.ascii	"chSchGoSleepS\000"
 2749      68476F53 
 2749      6C656570 
 2749      5300
 2750              	.LASF30:
 2751 04c2 705F7072 		.ascii	"p_prev\000"
 2751      657600
 2752              	.LASF75:
 2753 04c9 73697A65 		.ascii	"sizetype\000"
 2753      74797065 
 2753      00
 2754              	.LASF22:
ARM GAS  /tmp/ccF804Lc.s 			page 53


 2755 04d2 74726566 		.ascii	"trefs_t\000"
 2755      735F7400 
 2756              	.LASF10:
 2757 04da 6C6F6E67 		.ascii	"long unsigned int\000"
 2757      20756E73 
 2757      69676E65 
 2757      6420696E 
 2757      7400
 2758              	.LASF49:
 2759 04ec 72656164 		.ascii	"ready_list_t\000"
 2759      795F6C69 
 2759      73745F74 
 2759      00
 2760              	.LASF16:
 2761 04f9 696E7433 		.ascii	"int32_t\000"
 2761      325F7400 
 2762              	.LASF86:
 2763 0501 77747365 		.ascii	"wtsemp\000"
 2763      6D7000
 2764              	.LASF97:
 2765 0508 6D757465 		.ascii	"mutex_t\000"
 2765      785F7400 
 2766              	.LASF2:
 2767 0510 756E7369 		.ascii	"unsigned char\000"
 2767      676E6564 
 2767      20636861 
 2767      7200
 2768              	.LASF9:
 2769 051e 5F5F7569 		.ascii	"__uint32_t\000"
 2769      6E743332 
 2769      5F7400
 2770              	.LASF63:
 2771 0529 76697274 		.ascii	"virtual_timers_list_t\000"
 2771      75616C5F 
 2771      74696D65 
 2771      72735F6C 
 2771      6973745F 
 2772              	.LASF35:
 2773 053f 705F7265 		.ascii	"p_refs\000"
 2773      667300
 2774              	.LASF109:
 2775 0546 63684D73 		.ascii	"chMsgReleaseS\000"
 2775      6752656C 
 2775      65617365 
 2775      5300
 2776              	.LASF118:
 2777 0554 63685363 		.ascii	"chSchWakeupS\000"
 2777      6857616B 
 2777      65757053 
 2777      00
 2778              	.LASF58:
 2779 0561 76745F6E 		.ascii	"vt_next\000"
 2779      65787400 
 2780              	.LASF69:
 2781 0569 63685F73 		.ascii	"ch_system_t\000"
 2781      79737465 
 2781      6D5F7400 
ARM GAS  /tmp/ccF804Lc.s 			page 54


 2782              	.LASF85:
 2783 0575 77747472 		.ascii	"wttrp\000"
 2783      7000
 2784              	.LASF95:
 2785 057b 6D5F6E65 		.ascii	"m_next\000"
 2785      787400
 2786              	.LASF1:
 2787 0582 7369676E 		.ascii	"signed char\000"
 2787      65642063 
 2787      68617200 
 2788              	.LASF6:
 2789 058e 73686F72 		.ascii	"short unsigned int\000"
 2789      7420756E 
 2789      7369676E 
 2789      65642069 
 2789      6E7400
 2790              	.LASF53:
 2791 05a1 725F6374 		.ascii	"r_ctx\000"
 2791      7800
 2792              	.LASF77:
 2793 05a7 73746B61 		.ascii	"stkalign_t\000"
 2793      6C69676E 
 2793      5F7400
 2794              	.LASF108:
 2795 05b2 5F5F6675 		.ascii	"__func__\000"
 2795      6E635F5F 
 2795      00
 2796              	.LASF61:
 2797 05bb 76745F66 		.ascii	"vt_func\000"
 2797      756E6300 
 2798              	.LASF99:
 2799 05c3 706F7274 		.ascii	"port_unlock\000"
 2799      5F756E6C 
 2799      6F636B00 
 2800              	.LASF59:
 2801 05cf 76745F70 		.ascii	"vt_prev\000"
 2801      72657600 
 2802              	.LASF83:
 2803 05d7 65786974 		.ascii	"exitcode\000"
 2803      636F6465 
 2803      00
 2804              		.ident	"GCC: (GNU Tools for ARM Embedded Processors) 4.9.3 20150529 (release) [ARM/embedded-4_9-br
ARM GAS  /tmp/ccF804Lc.s 			page 55


DEFINED SYMBOLS
                            *ABS*:00000000 chmsg.c
     /tmp/ccF804Lc.s:19     .text.chMsgSend:00000000 $t
     /tmp/ccF804Lc.s:25     .text.chMsgSend:00000000 chMsgSend
     /tmp/ccF804Lc.s:137    .text.chMsgSend:0000003c $d
     /tmp/ccF804Lc.s:142    .text.chMsgWait:00000000 $t
     /tmp/ccF804Lc.s:148    .text.chMsgWait:00000000 chMsgWait
     /tmp/ccF804Lc.s:251    .text.chMsgWait:00000038 $d
     /tmp/ccF804Lc.s:256    .text.chMsgRelease:00000000 $t
     /tmp/ccF804Lc.s:262    .text.chMsgRelease:00000000 chMsgRelease
                     .debug_frame:00000010 $d

UNDEFINED SYMBOLS
chSchGoSleepS
chSchReadyI
ch
chSchWakeupS
