ARM GAS  /tmp/ccZw1gyL.s 			page 1


   1              		.syntax unified
   2              		.cpu cortex-m3
   3              		.fpu softvfp
   4              		.eabi_attribute 20, 1
   5              		.eabi_attribute 21, 1
   6              		.eabi_attribute 23, 3
   7              		.eabi_attribute 24, 1
   8              		.eabi_attribute 25, 1
   9              		.eabi_attribute 26, 1
  10              		.eabi_attribute 30, 2
  11              		.eabi_attribute 34, 1
  12              		.eabi_attribute 18, 4
  13              		.thumb
  14              		.file	"chmtx.c"
  15              		.text
  16              	.Ltext0:
  17              		.cfi_sections	.debug_frame
  18              		.section	.text.chMtxObjectInit,"ax",%progbits
  19              		.align	2
  20              		.p2align 4,,15
  21              		.global	chMtxObjectInit
  22              		.thumb
  23              		.thumb_func
  24              		.type	chMtxObjectInit, %function
  25              	chMtxObjectInit:
  26              	.LFB170:
  27              		.file 1 "/home/maciek/ChibiOS_16.1.5/os/rt/src/chmtx.c"
  28              		.loc 1 103 0
  29              		.cfi_startproc
  30              		@ args = 0, pretend = 0, frame = 0
  31              		@ frame_needed = 0, uses_anonymous_args = 0
  32              		@ link register save eliminated.
  33              	.LVL0:
  34              		.loc 1 108 0
  35 0000 0023     		movs	r3, #0
  36              	.LBB103:
  37              	.LBB104:
  38              		.file 2 "/home/maciek/ChibiOS_16.1.5/os/rt/include/chschd.h"
  39              		.loc 2 604 0
  40 0002 0060     		str	r0, [r0]
  41              		.loc 2 605 0
  42 0004 4060     		str	r0, [r0, #4]
  43              	.LBE104:
  44              	.LBE103:
  45              		.loc 1 108 0
  46 0006 8360     		str	r3, [r0, #8]
  47 0008 7047     		bx	lr
  48              		.cfi_endproc
  49              	.LFE170:
  50              		.size	chMtxObjectInit, .-chMtxObjectInit
  51 000a 00BF     		.section	.text.chMtxLockS,"ax",%progbits
  52              		.align	2
  53              		.p2align 4,,15
  54              		.global	chMtxLockS
  55              		.thumb
  56              		.thumb_func
  57              		.type	chMtxLockS, %function
ARM GAS  /tmp/ccZw1gyL.s 			page 2


  58              	chMtxLockS:
  59              	.LFB172:
  60              		.loc 1 139 0
  61              		.cfi_startproc
  62              		@ args = 0, pretend = 0, frame = 0
  63              		@ frame_needed = 0, uses_anonymous_args = 0
  64              	.LVL1:
  65 0000 F8B5     		push	{r3, r4, r5, r6, r7, lr}
  66              		.cfi_def_cfa_offset 24
  67              		.cfi_offset 3, -24
  68              		.cfi_offset 4, -20
  69              		.cfi_offset 5, -16
  70              		.cfi_offset 6, -12
  71              		.cfi_offset 7, -8
  72              		.cfi_offset 14, -4
  73              		.loc 1 146 0
  74 0002 8268     		ldr	r2, [r0, #8]
  75              		.loc 1 140 0
  76 0004 2F4B     		ldr	r3, .L28
  77 0006 1C69     		ldr	r4, [r3, #16]
  78              	.LVL2:
  79              		.loc 1 146 0
  80 0008 002A     		cmp	r2, #0
  81 000a 55D0     		beq	.L3
  82              	.LBB105:
  83              		.loc 1 165 0
  84 000c A168     		ldr	r1, [r4, #8]
  85 000e 9368     		ldr	r3, [r2, #8]
  86 0010 0546     		mov	r5, r0
  87              	.LVL3:
  88 0012 9942     		cmp	r1, r3
  89 0014 06D9     		bls	.L5
  90              	.LVL4:
  91              	.L10:
  92              		.loc 1 170 0
  93 0016 137C     		ldrb	r3, [r2, #16]	@ zero_extendqisi2
  94              		.loc 1 167 0
  95 0018 9160     		str	r1, [r2, #8]
  96              		.loc 1 170 0
  97 001a 062B     		cmp	r3, #6
  98 001c 33D0     		beq	.L6
  99 001e 072B     		cmp	r3, #7
 100 0020 1DD0     		beq	.L7
 101 0022 9BB1     		cbz	r3, .L27
 102              	.LVL5:
 103              	.L5:
 104              	.LBB106:
 105              	.LBB107:
 106              		.loc 2 653 0
 107 0024 2B46     		mov	r3, r5
 108 0026 03E0     		b	.L18
 109              	.LVL6:
 110              	.L17:
 111              		.loc 2 656 0
 112 0028 9968     		ldr	r1, [r3, #8]
 113 002a A268     		ldr	r2, [r4, #8]
 114 002c 9142     		cmp	r1, r2
ARM GAS  /tmp/ccZw1gyL.s 			page 3


 115 002e 02D3     		bcc	.L19
 116              	.L18:
 117              		.loc 2 655 0
 118 0030 1B68     		ldr	r3, [r3]
 119              	.LVL7:
 120              		.loc 2 656 0
 121 0032 9D42     		cmp	r5, r3
 122 0034 F8D1     		bne	.L17
 123              	.L19:
 124              		.loc 2 658 0
 125 0036 5A68     		ldr	r2, [r3, #4]
 126              		.loc 2 657 0
 127 0038 2360     		str	r3, [r4]
 128              		.loc 2 658 0
 129 003a 6260     		str	r2, [r4, #4]
 130              		.loc 2 659 0
 131 003c 1460     		str	r4, [r2]
 132              		.loc 2 660 0
 133 003e 5C60     		str	r4, [r3, #4]
 134              	.LBE107:
 135              	.LBE106:
 136              		.loc 1 213 0
 137 0040 6561     		str	r5, [r4, #20]
 138              		.loc 1 214 0
 139 0042 0620     		movs	r0, #6
 140              	.LBE105:
 141              		.loc 1 236 0
 142 0044 BDE8F840 		pop	{r3, r4, r5, r6, r7, lr}
 143              		.cfi_remember_state
 144              		.cfi_restore 14
 145              		.cfi_restore 7
 146              		.cfi_restore 6
 147              		.cfi_restore 5
 148              		.cfi_restore 4
 149              		.cfi_restore 3
 150              		.cfi_def_cfa_offset 0
 151              	.LVL8:
 152              	.LBB132:
 153              		.loc 1 214 0
 154 0048 FFF7FEBF 		b	chSchGoSleepS
 155              	.LVL9:
 156              	.L27:
 157              		.cfi_restore_state
 158              	.LBB108:
 159              	.LBB109:
 160              		.loc 2 691 0
 161 004c 92E80A00 		ldmia	r2, {r1, r3}
 162 0050 1960     		str	r1, [r3]
 163              	.LBE109:
 164              	.LBE108:
 165              		.loc 1 202 0
 166 0052 1046     		mov	r0, r2
 167              	.LBB111:
 168              	.LBB110:
 169              		.loc 2 692 0
 170 0054 1268     		ldr	r2, [r2]
 171              	.LVL10:
ARM GAS  /tmp/ccZw1gyL.s 			page 4


 172 0056 5360     		str	r3, [r2, #4]
 173              	.LBE110:
 174              	.LBE111:
 175              		.loc 1 202 0
 176 0058 FFF7FEFF 		bl	chSchReadyI
 177              	.LVL11:
 178              		.loc 1 203 0
 179 005c E2E7     		b	.L5
 180              	.LVL12:
 181              	.L7:
 182              	.LBB112:
 183              	.LBB113:
 184              		.loc 2 691 0
 185 005e 1768     		ldr	r7, [r2]
 186 0060 5068     		ldr	r0, [r2, #4]
 187              	.LBE113:
 188              	.LBE112:
 189              		.loc 1 193 0
 190 0062 5669     		ldr	r6, [r2, #20]
 191              	.LVL13:
 192              	.LBB116:
 193              	.LBB114:
 194              		.loc 2 691 0
 195 0064 0760     		str	r7, [r0]
 196              		.loc 2 692 0
 197 0066 1768     		ldr	r7, [r2]
 198              	.LBE114:
 199              	.LBE116:
 200              	.LBB117:
 201              	.LBB118:
 202              		.loc 2 653 0
 203 0068 3346     		mov	r3, r6
 204              	.LBE118:
 205              	.LBE117:
 206              	.LBB120:
 207              	.LBB115:
 208              		.loc 2 692 0
 209 006a 7860     		str	r0, [r7, #4]
 210 006c 02E0     		b	.L15
 211              	.LVL14:
 212              	.L14:
 213              	.LBE115:
 214              	.LBE120:
 215              	.LBB121:
 216              	.LBB119:
 217              		.loc 2 656 0
 218 006e 9868     		ldr	r0, [r3, #8]
 219 0070 8842     		cmp	r0, r1
 220 0072 02D3     		bcc	.L16
 221              	.L15:
 222              		.loc 2 655 0
 223 0074 1B68     		ldr	r3, [r3]
 224              	.LVL15:
 225              		.loc 2 656 0
 226 0076 9E42     		cmp	r6, r3
 227 0078 F9D1     		bne	.L14
 228              	.L16:
ARM GAS  /tmp/ccZw1gyL.s 			page 5


 229              		.loc 2 658 0
 230 007a 5968     		ldr	r1, [r3, #4]
 231              		.loc 2 657 0
 232 007c 1360     		str	r3, [r2]
 233              		.loc 2 658 0
 234 007e 5160     		str	r1, [r2, #4]
 235              		.loc 2 659 0
 236 0080 0A60     		str	r2, [r1]
 237              		.loc 2 660 0
 238 0082 5A60     		str	r2, [r3, #4]
 239 0084 CEE7     		b	.L5
 240              	.LVL16:
 241              	.L6:
 242              	.LBE119:
 243              	.LBE121:
 244              	.LBB122:
 245              	.LBB123:
 246              		.loc 2 691 0
 247 0086 1768     		ldr	r7, [r2]
 248 0088 5068     		ldr	r0, [r2, #4]
 249              	.LBE123:
 250              	.LBE122:
 251              		.loc 1 173 0
 252 008a 5669     		ldr	r6, [r2, #20]
 253              	.LVL17:
 254              	.LBB126:
 255              	.LBB124:
 256              		.loc 2 691 0
 257 008c 0760     		str	r7, [r0]
 258              		.loc 2 692 0
 259 008e 1768     		ldr	r7, [r2]
 260              	.LBE124:
 261              	.LBE126:
 262              	.LBB127:
 263              	.LBB128:
 264              		.loc 2 653 0
 265 0090 3346     		mov	r3, r6
 266              	.LBE128:
 267              	.LBE127:
 268              	.LBB130:
 269              	.LBB125:
 270              		.loc 2 692 0
 271 0092 7860     		str	r0, [r7, #4]
 272 0094 02E0     		b	.L12
 273              	.LVL18:
 274              	.L9:
 275              	.LBE125:
 276              	.LBE130:
 277              	.LBB131:
 278              	.LBB129:
 279              		.loc 2 656 0
 280 0096 9868     		ldr	r0, [r3, #8]
 281 0098 8842     		cmp	r0, r1
 282 009a 02D3     		bcc	.L13
 283              	.L12:
 284              		.loc 2 655 0
 285 009c 1B68     		ldr	r3, [r3]
ARM GAS  /tmp/ccZw1gyL.s 			page 6


 286              	.LVL19:
 287              		.loc 2 656 0
 288 009e 9E42     		cmp	r6, r3
 289 00a0 F9D1     		bne	.L9
 290              	.L13:
 291              		.loc 2 658 0
 292 00a2 5968     		ldr	r1, [r3, #4]
 293              		.loc 2 657 0
 294 00a4 1360     		str	r3, [r2]
 295              		.loc 2 658 0
 296 00a6 5160     		str	r1, [r2, #4]
 297              		.loc 2 659 0
 298 00a8 0A60     		str	r2, [r1]
 299              		.loc 2 660 0
 300 00aa 5A60     		str	r2, [r3, #4]
 301              	.LBE129:
 302              	.LBE131:
 303              		.loc 1 174 0
 304 00ac B268     		ldr	r2, [r6, #8]
 305              	.LVL20:
 306              		.loc 1 165 0
 307 00ae A168     		ldr	r1, [r4, #8]
 308 00b0 9368     		ldr	r3, [r2, #8]
 309              	.LVL21:
 310 00b2 8B42     		cmp	r3, r1
 311 00b4 AFD3     		bcc	.L10
 312 00b6 B5E7     		b	.L5
 313              	.LVL22:
 314              	.L3:
 315              	.LBE132:
 316              		.loc 1 233 0
 317 00b8 E36A     		ldr	r3, [r4, #44]
 318              		.loc 1 232 0
 319 00ba 8460     		str	r4, [r0, #8]
 320              		.loc 1 233 0
 321 00bc C360     		str	r3, [r0, #12]
 322              		.loc 1 234 0
 323 00be E062     		str	r0, [r4, #44]
 324 00c0 F8BD     		pop	{r3, r4, r5, r6, r7, pc}
 325              	.LVL23:
 326              	.L29:
 327 00c2 00BF     		.align	2
 328              	.L28:
 329 00c4 00000000 		.word	ch
 330              		.cfi_endproc
 331              	.LFE172:
 332              		.size	chMtxLockS, .-chMtxLockS
 333              		.section	.text.chMtxLock,"ax",%progbits
 334              		.align	2
 335              		.p2align 4,,15
 336              		.global	chMtxLock
 337              		.thumb
 338              		.thumb_func
 339              		.type	chMtxLock, %function
 340              	chMtxLock:
 341              	.LFB171:
 342              		.loc 1 123 0
ARM GAS  /tmp/ccZw1gyL.s 			page 7


 343              		.cfi_startproc
 344              		@ args = 0, pretend = 0, frame = 0
 345              		@ frame_needed = 0, uses_anonymous_args = 0
 346              	.LVL24:
 347 0000 08B5     		push	{r3, lr}
 348              		.cfi_def_cfa_offset 8
 349              		.cfi_offset 3, -8
 350              		.cfi_offset 14, -4
 351              	.LBB133:
 352              	.LBB134:
 353              	.LBB135:
 354              	.LBB136:
 355              		.file 3 "/home/maciek/ChibiOS_16.1.5/os/ext/CMSIS/include/core_cmFunc.h"
 356              		.loc 3 548 0
 357 0002 2023     		movs	r3, #32
 358              	@ 548 "/home/maciek/ChibiOS_16.1.5/os/ext/CMSIS/include/core_cmFunc.h" 1
 359 0004 83F31188 		MSR basepri, r3
 360              	@ 0 "" 2
 361              		.thumb
 362              	.LBE136:
 363              	.LBE135:
 364              	.LBE134:
 365              	.LBE133:
 366              		.loc 1 126 0
 367 0008 FFF7FEFF 		bl	chMtxLockS
 368              	.LVL25:
 369              	.LBB137:
 370              	.LBB138:
 371              	.LBB139:
 372              	.LBB140:
 373              	.LBB141:
 374              		.loc 3 548 0
 375 000c 0023     		movs	r3, #0
 376              	@ 548 "/home/maciek/ChibiOS_16.1.5/os/ext/CMSIS/include/core_cmFunc.h" 1
 377 000e 83F31188 		MSR basepri, r3
 378              	@ 0 "" 2
 379              		.thumb
 380 0012 08BD     		pop	{r3, pc}
 381              	.LBE141:
 382              	.LBE140:
 383              	.LBE139:
 384              	.LBE138:
 385              	.LBE137:
 386              		.cfi_endproc
 387              	.LFE171:
 388              		.size	chMtxLock, .-chMtxLock
 389              		.section	.text.chMtxTryLock,"ax",%progbits
 390              		.align	2
 391              		.p2align 4,,15
 392              		.global	chMtxTryLock
 393              		.thumb
 394              		.thumb_func
 395              		.type	chMtxTryLock, %function
 396              	chMtxTryLock:
 397              	.LFB173:
 398              		.loc 1 255 0
 399              		.cfi_startproc
ARM GAS  /tmp/ccZw1gyL.s 			page 8


 400              		@ args = 0, pretend = 0, frame = 0
 401              		@ frame_needed = 0, uses_anonymous_args = 0
 402              		@ link register save eliminated.
 403              	.LVL26:
 404              		.loc 1 255 0
 405 0000 0346     		mov	r3, r0
 406              	.LBB155:
 407              	.LBB156:
 408              	.LBB157:
 409              	.LBB158:
 410              		.loc 3 548 0
 411 0002 2022     		movs	r2, #32
 412              	@ 548 "/home/maciek/ChibiOS_16.1.5/os/ext/CMSIS/include/core_cmFunc.h" 1
 413 0004 82F31188 		MSR basepri, r2
 414              	@ 0 "" 2
 415              	.LVL27:
 416              		.thumb
 417              	.LBE158:
 418              	.LBE157:
 419              	.LBE156:
 420              	.LBE155:
 421              	.LBB159:
 422              	.LBB160:
 423              		.loc 1 287 0
 424 0008 8268     		ldr	r2, [r0, #8]
 425              		.loc 1 297 0
 426 000a 0020     		movs	r0, #0
 427              	.LVL28:
 428              		.loc 1 287 0
 429 000c 1AB1     		cbz	r2, .L35
 430              	.LVL29:
 431              	.LBE160:
 432              	.LBE159:
 433              	.LBB164:
 434              	.LBB165:
 435              	.LBB166:
 436              	.LBB167:
 437              	.LBB168:
 438              		.loc 3 548 0
 439 000e 0023     		movs	r3, #0
 440              	.LVL30:
 441              	@ 548 "/home/maciek/ChibiOS_16.1.5/os/ext/CMSIS/include/core_cmFunc.h" 1
 442 0010 83F31188 		MSR basepri, r3
 443              	@ 0 "" 2
 444              		.thumb
 445              	.LBE168:
 446              	.LBE167:
 447              	.LBE166:
 448              	.LBE165:
 449              	.LBE164:
 450              		.loc 1 263 0
 451 0014 7047     		bx	lr
 452              	.LVL31:
 453              	.L35:
 454              	.LBB173:
 455              	.LBB163:
 456              	.LBB161:
ARM GAS  /tmp/ccZw1gyL.s 			page 9


 457              	.LBB162:
 458              		.loc 1 305 0
 459 0016 054A     		ldr	r2, .L36
 460              		.loc 1 307 0
 461 0018 0120     		movs	r0, #1
 462              		.loc 1 305 0
 463 001a 1269     		ldr	r2, [r2, #16]
 464              		.loc 1 306 0
 465 001c D16A     		ldr	r1, [r2, #44]
 466              		.loc 1 305 0
 467 001e 9A60     		str	r2, [r3, #8]
 468              		.loc 1 306 0
 469 0020 D960     		str	r1, [r3, #12]
 470              		.loc 1 307 0
 471 0022 D362     		str	r3, [r2, #44]
 472              	.LVL32:
 473              	.LBE162:
 474              	.LBE161:
 475              	.LBE163:
 476              	.LBE173:
 477              	.LBB174:
 478              	.LBB172:
 479              	.LBB171:
 480              	.LBB170:
 481              	.LBB169:
 482              		.loc 3 548 0
 483 0024 0023     		movs	r3, #0
 484              	.LVL33:
 485              	@ 548 "/home/maciek/ChibiOS_16.1.5/os/ext/CMSIS/include/core_cmFunc.h" 1
 486 0026 83F31188 		MSR basepri, r3
 487              	@ 0 "" 2
 488              		.thumb
 489              	.LBE169:
 490              	.LBE170:
 491              	.LBE171:
 492              	.LBE172:
 493              	.LBE174:
 494              		.loc 1 263 0
 495 002a 7047     		bx	lr
 496              	.L37:
 497              		.align	2
 498              	.L36:
 499 002c 00000000 		.word	ch
 500              		.cfi_endproc
 501              	.LFE173:
 502              		.size	chMtxTryLock, .-chMtxTryLock
 503              		.section	.text.chMtxTryLockS,"ax",%progbits
 504              		.align	2
 505              		.p2align 4,,15
 506              		.global	chMtxTryLockS
 507              		.thumb
 508              		.thumb_func
 509              		.type	chMtxTryLockS, %function
 510              	chMtxTryLockS:
 511              	.LFB174:
 512              		.loc 1 282 0
 513              		.cfi_startproc
ARM GAS  /tmp/ccZw1gyL.s 			page 10


 514              		@ args = 0, pretend = 0, frame = 0
 515              		@ frame_needed = 0, uses_anonymous_args = 0
 516              		@ link register save eliminated.
 517              	.LVL34:
 518              		.loc 1 287 0
 519 0000 8268     		ldr	r2, [r0, #8]
 520              		.loc 1 282 0
 521 0002 0346     		mov	r3, r0
 522              		.loc 1 287 0
 523 0004 0AB1     		cbz	r2, .L41
 524              		.loc 1 297 0
 525 0006 0020     		movs	r0, #0
 526              	.LVL35:
 527              		.loc 1 309 0
 528 0008 7047     		bx	lr
 529              	.LVL36:
 530              	.L41:
 531              	.LBB177:
 532              	.LBB178:
 533              		.loc 1 305 0
 534 000a 044A     		ldr	r2, .L42
 535              		.loc 1 307 0
 536 000c 0120     		movs	r0, #1
 537              	.LVL37:
 538              		.loc 1 305 0
 539 000e 1269     		ldr	r2, [r2, #16]
 540              		.loc 1 306 0
 541 0010 D16A     		ldr	r1, [r2, #44]
 542              		.loc 1 305 0
 543 0012 9A60     		str	r2, [r3, #8]
 544              		.loc 1 306 0
 545 0014 D960     		str	r1, [r3, #12]
 546              		.loc 1 307 0
 547 0016 D362     		str	r3, [r2, #44]
 548 0018 7047     		bx	lr
 549              	.L43:
 550 001a 00BF     		.align	2
 551              	.L42:
 552 001c 00000000 		.word	ch
 553              	.LBE178:
 554              	.LBE177:
 555              		.cfi_endproc
 556              	.LFE174:
 557              		.size	chMtxTryLockS, .-chMtxTryLockS
 558              		.section	.text.chMtxUnlock,"ax",%progbits
 559              		.align	2
 560              		.p2align 4,,15
 561              		.global	chMtxUnlock
 562              		.thumb
 563              		.thumb_func
 564              		.type	chMtxUnlock, %function
 565              	chMtxUnlock:
 566              	.LFB175:
 567              		.loc 1 323 0
 568              		.cfi_startproc
 569              		@ args = 0, pretend = 0, frame = 0
 570              		@ frame_needed = 0, uses_anonymous_args = 0
ARM GAS  /tmp/ccZw1gyL.s 			page 11


 571              	.LVL38:
 572              		.loc 1 324 0
 573 0000 174B     		ldr	r3, .L55
 574              		.loc 1 323 0
 575 0002 70B5     		push	{r4, r5, r6, lr}
 576              		.cfi_def_cfa_offset 16
 577              		.cfi_offset 4, -16
 578              		.cfi_offset 5, -12
 579              		.cfi_offset 6, -8
 580              		.cfi_offset 14, -4
 581              		.loc 1 324 0
 582 0004 1D69     		ldr	r5, [r3, #16]
 583              	.LVL39:
 584              	.LBB179:
 585              	.LBB180:
 586              	.LBB181:
 587              	.LBB182:
 588              		.loc 3 548 0
 589 0006 2023     		movs	r3, #32
 590              	@ 548 "/home/maciek/ChibiOS_16.1.5/os/ext/CMSIS/include/core_cmFunc.h" 1
 591 0008 83F31188 		MSR basepri, r3
 592              	@ 0 "" 2
 593              		.thumb
 594              	.LBE182:
 595              	.LBE181:
 596              	.LBE180:
 597              	.LBE179:
 598              	.LBB183:
 599              	.LBB184:
 600              	.LBB185:
 601              	.LBB186:
 602              		.loc 2 631 0
 603 000c 0468     		ldr	r4, [r0]
 604              	.LBE186:
 605              	.LBE185:
 606              	.LBE184:
 607              	.LBE183:
 608              		.loc 1 344 0
 609 000e C368     		ldr	r3, [r0, #12]
 610              		.loc 1 347 0
 611 0010 A042     		cmp	r0, r4
 612              		.loc 1 344 0
 613 0012 EB62     		str	r3, [r5, #44]
 614              	.LVL40:
 615              		.loc 1 347 0
 616 0014 1DD0     		beq	.L45
 617              	.LBB187:
 618              		.loc 1 352 0
 619 0016 296B     		ldr	r1, [r5, #48]
 620              	.LVL41:
 621              		.loc 1 354 0
 622 0018 4BB1     		cbz	r3, .L46
 623              	.L48:
 624              	.LVL42:
 625              	.LBB188:
 626              	.LBB189:
 627              	.LBB190:
ARM GAS  /tmp/ccZw1gyL.s 			page 12


 628              	.LBB191:
 629              		.loc 2 631 0
 630 001a 1A68     		ldr	r2, [r3]
 631              	.LBE191:
 632              	.LBE190:
 633              	.LBE189:
 634              	.LBE188:
 635              		.loc 1 358 0
 636 001c 9342     		cmp	r3, r2
 637 001e 03D0     		beq	.L47
 638              		.loc 1 359 0 discriminator 1
 639 0020 9268     		ldr	r2, [r2, #8]
 640 0022 9142     		cmp	r1, r2
 641 0024 38BF     		it	cc
 642 0026 1146     		movcc	r1, r2
 643              	.LVL43:
 644              	.L47:
 645              		.loc 1 362 0
 646 0028 DB68     		ldr	r3, [r3, #12]
 647              	.LVL44:
 648              		.loc 1 354 0
 649 002a 002B     		cmp	r3, #0
 650 002c F5D1     		bne	.L48
 651              	.L46:
 652 002e 0346     		mov	r3, r0
 653              	.LVL45:
 654              	.LBB192:
 655              	.LBB193:
 656              		.loc 2 674 0
 657 0030 2268     		ldr	r2, [r4]
 658              	.LBE193:
 659              	.LBE192:
 660              		.loc 1 376 0
 661 0032 E66A     		ldr	r6, [r4, #44]
 662              		.loc 1 383 0
 663 0034 2046     		mov	r0, r4
 664              	.LVL46:
 665              		.loc 1 367 0
 666 0036 A960     		str	r1, [r5, #8]
 667              	.LVL47:
 668              	.LBB195:
 669              	.LBB194:
 670              		.loc 2 674 0
 671 0038 1A60     		str	r2, [r3]
 672              		.loc 2 675 0
 673 003a 5360     		str	r3, [r2, #4]
 674              	.LBE194:
 675              	.LBE195:
 676              		.loc 1 375 0
 677 003c 9C60     		str	r4, [r3, #8]
 678              		.loc 1 376 0
 679 003e DE60     		str	r6, [r3, #12]
 680              		.loc 1 377 0
 681 0040 E362     		str	r3, [r4, #44]
 682              		.loc 1 383 0
 683 0042 FFF7FEFF 		bl	chSchReadyI
 684              	.LVL48:
ARM GAS  /tmp/ccZw1gyL.s 			page 13


 685              		.loc 1 384 0
 686 0046 FFF7FEFF 		bl	chSchRescheduleS
 687              	.LVL49:
 688              	.LBE187:
 689              	.LBB196:
 690              	.LBB197:
 691              	.LBB198:
 692              	.LBB199:
 693              	.LBB200:
 694              		.loc 3 548 0
 695 004a 0023     		movs	r3, #0
 696              	@ 548 "/home/maciek/ChibiOS_16.1.5/os/ext/CMSIS/include/core_cmFunc.h" 1
 697 004c 83F31188 		MSR basepri, r3
 698              	@ 0 "" 2
 699              		.thumb
 700 0050 70BD     		pop	{r4, r5, r6, pc}
 701              	.LVL50:
 702              	.L45:
 703              	.LBE200:
 704              	.LBE199:
 705              	.LBE198:
 706              	.LBE197:
 707              	.LBE196:
 708              		.loc 1 387 0
 709 0052 0023     		movs	r3, #0
 710 0054 8360     		str	r3, [r0, #8]
 711              	.LVL51:
 712              	.LBB205:
 713              	.LBB204:
 714              	.LBB203:
 715              	.LBB202:
 716              	.LBB201:
 717              		.loc 3 548 0
 718 0056 0023     		movs	r3, #0
 719              	@ 548 "/home/maciek/ChibiOS_16.1.5/os/ext/CMSIS/include/core_cmFunc.h" 1
 720 0058 83F31188 		MSR basepri, r3
 721              	@ 0 "" 2
 722              		.thumb
 723 005c 70BD     		pop	{r4, r5, r6, pc}
 724              	.LVL52:
 725              	.L56:
 726 005e 00BF     		.align	2
 727              	.L55:
 728 0060 00000000 		.word	ch
 729              	.LBE201:
 730              	.LBE202:
 731              	.LBE203:
 732              	.LBE204:
 733              	.LBE205:
 734              		.cfi_endproc
 735              	.LFE175:
 736              		.size	chMtxUnlock, .-chMtxUnlock
 737              		.section	.text.chMtxUnlockS,"ax",%progbits
 738              		.align	2
 739              		.p2align 4,,15
 740              		.global	chMtxUnlockS
 741              		.thumb
ARM GAS  /tmp/ccZw1gyL.s 			page 14


 742              		.thumb_func
 743              		.type	chMtxUnlockS, %function
 744              	chMtxUnlockS:
 745              	.LFB176:
 746              		.loc 1 410 0
 747              		.cfi_startproc
 748              		@ args = 0, pretend = 0, frame = 0
 749              		@ frame_needed = 0, uses_anonymous_args = 0
 750              		@ link register save eliminated.
 751              	.LVL53:
 752 0000 30B4     		push	{r4, r5}
 753              		.cfi_def_cfa_offset 8
 754              		.cfi_offset 4, -8
 755              		.cfi_offset 5, -4
 756              		.loc 1 410 0
 757 0002 0446     		mov	r4, r0
 758              		.loc 1 411 0
 759 0004 114A     		ldr	r2, .L67
 760              	.LBB206:
 761              	.LBB207:
 762              	.LBB208:
 763              	.LBB209:
 764              		.loc 2 631 0
 765 0006 2568     		ldr	r5, [r4]
 766              	.LBE209:
 767              	.LBE208:
 768              	.LBE207:
 769              	.LBE206:
 770              		.loc 1 430 0
 771 0008 C368     		ldr	r3, [r0, #12]
 772              		.loc 1 411 0
 773 000a 1069     		ldr	r0, [r2, #16]
 774              	.LVL54:
 775              		.loc 1 433 0
 776 000c AC42     		cmp	r4, r5
 777              		.loc 1 430 0
 778 000e C362     		str	r3, [r0, #44]
 779              	.LVL55:
 780              		.loc 1 433 0
 781 0010 17D0     		beq	.L58
 782              	.LBB210:
 783              		.loc 1 438 0
 784 0012 016B     		ldr	r1, [r0, #48]
 785              	.LVL56:
 786              		.loc 1 440 0
 787 0014 4BB1     		cbz	r3, .L59
 788              	.L61:
 789              	.LVL57:
 790              	.LBB211:
 791              	.LBB212:
 792              	.LBB213:
 793              	.LBB214:
 794              		.loc 2 631 0
 795 0016 1A68     		ldr	r2, [r3]
 796              	.LBE214:
 797              	.LBE213:
 798              	.LBE212:
ARM GAS  /tmp/ccZw1gyL.s 			page 15


 799              	.LBE211:
 800              		.loc 1 444 0
 801 0018 9342     		cmp	r3, r2
 802 001a 03D0     		beq	.L60
 803              		.loc 1 445 0 discriminator 1
 804 001c 9268     		ldr	r2, [r2, #8]
 805 001e 9142     		cmp	r1, r2
 806 0020 38BF     		it	cc
 807 0022 1146     		movcc	r1, r2
 808              	.LVL58:
 809              	.L60:
 810              		.loc 1 448 0
 811 0024 DB68     		ldr	r3, [r3, #12]
 812              	.LVL59:
 813              		.loc 1 440 0
 814 0026 002B     		cmp	r3, #0
 815 0028 F5D1     		bne	.L61
 816              	.L59:
 817              		.loc 1 462 0
 818 002a EA6A     		ldr	r2, [r5, #44]
 819              	.LBB215:
 820              	.LBB216:
 821              		.loc 2 674 0
 822 002c 2B68     		ldr	r3, [r5]
 823              	.LVL60:
 824              	.LBE216:
 825              	.LBE215:
 826              		.loc 1 453 0
 827 002e 8160     		str	r1, [r0, #8]
 828              	.LVL61:
 829              	.LBB219:
 830              	.LBB217:
 831              		.loc 2 674 0
 832 0030 2360     		str	r3, [r4]
 833              	.LBE217:
 834              	.LBE219:
 835              		.loc 1 464 0
 836 0032 2846     		mov	r0, r5
 837              	.LVL62:
 838              	.LBB220:
 839              	.LBB218:
 840              		.loc 2 675 0
 841 0034 5C60     		str	r4, [r3, #4]
 842              	.LBE218:
 843              	.LBE220:
 844              		.loc 1 461 0
 845 0036 A560     		str	r5, [r4, #8]
 846              		.loc 1 462 0
 847 0038 E260     		str	r2, [r4, #12]
 848              		.loc 1 463 0
 849 003a EC62     		str	r4, [r5, #44]
 850              	.LBE210:
 851              		.loc 1 472 0
 852 003c 30BC     		pop	{r4, r5}
 853              		.cfi_remember_state
 854              		.cfi_restore 5
 855              		.cfi_restore 4
ARM GAS  /tmp/ccZw1gyL.s 			page 16


 856              		.cfi_def_cfa_offset 0
 857              	.LVL63:
 858              	.LBB221:
 859              		.loc 1 464 0
 860 003e FFF7FEBF 		b	chSchReadyI
 861              	.LVL64:
 862              	.L58:
 863              		.cfi_restore_state
 864              	.LBE221:
 865              		.loc 1 467 0
 866 0042 0023     		movs	r3, #0
 867 0044 A360     		str	r3, [r4, #8]
 868              		.loc 1 472 0
 869 0046 30BC     		pop	{r4, r5}
 870              		.cfi_restore 5
 871              		.cfi_restore 4
 872              		.cfi_def_cfa_offset 0
 873              	.LVL65:
 874 0048 7047     		bx	lr
 875              	.L68:
 876 004a 00BF     		.align	2
 877              	.L67:
 878 004c 00000000 		.word	ch
 879              		.cfi_endproc
 880              	.LFE176:
 881              		.size	chMtxUnlockS, .-chMtxUnlockS
 882              		.section	.text.chMtxUnlockAll,"ax",%progbits
 883              		.align	2
 884              		.p2align 4,,15
 885              		.global	chMtxUnlockAll
 886              		.thumb
 887              		.thumb_func
 888              		.type	chMtxUnlockAll, %function
 889              	chMtxUnlockAll:
 890              	.LFB177:
 891              		.loc 1 485 0
 892              		.cfi_startproc
 893              		@ args = 0, pretend = 0, frame = 0
 894              		@ frame_needed = 0, uses_anonymous_args = 0
 895              		.loc 1 486 0
 896 0000 134A     		ldr	r2, .L81
 897              		.loc 1 485 0
 898 0002 70B5     		push	{r4, r5, r6, lr}
 899              		.cfi_def_cfa_offset 16
 900              		.cfi_offset 4, -16
 901              		.cfi_offset 5, -12
 902              		.cfi_offset 6, -8
 903              		.cfi_offset 14, -4
 904              	.LBB222:
 905              	.LBB223:
 906              	.LBB224:
 907              	.LBB225:
 908              		.loc 3 548 0
 909 0004 2023     		movs	r3, #32
 910              	.LBE225:
 911              	.LBE224:
 912              	.LBE223:
ARM GAS  /tmp/ccZw1gyL.s 			page 17


 913              	.LBE222:
 914              		.loc 1 486 0
 915 0006 1469     		ldr	r4, [r2, #16]
 916              	.LVL66:
 917              	.LBB229:
 918              	.LBB228:
 919              	.LBB227:
 920              	.LBB226:
 921              		.loc 3 548 0
 922              	@ 548 "/home/maciek/ChibiOS_16.1.5/os/ext/CMSIS/include/core_cmFunc.h" 1
 923 0008 83F31188 		MSR basepri, r3
 924              	@ 0 "" 2
 925              		.thumb
 926              	.LBE226:
 927              	.LBE227:
 928              	.LBE228:
 929              	.LBE229:
 930              		.loc 1 489 0
 931 000c E36A     		ldr	r3, [r4, #44]
 932 000e D3B1     		cbz	r3, .L70
 933              	.LBB230:
 934              		.loc 1 507 0
 935 0010 0026     		movs	r6, #0
 936 0012 0BE0     		b	.L73
 937              	.LVL67:
 938              	.L80:
 939              	.LBB231:
 940              		.loc 1 499 0
 941 0014 D56A     		ldr	r5, [r2, #44]
 942              	.LBB232:
 943              	.LBB233:
 944              		.loc 2 674 0
 945 0016 1168     		ldr	r1, [r2]
 946              	.LBE233:
 947              	.LBE232:
 948              		.loc 1 501 0
 949 0018 1046     		mov	r0, r2
 950              	.LBB235:
 951              	.LBB234:
 952              		.loc 2 674 0
 953 001a 1960     		str	r1, [r3]
 954              		.loc 2 675 0
 955 001c 4B60     		str	r3, [r1, #4]
 956              	.LBE234:
 957              	.LBE235:
 958              		.loc 1 498 0
 959 001e 9A60     		str	r2, [r3, #8]
 960              		.loc 1 499 0
 961 0020 DD60     		str	r5, [r3, #12]
 962              		.loc 1 500 0
 963 0022 D362     		str	r3, [r2, #44]
 964              		.loc 1 501 0
 965 0024 FFF7FEFF 		bl	chSchReadyI
 966              	.LVL68:
 967              	.LBE231:
 968              	.LBE230:
 969              		.loc 1 509 0
ARM GAS  /tmp/ccZw1gyL.s 			page 18


 970 0028 E36A     		ldr	r3, [r4, #44]
 971 002a 43B1     		cbz	r3, .L79
 972              	.L73:
 973              	.LVL69:
 974              	.LBB240:
 975              	.LBB236:
 976              	.LBB237:
 977              	.LBB238:
 978              	.LBB239:
 979              		.loc 2 631 0
 980 002c 1A68     		ldr	r2, [r3]
 981              	.LVL70:
 982              	.LBE239:
 983              	.LBE238:
 984              	.LBE237:
 985              	.LBE236:
 986              		.loc 1 492 0
 987 002e D968     		ldr	r1, [r3, #12]
 988              		.loc 1 493 0
 989 0030 9342     		cmp	r3, r2
 990              		.loc 1 492 0
 991 0032 E162     		str	r1, [r4, #44]
 992              	.LVL71:
 993              		.loc 1 493 0
 994 0034 EED1     		bne	.L80
 995              		.loc 1 507 0
 996 0036 9E60     		str	r6, [r3, #8]
 997              	.LBE240:
 998              		.loc 1 509 0
 999 0038 E36A     		ldr	r3, [r4, #44]
 1000              	.LVL72:
 1001 003a 002B     		cmp	r3, #0
 1002 003c F6D1     		bne	.L73
 1003              	.LVL73:
 1004              	.L79:
 1005              		.loc 1 510 0
 1006 003e 236B     		ldr	r3, [r4, #48]
 1007 0040 A360     		str	r3, [r4, #8]
 1008              		.loc 1 511 0
 1009 0042 FFF7FEFF 		bl	chSchRescheduleS
 1010              	.LVL74:
 1011              	.L70:
 1012              	.LBB241:
 1013              	.LBB242:
 1014              	.LBB243:
 1015              	.LBB244:
 1016              	.LBB245:
 1017              		.loc 3 548 0
 1018 0046 0023     		movs	r3, #0
 1019              	@ 548 "/home/maciek/ChibiOS_16.1.5/os/ext/CMSIS/include/core_cmFunc.h" 1
 1020 0048 83F31188 		MSR basepri, r3
 1021              	@ 0 "" 2
 1022              		.thumb
 1023 004c 70BD     		pop	{r4, r5, r6, pc}
 1024              	.LVL75:
 1025              	.L82:
 1026 004e 00BF     		.align	2
ARM GAS  /tmp/ccZw1gyL.s 			page 19


 1027              	.L81:
 1028 0050 00000000 		.word	ch
 1029              	.LBE245:
 1030              	.LBE244:
 1031              	.LBE243:
 1032              	.LBE242:
 1033              	.LBE241:
 1034              		.cfi_endproc
 1035              	.LFE177:
 1036              		.size	chMtxUnlockAll, .-chMtxUnlockAll
 1037              		.text
 1038              	.Letext0:
 1039              		.file 4 "/opt/stm32/gcc/gcc-arm-none-eabi-4_9-2015q2/arm-none-eabi/include/machine/_default_types.
 1040              		.file 5 "/opt/stm32/gcc/gcc-arm-none-eabi-4_9-2015q2/arm-none-eabi/include/sys/_stdint.h"
 1041              		.file 6 "/home/maciek/ChibiOS_16.1.5/os/rt/ports/ARMCMx/compilers/GCC/chtypes.h"
 1042              		.file 7 "/home/maciek/ChibiOS_16.1.5/os/rt/include/chsystypes.h"
 1043              		.file 8 "/home/maciek/ChibiOS_16.1.5/os/rt/ports/ARMCMx/chcore.h"
 1044              		.file 9 "/home/maciek/ChibiOS_16.1.5/os/rt/ports/ARMCMx/chcore_v7m.h"
 1045              		.file 10 "/home/maciek/ChibiOS_16.1.5/os/rt/include/chtm.h"
 1046              		.file 11 "/home/maciek/ChibiOS_16.1.5/os/rt/include/chsem.h"
 1047              		.file 12 "/home/maciek/ChibiOS_16.1.5/os/rt/include/chmtx.h"
 1048              		.file 13 "/home/maciek/ChibiOS_16.1.5/os/rt/include/chsys.h"
 1049              		.file 14 "/home/maciek/ChibiOS_16.1.5/os/ext/CMSIS/include/core_cm3.h"
 1050              		.section	.debug_info,"",%progbits
 1051              	.Ldebug_info0:
 1052 0000 C60F0000 		.4byte	0xfc6
 1053 0004 0400     		.2byte	0x4
 1054 0006 00000000 		.4byte	.Ldebug_abbrev0
 1055 000a 04       		.byte	0x4
 1056 000b 01       		.uleb128 0x1
 1057 000c F2020000 		.4byte	.LASF122
 1058 0010 01       		.byte	0x1
 1059 0011 51050000 		.4byte	.LASF123
 1060 0015 80010000 		.4byte	.Ldebug_ranges0+0x180
 1061 0019 00000000 		.4byte	0
 1062 001d 00000000 		.4byte	.Ldebug_line0
 1063 0021 02       		.uleb128 0x2
 1064 0022 04       		.byte	0x4
 1065 0023 05       		.byte	0x5
 1066 0024 696E7400 		.ascii	"int\000"
 1067 0028 03       		.uleb128 0x3
 1068 0029 04       		.byte	0x4
 1069 002a 07       		.byte	0x7
 1070 002b 91000000 		.4byte	.LASF0
 1071 002f 03       		.uleb128 0x3
 1072 0030 01       		.byte	0x1
 1073 0031 06       		.byte	0x6
 1074 0032 F8050000 		.4byte	.LASF1
 1075 0036 04       		.uleb128 0x4
 1076 0037 DC040000 		.4byte	.LASF4
 1077 003b 04       		.byte	0x4
 1078 003c 1D       		.byte	0x1d
 1079 003d 41000000 		.4byte	0x41
 1080 0041 03       		.uleb128 0x3
 1081 0042 01       		.byte	0x1
 1082 0043 08       		.byte	0x8
 1083 0044 A1050000 		.4byte	.LASF2
ARM GAS  /tmp/ccZw1gyL.s 			page 20


 1084 0048 03       		.uleb128 0x3
 1085 0049 02       		.byte	0x2
 1086 004a 05       		.byte	0x5
 1087 004b 5F040000 		.4byte	.LASF3
 1088 004f 04       		.uleb128 0x4
 1089 0050 B4010000 		.4byte	.LASF5
 1090 0054 04       		.byte	0x4
 1091 0055 2B       		.byte	0x2b
 1092 0056 5A000000 		.4byte	0x5a
 1093 005a 03       		.uleb128 0x3
 1094 005b 02       		.byte	0x2
 1095 005c 07       		.byte	0x7
 1096 005d 04060000 		.4byte	.LASF6
 1097 0061 04       		.uleb128 0x4
 1098 0062 AD000000 		.4byte	.LASF7
 1099 0066 04       		.byte	0x4
 1100 0067 3F       		.byte	0x3f
 1101 0068 6C000000 		.4byte	0x6c
 1102 006c 03       		.uleb128 0x3
 1103 006d 04       		.byte	0x4
 1104 006e 05       		.byte	0x5
 1105 006f 86040000 		.4byte	.LASF8
 1106 0073 04       		.uleb128 0x4
 1107 0074 AF050000 		.4byte	.LASF9
 1108 0078 04       		.byte	0x4
 1109 0079 41       		.byte	0x41
 1110 007a 7E000000 		.4byte	0x7e
 1111 007e 03       		.uleb128 0x3
 1112 007f 04       		.byte	0x4
 1113 0080 07       		.byte	0x7
 1114 0081 32050000 		.4byte	.LASF10
 1115 0085 03       		.uleb128 0x3
 1116 0086 08       		.byte	0x8
 1117 0087 05       		.byte	0x5
 1118 0088 CA020000 		.4byte	.LASF11
 1119 008c 04       		.uleb128 0x4
 1120 008d 23020000 		.4byte	.LASF12
 1121 0091 04       		.byte	0x4
 1122 0092 5B       		.byte	0x5b
 1123 0093 97000000 		.4byte	0x97
 1124 0097 03       		.uleb128 0x3
 1125 0098 08       		.byte	0x8
 1126 0099 07       		.byte	0x7
 1127 009a 85010000 		.4byte	.LASF13
 1128 009e 04       		.uleb128 0x4
 1129 009f 97020000 		.4byte	.LASF14
 1130 00a3 05       		.byte	0x5
 1131 00a4 14       		.byte	0x14
 1132 00a5 36000000 		.4byte	0x36
 1133 00a9 04       		.uleb128 0x4
 1134 00aa 35040000 		.4byte	.LASF15
 1135 00ae 05       		.byte	0x5
 1136 00af 1A       		.byte	0x1a
 1137 00b0 4F000000 		.4byte	0x4f
 1138 00b4 04       		.uleb128 0x4
 1139 00b5 7F050000 		.4byte	.LASF16
 1140 00b9 05       		.byte	0x5
ARM GAS  /tmp/ccZw1gyL.s 			page 21


 1141 00ba 1F       		.byte	0x1f
 1142 00bb 61000000 		.4byte	0x61
 1143 00bf 04       		.uleb128 0x4
 1144 00c0 3C010000 		.4byte	.LASF17
 1145 00c4 05       		.byte	0x5
 1146 00c5 20       		.byte	0x20
 1147 00c6 73000000 		.4byte	0x73
 1148 00ca 04       		.uleb128 0x4
 1149 00cb C7040000 		.4byte	.LASF18
 1150 00cf 05       		.byte	0x5
 1151 00d0 26       		.byte	0x26
 1152 00d1 8C000000 		.4byte	0x8c
 1153 00d5 04       		.uleb128 0x4
 1154 00d6 3E040000 		.4byte	.LASF19
 1155 00da 06       		.byte	0x6
 1156 00db 39       		.byte	0x39
 1157 00dc BF000000 		.4byte	0xbf
 1158 00e0 04       		.uleb128 0x4
 1159 00e1 22040000 		.4byte	.LASF20
 1160 00e5 06       		.byte	0x6
 1161 00e6 3C       		.byte	0x3c
 1162 00e7 9E000000 		.4byte	0x9e
 1163 00eb 04       		.uleb128 0x4
 1164 00ec 86020000 		.4byte	.LASF21
 1165 00f0 06       		.byte	0x6
 1166 00f1 3D       		.byte	0x3d
 1167 00f2 9E000000 		.4byte	0x9e
 1168 00f6 04       		.uleb128 0x4
 1169 00f7 2A050000 		.4byte	.LASF22
 1170 00fb 06       		.byte	0x6
 1171 00fc 3E       		.byte	0x3e
 1172 00fd 9E000000 		.4byte	0x9e
 1173 0101 04       		.uleb128 0x4
 1174 0102 6C010000 		.4byte	.LASF23
 1175 0106 06       		.byte	0x6
 1176 0107 40       		.byte	0x40
 1177 0108 BF000000 		.4byte	0xbf
 1178 010c 04       		.uleb128 0x4
 1179 010d EC020000 		.4byte	.LASF24
 1180 0111 06       		.byte	0x6
 1181 0112 41       		.byte	0x41
 1182 0113 B4000000 		.4byte	0xb4
 1183 0117 04       		.uleb128 0x4
 1184 0118 45010000 		.4byte	.LASF25
 1185 011c 06       		.byte	0x6
 1186 011d 43       		.byte	0x43
 1187 011e BF000000 		.4byte	0xbf
 1188 0122 04       		.uleb128 0x4
 1189 0123 BF010000 		.4byte	.LASF26
 1190 0127 06       		.byte	0x6
 1191 0128 45       		.byte	0x45
 1192 0129 B4000000 		.4byte	0xb4
 1193 012d 04       		.uleb128 0x4
 1194 012e 61000000 		.4byte	.LASF27
 1195 0132 07       		.byte	0x7
 1196 0133 35       		.byte	0x35
 1197 0134 A9000000 		.4byte	0xa9
ARM GAS  /tmp/ccZw1gyL.s 			page 22


 1198 0138 04       		.uleb128 0x4
 1199 0139 EE010000 		.4byte	.LASF28
 1200 013d 07       		.byte	0x7
 1201 013e 3F       		.byte	0x3f
 1202 013f 43010000 		.4byte	0x143
 1203 0143 05       		.uleb128 0x5
 1204 0144 B1020000 		.4byte	.LASF45
 1205 0148 38       		.byte	0x38
 1206 0149 02       		.byte	0x2
 1207 014a C2       		.byte	0xc2
 1208 014b 0C020000 		.4byte	0x20c
 1209 014f 06       		.uleb128 0x6
 1210 0150 C0040000 		.4byte	.LASF29
 1211 0154 02       		.byte	0x2
 1212 0155 C3       		.byte	0xc3
 1213 0156 17020000 		.4byte	0x217
 1214 015a 00       		.byte	0
 1215 015b 06       		.uleb128 0x6
 1216 015c 1A050000 		.4byte	.LASF30
 1217 0160 02       		.byte	0x2
 1218 0161 C5       		.byte	0xc5
 1219 0162 17020000 		.4byte	0x217
 1220 0166 04       		.byte	0x4
 1221 0167 06       		.uleb128 0x6
 1222 0168 5A000000 		.4byte	.LASF31
 1223 016c 02       		.byte	0x2
 1224 016d C7       		.byte	0xc7
 1225 016e 01010000 		.4byte	0x101
 1226 0172 08       		.byte	0x8
 1227 0173 06       		.uleb128 0x6
 1228 0174 D0040000 		.4byte	.LASF32
 1229 0178 02       		.byte	0x2
 1230 0179 C8       		.byte	0xc8
 1231 017a 2D040000 		.4byte	0x42d
 1232 017e 0C       		.byte	0xc
 1233 017f 06       		.uleb128 0x6
 1234 0180 8F020000 		.4byte	.LASF33
 1235 0184 02       		.byte	0x2
 1236 0185 DD       		.byte	0xdd
 1237 0186 EB000000 		.4byte	0xeb
 1238 018a 10       		.byte	0x10
 1239 018b 06       		.uleb128 0x6
 1240 018c D4030000 		.4byte	.LASF34
 1241 0190 02       		.byte	0x2
 1242 0191 E1       		.byte	0xe1
 1243 0192 E0000000 		.4byte	0xe0
 1244 0196 11       		.byte	0x11
 1245 0197 06       		.uleb128 0x6
 1246 0198 D0050000 		.4byte	.LASF35
 1247 019c 02       		.byte	0x2
 1248 019d E6       		.byte	0xe6
 1249 019e F6000000 		.4byte	0xf6
 1250 01a2 12       		.byte	0x12
 1251 01a3 07       		.uleb128 0x7
 1252 01a4 705F7500 		.ascii	"p_u\000"
 1253 01a8 02       		.byte	0x2
 1254 01a9 3101     		.2byte	0x131
ARM GAS  /tmp/ccZw1gyL.s 			page 23


 1255 01ab E7040000 		.4byte	0x4e7
 1256 01af 14       		.byte	0x14
 1257 01b0 08       		.uleb128 0x8
 1258 01b1 20000000 		.4byte	.LASF36
 1259 01b5 02       		.byte	0x2
 1260 01b6 3601     		.2byte	0x136
 1261 01b8 1D020000 		.4byte	0x21d
 1262 01bc 18       		.byte	0x18
 1263 01bd 08       		.uleb128 0x8
 1264 01be 86000000 		.4byte	.LASF37
 1265 01c2 02       		.byte	0x2
 1266 01c3 3C01     		.2byte	0x13c
 1267 01c5 41020000 		.4byte	0x241
 1268 01c9 1C       		.byte	0x1c
 1269 01ca 08       		.uleb128 0x8
 1270 01cb 1C040000 		.4byte	.LASF38
 1271 01cf 02       		.byte	0x2
 1272 01d0 4001     		.2byte	0x140
 1273 01d2 0C010000 		.4byte	0x10c
 1274 01d6 24       		.byte	0x24
 1275 01d7 08       		.uleb128 0x8
 1276 01d8 73040000 		.4byte	.LASF39
 1277 01dc 02       		.byte	0x2
 1278 01dd 4601     		.2byte	0x146
 1279 01df 17010000 		.4byte	0x117
 1280 01e3 28       		.byte	0x28
 1281 01e4 08       		.uleb128 0x8
 1282 01e5 A7020000 		.4byte	.LASF40
 1283 01e9 02       		.byte	0x2
 1284 01ea 4D01     		.2byte	0x14d
 1285 01ec A6050000 		.4byte	0x5a6
 1286 01f0 2C       		.byte	0x2c
 1287 01f1 08       		.uleb128 0x8
 1288 01f2 54040000 		.4byte	.LASF41
 1289 01f6 02       		.byte	0x2
 1290 01f7 5101     		.2byte	0x151
 1291 01f9 01010000 		.4byte	0x101
 1292 01fd 30       		.byte	0x30
 1293 01fe 08       		.uleb128 0x8
 1294 01ff 9F020000 		.4byte	.LASF42
 1295 0203 02       		.byte	0x2
 1296 0204 5801     		.2byte	0x158
 1297 0206 DA020000 		.4byte	0x2da
 1298 020a 34       		.byte	0x34
 1299 020b 00       		.byte	0
 1300 020c 04       		.uleb128 0x4
 1301 020d 64020000 		.4byte	.LASF43
 1302 0211 07       		.byte	0x7
 1303 0212 44       		.byte	0x44
 1304 0213 17020000 		.4byte	0x217
 1305 0217 09       		.uleb128 0x9
 1306 0218 04       		.byte	0x4
 1307 0219 38010000 		.4byte	0x138
 1308 021d 04       		.uleb128 0x4
 1309 021e 9E000000 		.4byte	.LASF44
 1310 0222 07       		.byte	0x7
 1311 0223 49       		.byte	0x49
ARM GAS  /tmp/ccZw1gyL.s 			page 24


 1312 0224 28020000 		.4byte	0x228
 1313 0228 05       		.uleb128 0x5
 1314 0229 00000000 		.4byte	.LASF46
 1315 022d 04       		.byte	0x4
 1316 022e 02       		.byte	0x2
 1317 022f B0       		.byte	0xb0
 1318 0230 41020000 		.4byte	0x241
 1319 0234 06       		.uleb128 0x6
 1320 0235 C0040000 		.4byte	.LASF29
 1321 0239 02       		.byte	0x2
 1322 023a B1       		.byte	0xb1
 1323 023b 17020000 		.4byte	0x217
 1324 023f 00       		.byte	0
 1325 0240 00       		.byte	0
 1326 0241 04       		.uleb128 0x4
 1327 0242 10000000 		.4byte	.LASF47
 1328 0246 07       		.byte	0x7
 1329 0247 50       		.byte	0x50
 1330 0248 4C020000 		.4byte	0x24c
 1331 024c 05       		.uleb128 0x5
 1332 024d F3000000 		.4byte	.LASF48
 1333 0251 08       		.byte	0x8
 1334 0252 02       		.byte	0x2
 1335 0253 B7       		.byte	0xb7
 1336 0254 71020000 		.4byte	0x271
 1337 0258 06       		.uleb128 0x6
 1338 0259 C0040000 		.4byte	.LASF29
 1339 025d 02       		.byte	0x2
 1340 025e B8       		.byte	0xb8
 1341 025f 17020000 		.4byte	0x217
 1342 0263 00       		.byte	0
 1343 0264 06       		.uleb128 0x6
 1344 0265 1A050000 		.4byte	.LASF30
 1345 0269 02       		.byte	0x2
 1346 026a B9       		.byte	0xb9
 1347 026b 17020000 		.4byte	0x217
 1348 026f 04       		.byte	0x4
 1349 0270 00       		.byte	0
 1350 0271 04       		.uleb128 0x4
 1351 0272 44050000 		.4byte	.LASF49
 1352 0276 07       		.byte	0x7
 1353 0277 57       		.byte	0x57
 1354 0278 7C020000 		.4byte	0x27c
 1355 027c 0A       		.uleb128 0xa
 1356 027d CF000000 		.4byte	.LASF50
 1357 0281 14       		.byte	0x14
 1358 0282 02       		.byte	0x2
 1359 0283 9001     		.2byte	0x190
 1360 0285 BE020000 		.4byte	0x2be
 1361 0289 08       		.uleb128 0x8
 1362 028a D8020000 		.4byte	.LASF51
 1363 028e 02       		.byte	0x2
 1364 028f 9101     		.2byte	0x191
 1365 0291 41020000 		.4byte	0x241
 1366 0295 00       		.byte	0
 1367 0296 08       		.uleb128 0x8
 1368 0297 51010000 		.4byte	.LASF52
ARM GAS  /tmp/ccZw1gyL.s 			page 25


 1369 029b 02       		.byte	0x2
 1370 029c 9201     		.2byte	0x192
 1371 029e 01010000 		.4byte	0x101
 1372 02a2 08       		.byte	0x8
 1373 02a3 08       		.uleb128 0x8
 1374 02a4 17060000 		.4byte	.LASF53
 1375 02a8 02       		.byte	0x2
 1376 02a9 9401     		.2byte	0x194
 1377 02ab 2D040000 		.4byte	0x42d
 1378 02af 0C       		.byte	0xc
 1379 02b0 08       		.uleb128 0x8
 1380 02b1 69040000 		.4byte	.LASF54
 1381 02b5 02       		.byte	0x2
 1382 02b6 9B01     		.2byte	0x19b
 1383 02b8 17020000 		.4byte	0x217
 1384 02bc 10       		.byte	0x10
 1385 02bd 00       		.byte	0
 1386 02be 04       		.uleb128 0x4
 1387 02bf 04010000 		.4byte	.LASF55
 1388 02c3 07       		.byte	0x7
 1389 02c4 5C       		.byte	0x5c
 1390 02c5 C9020000 		.4byte	0x2c9
 1391 02c9 09       		.uleb128 0x9
 1392 02ca 04       		.byte	0x4
 1393 02cb CF020000 		.4byte	0x2cf
 1394 02cf 0B       		.uleb128 0xb
 1395 02d0 DA020000 		.4byte	0x2da
 1396 02d4 0C       		.uleb128 0xc
 1397 02d5 DA020000 		.4byte	0x2da
 1398 02d9 00       		.byte	0
 1399 02da 0D       		.uleb128 0xd
 1400 02db 04       		.byte	0x4
 1401 02dc 04       		.uleb128 0x4
 1402 02dd DC030000 		.4byte	.LASF56
 1403 02e1 07       		.byte	0x7
 1404 02e2 61       		.byte	0x61
 1405 02e3 E7020000 		.4byte	0x2e7
 1406 02e7 0A       		.uleb128 0xa
 1407 02e8 74010000 		.4byte	.LASF57
 1408 02ec 14       		.byte	0x14
 1409 02ed 02       		.byte	0x2
 1410 02ee 6B01     		.2byte	0x16b
 1411 02f0 36030000 		.4byte	0x336
 1412 02f4 08       		.uleb128 0x8
 1413 02f5 D7050000 		.4byte	.LASF58
 1414 02f9 02       		.byte	0x2
 1415 02fa 6C01     		.2byte	0x16c
 1416 02fc AC050000 		.4byte	0x5ac
 1417 0300 00       		.byte	0
 1418 0301 08       		.uleb128 0x8
 1419 0302 45060000 		.4byte	.LASF59
 1420 0306 02       		.byte	0x2
 1421 0307 6D01     		.2byte	0x16d
 1422 0309 AC050000 		.4byte	0x5ac
 1423 030d 04       		.byte	0x4
 1424 030e 08       		.uleb128 0x8
 1425 030f 5B020000 		.4byte	.LASF60
ARM GAS  /tmp/ccZw1gyL.s 			page 26


 1426 0313 02       		.byte	0x2
 1427 0314 6E01     		.2byte	0x16e
 1428 0316 2D010000 		.4byte	0x12d
 1429 031a 08       		.byte	0x8
 1430 031b 08       		.uleb128 0x8
 1431 031c 31060000 		.4byte	.LASF61
 1432 0320 02       		.byte	0x2
 1433 0321 6F01     		.2byte	0x16f
 1434 0323 BE020000 		.4byte	0x2be
 1435 0327 0C       		.byte	0xc
 1436 0328 08       		.uleb128 0x8
 1437 0329 58010000 		.4byte	.LASF62
 1438 032d 02       		.byte	0x2
 1439 032e 7101     		.2byte	0x171
 1440 0330 DA020000 		.4byte	0x2da
 1441 0334 10       		.byte	0x10
 1442 0335 00       		.byte	0
 1443 0336 04       		.uleb128 0x4
 1444 0337 BA050000 		.4byte	.LASF63
 1445 033b 07       		.byte	0x7
 1446 033c 66       		.byte	0x66
 1447 033d 41030000 		.4byte	0x341
 1448 0341 0A       		.uleb128 0xa
 1449 0342 D7010000 		.4byte	.LASF64
 1450 0346 0C       		.byte	0xc
 1451 0347 02       		.byte	0x2
 1452 0348 7B01     		.2byte	0x17b
 1453 034a 83030000 		.4byte	0x383
 1454 034e 08       		.uleb128 0x8
 1455 034f D7050000 		.4byte	.LASF58
 1456 0353 02       		.byte	0x2
 1457 0354 7C01     		.2byte	0x17c
 1458 0356 AC050000 		.4byte	0x5ac
 1459 035a 00       		.byte	0
 1460 035b 08       		.uleb128 0x8
 1461 035c 45060000 		.4byte	.LASF59
 1462 0360 02       		.byte	0x2
 1463 0361 7E01     		.2byte	0x17e
 1464 0363 AC050000 		.4byte	0x5ac
 1465 0367 04       		.byte	0x4
 1466 0368 08       		.uleb128 0x8
 1467 0369 5B020000 		.4byte	.LASF60
 1468 036d 02       		.byte	0x2
 1469 036e 8001     		.2byte	0x180
 1470 0370 2D010000 		.4byte	0x12d
 1471 0374 08       		.byte	0x8
 1472 0375 08       		.uleb128 0x8
 1473 0376 7B000000 		.4byte	.LASF65
 1474 037a 02       		.byte	0x2
 1475 037b 8201     		.2byte	0x182
 1476 037d B2050000 		.4byte	0x5b2
 1477 0381 0A       		.byte	0xa
 1478 0382 00       		.byte	0
 1479 0383 04       		.uleb128 0x4
 1480 0384 BB020000 		.4byte	.LASF66
 1481 0388 07       		.byte	0x7
 1482 0389 6B       		.byte	0x6b
ARM GAS  /tmp/ccZw1gyL.s 			page 27


 1483 038a 8E030000 		.4byte	0x38e
 1484 038e 0A       		.uleb128 0xa
 1485 038f 1F010000 		.4byte	.LASF67
 1486 0393 04       		.byte	0x4
 1487 0394 02       		.byte	0x2
 1488 0395 A201     		.2byte	0x1a2
 1489 0397 A9030000 		.4byte	0x3a9
 1490 039b 08       		.uleb128 0x8
 1491 039c FE030000 		.4byte	.LASF68
 1492 03a0 02       		.byte	0x2
 1493 03a1 AA01     		.2byte	0x1aa
 1494 03a3 B7050000 		.4byte	0x5b7
 1495 03a7 00       		.byte	0
 1496 03a8 00       		.byte	0
 1497 03a9 04       		.uleb128 0x4
 1498 03aa DF050000 		.4byte	.LASF69
 1499 03ae 07       		.byte	0x7
 1500 03af 70       		.byte	0x70
 1501 03b0 B4030000 		.4byte	0x3b4
 1502 03b4 0E       		.uleb128 0xe
 1503 03b5 A8040000 		.4byte	.LASF70
 1504 03b9 3001     		.2byte	0x130
 1505 03bb 02       		.byte	0x2
 1506 03bc C201     		.2byte	0x1c2
 1507 03be 10040000 		.4byte	0x410
 1508 03c2 08       		.uleb128 0x8
 1509 03c3 D6040000 		.4byte	.LASF71
 1510 03c7 02       		.byte	0x2
 1511 03c8 C601     		.2byte	0x1c6
 1512 03ca 71020000 		.4byte	0x271
 1513 03ce 00       		.byte	0
 1514 03cf 08       		.uleb128 0x8
 1515 03d0 C8000000 		.4byte	.LASF72
 1516 03d4 02       		.byte	0x2
 1517 03d5 CA01     		.2byte	0x1ca
 1518 03d7 36030000 		.4byte	0x336
 1519 03db 14       		.byte	0x14
 1520 03dc 07       		.uleb128 0x7
 1521 03dd 64626700 		.ascii	"dbg\000"
 1522 03e1 02       		.byte	0x2
 1523 03e2 CE01     		.2byte	0x1ce
 1524 03e4 83030000 		.4byte	0x383
 1525 03e8 20       		.byte	0x20
 1526 03e9 08       		.uleb128 0x8
 1527 03ea 2A040000 		.4byte	.LASF73
 1528 03ee 02       		.byte	0x2
 1529 03ef D201     		.2byte	0x1d2
 1530 03f1 38010000 		.4byte	0x138
 1531 03f5 24       		.byte	0x24
 1532 03f6 07       		.uleb128 0x7
 1533 03f7 746D00   		.ascii	"tm\000"
 1534 03fa 02       		.byte	0x2
 1535 03fb D701     		.2byte	0x1d7
 1536 03fd DC040000 		.4byte	0x4dc
 1537 0401 5C       		.byte	0x5c
 1538 0402 08       		.uleb128 0x8
 1539 0403 DD000000 		.4byte	.LASF74
ARM GAS  /tmp/ccZw1gyL.s 			page 28


 1540 0407 02       		.byte	0x2
 1541 0408 E301     		.2byte	0x1e3
 1542 040a CE050000 		.4byte	0x5ce
 1543 040e 60       		.byte	0x60
 1544 040f 00       		.byte	0
 1545 0410 03       		.uleb128 0x3
 1546 0411 04       		.byte	0x4
 1547 0412 07       		.byte	0x7
 1548 0413 21050000 		.4byte	.LASF75
 1549 0417 04       		.uleb128 0x4
 1550 0418 51000000 		.4byte	.LASF76
 1551 041c 08       		.byte	0x8
 1552 041d 65       		.byte	0x65
 1553 041e DA020000 		.4byte	0x2da
 1554 0422 04       		.uleb128 0x4
 1555 0423 1D060000 		.4byte	.LASF77
 1556 0427 08       		.byte	0x8
 1557 0428 6D       		.byte	0x6d
 1558 0429 CA000000 		.4byte	0xca
 1559 042d 05       		.uleb128 0x5
 1560 042e CC030000 		.4byte	.LASF78
 1561 0432 04       		.byte	0x4
 1562 0433 08       		.byte	0x8
 1563 0434 89       		.byte	0x89
 1564 0435 46040000 		.4byte	0x446
 1565 0439 0F       		.uleb128 0xf
 1566 043a 72313300 		.ascii	"r13\000"
 1567 043e 08       		.byte	0x8
 1568 043f 8A       		.byte	0x8a
 1569 0440 C1040000 		.4byte	0x4c1
 1570 0444 00       		.byte	0
 1571 0445 00       		.byte	0
 1572 0446 05       		.uleb128 0x5
 1573 0447 8F040000 		.4byte	.LASF79
 1574 044b 24       		.byte	0x24
 1575 044c 09       		.byte	0x9
 1576 044d FD       		.byte	0xfd
 1577 044e C1040000 		.4byte	0x4c1
 1578 0452 07       		.uleb128 0x7
 1579 0453 723400   		.ascii	"r4\000"
 1580 0456 09       		.byte	0x9
 1581 0457 1001     		.2byte	0x110
 1582 0459 17040000 		.4byte	0x417
 1583 045d 00       		.byte	0
 1584 045e 07       		.uleb128 0x7
 1585 045f 723500   		.ascii	"r5\000"
 1586 0462 09       		.byte	0x9
 1587 0463 1101     		.2byte	0x111
 1588 0465 17040000 		.4byte	0x417
 1589 0469 04       		.byte	0x4
 1590 046a 07       		.uleb128 0x7
 1591 046b 723600   		.ascii	"r6\000"
 1592 046e 09       		.byte	0x9
 1593 046f 1201     		.2byte	0x112
 1594 0471 17040000 		.4byte	0x417
 1595 0475 08       		.byte	0x8
 1596 0476 07       		.uleb128 0x7
ARM GAS  /tmp/ccZw1gyL.s 			page 29


 1597 0477 723700   		.ascii	"r7\000"
 1598 047a 09       		.byte	0x9
 1599 047b 1301     		.2byte	0x113
 1600 047d 17040000 		.4byte	0x417
 1601 0481 0C       		.byte	0xc
 1602 0482 07       		.uleb128 0x7
 1603 0483 723800   		.ascii	"r8\000"
 1604 0486 09       		.byte	0x9
 1605 0487 1401     		.2byte	0x114
 1606 0489 17040000 		.4byte	0x417
 1607 048d 10       		.byte	0x10
 1608 048e 07       		.uleb128 0x7
 1609 048f 723900   		.ascii	"r9\000"
 1610 0492 09       		.byte	0x9
 1611 0493 1501     		.2byte	0x115
 1612 0495 17040000 		.4byte	0x417
 1613 0499 14       		.byte	0x14
 1614 049a 07       		.uleb128 0x7
 1615 049b 72313000 		.ascii	"r10\000"
 1616 049f 09       		.byte	0x9
 1617 04a0 1601     		.2byte	0x116
 1618 04a2 17040000 		.4byte	0x417
 1619 04a6 18       		.byte	0x18
 1620 04a7 07       		.uleb128 0x7
 1621 04a8 72313100 		.ascii	"r11\000"
 1622 04ac 09       		.byte	0x9
 1623 04ad 1701     		.2byte	0x117
 1624 04af 17040000 		.4byte	0x417
 1625 04b3 1C       		.byte	0x1c
 1626 04b4 07       		.uleb128 0x7
 1627 04b5 6C7200   		.ascii	"lr\000"
 1628 04b8 09       		.byte	0x9
 1629 04b9 1801     		.2byte	0x118
 1630 04bb 17040000 		.4byte	0x417
 1631 04bf 20       		.byte	0x20
 1632 04c0 00       		.byte	0
 1633 04c1 09       		.uleb128 0x9
 1634 04c2 04       		.byte	0x4
 1635 04c3 46040000 		.4byte	0x446
 1636 04c7 10       		.uleb128 0x10
 1637 04c8 04       		.byte	0x4
 1638 04c9 0A       		.byte	0xa
 1639 04ca 38       		.byte	0x38
 1640 04cb DC040000 		.4byte	0x4dc
 1641 04cf 06       		.uleb128 0x6
 1642 04d0 FE010000 		.4byte	.LASF80
 1643 04d4 0A       		.byte	0xa
 1644 04d5 3C       		.byte	0x3c
 1645 04d6 D5000000 		.4byte	0xd5
 1646 04da 00       		.byte	0
 1647 04db 00       		.byte	0
 1648 04dc 04       		.uleb128 0x4
 1649 04dd 31000000 		.4byte	.LASF81
 1650 04e1 0A       		.byte	0xa
 1651 04e2 3D       		.byte	0x3d
 1652 04e3 C7040000 		.4byte	0x4c7
 1653 04e7 11       		.uleb128 0x11
ARM GAS  /tmp/ccZw1gyL.s 			page 30


 1654 04e8 04       		.byte	0x4
 1655 04e9 02       		.byte	0x2
 1656 04ea FA       		.byte	0xfa
 1657 04eb 44050000 		.4byte	0x544
 1658 04ef 12       		.uleb128 0x12
 1659 04f0 F7010000 		.4byte	.LASF82
 1660 04f4 02       		.byte	0x2
 1661 04f5 0101     		.2byte	0x101
 1662 04f7 0C010000 		.4byte	0x10c
 1663 04fb 12       		.uleb128 0x12
 1664 04fc 4D060000 		.4byte	.LASF83
 1665 0500 02       		.byte	0x2
 1666 0501 0801     		.2byte	0x108
 1667 0503 0C010000 		.4byte	0x10c
 1668 0507 12       		.uleb128 0x12
 1669 0508 B7000000 		.4byte	.LASF84
 1670 050c 02       		.byte	0x2
 1671 050d 0F01     		.2byte	0x10f
 1672 050f DA020000 		.4byte	0x2da
 1673 0513 12       		.uleb128 0x12
 1674 0514 EB050000 		.4byte	.LASF85
 1675 0518 02       		.byte	0x2
 1676 0519 1601     		.2byte	0x116
 1677 051b 44050000 		.4byte	0x544
 1678 051f 12       		.uleb128 0x12
 1679 0520 87050000 		.4byte	.LASF86
 1680 0524 02       		.byte	0x2
 1681 0525 1E01     		.2byte	0x11e
 1682 0527 6F050000 		.4byte	0x56f
 1683 052b 12       		.uleb128 0x12
 1684 052c 2A000000 		.4byte	.LASF87
 1685 0530 02       		.byte	0x2
 1686 0531 2701     		.2byte	0x127
 1687 0533 A6050000 		.4byte	0x5a6
 1688 0537 12       		.uleb128 0x12
 1689 0538 EC000000 		.4byte	.LASF88
 1690 053c 02       		.byte	0x2
 1691 053d 2F01     		.2byte	0x12f
 1692 053f 17010000 		.4byte	0x117
 1693 0543 00       		.byte	0
 1694 0544 09       		.uleb128 0x9
 1695 0545 04       		.byte	0x4
 1696 0546 0C020000 		.4byte	0x20c
 1697 054a 05       		.uleb128 0x5
 1698 054b 5F010000 		.4byte	.LASF89
 1699 054f 0C       		.byte	0xc
 1700 0550 0B       		.byte	0xb
 1701 0551 34       		.byte	0x34
 1702 0552 6F050000 		.4byte	0x56f
 1703 0556 06       		.uleb128 0x6
 1704 0557 73000000 		.4byte	.LASF90
 1705 055b 0B       		.byte	0xb
 1706 055c 35       		.byte	0x35
 1707 055d 41020000 		.4byte	0x241
 1708 0561 00       		.byte	0
 1709 0562 06       		.uleb128 0x6
 1710 0563 19010000 		.4byte	.LASF91
ARM GAS  /tmp/ccZw1gyL.s 			page 31


 1711 0567 0B       		.byte	0xb
 1712 0568 37       		.byte	0x37
 1713 0569 22010000 		.4byte	0x122
 1714 056d 08       		.byte	0x8
 1715 056e 00       		.byte	0
 1716 056f 09       		.uleb128 0x9
 1717 0570 04       		.byte	0x4
 1718 0571 4A050000 		.4byte	0x54a
 1719 0575 05       		.uleb128 0x5
 1720 0576 1A020000 		.4byte	.LASF92
 1721 057a 10       		.byte	0x10
 1722 057b 0C       		.byte	0xc
 1723 057c 39       		.byte	0x39
 1724 057d A6050000 		.4byte	0x5a6
 1725 0581 06       		.uleb128 0x6
 1726 0582 7E040000 		.4byte	.LASF93
 1727 0586 0C       		.byte	0xc
 1728 0587 3A       		.byte	0x3a
 1729 0588 41020000 		.4byte	0x241
 1730 058c 00       		.byte	0
 1731 058d 06       		.uleb128 0x6
 1732 058e 6B000000 		.4byte	.LASF94
 1733 0592 0C       		.byte	0xc
 1734 0593 3C       		.byte	0x3c
 1735 0594 17020000 		.4byte	0x217
 1736 0598 08       		.byte	0x8
 1737 0599 06       		.uleb128 0x6
 1738 059a F1050000 		.4byte	.LASF95
 1739 059e 0C       		.byte	0xc
 1740 059f 3E       		.byte	0x3e
 1741 05a0 E9050000 		.4byte	0x5e9
 1742 05a4 0C       		.byte	0xc
 1743 05a5 00       		.byte	0
 1744 05a6 09       		.uleb128 0x9
 1745 05a7 04       		.byte	0x4
 1746 05a8 75050000 		.4byte	0x575
 1747 05ac 09       		.uleb128 0x9
 1748 05ad 04       		.byte	0x4
 1749 05ae DC020000 		.4byte	0x2dc
 1750 05b2 13       		.uleb128 0x13
 1751 05b3 2D010000 		.4byte	0x12d
 1752 05b7 13       		.uleb128 0x13
 1753 05b8 BC050000 		.4byte	0x5bc
 1754 05bc 09       		.uleb128 0x9
 1755 05bd 04       		.byte	0x4
 1756 05be C2050000 		.4byte	0x5c2
 1757 05c2 14       		.uleb128 0x14
 1758 05c3 C7050000 		.4byte	0x5c7
 1759 05c7 03       		.uleb128 0x3
 1760 05c8 01       		.byte	0x1
 1761 05c9 08       		.byte	0x8
 1762 05ca 4C000000 		.4byte	.LASF96
 1763 05ce 15       		.uleb128 0x15
 1764 05cf 22040000 		.4byte	0x422
 1765 05d3 DE050000 		.4byte	0x5de
 1766 05d7 16       		.uleb128 0x16
 1767 05d8 10040000 		.4byte	0x410
ARM GAS  /tmp/ccZw1gyL.s 			page 32


 1768 05dc 19       		.byte	0x19
 1769 05dd 00       		.byte	0
 1770 05de 04       		.uleb128 0x4
 1771 05df 8E050000 		.4byte	.LASF97
 1772 05e3 0C       		.byte	0xc
 1773 05e4 34       		.byte	0x34
 1774 05e5 75050000 		.4byte	0x575
 1775 05e9 09       		.uleb128 0x9
 1776 05ea 04       		.byte	0x4
 1777 05eb DE050000 		.4byte	0x5de
 1778 05ef 17       		.uleb128 0x17
 1779 05f0 B2040000 		.4byte	.LASF102
 1780 05f4 03       		.byte	0x3
 1781 05f5 2202     		.2byte	0x222
 1782 05f7 03       		.byte	0x3
 1783 05f8 09060000 		.4byte	0x609
 1784 05fc 18       		.uleb128 0x18
 1785 05fd D1010000 		.4byte	.LASF100
 1786 0601 03       		.byte	0x3
 1787 0602 2202     		.2byte	0x222
 1788 0604 BF000000 		.4byte	0xbf
 1789 0608 00       		.byte	0
 1790 0609 19       		.uleb128 0x19
 1791 060a BE000000 		.4byte	.LASF98
 1792 060e 09       		.byte	0x9
 1793 060f C801     		.2byte	0x1c8
 1794 0611 03       		.byte	0x3
 1795 0612 19       		.uleb128 0x19
 1796 0613 39060000 		.4byte	.LASF99
 1797 0617 09       		.byte	0x9
 1798 0618 E001     		.2byte	0x1e0
 1799 061a 03       		.byte	0x3
 1800 061b 1A       		.uleb128 0x1a
 1801 061c 77020000 		.4byte	.LASF104
 1802 0620 02       		.byte	0x2
 1803 0621 7502     		.2byte	0x275
 1804 0623 39060000 		.4byte	0x639
 1805 0627 03       		.byte	0x3
 1806 0628 39060000 		.4byte	0x639
 1807 062c 1B       		.uleb128 0x1b
 1808 062d 74717000 		.ascii	"tqp\000"
 1809 0631 02       		.byte	0x2
 1810 0632 7502     		.2byte	0x275
 1811 0634 40060000 		.4byte	0x640
 1812 0638 00       		.byte	0
 1813 0639 03       		.uleb128 0x3
 1814 063a 01       		.byte	0x1
 1815 063b 02       		.byte	0x2
 1816 063c 14020000 		.4byte	.LASF101
 1817 0640 09       		.uleb128 0x9
 1818 0641 04       		.byte	0x4
 1819 0642 46060000 		.4byte	0x646
 1820 0646 14       		.uleb128 0x14
 1821 0647 41020000 		.4byte	0x241
 1822 064b 17       		.uleb128 0x17
 1823 064c 96050000 		.4byte	.LASF103
 1824 0650 02       		.byte	0x2
ARM GAS  /tmp/ccZw1gyL.s 			page 33


 1825 0651 5A02     		.2byte	0x25a
 1826 0653 03       		.byte	0x3
 1827 0654 65060000 		.4byte	0x665
 1828 0658 1B       		.uleb128 0x1b
 1829 0659 74717000 		.ascii	"tqp\000"
 1830 065d 02       		.byte	0x2
 1831 065e 5A02     		.2byte	0x25a
 1832 0660 65060000 		.4byte	0x665
 1833 0664 00       		.byte	0
 1834 0665 09       		.uleb128 0x9
 1835 0666 04       		.byte	0x4
 1836 0667 41020000 		.4byte	0x241
 1837 066b 1A       		.uleb128 0x1a
 1838 066c E6040000 		.4byte	.LASF105
 1839 0670 02       		.byte	0x2
 1840 0671 B102     		.2byte	0x2b1
 1841 0673 17020000 		.4byte	0x217
 1842 0677 03       		.byte	0x3
 1843 0678 88060000 		.4byte	0x688
 1844 067c 1B       		.uleb128 0x1b
 1845 067d 747000   		.ascii	"tp\000"
 1846 0680 02       		.byte	0x2
 1847 0681 B102     		.2byte	0x2b1
 1848 0683 17020000 		.4byte	0x217
 1849 0687 00       		.byte	0
 1850 0688 17       		.uleb128 0x17
 1851 0689 49020000 		.4byte	.LASF106
 1852 068d 02       		.byte	0x2
 1853 068e 8B02     		.2byte	0x28b
 1854 0690 03       		.byte	0x3
 1855 0691 B8060000 		.4byte	0x6b8
 1856 0695 1B       		.uleb128 0x1b
 1857 0696 747000   		.ascii	"tp\000"
 1858 0699 02       		.byte	0x2
 1859 069a 8B02     		.2byte	0x28b
 1860 069c 17020000 		.4byte	0x217
 1861 06a0 1B       		.uleb128 0x1b
 1862 06a1 74717000 		.ascii	"tqp\000"
 1863 06a5 02       		.byte	0x2
 1864 06a6 8B02     		.2byte	0x28b
 1865 06a8 65060000 		.4byte	0x665
 1866 06ac 1C       		.uleb128 0x1c
 1867 06ad 637000   		.ascii	"cp\000"
 1868 06b0 02       		.byte	0x2
 1869 06b1 8D02     		.2byte	0x28d
 1870 06b3 17020000 		.4byte	0x217
 1871 06b7 00       		.byte	0
 1872 06b8 19       		.uleb128 0x19
 1873 06b9 3F020000 		.4byte	.LASF107
 1874 06bd 0D       		.byte	0xd
 1875 06be 5A01     		.2byte	0x15a
 1876 06c0 03       		.byte	0x3
 1877 06c1 17       		.uleb128 0x17
 1878 06c2 C5010000 		.4byte	.LASF108
 1879 06c6 0D       		.byte	0xd
 1880 06c7 6601     		.2byte	0x166
 1881 06c9 03       		.byte	0x3
ARM GAS  /tmp/ccZw1gyL.s 			page 34


 1882 06ca DC060000 		.4byte	0x6dc
 1883 06ce 1D       		.uleb128 0x1d
 1884 06cf 28060000 		.4byte	.LASF109
 1885 06d3 EC060000 		.4byte	0x6ec
 1886 06d7 C5010000 		.4byte	.LASF108
 1887 06db 00       		.byte	0
 1888 06dc 15       		.uleb128 0x15
 1889 06dd C7050000 		.4byte	0x5c7
 1890 06e1 EC060000 		.4byte	0x6ec
 1891 06e5 16       		.uleb128 0x16
 1892 06e6 10040000 		.4byte	0x410
 1893 06ea 0B       		.byte	0xb
 1894 06eb 00       		.byte	0
 1895 06ec 14       		.uleb128 0x14
 1896 06ed DC060000 		.4byte	0x6dc
 1897 06f1 1E       		.uleb128 0x1e
 1898 06f2 46040000 		.4byte	.LASF110
 1899 06f6 01       		.byte	0x1
 1900 06f7 1A01     		.2byte	0x11a
 1901 06f9 39060000 		.4byte	0x639
 1902 06fd 01       		.byte	0x1
 1903 06fe 1B070000 		.4byte	0x71b
 1904 0702 1B       		.uleb128 0x1b
 1905 0703 6D7000   		.ascii	"mp\000"
 1906 0706 01       		.byte	0x1
 1907 0707 1A01     		.2byte	0x11a
 1908 0709 E9050000 		.4byte	0x5e9
 1909 070d 1D       		.uleb128 0x1d
 1910 070e 28060000 		.4byte	.LASF109
 1911 0712 2B070000 		.4byte	0x72b
 1912 0716 46040000 		.4byte	.LASF110
 1913 071a 00       		.byte	0
 1914 071b 15       		.uleb128 0x15
 1915 071c C7050000 		.4byte	0x5c7
 1916 0720 2B070000 		.4byte	0x72b
 1917 0724 16       		.uleb128 0x16
 1918 0725 10040000 		.4byte	0x410
 1919 0729 0D       		.byte	0xd
 1920 072a 00       		.byte	0
 1921 072b 14       		.uleb128 0x14
 1922 072c 1B070000 		.4byte	0x71b
 1923 0730 1F       		.uleb128 0x1f
 1924 0731 08040000 		.4byte	.LASF111
 1925 0735 0C       		.byte	0xc
 1926 0736 81       		.byte	0x81
 1927 0737 39060000 		.4byte	0x639
 1928 073b 03       		.byte	0x3
 1929 073c 4B070000 		.4byte	0x74b
 1930 0740 20       		.uleb128 0x20
 1931 0741 6D7000   		.ascii	"mp\000"
 1932 0744 0C       		.byte	0xc
 1933 0745 81       		.byte	0x81
 1934 0746 E9050000 		.4byte	0x5e9
 1935 074a 00       		.byte	0
 1936 074b 1A       		.uleb128 0x1a
 1937 074c EC030000 		.4byte	.LASF112
 1938 0750 02       		.byte	0x2
ARM GAS  /tmp/ccZw1gyL.s 			page 35


 1939 0751 9F02     		.2byte	0x29f
 1940 0753 17020000 		.4byte	0x217
 1941 0757 03       		.byte	0x3
 1942 0758 74070000 		.4byte	0x774
 1943 075c 1B       		.uleb128 0x1b
 1944 075d 74717000 		.ascii	"tqp\000"
 1945 0761 02       		.byte	0x2
 1946 0762 9F02     		.2byte	0x29f
 1947 0764 65060000 		.4byte	0x665
 1948 0768 1C       		.uleb128 0x1c
 1949 0769 747000   		.ascii	"tp\000"
 1950 076c 02       		.byte	0x2
 1951 076d A002     		.2byte	0x2a0
 1952 076f 17020000 		.4byte	0x217
 1953 0773 00       		.byte	0
 1954 0774 21       		.uleb128 0x21
 1955 0775 9C010000 		.4byte	.LASF113
 1956 0779 01       		.byte	0x1
 1957 077a 67       		.byte	0x67
 1958 077b 00000000 		.4byte	.LFB170
 1959 077f 0A000000 		.4byte	.LFE170-.LFB170
 1960 0783 01       		.uleb128 0x1
 1961 0784 9C       		.byte	0x9c
 1962 0785 B6070000 		.4byte	0x7b6
 1963 0789 22       		.uleb128 0x22
 1964 078a 6D7000   		.ascii	"mp\000"
 1965 078d 01       		.byte	0x1
 1966 078e 67       		.byte	0x67
 1967 078f E9050000 		.4byte	0x5e9
 1968 0793 01       		.uleb128 0x1
 1969 0794 50       		.byte	0x50
 1970 0795 23       		.uleb128 0x23
 1971 0796 28060000 		.4byte	.LASF109
 1972 079a C6070000 		.4byte	0x7c6
 1973 079e 24       		.uleb128 0x24
 1974 079f 4B060000 		.4byte	0x64b
 1975 07a3 02000000 		.4byte	.LBB103
 1976 07a7 04000000 		.4byte	.LBE103-.LBB103
 1977 07ab 01       		.byte	0x1
 1978 07ac 6B       		.byte	0x6b
 1979 07ad 25       		.uleb128 0x25
 1980 07ae 58060000 		.4byte	0x658
 1981 07b2 01       		.uleb128 0x1
 1982 07b3 50       		.byte	0x50
 1983 07b4 00       		.byte	0
 1984 07b5 00       		.byte	0
 1985 07b6 15       		.uleb128 0x15
 1986 07b7 C7050000 		.4byte	0x5c7
 1987 07bb C6070000 		.4byte	0x7c6
 1988 07bf 16       		.uleb128 0x16
 1989 07c0 10040000 		.4byte	0x410
 1990 07c4 0F       		.byte	0xf
 1991 07c5 00       		.byte	0
 1992 07c6 14       		.uleb128 0x14
 1993 07c7 B6070000 		.4byte	0x7b6
 1994 07cb 21       		.uleb128 0x21
 1995 07cc 0F050000 		.4byte	.LASF114
ARM GAS  /tmp/ccZw1gyL.s 			page 36


 1996 07d0 01       		.byte	0x1
 1997 07d1 8B       		.byte	0x8b
 1998 07d2 00000000 		.4byte	.LFB172
 1999 07d6 C8000000 		.4byte	.LFE172-.LFB172
 2000 07da 01       		.uleb128 0x1
 2001 07db 9C       		.byte	0x9c
 2002 07dc 31090000 		.4byte	0x931
 2003 07e0 26       		.uleb128 0x26
 2004 07e1 6D7000   		.ascii	"mp\000"
 2005 07e4 01       		.byte	0x1
 2006 07e5 8B       		.byte	0x8b
 2007 07e6 E9050000 		.4byte	0x5e9
 2008 07ea 00000000 		.4byte	.LLST0
 2009 07ee 27       		.uleb128 0x27
 2010 07ef 63747000 		.ascii	"ctp\000"
 2011 07f3 01       		.byte	0x1
 2012 07f4 8C       		.byte	0x8c
 2013 07f5 17020000 		.4byte	0x217
 2014 07f9 51000000 		.4byte	.LLST1
 2015 07fd 23       		.uleb128 0x23
 2016 07fe 28060000 		.4byte	.LASF109
 2017 0802 41090000 		.4byte	0x941
 2018 0806 28       		.uleb128 0x28
 2019 0807 00000000 		.4byte	.Ldebug_ranges0+0
 2020 080b 27       		.uleb128 0x27
 2021 080c 747000   		.ascii	"tp\000"
 2022 080f 01       		.byte	0x1
 2023 0810 A1       		.byte	0xa1
 2024 0811 17020000 		.4byte	0x217
 2025 0815 7B000000 		.4byte	.LLST2
 2026 0819 29       		.uleb128 0x29
 2027 081a 88060000 		.4byte	0x688
 2028 081e 24000000 		.4byte	.LBB106
 2029 0822 1C000000 		.4byte	.LBE106-.LBB106
 2030 0826 01       		.byte	0x1
 2031 0827 D4       		.byte	0xd4
 2032 0828 52080000 		.4byte	0x852
 2033 082c 2A       		.uleb128 0x2a
 2034 082d A0060000 		.4byte	0x6a0
 2035 0831 AF000000 		.4byte	.LLST3
 2036 0835 2A       		.uleb128 0x2a
 2037 0836 95060000 		.4byte	0x695
 2038 083a DF000000 		.4byte	.LLST4
 2039 083e 2B       		.uleb128 0x2b
 2040 083f 24000000 		.4byte	.LBB107
 2041 0843 1C000000 		.4byte	.LBE107-.LBB107
 2042 0847 2C       		.uleb128 0x2c
 2043 0848 AC060000 		.4byte	0x6ac
 2044 084c FE000000 		.4byte	.LLST5
 2045 0850 00       		.byte	0
 2046 0851 00       		.byte	0
 2047 0852 2D       		.uleb128 0x2d
 2048 0853 6B060000 		.4byte	0x66b
 2049 0857 4C000000 		.4byte	.LBB108
 2050 085b 18000000 		.4byte	.Ldebug_ranges0+0x18
 2051 085f 01       		.byte	0x1
 2052 0860 CA       		.byte	0xca
ARM GAS  /tmp/ccZw1gyL.s 			page 37


 2053 0861 6F080000 		.4byte	0x86f
 2054 0865 2A       		.uleb128 0x2a
 2055 0866 7C060000 		.4byte	0x67c
 2056 086a 1C010000 		.4byte	.LLST6
 2057 086e 00       		.byte	0
 2058 086f 2D       		.uleb128 0x2d
 2059 0870 6B060000 		.4byte	0x66b
 2060 0874 5E000000 		.4byte	.LBB112
 2061 0878 30000000 		.4byte	.Ldebug_ranges0+0x30
 2062 087c 01       		.byte	0x1
 2063 087d C1       		.byte	0xc1
 2064 087e 8C080000 		.4byte	0x88c
 2065 0882 2A       		.uleb128 0x2a
 2066 0883 7C060000 		.4byte	0x67c
 2067 0887 3A010000 		.4byte	.LLST7
 2068 088b 00       		.byte	0
 2069 088c 2D       		.uleb128 0x2d
 2070 088d 88060000 		.4byte	0x688
 2071 0891 68000000 		.4byte	.LBB117
 2072 0895 50000000 		.4byte	.Ldebug_ranges0+0x50
 2073 0899 01       		.byte	0x1
 2074 089a C1       		.byte	0xc1
 2075 089b C1080000 		.4byte	0x8c1
 2076 089f 2A       		.uleb128 0x2a
 2077 08a0 A0060000 		.4byte	0x6a0
 2078 08a4 4D010000 		.4byte	.LLST8
 2079 08a8 2A       		.uleb128 0x2a
 2080 08a9 95060000 		.4byte	0x695
 2081 08ad 60010000 		.4byte	.LLST9
 2082 08b1 28       		.uleb128 0x28
 2083 08b2 50000000 		.4byte	.Ldebug_ranges0+0x50
 2084 08b6 2C       		.uleb128 0x2c
 2085 08b7 AC060000 		.4byte	0x6ac
 2086 08bb 73010000 		.4byte	.LLST10
 2087 08bf 00       		.byte	0
 2088 08c0 00       		.byte	0
 2089 08c1 2D       		.uleb128 0x2d
 2090 08c2 6B060000 		.4byte	0x66b
 2091 08c6 86000000 		.4byte	.LBB122
 2092 08ca 68000000 		.4byte	.Ldebug_ranges0+0x68
 2093 08ce 01       		.byte	0x1
 2094 08cf AD       		.byte	0xad
 2095 08d0 DE080000 		.4byte	0x8de
 2096 08d4 2A       		.uleb128 0x2a
 2097 08d5 7C060000 		.4byte	0x67c
 2098 08d9 91010000 		.4byte	.LLST11
 2099 08dd 00       		.byte	0
 2100 08de 2D       		.uleb128 0x2d
 2101 08df 88060000 		.4byte	0x688
 2102 08e3 90000000 		.4byte	.LBB127
 2103 08e7 88000000 		.4byte	.Ldebug_ranges0+0x88
 2104 08eb 01       		.byte	0x1
 2105 08ec AD       		.byte	0xad
 2106 08ed 13090000 		.4byte	0x913
 2107 08f1 2A       		.uleb128 0x2a
 2108 08f2 A0060000 		.4byte	0x6a0
 2109 08f6 B0010000 		.4byte	.LLST12
ARM GAS  /tmp/ccZw1gyL.s 			page 38


 2110 08fa 2A       		.uleb128 0x2a
 2111 08fb 95060000 		.4byte	0x695
 2112 08ff C3010000 		.4byte	.LLST13
 2113 0903 28       		.uleb128 0x28
 2114 0904 88000000 		.4byte	.Ldebug_ranges0+0x88
 2115 0908 2C       		.uleb128 0x2c
 2116 0909 AC060000 		.4byte	0x6ac
 2117 090d E2010000 		.4byte	.LLST14
 2118 0911 00       		.byte	0
 2119 0912 00       		.byte	0
 2120 0913 2E       		.uleb128 0x2e
 2121 0914 4C000000 		.4byte	.LVL9
 2122 0918 990F0000 		.4byte	0xf99
 2123 091c 26090000 		.4byte	0x926
 2124 0920 2F       		.uleb128 0x2f
 2125 0921 01       		.uleb128 0x1
 2126 0922 50       		.byte	0x50
 2127 0923 01       		.uleb128 0x1
 2128 0924 36       		.byte	0x36
 2129 0925 00       		.byte	0
 2130 0926 30       		.uleb128 0x30
 2131 0927 5C000000 		.4byte	.LVL11
 2132 092b AB0F0000 		.4byte	0xfab
 2133 092f 00       		.byte	0
 2134 0930 00       		.byte	0
 2135 0931 15       		.uleb128 0x15
 2136 0932 C7050000 		.4byte	0x5c7
 2137 0936 41090000 		.4byte	0x941
 2138 093a 16       		.uleb128 0x16
 2139 093b 10040000 		.4byte	0x410
 2140 093f 0A       		.byte	0xa
 2141 0940 00       		.byte	0
 2142 0941 14       		.uleb128 0x14
 2143 0942 31090000 		.4byte	0x931
 2144 0946 21       		.uleb128 0x21
 2145 0947 42000000 		.4byte	.LASF115
 2146 094b 01       		.byte	0x1
 2147 094c 7B       		.byte	0x7b
 2148 094d 00000000 		.4byte	.LFB171
 2149 0951 14000000 		.4byte	.LFE171-.LFB171
 2150 0955 01       		.uleb128 0x1
 2151 0956 9C       		.byte	0x9c
 2152 0957 020A0000 		.4byte	0xa02
 2153 095b 26       		.uleb128 0x26
 2154 095c 6D7000   		.ascii	"mp\000"
 2155 095f 01       		.byte	0x1
 2156 0960 7B       		.byte	0x7b
 2157 0961 E9050000 		.4byte	0x5e9
 2158 0965 00020000 		.4byte	.LLST15
 2159 0969 29       		.uleb128 0x29
 2160 096a B8060000 		.4byte	0x6b8
 2161 096e 02000000 		.4byte	.LBB133
 2162 0972 06000000 		.4byte	.LBE133-.LBB133
 2163 0976 01       		.byte	0x1
 2164 0977 7D       		.byte	0x7d
 2165 0978 A5090000 		.4byte	0x9a5
 2166 097c 31       		.uleb128 0x31
ARM GAS  /tmp/ccZw1gyL.s 			page 39


 2167 097d 09060000 		.4byte	0x609
 2168 0981 02000000 		.4byte	.LBB134
 2169 0985 06000000 		.4byte	.LBE134-.LBB134
 2170 0989 0D       		.byte	0xd
 2171 098a 5C01     		.2byte	0x15c
 2172 098c 31       		.uleb128 0x31
 2173 098d EF050000 		.4byte	0x5ef
 2174 0991 02000000 		.4byte	.LBB135
 2175 0995 06000000 		.4byte	.LBE135-.LBB135
 2176 0999 09       		.byte	0x9
 2177 099a D001     		.2byte	0x1d0
 2178 099c 32       		.uleb128 0x32
 2179 099d FC050000 		.4byte	0x5fc
 2180 09a1 20       		.byte	0x20
 2181 09a2 00       		.byte	0
 2182 09a3 00       		.byte	0
 2183 09a4 00       		.byte	0
 2184 09a5 29       		.uleb128 0x29
 2185 09a6 C1060000 		.4byte	0x6c1
 2186 09aa 0C000000 		.4byte	.LBB137
 2187 09ae 08000000 		.4byte	.LBE137-.LBB137
 2188 09b2 01       		.byte	0x1
 2189 09b3 7F       		.byte	0x7f
 2190 09b4 F0090000 		.4byte	0x9f0
 2191 09b8 2B       		.uleb128 0x2b
 2192 09b9 0C000000 		.4byte	.LBB138
 2193 09bd 08000000 		.4byte	.LBE138-.LBB138
 2194 09c1 33       		.uleb128 0x33
 2195 09c2 CE060000 		.4byte	0x6ce
 2196 09c6 31       		.uleb128 0x31
 2197 09c7 12060000 		.4byte	0x612
 2198 09cb 0C000000 		.4byte	.LBB139
 2199 09cf 08000000 		.4byte	.LBE139-.LBB139
 2200 09d3 0D       		.byte	0xd
 2201 09d4 7301     		.2byte	0x173
 2202 09d6 31       		.uleb128 0x31
 2203 09d7 EF050000 		.4byte	0x5ef
 2204 09db 0C000000 		.4byte	.LBB140
 2205 09df 08000000 		.4byte	.LBE140-.LBB140
 2206 09e3 09       		.byte	0x9
 2207 09e4 E301     		.2byte	0x1e3
 2208 09e6 32       		.uleb128 0x32
 2209 09e7 FC050000 		.4byte	0x5fc
 2210 09eb 00       		.byte	0
 2211 09ec 00       		.byte	0
 2212 09ed 00       		.byte	0
 2213 09ee 00       		.byte	0
 2214 09ef 00       		.byte	0
 2215 09f0 34       		.uleb128 0x34
 2216 09f1 0C000000 		.4byte	.LVL25
 2217 09f5 CB070000 		.4byte	0x7cb
 2218 09f9 2F       		.uleb128 0x2f
 2219 09fa 01       		.uleb128 0x1
 2220 09fb 50       		.byte	0x50
 2221 09fc 03       		.uleb128 0x3
 2222 09fd F3       		.byte	0xf3
 2223 09fe 01       		.uleb128 0x1
ARM GAS  /tmp/ccZw1gyL.s 			page 40


 2224 09ff 50       		.byte	0x50
 2225 0a00 00       		.byte	0
 2226 0a01 00       		.byte	0
 2227 0a02 35       		.uleb128 0x35
 2228 0a03 2F010000 		.4byte	.LASF124
 2229 0a07 01       		.byte	0x1
 2230 0a08 FF       		.byte	0xff
 2231 0a09 39060000 		.4byte	0x639
 2232 0a0d 00000000 		.4byte	.LFB173
 2233 0a11 30000000 		.4byte	.LFE173-.LFB173
 2234 0a15 01       		.uleb128 0x1
 2235 0a16 9C       		.byte	0x9c
 2236 0a17 030B0000 		.4byte	0xb03
 2237 0a1b 26       		.uleb128 0x26
 2238 0a1c 6D7000   		.ascii	"mp\000"
 2239 0a1f 01       		.byte	0x1
 2240 0a20 FF       		.byte	0xff
 2241 0a21 E9050000 		.4byte	0x5e9
 2242 0a25 21020000 		.4byte	.LLST16
 2243 0a29 1C       		.uleb128 0x1c
 2244 0a2a 6200     		.ascii	"b\000"
 2245 0a2c 01       		.byte	0x1
 2246 0a2d 0001     		.2byte	0x100
 2247 0a2f 39060000 		.4byte	0x639
 2248 0a33 36       		.uleb128 0x36
 2249 0a34 B8060000 		.4byte	0x6b8
 2250 0a38 02000000 		.4byte	.LBB155
 2251 0a3c 06000000 		.4byte	.LBE155-.LBB155
 2252 0a40 01       		.byte	0x1
 2253 0a41 0201     		.2byte	0x102
 2254 0a43 700A0000 		.4byte	0xa70
 2255 0a47 31       		.uleb128 0x31
 2256 0a48 09060000 		.4byte	0x609
 2257 0a4c 02000000 		.4byte	.LBB156
 2258 0a50 06000000 		.4byte	.LBE156-.LBB156
 2259 0a54 0D       		.byte	0xd
 2260 0a55 5C01     		.2byte	0x15c
 2261 0a57 31       		.uleb128 0x31
 2262 0a58 EF050000 		.4byte	0x5ef
 2263 0a5c 02000000 		.4byte	.LBB157
 2264 0a60 06000000 		.4byte	.LBE157-.LBB157
 2265 0a64 09       		.byte	0x9
 2266 0a65 D001     		.2byte	0x1d0
 2267 0a67 32       		.uleb128 0x32
 2268 0a68 FC050000 		.4byte	0x5fc
 2269 0a6c 20       		.byte	0x20
 2270 0a6d 00       		.byte	0
 2271 0a6e 00       		.byte	0
 2272 0a6f 00       		.byte	0
 2273 0a70 37       		.uleb128 0x37
 2274 0a71 F1060000 		.4byte	0x6f1
 2275 0a75 08000000 		.4byte	.LBB159
 2276 0a79 A0000000 		.4byte	.Ldebug_ranges0+0xa0
 2277 0a7d 01       		.byte	0x1
 2278 0a7e 0301     		.2byte	0x103
 2279 0a80 BB0A0000 		.4byte	0xabb
 2280 0a84 2A       		.uleb128 0x2a
ARM GAS  /tmp/ccZw1gyL.s 			page 41


 2281 0a85 02070000 		.4byte	0x702
 2282 0a89 64020000 		.4byte	.LLST17
 2283 0a8d 28       		.uleb128 0x28
 2284 0a8e A0000000 		.4byte	.Ldebug_ranges0+0xa0
 2285 0a92 33       		.uleb128 0x33
 2286 0a93 0D070000 		.4byte	0x70d
 2287 0a97 2B       		.uleb128 0x2b
 2288 0a98 16000000 		.4byte	.LBB161
 2289 0a9c 0E000000 		.4byte	.LBE161-.LBB161
 2290 0aa0 2A       		.uleb128 0x2a
 2291 0aa1 02070000 		.4byte	0x702
 2292 0aa5 A7020000 		.4byte	.LLST18
 2293 0aa9 2B       		.uleb128 0x2b
 2294 0aaa 16000000 		.4byte	.LBB162
 2295 0aae 0E000000 		.4byte	.LBE162-.LBB162
 2296 0ab2 33       		.uleb128 0x33
 2297 0ab3 0D070000 		.4byte	0x70d
 2298 0ab7 00       		.byte	0
 2299 0ab8 00       		.byte	0
 2300 0ab9 00       		.byte	0
 2301 0aba 00       		.byte	0
 2302 0abb 38       		.uleb128 0x38
 2303 0abc C1060000 		.4byte	0x6c1
 2304 0ac0 0E000000 		.4byte	.LBB164
 2305 0ac4 B8000000 		.4byte	.Ldebug_ranges0+0xb8
 2306 0ac8 01       		.byte	0x1
 2307 0ac9 0401     		.2byte	0x104
 2308 0acb 28       		.uleb128 0x28
 2309 0acc B8000000 		.4byte	.Ldebug_ranges0+0xb8
 2310 0ad0 33       		.uleb128 0x33
 2311 0ad1 CE060000 		.4byte	0x6ce
 2312 0ad5 38       		.uleb128 0x38
 2313 0ad6 12060000 		.4byte	0x612
 2314 0ada 0E000000 		.4byte	.LBB166
 2315 0ade B8000000 		.4byte	.Ldebug_ranges0+0xb8
 2316 0ae2 0D       		.byte	0xd
 2317 0ae3 7301     		.2byte	0x173
 2318 0ae5 38       		.uleb128 0x38
 2319 0ae6 EF050000 		.4byte	0x5ef
 2320 0aea 0E000000 		.4byte	.LBB167
 2321 0aee B8000000 		.4byte	.Ldebug_ranges0+0xb8
 2322 0af2 09       		.byte	0x9
 2323 0af3 E301     		.2byte	0x1e3
 2324 0af5 2A       		.uleb128 0x2a
 2325 0af6 FC050000 		.4byte	0x5fc
 2326 0afa C6020000 		.4byte	.LLST19
 2327 0afe 00       		.byte	0
 2328 0aff 00       		.byte	0
 2329 0b00 00       		.byte	0
 2330 0b01 00       		.byte	0
 2331 0b02 00       		.byte	0
 2332 0b03 39       		.uleb128 0x39
 2333 0b04 F1060000 		.4byte	0x6f1
 2334 0b08 00000000 		.4byte	.LFB174
 2335 0b0c 20000000 		.4byte	.LFE174-.LFB174
 2336 0b10 01       		.uleb128 0x1
 2337 0b11 9C       		.byte	0x9c
ARM GAS  /tmp/ccZw1gyL.s 			page 42


 2338 0b12 470B0000 		.4byte	0xb47
 2339 0b16 2A       		.uleb128 0x2a
 2340 0b17 02070000 		.4byte	0x702
 2341 0b1b E6020000 		.4byte	.LLST20
 2342 0b1f 33       		.uleb128 0x33
 2343 0b20 0D070000 		.4byte	0x70d
 2344 0b24 2B       		.uleb128 0x2b
 2345 0b25 0A000000 		.4byte	.LBB177
 2346 0b29 16000000 		.4byte	.LBE177-.LBB177
 2347 0b2d 2A       		.uleb128 0x2a
 2348 0b2e 02070000 		.4byte	0x702
 2349 0b32 1A030000 		.4byte	.LLST21
 2350 0b36 2B       		.uleb128 0x2b
 2351 0b37 0A000000 		.4byte	.LBB178
 2352 0b3b 16000000 		.4byte	.LBE178-.LBB178
 2353 0b3f 33       		.uleb128 0x33
 2354 0b40 0D070000 		.4byte	0x70d
 2355 0b44 00       		.byte	0
 2356 0b45 00       		.byte	0
 2357 0b46 00       		.byte	0
 2358 0b47 3A       		.uleb128 0x3a
 2359 0b48 E0020000 		.4byte	.LASF116
 2360 0b4c 01       		.byte	0x1
 2361 0b4d 4301     		.2byte	0x143
 2362 0b4f 00000000 		.4byte	.LFB175
 2363 0b53 64000000 		.4byte	.LFE175-.LFB175
 2364 0b57 01       		.uleb128 0x1
 2365 0b58 9C       		.byte	0x9c
 2366 0b59 FB0C0000 		.4byte	0xcfb
 2367 0b5d 3B       		.uleb128 0x3b
 2368 0b5e 6D7000   		.ascii	"mp\000"
 2369 0b61 01       		.byte	0x1
 2370 0b62 4301     		.2byte	0x143
 2371 0b64 E9050000 		.4byte	0x5e9
 2372 0b68 38030000 		.4byte	.LLST22
 2373 0b6c 3C       		.uleb128 0x3c
 2374 0b6d 63747000 		.ascii	"ctp\000"
 2375 0b71 01       		.byte	0x1
 2376 0b72 4401     		.2byte	0x144
 2377 0b74 17020000 		.4byte	0x217
 2378 0b78 6F030000 		.4byte	.LLST23
 2379 0b7c 3C       		.uleb128 0x3c
 2380 0b7d 6C6D7000 		.ascii	"lmp\000"
 2381 0b81 01       		.byte	0x1
 2382 0b82 4501     		.2byte	0x145
 2383 0b84 E9050000 		.4byte	0x5e9
 2384 0b88 82030000 		.4byte	.LLST24
 2385 0b8c 23       		.uleb128 0x23
 2386 0b8d 28060000 		.4byte	.LASF109
 2387 0b91 FB0C0000 		.4byte	0xcfb
 2388 0b95 36       		.uleb128 0x36
 2389 0b96 B8060000 		.4byte	0x6b8
 2390 0b9a 06000000 		.4byte	.LBB179
 2391 0b9e 06000000 		.4byte	.LBE179-.LBB179
 2392 0ba2 01       		.byte	0x1
 2393 0ba3 4901     		.2byte	0x149
 2394 0ba5 D20B0000 		.4byte	0xbd2
ARM GAS  /tmp/ccZw1gyL.s 			page 43


 2395 0ba9 31       		.uleb128 0x31
 2396 0baa 09060000 		.4byte	0x609
 2397 0bae 06000000 		.4byte	.LBB180
 2398 0bb2 06000000 		.4byte	.LBE180-.LBB180
 2399 0bb6 0D       		.byte	0xd
 2400 0bb7 5C01     		.2byte	0x15c
 2401 0bb9 31       		.uleb128 0x31
 2402 0bba EF050000 		.4byte	0x5ef
 2403 0bbe 06000000 		.4byte	.LBB181
 2404 0bc2 06000000 		.4byte	.LBE181-.LBB181
 2405 0bc6 09       		.byte	0x9
 2406 0bc7 D001     		.2byte	0x1d0
 2407 0bc9 32       		.uleb128 0x32
 2408 0bca FC050000 		.4byte	0x5fc
 2409 0bce 20       		.byte	0x20
 2410 0bcf 00       		.byte	0
 2411 0bd0 00       		.byte	0
 2412 0bd1 00       		.byte	0
 2413 0bd2 36       		.uleb128 0x36
 2414 0bd3 30070000 		.4byte	0x730
 2415 0bd7 0C000000 		.4byte	.LBB183
 2416 0bdb 02000000 		.4byte	.LBE183-.LBB183
 2417 0bdf 01       		.byte	0x1
 2418 0be0 5B01     		.2byte	0x15b
 2419 0be2 090C0000 		.4byte	0xc09
 2420 0be6 2A       		.uleb128 0x2a
 2421 0be7 40070000 		.4byte	0x740
 2422 0beb 95030000 		.4byte	.LLST25
 2423 0bef 24       		.uleb128 0x24
 2424 0bf0 1B060000 		.4byte	0x61b
 2425 0bf4 0C000000 		.4byte	.LBB185
 2426 0bf8 02000000 		.4byte	.LBE185-.LBB185
 2427 0bfc 0C       		.byte	0xc
 2428 0bfd 85       		.byte	0x85
 2429 0bfe 2A       		.uleb128 0x2a
 2430 0bff 2C060000 		.4byte	0x62c
 2431 0c03 95030000 		.4byte	.LLST25
 2432 0c07 00       		.byte	0
 2433 0c08 00       		.byte	0
 2434 0c09 3D       		.uleb128 0x3d
 2435 0c0a 16000000 		.4byte	.LBB187
 2436 0c0e 34000000 		.4byte	.LBE187-.LBB187
 2437 0c12 B30C0000 		.4byte	0xcb3
 2438 0c16 1C       		.uleb128 0x1c
 2439 0c17 747000   		.ascii	"tp\000"
 2440 0c1a 01       		.byte	0x1
 2441 0c1b 5C01     		.2byte	0x15c
 2442 0c1d 17020000 		.4byte	0x217
 2443 0c21 3E       		.uleb128 0x3e
 2444 0c22 AC010000 		.4byte	.LASF117
 2445 0c26 01       		.byte	0x1
 2446 0c27 6001     		.2byte	0x160
 2447 0c29 01010000 		.4byte	0x101
 2448 0c2d CC030000 		.4byte	.LLST27
 2449 0c31 36       		.uleb128 0x36
 2450 0c32 30070000 		.4byte	0x730
 2451 0c36 1A000000 		.4byte	.LBB188
ARM GAS  /tmp/ccZw1gyL.s 			page 44


 2452 0c3a 02000000 		.4byte	.LBE188-.LBB188
 2453 0c3e 01       		.byte	0x1
 2454 0c3f 6601     		.2byte	0x166
 2455 0c41 680C0000 		.4byte	0xc68
 2456 0c45 2A       		.uleb128 0x2a
 2457 0c46 40070000 		.4byte	0x740
 2458 0c4a DF030000 		.4byte	.LLST28
 2459 0c4e 24       		.uleb128 0x24
 2460 0c4f 1B060000 		.4byte	0x61b
 2461 0c53 1A000000 		.4byte	.LBB190
 2462 0c57 02000000 		.4byte	.LBE190-.LBB190
 2463 0c5b 0C       		.byte	0xc
 2464 0c5c 85       		.byte	0x85
 2465 0c5d 2A       		.uleb128 0x2a
 2466 0c5e 2C060000 		.4byte	0x62c
 2467 0c62 DF030000 		.4byte	.LLST28
 2468 0c66 00       		.byte	0
 2469 0c67 00       		.byte	0
 2470 0c68 37       		.uleb128 0x37
 2471 0c69 4B070000 		.4byte	0x74b
 2472 0c6d 30000000 		.4byte	.LBB192
 2473 0c71 D0000000 		.4byte	.Ldebug_ranges0+0xd0
 2474 0c75 01       		.byte	0x1
 2475 0c76 7601     		.2byte	0x176
 2476 0c78 950C0000 		.4byte	0xc95
 2477 0c7c 2A       		.uleb128 0x2a
 2478 0c7d 5C070000 		.4byte	0x75c
 2479 0c81 F2030000 		.4byte	.LLST30
 2480 0c85 28       		.uleb128 0x28
 2481 0c86 D0000000 		.4byte	.Ldebug_ranges0+0xd0
 2482 0c8a 2C       		.uleb128 0x2c
 2483 0c8b 68070000 		.4byte	0x768
 2484 0c8f 13040000 		.4byte	.LLST31
 2485 0c93 00       		.byte	0
 2486 0c94 00       		.byte	0
 2487 0c95 3F       		.uleb128 0x3f
 2488 0c96 46000000 		.4byte	.LVL48
 2489 0c9a AB0F0000 		.4byte	0xfab
 2490 0c9e A90C0000 		.4byte	0xca9
 2491 0ca2 2F       		.uleb128 0x2f
 2492 0ca3 01       		.uleb128 0x1
 2493 0ca4 50       		.byte	0x50
 2494 0ca5 02       		.uleb128 0x2
 2495 0ca6 74       		.byte	0x74
 2496 0ca7 00       		.sleb128 0
 2497 0ca8 00       		.byte	0
 2498 0ca9 30       		.uleb128 0x30
 2499 0caa 4A000000 		.4byte	.LVL49
 2500 0cae C10F0000 		.4byte	0xfc1
 2501 0cb2 00       		.byte	0
 2502 0cb3 38       		.uleb128 0x38
 2503 0cb4 C1060000 		.4byte	0x6c1
 2504 0cb8 4A000000 		.4byte	.LBB196
 2505 0cbc E8000000 		.4byte	.Ldebug_ranges0+0xe8
 2506 0cc0 01       		.byte	0x1
 2507 0cc1 8901     		.2byte	0x189
 2508 0cc3 28       		.uleb128 0x28
ARM GAS  /tmp/ccZw1gyL.s 			page 45


 2509 0cc4 E8000000 		.4byte	.Ldebug_ranges0+0xe8
 2510 0cc8 33       		.uleb128 0x33
 2511 0cc9 CE060000 		.4byte	0x6ce
 2512 0ccd 38       		.uleb128 0x38
 2513 0cce 12060000 		.4byte	0x612
 2514 0cd2 4A000000 		.4byte	.LBB198
 2515 0cd6 E8000000 		.4byte	.Ldebug_ranges0+0xe8
 2516 0cda 0D       		.byte	0xd
 2517 0cdb 7301     		.2byte	0x173
 2518 0cdd 38       		.uleb128 0x38
 2519 0cde EF050000 		.4byte	0x5ef
 2520 0ce2 4A000000 		.4byte	.LBB199
 2521 0ce6 E8000000 		.4byte	.Ldebug_ranges0+0xe8
 2522 0cea 09       		.byte	0x9
 2523 0ceb E301     		.2byte	0x1e3
 2524 0ced 2A       		.uleb128 0x2a
 2525 0cee FC050000 		.4byte	0x5fc
 2526 0cf2 31040000 		.4byte	.LLST32
 2527 0cf6 00       		.byte	0
 2528 0cf7 00       		.byte	0
 2529 0cf8 00       		.byte	0
 2530 0cf9 00       		.byte	0
 2531 0cfa 00       		.byte	0
 2532 0cfb 14       		.uleb128 0x14
 2533 0cfc DC060000 		.4byte	0x6dc
 2534 0d00 3A       		.uleb128 0x3a
 2535 0d01 02050000 		.4byte	.LASF118
 2536 0d05 01       		.byte	0x1
 2537 0d06 9A01     		.2byte	0x19a
 2538 0d08 00000000 		.4byte	.LFB176
 2539 0d0c 50000000 		.4byte	.LFE176-.LFB176
 2540 0d10 01       		.uleb128 0x1
 2541 0d11 9C       		.byte	0x9c
 2542 0d12 140E0000 		.4byte	0xe14
 2543 0d16 3B       		.uleb128 0x3b
 2544 0d17 6D7000   		.ascii	"mp\000"
 2545 0d1a 01       		.byte	0x1
 2546 0d1b 9A01     		.2byte	0x19a
 2547 0d1d E9050000 		.4byte	0x5e9
 2548 0d21 51040000 		.4byte	.LLST33
 2549 0d25 3C       		.uleb128 0x3c
 2550 0d26 63747000 		.ascii	"ctp\000"
 2551 0d2a 01       		.byte	0x1
 2552 0d2b 9B01     		.2byte	0x19b
 2553 0d2d 17020000 		.4byte	0x217
 2554 0d31 A2040000 		.4byte	.LLST34
 2555 0d35 3C       		.uleb128 0x3c
 2556 0d36 6C6D7000 		.ascii	"lmp\000"
 2557 0d3a 01       		.byte	0x1
 2558 0d3b 9C01     		.2byte	0x19c
 2559 0d3d E9050000 		.4byte	0x5e9
 2560 0d41 C0040000 		.4byte	.LLST35
 2561 0d45 23       		.uleb128 0x23
 2562 0d46 28060000 		.4byte	.LASF109
 2563 0d4a 240E0000 		.4byte	0xe24
 2564 0d4e 36       		.uleb128 0x36
 2565 0d4f 30070000 		.4byte	0x730
ARM GAS  /tmp/ccZw1gyL.s 			page 46


 2566 0d53 06000000 		.4byte	.LBB206
 2567 0d57 02000000 		.4byte	.LBE206-.LBB206
 2568 0d5b 01       		.byte	0x1
 2569 0d5c B101     		.2byte	0x1b1
 2570 0d5e 850D0000 		.4byte	0xd85
 2571 0d62 2A       		.uleb128 0x2a
 2572 0d63 40070000 		.4byte	0x740
 2573 0d67 D3040000 		.4byte	.LLST36
 2574 0d6b 24       		.uleb128 0x24
 2575 0d6c 1B060000 		.4byte	0x61b
 2576 0d70 06000000 		.4byte	.LBB208
 2577 0d74 02000000 		.4byte	.LBE208-.LBB208
 2578 0d78 0C       		.byte	0xc
 2579 0d79 85       		.byte	0x85
 2580 0d7a 2A       		.uleb128 0x2a
 2581 0d7b 2C060000 		.4byte	0x62c
 2582 0d7f D3040000 		.4byte	.LLST36
 2583 0d83 00       		.byte	0
 2584 0d84 00       		.byte	0
 2585 0d85 28       		.uleb128 0x28
 2586 0d86 00010000 		.4byte	.Ldebug_ranges0+0x100
 2587 0d8a 1C       		.uleb128 0x1c
 2588 0d8b 747000   		.ascii	"tp\000"
 2589 0d8e 01       		.byte	0x1
 2590 0d8f B201     		.2byte	0x1b2
 2591 0d91 17020000 		.4byte	0x217
 2592 0d95 3E       		.uleb128 0x3e
 2593 0d96 AC010000 		.4byte	.LASF117
 2594 0d9a 01       		.byte	0x1
 2595 0d9b B601     		.2byte	0x1b6
 2596 0d9d 01010000 		.4byte	0x101
 2597 0da1 19050000 		.4byte	.LLST38
 2598 0da5 36       		.uleb128 0x36
 2599 0da6 30070000 		.4byte	0x730
 2600 0daa 16000000 		.4byte	.LBB211
 2601 0dae 02000000 		.4byte	.LBE211-.LBB211
 2602 0db2 01       		.byte	0x1
 2603 0db3 BC01     		.2byte	0x1bc
 2604 0db5 DC0D0000 		.4byte	0xddc
 2605 0db9 2A       		.uleb128 0x2a
 2606 0dba 40070000 		.4byte	0x740
 2607 0dbe 2C050000 		.4byte	.LLST39
 2608 0dc2 24       		.uleb128 0x24
 2609 0dc3 1B060000 		.4byte	0x61b
 2610 0dc7 16000000 		.4byte	.LBB213
 2611 0dcb 02000000 		.4byte	.LBE213-.LBB213
 2612 0dcf 0C       		.byte	0xc
 2613 0dd0 85       		.byte	0x85
 2614 0dd1 2A       		.uleb128 0x2a
 2615 0dd2 2C060000 		.4byte	0x62c
 2616 0dd6 2C050000 		.4byte	.LLST39
 2617 0dda 00       		.byte	0
 2618 0ddb 00       		.byte	0
 2619 0ddc 37       		.uleb128 0x37
 2620 0ddd 4B070000 		.4byte	0x74b
 2621 0de1 2C000000 		.4byte	.LBB215
 2622 0de5 18010000 		.4byte	.Ldebug_ranges0+0x118
ARM GAS  /tmp/ccZw1gyL.s 			page 47


 2623 0de9 01       		.byte	0x1
 2624 0dea CC01     		.2byte	0x1cc
 2625 0dec 090E0000 		.4byte	0xe09
 2626 0df0 2A       		.uleb128 0x2a
 2627 0df1 5C070000 		.4byte	0x75c
 2628 0df5 3F050000 		.4byte	.LLST41
 2629 0df9 28       		.uleb128 0x28
 2630 0dfa 18010000 		.4byte	.Ldebug_ranges0+0x118
 2631 0dfe 2C       		.uleb128 0x2c
 2632 0dff 68070000 		.4byte	0x768
 2633 0e03 6C050000 		.4byte	.LLST42
 2634 0e07 00       		.byte	0
 2635 0e08 00       		.byte	0
 2636 0e09 40       		.uleb128 0x40
 2637 0e0a 42000000 		.4byte	.LVL64
 2638 0e0e AB0F0000 		.4byte	0xfab
 2639 0e12 00       		.byte	0
 2640 0e13 00       		.byte	0
 2641 0e14 15       		.uleb128 0x15
 2642 0e15 C7050000 		.4byte	0x5c7
 2643 0e19 240E0000 		.4byte	0xe24
 2644 0e1d 16       		.uleb128 0x16
 2645 0e1e 10040000 		.4byte	0x410
 2646 0e22 0C       		.byte	0xc
 2647 0e23 00       		.byte	0
 2648 0e24 14       		.uleb128 0x14
 2649 0e25 140E0000 		.4byte	0xe14
 2650 0e29 3A       		.uleb128 0x3a
 2651 0e2a 05020000 		.4byte	.LASF119
 2652 0e2e 01       		.byte	0x1
 2653 0e2f E501     		.2byte	0x1e5
 2654 0e31 00000000 		.4byte	.LFB177
 2655 0e35 54000000 		.4byte	.LFE177-.LFB177
 2656 0e39 01       		.uleb128 0x1
 2657 0e3a 9C       		.byte	0x9c
 2658 0e3b 7D0F0000 		.4byte	0xf7d
 2659 0e3f 3C       		.uleb128 0x3c
 2660 0e40 63747000 		.ascii	"ctp\000"
 2661 0e44 01       		.byte	0x1
 2662 0e45 E601     		.2byte	0x1e6
 2663 0e47 17020000 		.4byte	0x217
 2664 0e4b 8A050000 		.4byte	.LLST43
 2665 0e4f 37       		.uleb128 0x37
 2666 0e50 B8060000 		.4byte	0x6b8
 2667 0e54 04000000 		.4byte	.LBB222
 2668 0e58 38010000 		.4byte	.Ldebug_ranges0+0x138
 2669 0e5c 01       		.byte	0x1
 2670 0e5d E801     		.2byte	0x1e8
 2671 0e5f 8C0E0000 		.4byte	0xe8c
 2672 0e63 38       		.uleb128 0x38
 2673 0e64 09060000 		.4byte	0x609
 2674 0e68 04000000 		.4byte	.LBB223
 2675 0e6c 38010000 		.4byte	.Ldebug_ranges0+0x138
 2676 0e70 0D       		.byte	0xd
 2677 0e71 5C01     		.2byte	0x15c
 2678 0e73 38       		.uleb128 0x38
 2679 0e74 EF050000 		.4byte	0x5ef
ARM GAS  /tmp/ccZw1gyL.s 			page 48


 2680 0e78 04000000 		.4byte	.LBB224
 2681 0e7c 38010000 		.4byte	.Ldebug_ranges0+0x138
 2682 0e80 09       		.byte	0x9
 2683 0e81 D001     		.2byte	0x1d0
 2684 0e83 32       		.uleb128 0x32
 2685 0e84 FC050000 		.4byte	0x5fc
 2686 0e88 20       		.byte	0x20
 2687 0e89 00       		.byte	0
 2688 0e8a 00       		.byte	0
 2689 0e8b 00       		.byte	0
 2690 0e8c 41       		.uleb128 0x41
 2691 0e8d 50010000 		.4byte	.Ldebug_ranges0+0x150
 2692 0e91 270F0000 		.4byte	0xf27
 2693 0e95 3C       		.uleb128 0x3c
 2694 0e96 6D7000   		.ascii	"mp\000"
 2695 0e99 01       		.byte	0x1
 2696 0e9a EB01     		.2byte	0x1eb
 2697 0e9c E9050000 		.4byte	0x5e9
 2698 0ea0 9D050000 		.4byte	.LLST44
 2699 0ea4 3D       		.uleb128 0x3d
 2700 0ea5 14000000 		.4byte	.LBB231
 2701 0ea9 14000000 		.4byte	.LBE231-.LBB231
 2702 0ead F30E0000 		.4byte	0xef3
 2703 0eb1 1C       		.uleb128 0x1c
 2704 0eb2 747000   		.ascii	"tp\000"
 2705 0eb5 01       		.byte	0x1
 2706 0eb6 F101     		.2byte	0x1f1
 2707 0eb8 17020000 		.4byte	0x217
 2708 0ebc 37       		.uleb128 0x37
 2709 0ebd 4B070000 		.4byte	0x74b
 2710 0ec1 16000000 		.4byte	.LBB232
 2711 0ec5 68010000 		.4byte	.Ldebug_ranges0+0x168
 2712 0ec9 01       		.byte	0x1
 2713 0eca F101     		.2byte	0x1f1
 2714 0ecc E90E0000 		.4byte	0xee9
 2715 0ed0 2A       		.uleb128 0x2a
 2716 0ed1 5C070000 		.4byte	0x75c
 2717 0ed5 9D050000 		.4byte	.LLST44
 2718 0ed9 28       		.uleb128 0x28
 2719 0eda 68010000 		.4byte	.Ldebug_ranges0+0x168
 2720 0ede 2C       		.uleb128 0x2c
 2721 0edf 68070000 		.4byte	0x768
 2722 0ee3 BB050000 		.4byte	.LLST46
 2723 0ee7 00       		.byte	0
 2724 0ee8 00       		.byte	0
 2725 0ee9 30       		.uleb128 0x30
 2726 0eea 28000000 		.4byte	.LVL68
 2727 0eee AB0F0000 		.4byte	0xfab
 2728 0ef2 00       		.byte	0
 2729 0ef3 31       		.uleb128 0x31
 2730 0ef4 30070000 		.4byte	0x730
 2731 0ef8 2C000000 		.4byte	.LBB236
 2732 0efc 02000000 		.4byte	.LBE236-.LBB236
 2733 0f00 01       		.byte	0x1
 2734 0f01 ED01     		.2byte	0x1ed
 2735 0f03 2A       		.uleb128 0x2a
 2736 0f04 40070000 		.4byte	0x740
ARM GAS  /tmp/ccZw1gyL.s 			page 49


 2737 0f08 D9050000 		.4byte	.LLST47
 2738 0f0c 24       		.uleb128 0x24
 2739 0f0d 1B060000 		.4byte	0x61b
 2740 0f11 2C000000 		.4byte	.LBB238
 2741 0f15 02000000 		.4byte	.LBE238-.LBB238
 2742 0f19 0C       		.byte	0xc
 2743 0f1a 85       		.byte	0x85
 2744 0f1b 2A       		.uleb128 0x2a
 2745 0f1c 2C060000 		.4byte	0x62c
 2746 0f20 D9050000 		.4byte	.LLST47
 2747 0f24 00       		.byte	0
 2748 0f25 00       		.byte	0
 2749 0f26 00       		.byte	0
 2750 0f27 36       		.uleb128 0x36
 2751 0f28 C1060000 		.4byte	0x6c1
 2752 0f2c 46000000 		.4byte	.LBB241
 2753 0f30 0E000000 		.4byte	.LBE241-.LBB241
 2754 0f34 01       		.byte	0x1
 2755 0f35 0102     		.2byte	0x201
 2756 0f37 730F0000 		.4byte	0xf73
 2757 0f3b 2B       		.uleb128 0x2b
 2758 0f3c 46000000 		.4byte	.LBB242
 2759 0f40 0E000000 		.4byte	.LBE242-.LBB242
 2760 0f44 33       		.uleb128 0x33
 2761 0f45 CE060000 		.4byte	0x6ce
 2762 0f49 31       		.uleb128 0x31
 2763 0f4a 12060000 		.4byte	0x612
 2764 0f4e 46000000 		.4byte	.LBB243
 2765 0f52 0E000000 		.4byte	.LBE243-.LBB243
 2766 0f56 0D       		.byte	0xd
 2767 0f57 7301     		.2byte	0x173
 2768 0f59 31       		.uleb128 0x31
 2769 0f5a EF050000 		.4byte	0x5ef
 2770 0f5e 46000000 		.4byte	.LBB244
 2771 0f62 0E000000 		.4byte	.LBE244-.LBB244
 2772 0f66 09       		.byte	0x9
 2773 0f67 E301     		.2byte	0x1e3
 2774 0f69 32       		.uleb128 0x32
 2775 0f6a FC050000 		.4byte	0x5fc
 2776 0f6e 00       		.byte	0
 2777 0f6f 00       		.byte	0
 2778 0f70 00       		.byte	0
 2779 0f71 00       		.byte	0
 2780 0f72 00       		.byte	0
 2781 0f73 30       		.uleb128 0x30
 2782 0f74 46000000 		.4byte	.LVL74
 2783 0f78 C10F0000 		.4byte	0xfc1
 2784 0f7c 00       		.byte	0
 2785 0f7d 42       		.uleb128 0x42
 2786 0f7e 9B040000 		.4byte	.LASF120
 2787 0f82 0E       		.byte	0xe
 2788 0f83 5506     		.2byte	0x655
 2789 0f85 890F0000 		.4byte	0xf89
 2790 0f89 13       		.uleb128 0x13
 2791 0f8a B4000000 		.4byte	0xb4
 2792 0f8e 43       		.uleb128 0x43
 2793 0f8f 636800   		.ascii	"ch\000"
ARM GAS  /tmp/ccZw1gyL.s 			page 50


 2794 0f92 02       		.byte	0x2
 2795 0f93 0902     		.2byte	0x209
 2796 0f95 A9030000 		.4byte	0x3a9
 2797 0f99 44       		.uleb128 0x44
 2798 0f9a F4040000 		.4byte	.LASF125
 2799 0f9e 02       		.byte	0x2
 2800 0f9f 1402     		.2byte	0x214
 2801 0fa1 AB0F0000 		.4byte	0xfab
 2802 0fa5 0C       		.uleb128 0xc
 2803 0fa6 EB000000 		.4byte	0xeb
 2804 0faa 00       		.byte	0
 2805 0fab 45       		.uleb128 0x45
 2806 0fac 0D010000 		.4byte	.LASF121
 2807 0fb0 02       		.byte	0x2
 2808 0fb1 1302     		.2byte	0x213
 2809 0fb3 17020000 		.4byte	0x217
 2810 0fb7 C10F0000 		.4byte	0xfc1
 2811 0fbb 0C       		.uleb128 0xc
 2812 0fbc 17020000 		.4byte	0x217
 2813 0fc0 00       		.byte	0
 2814 0fc1 46       		.uleb128 0x46
 2815 0fc2 2E020000 		.4byte	.LASF126
 2816 0fc6 02       		.byte	0x2
 2817 0fc7 1702     		.2byte	0x217
 2818 0fc9 00       		.byte	0
 2819              		.section	.debug_abbrev,"",%progbits
 2820              	.Ldebug_abbrev0:
 2821 0000 01       		.uleb128 0x1
 2822 0001 11       		.uleb128 0x11
 2823 0002 01       		.byte	0x1
 2824 0003 25       		.uleb128 0x25
 2825 0004 0E       		.uleb128 0xe
 2826 0005 13       		.uleb128 0x13
 2827 0006 0B       		.uleb128 0xb
 2828 0007 03       		.uleb128 0x3
 2829 0008 0E       		.uleb128 0xe
 2830 0009 55       		.uleb128 0x55
 2831 000a 17       		.uleb128 0x17
 2832 000b 11       		.uleb128 0x11
 2833 000c 01       		.uleb128 0x1
 2834 000d 10       		.uleb128 0x10
 2835 000e 17       		.uleb128 0x17
 2836 000f 00       		.byte	0
 2837 0010 00       		.byte	0
 2838 0011 02       		.uleb128 0x2
 2839 0012 24       		.uleb128 0x24
 2840 0013 00       		.byte	0
 2841 0014 0B       		.uleb128 0xb
 2842 0015 0B       		.uleb128 0xb
 2843 0016 3E       		.uleb128 0x3e
 2844 0017 0B       		.uleb128 0xb
 2845 0018 03       		.uleb128 0x3
 2846 0019 08       		.uleb128 0x8
 2847 001a 00       		.byte	0
 2848 001b 00       		.byte	0
 2849 001c 03       		.uleb128 0x3
 2850 001d 24       		.uleb128 0x24
ARM GAS  /tmp/ccZw1gyL.s 			page 51


 2851 001e 00       		.byte	0
 2852 001f 0B       		.uleb128 0xb
 2853 0020 0B       		.uleb128 0xb
 2854 0021 3E       		.uleb128 0x3e
 2855 0022 0B       		.uleb128 0xb
 2856 0023 03       		.uleb128 0x3
 2857 0024 0E       		.uleb128 0xe
 2858 0025 00       		.byte	0
 2859 0026 00       		.byte	0
 2860 0027 04       		.uleb128 0x4
 2861 0028 16       		.uleb128 0x16
 2862 0029 00       		.byte	0
 2863 002a 03       		.uleb128 0x3
 2864 002b 0E       		.uleb128 0xe
 2865 002c 3A       		.uleb128 0x3a
 2866 002d 0B       		.uleb128 0xb
 2867 002e 3B       		.uleb128 0x3b
 2868 002f 0B       		.uleb128 0xb
 2869 0030 49       		.uleb128 0x49
 2870 0031 13       		.uleb128 0x13
 2871 0032 00       		.byte	0
 2872 0033 00       		.byte	0
 2873 0034 05       		.uleb128 0x5
 2874 0035 13       		.uleb128 0x13
 2875 0036 01       		.byte	0x1
 2876 0037 03       		.uleb128 0x3
 2877 0038 0E       		.uleb128 0xe
 2878 0039 0B       		.uleb128 0xb
 2879 003a 0B       		.uleb128 0xb
 2880 003b 3A       		.uleb128 0x3a
 2881 003c 0B       		.uleb128 0xb
 2882 003d 3B       		.uleb128 0x3b
 2883 003e 0B       		.uleb128 0xb
 2884 003f 01       		.uleb128 0x1
 2885 0040 13       		.uleb128 0x13
 2886 0041 00       		.byte	0
 2887 0042 00       		.byte	0
 2888 0043 06       		.uleb128 0x6
 2889 0044 0D       		.uleb128 0xd
 2890 0045 00       		.byte	0
 2891 0046 03       		.uleb128 0x3
 2892 0047 0E       		.uleb128 0xe
 2893 0048 3A       		.uleb128 0x3a
 2894 0049 0B       		.uleb128 0xb
 2895 004a 3B       		.uleb128 0x3b
 2896 004b 0B       		.uleb128 0xb
 2897 004c 49       		.uleb128 0x49
 2898 004d 13       		.uleb128 0x13
 2899 004e 38       		.uleb128 0x38
 2900 004f 0B       		.uleb128 0xb
 2901 0050 00       		.byte	0
 2902 0051 00       		.byte	0
 2903 0052 07       		.uleb128 0x7
 2904 0053 0D       		.uleb128 0xd
 2905 0054 00       		.byte	0
 2906 0055 03       		.uleb128 0x3
 2907 0056 08       		.uleb128 0x8
ARM GAS  /tmp/ccZw1gyL.s 			page 52


 2908 0057 3A       		.uleb128 0x3a
 2909 0058 0B       		.uleb128 0xb
 2910 0059 3B       		.uleb128 0x3b
 2911 005a 05       		.uleb128 0x5
 2912 005b 49       		.uleb128 0x49
 2913 005c 13       		.uleb128 0x13
 2914 005d 38       		.uleb128 0x38
 2915 005e 0B       		.uleb128 0xb
 2916 005f 00       		.byte	0
 2917 0060 00       		.byte	0
 2918 0061 08       		.uleb128 0x8
 2919 0062 0D       		.uleb128 0xd
 2920 0063 00       		.byte	0
 2921 0064 03       		.uleb128 0x3
 2922 0065 0E       		.uleb128 0xe
 2923 0066 3A       		.uleb128 0x3a
 2924 0067 0B       		.uleb128 0xb
 2925 0068 3B       		.uleb128 0x3b
 2926 0069 05       		.uleb128 0x5
 2927 006a 49       		.uleb128 0x49
 2928 006b 13       		.uleb128 0x13
 2929 006c 38       		.uleb128 0x38
 2930 006d 0B       		.uleb128 0xb
 2931 006e 00       		.byte	0
 2932 006f 00       		.byte	0
 2933 0070 09       		.uleb128 0x9
 2934 0071 0F       		.uleb128 0xf
 2935 0072 00       		.byte	0
 2936 0073 0B       		.uleb128 0xb
 2937 0074 0B       		.uleb128 0xb
 2938 0075 49       		.uleb128 0x49
 2939 0076 13       		.uleb128 0x13
 2940 0077 00       		.byte	0
 2941 0078 00       		.byte	0
 2942 0079 0A       		.uleb128 0xa
 2943 007a 13       		.uleb128 0x13
 2944 007b 01       		.byte	0x1
 2945 007c 03       		.uleb128 0x3
 2946 007d 0E       		.uleb128 0xe
 2947 007e 0B       		.uleb128 0xb
 2948 007f 0B       		.uleb128 0xb
 2949 0080 3A       		.uleb128 0x3a
 2950 0081 0B       		.uleb128 0xb
 2951 0082 3B       		.uleb128 0x3b
 2952 0083 05       		.uleb128 0x5
 2953 0084 01       		.uleb128 0x1
 2954 0085 13       		.uleb128 0x13
 2955 0086 00       		.byte	0
 2956 0087 00       		.byte	0
 2957 0088 0B       		.uleb128 0xb
 2958 0089 15       		.uleb128 0x15
 2959 008a 01       		.byte	0x1
 2960 008b 27       		.uleb128 0x27
 2961 008c 19       		.uleb128 0x19
 2962 008d 01       		.uleb128 0x1
 2963 008e 13       		.uleb128 0x13
 2964 008f 00       		.byte	0
ARM GAS  /tmp/ccZw1gyL.s 			page 53


 2965 0090 00       		.byte	0
 2966 0091 0C       		.uleb128 0xc
 2967 0092 05       		.uleb128 0x5
 2968 0093 00       		.byte	0
 2969 0094 49       		.uleb128 0x49
 2970 0095 13       		.uleb128 0x13
 2971 0096 00       		.byte	0
 2972 0097 00       		.byte	0
 2973 0098 0D       		.uleb128 0xd
 2974 0099 0F       		.uleb128 0xf
 2975 009a 00       		.byte	0
 2976 009b 0B       		.uleb128 0xb
 2977 009c 0B       		.uleb128 0xb
 2978 009d 00       		.byte	0
 2979 009e 00       		.byte	0
 2980 009f 0E       		.uleb128 0xe
 2981 00a0 13       		.uleb128 0x13
 2982 00a1 01       		.byte	0x1
 2983 00a2 03       		.uleb128 0x3
 2984 00a3 0E       		.uleb128 0xe
 2985 00a4 0B       		.uleb128 0xb
 2986 00a5 05       		.uleb128 0x5
 2987 00a6 3A       		.uleb128 0x3a
 2988 00a7 0B       		.uleb128 0xb
 2989 00a8 3B       		.uleb128 0x3b
 2990 00a9 05       		.uleb128 0x5
 2991 00aa 01       		.uleb128 0x1
 2992 00ab 13       		.uleb128 0x13
 2993 00ac 00       		.byte	0
 2994 00ad 00       		.byte	0
 2995 00ae 0F       		.uleb128 0xf
 2996 00af 0D       		.uleb128 0xd
 2997 00b0 00       		.byte	0
 2998 00b1 03       		.uleb128 0x3
 2999 00b2 08       		.uleb128 0x8
 3000 00b3 3A       		.uleb128 0x3a
 3001 00b4 0B       		.uleb128 0xb
 3002 00b5 3B       		.uleb128 0x3b
 3003 00b6 0B       		.uleb128 0xb
 3004 00b7 49       		.uleb128 0x49
 3005 00b8 13       		.uleb128 0x13
 3006 00b9 38       		.uleb128 0x38
 3007 00ba 0B       		.uleb128 0xb
 3008 00bb 00       		.byte	0
 3009 00bc 00       		.byte	0
 3010 00bd 10       		.uleb128 0x10
 3011 00be 13       		.uleb128 0x13
 3012 00bf 01       		.byte	0x1
 3013 00c0 0B       		.uleb128 0xb
 3014 00c1 0B       		.uleb128 0xb
 3015 00c2 3A       		.uleb128 0x3a
 3016 00c3 0B       		.uleb128 0xb
 3017 00c4 3B       		.uleb128 0x3b
 3018 00c5 0B       		.uleb128 0xb
 3019 00c6 01       		.uleb128 0x1
 3020 00c7 13       		.uleb128 0x13
 3021 00c8 00       		.byte	0
ARM GAS  /tmp/ccZw1gyL.s 			page 54


 3022 00c9 00       		.byte	0
 3023 00ca 11       		.uleb128 0x11
 3024 00cb 17       		.uleb128 0x17
 3025 00cc 01       		.byte	0x1
 3026 00cd 0B       		.uleb128 0xb
 3027 00ce 0B       		.uleb128 0xb
 3028 00cf 3A       		.uleb128 0x3a
 3029 00d0 0B       		.uleb128 0xb
 3030 00d1 3B       		.uleb128 0x3b
 3031 00d2 0B       		.uleb128 0xb
 3032 00d3 01       		.uleb128 0x1
 3033 00d4 13       		.uleb128 0x13
 3034 00d5 00       		.byte	0
 3035 00d6 00       		.byte	0
 3036 00d7 12       		.uleb128 0x12
 3037 00d8 0D       		.uleb128 0xd
 3038 00d9 00       		.byte	0
 3039 00da 03       		.uleb128 0x3
 3040 00db 0E       		.uleb128 0xe
 3041 00dc 3A       		.uleb128 0x3a
 3042 00dd 0B       		.uleb128 0xb
 3043 00de 3B       		.uleb128 0x3b
 3044 00df 05       		.uleb128 0x5
 3045 00e0 49       		.uleb128 0x49
 3046 00e1 13       		.uleb128 0x13
 3047 00e2 00       		.byte	0
 3048 00e3 00       		.byte	0
 3049 00e4 13       		.uleb128 0x13
 3050 00e5 35       		.uleb128 0x35
 3051 00e6 00       		.byte	0
 3052 00e7 49       		.uleb128 0x49
 3053 00e8 13       		.uleb128 0x13
 3054 00e9 00       		.byte	0
 3055 00ea 00       		.byte	0
 3056 00eb 14       		.uleb128 0x14
 3057 00ec 26       		.uleb128 0x26
 3058 00ed 00       		.byte	0
 3059 00ee 49       		.uleb128 0x49
 3060 00ef 13       		.uleb128 0x13
 3061 00f0 00       		.byte	0
 3062 00f1 00       		.byte	0
 3063 00f2 15       		.uleb128 0x15
 3064 00f3 01       		.uleb128 0x1
 3065 00f4 01       		.byte	0x1
 3066 00f5 49       		.uleb128 0x49
 3067 00f6 13       		.uleb128 0x13
 3068 00f7 01       		.uleb128 0x1
 3069 00f8 13       		.uleb128 0x13
 3070 00f9 00       		.byte	0
 3071 00fa 00       		.byte	0
 3072 00fb 16       		.uleb128 0x16
 3073 00fc 21       		.uleb128 0x21
 3074 00fd 00       		.byte	0
 3075 00fe 49       		.uleb128 0x49
 3076 00ff 13       		.uleb128 0x13
 3077 0100 2F       		.uleb128 0x2f
 3078 0101 0B       		.uleb128 0xb
ARM GAS  /tmp/ccZw1gyL.s 			page 55


 3079 0102 00       		.byte	0
 3080 0103 00       		.byte	0
 3081 0104 17       		.uleb128 0x17
 3082 0105 2E       		.uleb128 0x2e
 3083 0106 01       		.byte	0x1
 3084 0107 03       		.uleb128 0x3
 3085 0108 0E       		.uleb128 0xe
 3086 0109 3A       		.uleb128 0x3a
 3087 010a 0B       		.uleb128 0xb
 3088 010b 3B       		.uleb128 0x3b
 3089 010c 05       		.uleb128 0x5
 3090 010d 27       		.uleb128 0x27
 3091 010e 19       		.uleb128 0x19
 3092 010f 20       		.uleb128 0x20
 3093 0110 0B       		.uleb128 0xb
 3094 0111 01       		.uleb128 0x1
 3095 0112 13       		.uleb128 0x13
 3096 0113 00       		.byte	0
 3097 0114 00       		.byte	0
 3098 0115 18       		.uleb128 0x18
 3099 0116 05       		.uleb128 0x5
 3100 0117 00       		.byte	0
 3101 0118 03       		.uleb128 0x3
 3102 0119 0E       		.uleb128 0xe
 3103 011a 3A       		.uleb128 0x3a
 3104 011b 0B       		.uleb128 0xb
 3105 011c 3B       		.uleb128 0x3b
 3106 011d 05       		.uleb128 0x5
 3107 011e 49       		.uleb128 0x49
 3108 011f 13       		.uleb128 0x13
 3109 0120 00       		.byte	0
 3110 0121 00       		.byte	0
 3111 0122 19       		.uleb128 0x19
 3112 0123 2E       		.uleb128 0x2e
 3113 0124 00       		.byte	0
 3114 0125 03       		.uleb128 0x3
 3115 0126 0E       		.uleb128 0xe
 3116 0127 3A       		.uleb128 0x3a
 3117 0128 0B       		.uleb128 0xb
 3118 0129 3B       		.uleb128 0x3b
 3119 012a 05       		.uleb128 0x5
 3120 012b 27       		.uleb128 0x27
 3121 012c 19       		.uleb128 0x19
 3122 012d 20       		.uleb128 0x20
 3123 012e 0B       		.uleb128 0xb
 3124 012f 00       		.byte	0
 3125 0130 00       		.byte	0
 3126 0131 1A       		.uleb128 0x1a
 3127 0132 2E       		.uleb128 0x2e
 3128 0133 01       		.byte	0x1
 3129 0134 03       		.uleb128 0x3
 3130 0135 0E       		.uleb128 0xe
 3131 0136 3A       		.uleb128 0x3a
 3132 0137 0B       		.uleb128 0xb
 3133 0138 3B       		.uleb128 0x3b
 3134 0139 05       		.uleb128 0x5
 3135 013a 27       		.uleb128 0x27
ARM GAS  /tmp/ccZw1gyL.s 			page 56


 3136 013b 19       		.uleb128 0x19
 3137 013c 49       		.uleb128 0x49
 3138 013d 13       		.uleb128 0x13
 3139 013e 20       		.uleb128 0x20
 3140 013f 0B       		.uleb128 0xb
 3141 0140 01       		.uleb128 0x1
 3142 0141 13       		.uleb128 0x13
 3143 0142 00       		.byte	0
 3144 0143 00       		.byte	0
 3145 0144 1B       		.uleb128 0x1b
 3146 0145 05       		.uleb128 0x5
 3147 0146 00       		.byte	0
 3148 0147 03       		.uleb128 0x3
 3149 0148 08       		.uleb128 0x8
 3150 0149 3A       		.uleb128 0x3a
 3151 014a 0B       		.uleb128 0xb
 3152 014b 3B       		.uleb128 0x3b
 3153 014c 05       		.uleb128 0x5
 3154 014d 49       		.uleb128 0x49
 3155 014e 13       		.uleb128 0x13
 3156 014f 00       		.byte	0
 3157 0150 00       		.byte	0
 3158 0151 1C       		.uleb128 0x1c
 3159 0152 34       		.uleb128 0x34
 3160 0153 00       		.byte	0
 3161 0154 03       		.uleb128 0x3
 3162 0155 08       		.uleb128 0x8
 3163 0156 3A       		.uleb128 0x3a
 3164 0157 0B       		.uleb128 0xb
 3165 0158 3B       		.uleb128 0x3b
 3166 0159 05       		.uleb128 0x5
 3167 015a 49       		.uleb128 0x49
 3168 015b 13       		.uleb128 0x13
 3169 015c 00       		.byte	0
 3170 015d 00       		.byte	0
 3171 015e 1D       		.uleb128 0x1d
 3172 015f 34       		.uleb128 0x34
 3173 0160 00       		.byte	0
 3174 0161 03       		.uleb128 0x3
 3175 0162 0E       		.uleb128 0xe
 3176 0163 49       		.uleb128 0x49
 3177 0164 13       		.uleb128 0x13
 3178 0165 34       		.uleb128 0x34
 3179 0166 19       		.uleb128 0x19
 3180 0167 1C       		.uleb128 0x1c
 3181 0168 0E       		.uleb128 0xe
 3182 0169 00       		.byte	0
 3183 016a 00       		.byte	0
 3184 016b 1E       		.uleb128 0x1e
 3185 016c 2E       		.uleb128 0x2e
 3186 016d 01       		.byte	0x1
 3187 016e 3F       		.uleb128 0x3f
 3188 016f 19       		.uleb128 0x19
 3189 0170 03       		.uleb128 0x3
 3190 0171 0E       		.uleb128 0xe
 3191 0172 3A       		.uleb128 0x3a
 3192 0173 0B       		.uleb128 0xb
ARM GAS  /tmp/ccZw1gyL.s 			page 57


 3193 0174 3B       		.uleb128 0x3b
 3194 0175 05       		.uleb128 0x5
 3195 0176 27       		.uleb128 0x27
 3196 0177 19       		.uleb128 0x19
 3197 0178 49       		.uleb128 0x49
 3198 0179 13       		.uleb128 0x13
 3199 017a 20       		.uleb128 0x20
 3200 017b 0B       		.uleb128 0xb
 3201 017c 01       		.uleb128 0x1
 3202 017d 13       		.uleb128 0x13
 3203 017e 00       		.byte	0
 3204 017f 00       		.byte	0
 3205 0180 1F       		.uleb128 0x1f
 3206 0181 2E       		.uleb128 0x2e
 3207 0182 01       		.byte	0x1
 3208 0183 03       		.uleb128 0x3
 3209 0184 0E       		.uleb128 0xe
 3210 0185 3A       		.uleb128 0x3a
 3211 0186 0B       		.uleb128 0xb
 3212 0187 3B       		.uleb128 0x3b
 3213 0188 0B       		.uleb128 0xb
 3214 0189 27       		.uleb128 0x27
 3215 018a 19       		.uleb128 0x19
 3216 018b 49       		.uleb128 0x49
 3217 018c 13       		.uleb128 0x13
 3218 018d 20       		.uleb128 0x20
 3219 018e 0B       		.uleb128 0xb
 3220 018f 01       		.uleb128 0x1
 3221 0190 13       		.uleb128 0x13
 3222 0191 00       		.byte	0
 3223 0192 00       		.byte	0
 3224 0193 20       		.uleb128 0x20
 3225 0194 05       		.uleb128 0x5
 3226 0195 00       		.byte	0
 3227 0196 03       		.uleb128 0x3
 3228 0197 08       		.uleb128 0x8
 3229 0198 3A       		.uleb128 0x3a
 3230 0199 0B       		.uleb128 0xb
 3231 019a 3B       		.uleb128 0x3b
 3232 019b 0B       		.uleb128 0xb
 3233 019c 49       		.uleb128 0x49
 3234 019d 13       		.uleb128 0x13
 3235 019e 00       		.byte	0
 3236 019f 00       		.byte	0
 3237 01a0 21       		.uleb128 0x21
 3238 01a1 2E       		.uleb128 0x2e
 3239 01a2 01       		.byte	0x1
 3240 01a3 3F       		.uleb128 0x3f
 3241 01a4 19       		.uleb128 0x19
 3242 01a5 03       		.uleb128 0x3
 3243 01a6 0E       		.uleb128 0xe
 3244 01a7 3A       		.uleb128 0x3a
 3245 01a8 0B       		.uleb128 0xb
 3246 01a9 3B       		.uleb128 0x3b
 3247 01aa 0B       		.uleb128 0xb
 3248 01ab 27       		.uleb128 0x27
 3249 01ac 19       		.uleb128 0x19
ARM GAS  /tmp/ccZw1gyL.s 			page 58


 3250 01ad 11       		.uleb128 0x11
 3251 01ae 01       		.uleb128 0x1
 3252 01af 12       		.uleb128 0x12
 3253 01b0 06       		.uleb128 0x6
 3254 01b1 40       		.uleb128 0x40
 3255 01b2 18       		.uleb128 0x18
 3256 01b3 9742     		.uleb128 0x2117
 3257 01b5 19       		.uleb128 0x19
 3258 01b6 01       		.uleb128 0x1
 3259 01b7 13       		.uleb128 0x13
 3260 01b8 00       		.byte	0
 3261 01b9 00       		.byte	0
 3262 01ba 22       		.uleb128 0x22
 3263 01bb 05       		.uleb128 0x5
 3264 01bc 00       		.byte	0
 3265 01bd 03       		.uleb128 0x3
 3266 01be 08       		.uleb128 0x8
 3267 01bf 3A       		.uleb128 0x3a
 3268 01c0 0B       		.uleb128 0xb
 3269 01c1 3B       		.uleb128 0x3b
 3270 01c2 0B       		.uleb128 0xb
 3271 01c3 49       		.uleb128 0x49
 3272 01c4 13       		.uleb128 0x13
 3273 01c5 02       		.uleb128 0x2
 3274 01c6 18       		.uleb128 0x18
 3275 01c7 00       		.byte	0
 3276 01c8 00       		.byte	0
 3277 01c9 23       		.uleb128 0x23
 3278 01ca 34       		.uleb128 0x34
 3279 01cb 00       		.byte	0
 3280 01cc 03       		.uleb128 0x3
 3281 01cd 0E       		.uleb128 0xe
 3282 01ce 49       		.uleb128 0x49
 3283 01cf 13       		.uleb128 0x13
 3284 01d0 34       		.uleb128 0x34
 3285 01d1 19       		.uleb128 0x19
 3286 01d2 00       		.byte	0
 3287 01d3 00       		.byte	0
 3288 01d4 24       		.uleb128 0x24
 3289 01d5 1D       		.uleb128 0x1d
 3290 01d6 01       		.byte	0x1
 3291 01d7 31       		.uleb128 0x31
 3292 01d8 13       		.uleb128 0x13
 3293 01d9 11       		.uleb128 0x11
 3294 01da 01       		.uleb128 0x1
 3295 01db 12       		.uleb128 0x12
 3296 01dc 06       		.uleb128 0x6
 3297 01dd 58       		.uleb128 0x58
 3298 01de 0B       		.uleb128 0xb
 3299 01df 59       		.uleb128 0x59
 3300 01e0 0B       		.uleb128 0xb
 3301 01e1 00       		.byte	0
 3302 01e2 00       		.byte	0
 3303 01e3 25       		.uleb128 0x25
 3304 01e4 05       		.uleb128 0x5
 3305 01e5 00       		.byte	0
 3306 01e6 31       		.uleb128 0x31
ARM GAS  /tmp/ccZw1gyL.s 			page 59


 3307 01e7 13       		.uleb128 0x13
 3308 01e8 02       		.uleb128 0x2
 3309 01e9 18       		.uleb128 0x18
 3310 01ea 00       		.byte	0
 3311 01eb 00       		.byte	0
 3312 01ec 26       		.uleb128 0x26
 3313 01ed 05       		.uleb128 0x5
 3314 01ee 00       		.byte	0
 3315 01ef 03       		.uleb128 0x3
 3316 01f0 08       		.uleb128 0x8
 3317 01f1 3A       		.uleb128 0x3a
 3318 01f2 0B       		.uleb128 0xb
 3319 01f3 3B       		.uleb128 0x3b
 3320 01f4 0B       		.uleb128 0xb
 3321 01f5 49       		.uleb128 0x49
 3322 01f6 13       		.uleb128 0x13
 3323 01f7 02       		.uleb128 0x2
 3324 01f8 17       		.uleb128 0x17
 3325 01f9 00       		.byte	0
 3326 01fa 00       		.byte	0
 3327 01fb 27       		.uleb128 0x27
 3328 01fc 34       		.uleb128 0x34
 3329 01fd 00       		.byte	0
 3330 01fe 03       		.uleb128 0x3
 3331 01ff 08       		.uleb128 0x8
 3332 0200 3A       		.uleb128 0x3a
 3333 0201 0B       		.uleb128 0xb
 3334 0202 3B       		.uleb128 0x3b
 3335 0203 0B       		.uleb128 0xb
 3336 0204 49       		.uleb128 0x49
 3337 0205 13       		.uleb128 0x13
 3338 0206 02       		.uleb128 0x2
 3339 0207 17       		.uleb128 0x17
 3340 0208 00       		.byte	0
 3341 0209 00       		.byte	0
 3342 020a 28       		.uleb128 0x28
 3343 020b 0B       		.uleb128 0xb
 3344 020c 01       		.byte	0x1
 3345 020d 55       		.uleb128 0x55
 3346 020e 17       		.uleb128 0x17
 3347 020f 00       		.byte	0
 3348 0210 00       		.byte	0
 3349 0211 29       		.uleb128 0x29
 3350 0212 1D       		.uleb128 0x1d
 3351 0213 01       		.byte	0x1
 3352 0214 31       		.uleb128 0x31
 3353 0215 13       		.uleb128 0x13
 3354 0216 11       		.uleb128 0x11
 3355 0217 01       		.uleb128 0x1
 3356 0218 12       		.uleb128 0x12
 3357 0219 06       		.uleb128 0x6
 3358 021a 58       		.uleb128 0x58
 3359 021b 0B       		.uleb128 0xb
 3360 021c 59       		.uleb128 0x59
 3361 021d 0B       		.uleb128 0xb
 3362 021e 01       		.uleb128 0x1
 3363 021f 13       		.uleb128 0x13
ARM GAS  /tmp/ccZw1gyL.s 			page 60


 3364 0220 00       		.byte	0
 3365 0221 00       		.byte	0
 3366 0222 2A       		.uleb128 0x2a
 3367 0223 05       		.uleb128 0x5
 3368 0224 00       		.byte	0
 3369 0225 31       		.uleb128 0x31
 3370 0226 13       		.uleb128 0x13
 3371 0227 02       		.uleb128 0x2
 3372 0228 17       		.uleb128 0x17
 3373 0229 00       		.byte	0
 3374 022a 00       		.byte	0
 3375 022b 2B       		.uleb128 0x2b
 3376 022c 0B       		.uleb128 0xb
 3377 022d 01       		.byte	0x1
 3378 022e 11       		.uleb128 0x11
 3379 022f 01       		.uleb128 0x1
 3380 0230 12       		.uleb128 0x12
 3381 0231 06       		.uleb128 0x6
 3382 0232 00       		.byte	0
 3383 0233 00       		.byte	0
 3384 0234 2C       		.uleb128 0x2c
 3385 0235 34       		.uleb128 0x34
 3386 0236 00       		.byte	0
 3387 0237 31       		.uleb128 0x31
 3388 0238 13       		.uleb128 0x13
 3389 0239 02       		.uleb128 0x2
 3390 023a 17       		.uleb128 0x17
 3391 023b 00       		.byte	0
 3392 023c 00       		.byte	0
 3393 023d 2D       		.uleb128 0x2d
 3394 023e 1D       		.uleb128 0x1d
 3395 023f 01       		.byte	0x1
 3396 0240 31       		.uleb128 0x31
 3397 0241 13       		.uleb128 0x13
 3398 0242 52       		.uleb128 0x52
 3399 0243 01       		.uleb128 0x1
 3400 0244 55       		.uleb128 0x55
 3401 0245 17       		.uleb128 0x17
 3402 0246 58       		.uleb128 0x58
 3403 0247 0B       		.uleb128 0xb
 3404 0248 59       		.uleb128 0x59
 3405 0249 0B       		.uleb128 0xb
 3406 024a 01       		.uleb128 0x1
 3407 024b 13       		.uleb128 0x13
 3408 024c 00       		.byte	0
 3409 024d 00       		.byte	0
 3410 024e 2E       		.uleb128 0x2e
 3411 024f 898201   		.uleb128 0x4109
 3412 0252 01       		.byte	0x1
 3413 0253 11       		.uleb128 0x11
 3414 0254 01       		.uleb128 0x1
 3415 0255 9542     		.uleb128 0x2115
 3416 0257 19       		.uleb128 0x19
 3417 0258 31       		.uleb128 0x31
 3418 0259 13       		.uleb128 0x13
 3419 025a 01       		.uleb128 0x1
 3420 025b 13       		.uleb128 0x13
ARM GAS  /tmp/ccZw1gyL.s 			page 61


 3421 025c 00       		.byte	0
 3422 025d 00       		.byte	0
 3423 025e 2F       		.uleb128 0x2f
 3424 025f 8A8201   		.uleb128 0x410a
 3425 0262 00       		.byte	0
 3426 0263 02       		.uleb128 0x2
 3427 0264 18       		.uleb128 0x18
 3428 0265 9142     		.uleb128 0x2111
 3429 0267 18       		.uleb128 0x18
 3430 0268 00       		.byte	0
 3431 0269 00       		.byte	0
 3432 026a 30       		.uleb128 0x30
 3433 026b 898201   		.uleb128 0x4109
 3434 026e 00       		.byte	0
 3435 026f 11       		.uleb128 0x11
 3436 0270 01       		.uleb128 0x1
 3437 0271 31       		.uleb128 0x31
 3438 0272 13       		.uleb128 0x13
 3439 0273 00       		.byte	0
 3440 0274 00       		.byte	0
 3441 0275 31       		.uleb128 0x31
 3442 0276 1D       		.uleb128 0x1d
 3443 0277 01       		.byte	0x1
 3444 0278 31       		.uleb128 0x31
 3445 0279 13       		.uleb128 0x13
 3446 027a 11       		.uleb128 0x11
 3447 027b 01       		.uleb128 0x1
 3448 027c 12       		.uleb128 0x12
 3449 027d 06       		.uleb128 0x6
 3450 027e 58       		.uleb128 0x58
 3451 027f 0B       		.uleb128 0xb
 3452 0280 59       		.uleb128 0x59
 3453 0281 05       		.uleb128 0x5
 3454 0282 00       		.byte	0
 3455 0283 00       		.byte	0
 3456 0284 32       		.uleb128 0x32
 3457 0285 05       		.uleb128 0x5
 3458 0286 00       		.byte	0
 3459 0287 31       		.uleb128 0x31
 3460 0288 13       		.uleb128 0x13
 3461 0289 1C       		.uleb128 0x1c
 3462 028a 0B       		.uleb128 0xb
 3463 028b 00       		.byte	0
 3464 028c 00       		.byte	0
 3465 028d 33       		.uleb128 0x33
 3466 028e 34       		.uleb128 0x34
 3467 028f 00       		.byte	0
 3468 0290 31       		.uleb128 0x31
 3469 0291 13       		.uleb128 0x13
 3470 0292 00       		.byte	0
 3471 0293 00       		.byte	0
 3472 0294 34       		.uleb128 0x34
 3473 0295 898201   		.uleb128 0x4109
 3474 0298 01       		.byte	0x1
 3475 0299 11       		.uleb128 0x11
 3476 029a 01       		.uleb128 0x1
 3477 029b 31       		.uleb128 0x31
ARM GAS  /tmp/ccZw1gyL.s 			page 62


 3478 029c 13       		.uleb128 0x13
 3479 029d 00       		.byte	0
 3480 029e 00       		.byte	0
 3481 029f 35       		.uleb128 0x35
 3482 02a0 2E       		.uleb128 0x2e
 3483 02a1 01       		.byte	0x1
 3484 02a2 3F       		.uleb128 0x3f
 3485 02a3 19       		.uleb128 0x19
 3486 02a4 03       		.uleb128 0x3
 3487 02a5 0E       		.uleb128 0xe
 3488 02a6 3A       		.uleb128 0x3a
 3489 02a7 0B       		.uleb128 0xb
 3490 02a8 3B       		.uleb128 0x3b
 3491 02a9 0B       		.uleb128 0xb
 3492 02aa 27       		.uleb128 0x27
 3493 02ab 19       		.uleb128 0x19
 3494 02ac 49       		.uleb128 0x49
 3495 02ad 13       		.uleb128 0x13
 3496 02ae 11       		.uleb128 0x11
 3497 02af 01       		.uleb128 0x1
 3498 02b0 12       		.uleb128 0x12
 3499 02b1 06       		.uleb128 0x6
 3500 02b2 40       		.uleb128 0x40
 3501 02b3 18       		.uleb128 0x18
 3502 02b4 9742     		.uleb128 0x2117
 3503 02b6 19       		.uleb128 0x19
 3504 02b7 01       		.uleb128 0x1
 3505 02b8 13       		.uleb128 0x13
 3506 02b9 00       		.byte	0
 3507 02ba 00       		.byte	0
 3508 02bb 36       		.uleb128 0x36
 3509 02bc 1D       		.uleb128 0x1d
 3510 02bd 01       		.byte	0x1
 3511 02be 31       		.uleb128 0x31
 3512 02bf 13       		.uleb128 0x13
 3513 02c0 11       		.uleb128 0x11
 3514 02c1 01       		.uleb128 0x1
 3515 02c2 12       		.uleb128 0x12
 3516 02c3 06       		.uleb128 0x6
 3517 02c4 58       		.uleb128 0x58
 3518 02c5 0B       		.uleb128 0xb
 3519 02c6 59       		.uleb128 0x59
 3520 02c7 05       		.uleb128 0x5
 3521 02c8 01       		.uleb128 0x1
 3522 02c9 13       		.uleb128 0x13
 3523 02ca 00       		.byte	0
 3524 02cb 00       		.byte	0
 3525 02cc 37       		.uleb128 0x37
 3526 02cd 1D       		.uleb128 0x1d
 3527 02ce 01       		.byte	0x1
 3528 02cf 31       		.uleb128 0x31
 3529 02d0 13       		.uleb128 0x13
 3530 02d1 52       		.uleb128 0x52
 3531 02d2 01       		.uleb128 0x1
 3532 02d3 55       		.uleb128 0x55
 3533 02d4 17       		.uleb128 0x17
 3534 02d5 58       		.uleb128 0x58
ARM GAS  /tmp/ccZw1gyL.s 			page 63


 3535 02d6 0B       		.uleb128 0xb
 3536 02d7 59       		.uleb128 0x59
 3537 02d8 05       		.uleb128 0x5
 3538 02d9 01       		.uleb128 0x1
 3539 02da 13       		.uleb128 0x13
 3540 02db 00       		.byte	0
 3541 02dc 00       		.byte	0
 3542 02dd 38       		.uleb128 0x38
 3543 02de 1D       		.uleb128 0x1d
 3544 02df 01       		.byte	0x1
 3545 02e0 31       		.uleb128 0x31
 3546 02e1 13       		.uleb128 0x13
 3547 02e2 52       		.uleb128 0x52
 3548 02e3 01       		.uleb128 0x1
 3549 02e4 55       		.uleb128 0x55
 3550 02e5 17       		.uleb128 0x17
 3551 02e6 58       		.uleb128 0x58
 3552 02e7 0B       		.uleb128 0xb
 3553 02e8 59       		.uleb128 0x59
 3554 02e9 05       		.uleb128 0x5
 3555 02ea 00       		.byte	0
 3556 02eb 00       		.byte	0
 3557 02ec 39       		.uleb128 0x39
 3558 02ed 2E       		.uleb128 0x2e
 3559 02ee 01       		.byte	0x1
 3560 02ef 31       		.uleb128 0x31
 3561 02f0 13       		.uleb128 0x13
 3562 02f1 11       		.uleb128 0x11
 3563 02f2 01       		.uleb128 0x1
 3564 02f3 12       		.uleb128 0x12
 3565 02f4 06       		.uleb128 0x6
 3566 02f5 40       		.uleb128 0x40
 3567 02f6 18       		.uleb128 0x18
 3568 02f7 9742     		.uleb128 0x2117
 3569 02f9 19       		.uleb128 0x19
 3570 02fa 01       		.uleb128 0x1
 3571 02fb 13       		.uleb128 0x13
 3572 02fc 00       		.byte	0
 3573 02fd 00       		.byte	0
 3574 02fe 3A       		.uleb128 0x3a
 3575 02ff 2E       		.uleb128 0x2e
 3576 0300 01       		.byte	0x1
 3577 0301 3F       		.uleb128 0x3f
 3578 0302 19       		.uleb128 0x19
 3579 0303 03       		.uleb128 0x3
 3580 0304 0E       		.uleb128 0xe
 3581 0305 3A       		.uleb128 0x3a
 3582 0306 0B       		.uleb128 0xb
 3583 0307 3B       		.uleb128 0x3b
 3584 0308 05       		.uleb128 0x5
 3585 0309 27       		.uleb128 0x27
 3586 030a 19       		.uleb128 0x19
 3587 030b 11       		.uleb128 0x11
 3588 030c 01       		.uleb128 0x1
 3589 030d 12       		.uleb128 0x12
 3590 030e 06       		.uleb128 0x6
 3591 030f 40       		.uleb128 0x40
ARM GAS  /tmp/ccZw1gyL.s 			page 64


 3592 0310 18       		.uleb128 0x18
 3593 0311 9742     		.uleb128 0x2117
 3594 0313 19       		.uleb128 0x19
 3595 0314 01       		.uleb128 0x1
 3596 0315 13       		.uleb128 0x13
 3597 0316 00       		.byte	0
 3598 0317 00       		.byte	0
 3599 0318 3B       		.uleb128 0x3b
 3600 0319 05       		.uleb128 0x5
 3601 031a 00       		.byte	0
 3602 031b 03       		.uleb128 0x3
 3603 031c 08       		.uleb128 0x8
 3604 031d 3A       		.uleb128 0x3a
 3605 031e 0B       		.uleb128 0xb
 3606 031f 3B       		.uleb128 0x3b
 3607 0320 05       		.uleb128 0x5
 3608 0321 49       		.uleb128 0x49
 3609 0322 13       		.uleb128 0x13
 3610 0323 02       		.uleb128 0x2
 3611 0324 17       		.uleb128 0x17
 3612 0325 00       		.byte	0
 3613 0326 00       		.byte	0
 3614 0327 3C       		.uleb128 0x3c
 3615 0328 34       		.uleb128 0x34
 3616 0329 00       		.byte	0
 3617 032a 03       		.uleb128 0x3
 3618 032b 08       		.uleb128 0x8
 3619 032c 3A       		.uleb128 0x3a
 3620 032d 0B       		.uleb128 0xb
 3621 032e 3B       		.uleb128 0x3b
 3622 032f 05       		.uleb128 0x5
 3623 0330 49       		.uleb128 0x49
 3624 0331 13       		.uleb128 0x13
 3625 0332 02       		.uleb128 0x2
 3626 0333 17       		.uleb128 0x17
 3627 0334 00       		.byte	0
 3628 0335 00       		.byte	0
 3629 0336 3D       		.uleb128 0x3d
 3630 0337 0B       		.uleb128 0xb
 3631 0338 01       		.byte	0x1
 3632 0339 11       		.uleb128 0x11
 3633 033a 01       		.uleb128 0x1
 3634 033b 12       		.uleb128 0x12
 3635 033c 06       		.uleb128 0x6
 3636 033d 01       		.uleb128 0x1
 3637 033e 13       		.uleb128 0x13
 3638 033f 00       		.byte	0
 3639 0340 00       		.byte	0
 3640 0341 3E       		.uleb128 0x3e
 3641 0342 34       		.uleb128 0x34
 3642 0343 00       		.byte	0
 3643 0344 03       		.uleb128 0x3
 3644 0345 0E       		.uleb128 0xe
 3645 0346 3A       		.uleb128 0x3a
 3646 0347 0B       		.uleb128 0xb
 3647 0348 3B       		.uleb128 0x3b
 3648 0349 05       		.uleb128 0x5
ARM GAS  /tmp/ccZw1gyL.s 			page 65


 3649 034a 49       		.uleb128 0x49
 3650 034b 13       		.uleb128 0x13
 3651 034c 02       		.uleb128 0x2
 3652 034d 17       		.uleb128 0x17
 3653 034e 00       		.byte	0
 3654 034f 00       		.byte	0
 3655 0350 3F       		.uleb128 0x3f
 3656 0351 898201   		.uleb128 0x4109
 3657 0354 01       		.byte	0x1
 3658 0355 11       		.uleb128 0x11
 3659 0356 01       		.uleb128 0x1
 3660 0357 31       		.uleb128 0x31
 3661 0358 13       		.uleb128 0x13
 3662 0359 01       		.uleb128 0x1
 3663 035a 13       		.uleb128 0x13
 3664 035b 00       		.byte	0
 3665 035c 00       		.byte	0
 3666 035d 40       		.uleb128 0x40
 3667 035e 898201   		.uleb128 0x4109
 3668 0361 00       		.byte	0
 3669 0362 11       		.uleb128 0x11
 3670 0363 01       		.uleb128 0x1
 3671 0364 9542     		.uleb128 0x2115
 3672 0366 19       		.uleb128 0x19
 3673 0367 31       		.uleb128 0x31
 3674 0368 13       		.uleb128 0x13
 3675 0369 00       		.byte	0
 3676 036a 00       		.byte	0
 3677 036b 41       		.uleb128 0x41
 3678 036c 0B       		.uleb128 0xb
 3679 036d 01       		.byte	0x1
 3680 036e 55       		.uleb128 0x55
 3681 036f 17       		.uleb128 0x17
 3682 0370 01       		.uleb128 0x1
 3683 0371 13       		.uleb128 0x13
 3684 0372 00       		.byte	0
 3685 0373 00       		.byte	0
 3686 0374 42       		.uleb128 0x42
 3687 0375 34       		.uleb128 0x34
 3688 0376 00       		.byte	0
 3689 0377 03       		.uleb128 0x3
 3690 0378 0E       		.uleb128 0xe
 3691 0379 3A       		.uleb128 0x3a
 3692 037a 0B       		.uleb128 0xb
 3693 037b 3B       		.uleb128 0x3b
 3694 037c 05       		.uleb128 0x5
 3695 037d 49       		.uleb128 0x49
 3696 037e 13       		.uleb128 0x13
 3697 037f 3F       		.uleb128 0x3f
 3698 0380 19       		.uleb128 0x19
 3699 0381 3C       		.uleb128 0x3c
 3700 0382 19       		.uleb128 0x19
 3701 0383 00       		.byte	0
 3702 0384 00       		.byte	0
 3703 0385 43       		.uleb128 0x43
 3704 0386 34       		.uleb128 0x34
 3705 0387 00       		.byte	0
ARM GAS  /tmp/ccZw1gyL.s 			page 66


 3706 0388 03       		.uleb128 0x3
 3707 0389 08       		.uleb128 0x8
 3708 038a 3A       		.uleb128 0x3a
 3709 038b 0B       		.uleb128 0xb
 3710 038c 3B       		.uleb128 0x3b
 3711 038d 05       		.uleb128 0x5
 3712 038e 49       		.uleb128 0x49
 3713 038f 13       		.uleb128 0x13
 3714 0390 3F       		.uleb128 0x3f
 3715 0391 19       		.uleb128 0x19
 3716 0392 3C       		.uleb128 0x3c
 3717 0393 19       		.uleb128 0x19
 3718 0394 00       		.byte	0
 3719 0395 00       		.byte	0
 3720 0396 44       		.uleb128 0x44
 3721 0397 2E       		.uleb128 0x2e
 3722 0398 01       		.byte	0x1
 3723 0399 3F       		.uleb128 0x3f
 3724 039a 19       		.uleb128 0x19
 3725 039b 03       		.uleb128 0x3
 3726 039c 0E       		.uleb128 0xe
 3727 039d 3A       		.uleb128 0x3a
 3728 039e 0B       		.uleb128 0xb
 3729 039f 3B       		.uleb128 0x3b
 3730 03a0 05       		.uleb128 0x5
 3731 03a1 27       		.uleb128 0x27
 3732 03a2 19       		.uleb128 0x19
 3733 03a3 3C       		.uleb128 0x3c
 3734 03a4 19       		.uleb128 0x19
 3735 03a5 01       		.uleb128 0x1
 3736 03a6 13       		.uleb128 0x13
 3737 03a7 00       		.byte	0
 3738 03a8 00       		.byte	0
 3739 03a9 45       		.uleb128 0x45
 3740 03aa 2E       		.uleb128 0x2e
 3741 03ab 01       		.byte	0x1
 3742 03ac 3F       		.uleb128 0x3f
 3743 03ad 19       		.uleb128 0x19
 3744 03ae 03       		.uleb128 0x3
 3745 03af 0E       		.uleb128 0xe
 3746 03b0 3A       		.uleb128 0x3a
 3747 03b1 0B       		.uleb128 0xb
 3748 03b2 3B       		.uleb128 0x3b
 3749 03b3 05       		.uleb128 0x5
 3750 03b4 27       		.uleb128 0x27
 3751 03b5 19       		.uleb128 0x19
 3752 03b6 49       		.uleb128 0x49
 3753 03b7 13       		.uleb128 0x13
 3754 03b8 3C       		.uleb128 0x3c
 3755 03b9 19       		.uleb128 0x19
 3756 03ba 01       		.uleb128 0x1
 3757 03bb 13       		.uleb128 0x13
 3758 03bc 00       		.byte	0
 3759 03bd 00       		.byte	0
 3760 03be 46       		.uleb128 0x46
 3761 03bf 2E       		.uleb128 0x2e
 3762 03c0 00       		.byte	0
ARM GAS  /tmp/ccZw1gyL.s 			page 67


 3763 03c1 3F       		.uleb128 0x3f
 3764 03c2 19       		.uleb128 0x19
 3765 03c3 03       		.uleb128 0x3
 3766 03c4 0E       		.uleb128 0xe
 3767 03c5 3A       		.uleb128 0x3a
 3768 03c6 0B       		.uleb128 0xb
 3769 03c7 3B       		.uleb128 0x3b
 3770 03c8 05       		.uleb128 0x5
 3771 03c9 27       		.uleb128 0x27
 3772 03ca 19       		.uleb128 0x19
 3773 03cb 3C       		.uleb128 0x3c
 3774 03cc 19       		.uleb128 0x19
 3775 03cd 00       		.byte	0
 3776 03ce 00       		.byte	0
 3777 03cf 00       		.byte	0
 3778              		.section	.debug_loc,"",%progbits
 3779              	.Ldebug_loc0:
 3780              	.LLST0:
 3781 0000 00000000 		.4byte	.LVL1
 3782 0004 16000000 		.4byte	.LVL4
 3783 0008 0100     		.2byte	0x1
 3784 000a 50       		.byte	0x50
 3785 000b 16000000 		.4byte	.LVL4
 3786 000f 48000000 		.4byte	.LVL8
 3787 0013 0100     		.2byte	0x1
 3788 0015 55       		.byte	0x55
 3789 0016 48000000 		.4byte	.LVL8
 3790 001a 4B000000 		.4byte	.LVL9-1
 3791 001e 0500     		.2byte	0x5
 3792 0020 72       		.byte	0x72
 3793 0021 00       		.sleb128 0
 3794 0022 06       		.byte	0x6
 3795 0023 23       		.byte	0x23
 3796 0024 14       		.uleb128 0x14
 3797 0025 4B000000 		.4byte	.LVL9-1
 3798 0029 4C000000 		.4byte	.LVL9
 3799 002d 0400     		.2byte	0x4
 3800 002f F3       		.byte	0xf3
 3801 0030 01       		.uleb128 0x1
 3802 0031 50       		.byte	0x50
 3803 0032 9F       		.byte	0x9f
 3804 0033 4C000000 		.4byte	.LVL9
 3805 0037 B8000000 		.4byte	.LVL22
 3806 003b 0100     		.2byte	0x1
 3807 003d 55       		.byte	0x55
 3808 003e B8000000 		.4byte	.LVL22
 3809 0042 C8000000 		.4byte	.LFE172
 3810 0046 0100     		.2byte	0x1
 3811 0048 50       		.byte	0x50
 3812 0049 00000000 		.4byte	0
 3813 004d 00000000 		.4byte	0
 3814              	.LLST1:
 3815 0051 08000000 		.4byte	.LVL2
 3816 0055 48000000 		.4byte	.LVL8
 3817 0059 0100     		.2byte	0x1
 3818 005b 54       		.byte	0x54
 3819 005c 48000000 		.4byte	.LVL8
ARM GAS  /tmp/ccZw1gyL.s 			page 68


 3820 0060 4B000000 		.4byte	.LVL9-1
 3821 0064 0200     		.2byte	0x2
 3822 0066 72       		.byte	0x72
 3823 0067 00       		.sleb128 0
 3824 0068 4C000000 		.4byte	.LVL9
 3825 006c C2000000 		.4byte	.LVL23
 3826 0070 0100     		.2byte	0x1
 3827 0072 54       		.byte	0x54
 3828 0073 00000000 		.4byte	0
 3829 0077 00000000 		.4byte	0
 3830              	.LLST2:
 3831 007b 12000000 		.4byte	.LVL3
 3832 007f 24000000 		.4byte	.LVL5
 3833 0083 0100     		.2byte	0x1
 3834 0085 52       		.byte	0x52
 3835 0086 4C000000 		.4byte	.LVL9
 3836 008a 56000000 		.4byte	.LVL10
 3837 008e 0100     		.2byte	0x1
 3838 0090 52       		.byte	0x52
 3839 0091 56000000 		.4byte	.LVL10
 3840 0095 5B000000 		.4byte	.LVL11-1
 3841 0099 0100     		.2byte	0x1
 3842 009b 50       		.byte	0x50
 3843 009c 5E000000 		.4byte	.LVL12
 3844 00a0 B8000000 		.4byte	.LVL22
 3845 00a4 0100     		.2byte	0x1
 3846 00a6 52       		.byte	0x52
 3847 00a7 00000000 		.4byte	0
 3848 00ab 00000000 		.4byte	0
 3849              	.LLST3:
 3850 00af 24000000 		.4byte	.LVL5
 3851 00b3 48000000 		.4byte	.LVL8
 3852 00b7 0100     		.2byte	0x1
 3853 00b9 55       		.byte	0x55
 3854 00ba 48000000 		.4byte	.LVL8
 3855 00be 4B000000 		.4byte	.LVL9-1
 3856 00c2 0500     		.2byte	0x5
 3857 00c4 72       		.byte	0x72
 3858 00c5 00       		.sleb128 0
 3859 00c6 06       		.byte	0x6
 3860 00c7 23       		.byte	0x23
 3861 00c8 14       		.uleb128 0x14
 3862 00c9 4B000000 		.4byte	.LVL9-1
 3863 00cd 4C000000 		.4byte	.LVL9
 3864 00d1 0400     		.2byte	0x4
 3865 00d3 F3       		.byte	0xf3
 3866 00d4 01       		.uleb128 0x1
 3867 00d5 50       		.byte	0x50
 3868 00d6 9F       		.byte	0x9f
 3869 00d7 00000000 		.4byte	0
 3870 00db 00000000 		.4byte	0
 3871              	.LLST4:
 3872 00df 24000000 		.4byte	.LVL5
 3873 00e3 48000000 		.4byte	.LVL8
 3874 00e7 0100     		.2byte	0x1
 3875 00e9 54       		.byte	0x54
 3876 00ea 48000000 		.4byte	.LVL8
ARM GAS  /tmp/ccZw1gyL.s 			page 69


 3877 00ee 4B000000 		.4byte	.LVL9-1
 3878 00f2 0200     		.2byte	0x2
 3879 00f4 72       		.byte	0x72
 3880 00f5 00       		.sleb128 0
 3881 00f6 00000000 		.4byte	0
 3882 00fa 00000000 		.4byte	0
 3883              	.LLST5:
 3884 00fe 24000000 		.4byte	.LVL5
 3885 0102 28000000 		.4byte	.LVL6
 3886 0106 0100     		.2byte	0x1
 3887 0108 55       		.byte	0x55
 3888 0109 28000000 		.4byte	.LVL6
 3889 010d 48000000 		.4byte	.LVL8
 3890 0111 0100     		.2byte	0x1
 3891 0113 53       		.byte	0x53
 3892 0114 00000000 		.4byte	0
 3893 0118 00000000 		.4byte	0
 3894              	.LLST6:
 3895 011c 4C000000 		.4byte	.LVL9
 3896 0120 56000000 		.4byte	.LVL10
 3897 0124 0100     		.2byte	0x1
 3898 0126 52       		.byte	0x52
 3899 0127 56000000 		.4byte	.LVL10
 3900 012b 5B000000 		.4byte	.LVL11-1
 3901 012f 0100     		.2byte	0x1
 3902 0131 50       		.byte	0x50
 3903 0132 00000000 		.4byte	0
 3904 0136 00000000 		.4byte	0
 3905              	.LLST7:
 3906 013a 5E000000 		.4byte	.LVL12
 3907 013e 86000000 		.4byte	.LVL16
 3908 0142 0100     		.2byte	0x1
 3909 0144 52       		.byte	0x52
 3910 0145 00000000 		.4byte	0
 3911 0149 00000000 		.4byte	0
 3912              	.LLST8:
 3913 014d 64000000 		.4byte	.LVL13
 3914 0151 86000000 		.4byte	.LVL16
 3915 0155 0100     		.2byte	0x1
 3916 0157 56       		.byte	0x56
 3917 0158 00000000 		.4byte	0
 3918 015c 00000000 		.4byte	0
 3919              	.LLST9:
 3920 0160 64000000 		.4byte	.LVL13
 3921 0164 86000000 		.4byte	.LVL16
 3922 0168 0100     		.2byte	0x1
 3923 016a 52       		.byte	0x52
 3924 016b 00000000 		.4byte	0
 3925 016f 00000000 		.4byte	0
 3926              	.LLST10:
 3927 0173 64000000 		.4byte	.LVL13
 3928 0177 6E000000 		.4byte	.LVL14
 3929 017b 0100     		.2byte	0x1
 3930 017d 56       		.byte	0x56
 3931 017e 6E000000 		.4byte	.LVL14
 3932 0182 86000000 		.4byte	.LVL16
 3933 0186 0100     		.2byte	0x1
ARM GAS  /tmp/ccZw1gyL.s 			page 70


 3934 0188 53       		.byte	0x53
 3935 0189 00000000 		.4byte	0
 3936 018d 00000000 		.4byte	0
 3937              	.LLST11:
 3938 0191 86000000 		.4byte	.LVL16
 3939 0195 AE000000 		.4byte	.LVL20
 3940 0199 0100     		.2byte	0x1
 3941 019b 52       		.byte	0x52
 3942 019c AE000000 		.4byte	.LVL20
 3943 01a0 B2000000 		.4byte	.LVL21
 3944 01a4 0200     		.2byte	0x2
 3945 01a6 73       		.byte	0x73
 3946 01a7 04       		.sleb128 4
 3947 01a8 00000000 		.4byte	0
 3948 01ac 00000000 		.4byte	0
 3949              	.LLST12:
 3950 01b0 8C000000 		.4byte	.LVL17
 3951 01b4 B8000000 		.4byte	.LVL22
 3952 01b8 0100     		.2byte	0x1
 3953 01ba 56       		.byte	0x56
 3954 01bb 00000000 		.4byte	0
 3955 01bf 00000000 		.4byte	0
 3956              	.LLST13:
 3957 01c3 8C000000 		.4byte	.LVL17
 3958 01c7 AE000000 		.4byte	.LVL20
 3959 01cb 0100     		.2byte	0x1
 3960 01cd 52       		.byte	0x52
 3961 01ce AE000000 		.4byte	.LVL20
 3962 01d2 B2000000 		.4byte	.LVL21
 3963 01d6 0200     		.2byte	0x2
 3964 01d8 73       		.byte	0x73
 3965 01d9 04       		.sleb128 4
 3966 01da 00000000 		.4byte	0
 3967 01de 00000000 		.4byte	0
 3968              	.LLST14:
 3969 01e2 8C000000 		.4byte	.LVL17
 3970 01e6 96000000 		.4byte	.LVL18
 3971 01ea 0100     		.2byte	0x1
 3972 01ec 56       		.byte	0x56
 3973 01ed 96000000 		.4byte	.LVL18
 3974 01f1 B2000000 		.4byte	.LVL21
 3975 01f5 0100     		.2byte	0x1
 3976 01f7 53       		.byte	0x53
 3977 01f8 00000000 		.4byte	0
 3978 01fc 00000000 		.4byte	0
 3979              	.LLST15:
 3980 0200 00000000 		.4byte	.LVL24
 3981 0204 0B000000 		.4byte	.LVL25-1
 3982 0208 0100     		.2byte	0x1
 3983 020a 50       		.byte	0x50
 3984 020b 0B000000 		.4byte	.LVL25-1
 3985 020f 14000000 		.4byte	.LFE171
 3986 0213 0400     		.2byte	0x4
 3987 0215 F3       		.byte	0xf3
 3988 0216 01       		.uleb128 0x1
 3989 0217 50       		.byte	0x50
 3990 0218 9F       		.byte	0x9f
ARM GAS  /tmp/ccZw1gyL.s 			page 71


 3991 0219 00000000 		.4byte	0
 3992 021d 00000000 		.4byte	0
 3993              	.LLST16:
 3994 0221 00000000 		.4byte	.LVL26
 3995 0225 0C000000 		.4byte	.LVL28
 3996 0229 0100     		.2byte	0x1
 3997 022b 50       		.byte	0x50
 3998 022c 0C000000 		.4byte	.LVL28
 3999 0230 10000000 		.4byte	.LVL30
 4000 0234 0100     		.2byte	0x1
 4001 0236 53       		.byte	0x53
 4002 0237 10000000 		.4byte	.LVL30
 4003 023b 16000000 		.4byte	.LVL31
 4004 023f 0400     		.2byte	0x4
 4005 0241 F3       		.byte	0xf3
 4006 0242 01       		.uleb128 0x1
 4007 0243 50       		.byte	0x50
 4008 0244 9F       		.byte	0x9f
 4009 0245 16000000 		.4byte	.LVL31
 4010 0249 26000000 		.4byte	.LVL33
 4011 024d 0100     		.2byte	0x1
 4012 024f 53       		.byte	0x53
 4013 0250 26000000 		.4byte	.LVL33
 4014 0254 30000000 		.4byte	.LFE173
 4015 0258 0200     		.2byte	0x2
 4016 025a 72       		.byte	0x72
 4017 025b 2C       		.sleb128 44
 4018 025c 00000000 		.4byte	0
 4019 0260 00000000 		.4byte	0
 4020              	.LLST17:
 4021 0264 08000000 		.4byte	.LVL27
 4022 0268 0C000000 		.4byte	.LVL28
 4023 026c 0100     		.2byte	0x1
 4024 026e 50       		.byte	0x50
 4025 026f 0C000000 		.4byte	.LVL28
 4026 0273 10000000 		.4byte	.LVL30
 4027 0277 0100     		.2byte	0x1
 4028 0279 53       		.byte	0x53
 4029 027a 10000000 		.4byte	.LVL30
 4030 027e 16000000 		.4byte	.LVL31
 4031 0282 0400     		.2byte	0x4
 4032 0284 F3       		.byte	0xf3
 4033 0285 01       		.uleb128 0x1
 4034 0286 50       		.byte	0x50
 4035 0287 9F       		.byte	0x9f
 4036 0288 16000000 		.4byte	.LVL31
 4037 028c 26000000 		.4byte	.LVL33
 4038 0290 0100     		.2byte	0x1
 4039 0292 53       		.byte	0x53
 4040 0293 26000000 		.4byte	.LVL33
 4041 0297 30000000 		.4byte	.LFE173
 4042 029b 0200     		.2byte	0x2
 4043 029d 72       		.byte	0x72
 4044 029e 2C       		.sleb128 44
 4045 029f 00000000 		.4byte	0
 4046 02a3 00000000 		.4byte	0
 4047              	.LLST18:
ARM GAS  /tmp/ccZw1gyL.s 			page 72


 4048 02a7 16000000 		.4byte	.LVL31
 4049 02ab 26000000 		.4byte	.LVL33
 4050 02af 0100     		.2byte	0x1
 4051 02b1 53       		.byte	0x53
 4052 02b2 26000000 		.4byte	.LVL33
 4053 02b6 30000000 		.4byte	.LFE173
 4054 02ba 0200     		.2byte	0x2
 4055 02bc 72       		.byte	0x72
 4056 02bd 2C       		.sleb128 44
 4057 02be 00000000 		.4byte	0
 4058 02c2 00000000 		.4byte	0
 4059              	.LLST19:
 4060 02c6 0E000000 		.4byte	.LVL29
 4061 02ca 16000000 		.4byte	.LVL31
 4062 02ce 0200     		.2byte	0x2
 4063 02d0 30       		.byte	0x30
 4064 02d1 9F       		.byte	0x9f
 4065 02d2 24000000 		.4byte	.LVL32
 4066 02d6 30000000 		.4byte	.LFE173
 4067 02da 0200     		.2byte	0x2
 4068 02dc 30       		.byte	0x30
 4069 02dd 9F       		.byte	0x9f
 4070 02de 00000000 		.4byte	0
 4071 02e2 00000000 		.4byte	0
 4072              	.LLST20:
 4073 02e6 00000000 		.4byte	.LVL34
 4074 02ea 08000000 		.4byte	.LVL35
 4075 02ee 0100     		.2byte	0x1
 4076 02f0 50       		.byte	0x50
 4077 02f1 08000000 		.4byte	.LVL35
 4078 02f5 0A000000 		.4byte	.LVL36
 4079 02f9 0100     		.2byte	0x1
 4080 02fb 53       		.byte	0x53
 4081 02fc 0A000000 		.4byte	.LVL36
 4082 0300 0E000000 		.4byte	.LVL37
 4083 0304 0100     		.2byte	0x1
 4084 0306 50       		.byte	0x50
 4085 0307 0E000000 		.4byte	.LVL37
 4086 030b 20000000 		.4byte	.LFE174
 4087 030f 0100     		.2byte	0x1
 4088 0311 53       		.byte	0x53
 4089 0312 00000000 		.4byte	0
 4090 0316 00000000 		.4byte	0
 4091              	.LLST21:
 4092 031a 0A000000 		.4byte	.LVL36
 4093 031e 0E000000 		.4byte	.LVL37
 4094 0322 0100     		.2byte	0x1
 4095 0324 50       		.byte	0x50
 4096 0325 0E000000 		.4byte	.LVL37
 4097 0329 20000000 		.4byte	.LFE174
 4098 032d 0100     		.2byte	0x1
 4099 032f 53       		.byte	0x53
 4100 0330 00000000 		.4byte	0
 4101 0334 00000000 		.4byte	0
 4102              	.LLST22:
 4103 0338 00000000 		.4byte	.LVL38
 4104 033c 36000000 		.4byte	.LVL46
ARM GAS  /tmp/ccZw1gyL.s 			page 73


 4105 0340 0100     		.2byte	0x1
 4106 0342 50       		.byte	0x50
 4107 0343 36000000 		.4byte	.LVL46
 4108 0347 45000000 		.4byte	.LVL48-1
 4109 034b 0100     		.2byte	0x1
 4110 034d 53       		.byte	0x53
 4111 034e 45000000 		.4byte	.LVL48-1
 4112 0352 52000000 		.4byte	.LVL50
 4113 0356 0400     		.2byte	0x4
 4114 0358 F3       		.byte	0xf3
 4115 0359 01       		.uleb128 0x1
 4116 035a 50       		.byte	0x50
 4117 035b 9F       		.byte	0x9f
 4118 035c 52000000 		.4byte	.LVL50
 4119 0360 64000000 		.4byte	.LFE175
 4120 0364 0100     		.2byte	0x1
 4121 0366 50       		.byte	0x50
 4122 0367 00000000 		.4byte	0
 4123 036b 00000000 		.4byte	0
 4124              	.LLST23:
 4125 036f 06000000 		.4byte	.LVL39
 4126 0373 5E000000 		.4byte	.LVL52
 4127 0377 0100     		.2byte	0x1
 4128 0379 55       		.byte	0x55
 4129 037a 00000000 		.4byte	0
 4130 037e 00000000 		.4byte	0
 4131              	.LLST24:
 4132 0382 18000000 		.4byte	.LVL41
 4133 0386 30000000 		.4byte	.LVL45
 4134 038a 0100     		.2byte	0x1
 4135 038c 53       		.byte	0x53
 4136 038d 00000000 		.4byte	0
 4137 0391 00000000 		.4byte	0
 4138              	.LLST25:
 4139 0395 14000000 		.4byte	.LVL40
 4140 0399 36000000 		.4byte	.LVL46
 4141 039d 0100     		.2byte	0x1
 4142 039f 50       		.byte	0x50
 4143 03a0 36000000 		.4byte	.LVL46
 4144 03a4 45000000 		.4byte	.LVL48-1
 4145 03a8 0100     		.2byte	0x1
 4146 03aa 53       		.byte	0x53
 4147 03ab 45000000 		.4byte	.LVL48-1
 4148 03af 52000000 		.4byte	.LVL50
 4149 03b3 0400     		.2byte	0x4
 4150 03b5 F3       		.byte	0xf3
 4151 03b6 01       		.uleb128 0x1
 4152 03b7 50       		.byte	0x50
 4153 03b8 9F       		.byte	0x9f
 4154 03b9 52000000 		.4byte	.LVL50
 4155 03bd 64000000 		.4byte	.LFE175
 4156 03c1 0100     		.2byte	0x1
 4157 03c3 50       		.byte	0x50
 4158 03c4 00000000 		.4byte	0
 4159 03c8 00000000 		.4byte	0
 4160              	.LLST27:
 4161 03cc 18000000 		.4byte	.LVL41
ARM GAS  /tmp/ccZw1gyL.s 			page 74


 4162 03d0 45000000 		.4byte	.LVL48-1
 4163 03d4 0100     		.2byte	0x1
 4164 03d6 51       		.byte	0x51
 4165 03d7 00000000 		.4byte	0
 4166 03db 00000000 		.4byte	0
 4167              	.LLST28:
 4168 03df 1A000000 		.4byte	.LVL42
 4169 03e3 2A000000 		.4byte	.LVL44
 4170 03e7 0100     		.2byte	0x1
 4171 03e9 53       		.byte	0x53
 4172 03ea 00000000 		.4byte	0
 4173 03ee 00000000 		.4byte	0
 4174              	.LLST30:
 4175 03f2 38000000 		.4byte	.LVL47
 4176 03f6 45000000 		.4byte	.LVL48-1
 4177 03fa 0100     		.2byte	0x1
 4178 03fc 53       		.byte	0x53
 4179 03fd 45000000 		.4byte	.LVL48-1
 4180 0401 52000000 		.4byte	.LVL50
 4181 0405 0400     		.2byte	0x4
 4182 0407 F3       		.byte	0xf3
 4183 0408 01       		.uleb128 0x1
 4184 0409 50       		.byte	0x50
 4185 040a 9F       		.byte	0x9f
 4186 040b 00000000 		.4byte	0
 4187 040f 00000000 		.4byte	0
 4188              	.LLST31:
 4189 0413 38000000 		.4byte	.LVL47
 4190 0417 45000000 		.4byte	.LVL48-1
 4191 041b 0100     		.2byte	0x1
 4192 041d 50       		.byte	0x50
 4193 041e 45000000 		.4byte	.LVL48-1
 4194 0422 52000000 		.4byte	.LVL50
 4195 0426 0100     		.2byte	0x1
 4196 0428 54       		.byte	0x54
 4197 0429 00000000 		.4byte	0
 4198 042d 00000000 		.4byte	0
 4199              	.LLST32:
 4200 0431 4A000000 		.4byte	.LVL49
 4201 0435 52000000 		.4byte	.LVL50
 4202 0439 0200     		.2byte	0x2
 4203 043b 30       		.byte	0x30
 4204 043c 9F       		.byte	0x9f
 4205 043d 56000000 		.4byte	.LVL51
 4206 0441 64000000 		.4byte	.LFE175
 4207 0445 0200     		.2byte	0x2
 4208 0447 30       		.byte	0x30
 4209 0448 9F       		.byte	0x9f
 4210 0449 00000000 		.4byte	0
 4211 044d 00000000 		.4byte	0
 4212              	.LLST33:
 4213 0451 00000000 		.4byte	.LVL53
 4214 0455 0C000000 		.4byte	.LVL54
 4215 0459 0100     		.2byte	0x1
 4216 045b 50       		.byte	0x50
 4217 045c 0C000000 		.4byte	.LVL54
 4218 0460 3E000000 		.4byte	.LVL63
ARM GAS  /tmp/ccZw1gyL.s 			page 75


 4219 0464 0100     		.2byte	0x1
 4220 0466 54       		.byte	0x54
 4221 0467 3E000000 		.4byte	.LVL63
 4222 046b 41000000 		.4byte	.LVL64-1
 4223 046f 0200     		.2byte	0x2
 4224 0471 70       		.byte	0x70
 4225 0472 2C       		.sleb128 44
 4226 0473 41000000 		.4byte	.LVL64-1
 4227 0477 42000000 		.4byte	.LVL64
 4228 047b 0400     		.2byte	0x4
 4229 047d F3       		.byte	0xf3
 4230 047e 01       		.uleb128 0x1
 4231 047f 50       		.byte	0x50
 4232 0480 9F       		.byte	0x9f
 4233 0481 42000000 		.4byte	.LVL64
 4234 0485 48000000 		.4byte	.LVL65
 4235 0489 0100     		.2byte	0x1
 4236 048b 54       		.byte	0x54
 4237 048c 48000000 		.4byte	.LVL65
 4238 0490 50000000 		.4byte	.LFE176
 4239 0494 0400     		.2byte	0x4
 4240 0496 F3       		.byte	0xf3
 4241 0497 01       		.uleb128 0x1
 4242 0498 50       		.byte	0x50
 4243 0499 9F       		.byte	0x9f
 4244 049a 00000000 		.4byte	0
 4245 049e 00000000 		.4byte	0
 4246              	.LLST34:
 4247 04a2 0C000000 		.4byte	.LVL54
 4248 04a6 34000000 		.4byte	.LVL62
 4249 04aa 0100     		.2byte	0x1
 4250 04ac 50       		.byte	0x50
 4251 04ad 42000000 		.4byte	.LVL64
 4252 04b1 50000000 		.4byte	.LFE176
 4253 04b5 0100     		.2byte	0x1
 4254 04b7 50       		.byte	0x50
 4255 04b8 00000000 		.4byte	0
 4256 04bc 00000000 		.4byte	0
 4257              	.LLST35:
 4258 04c0 14000000 		.4byte	.LVL56
 4259 04c4 2E000000 		.4byte	.LVL60
 4260 04c8 0100     		.2byte	0x1
 4261 04ca 53       		.byte	0x53
 4262 04cb 00000000 		.4byte	0
 4263 04cf 00000000 		.4byte	0
 4264              	.LLST36:
 4265 04d3 10000000 		.4byte	.LVL55
 4266 04d7 3E000000 		.4byte	.LVL63
 4267 04db 0100     		.2byte	0x1
 4268 04dd 54       		.byte	0x54
 4269 04de 3E000000 		.4byte	.LVL63
 4270 04e2 41000000 		.4byte	.LVL64-1
 4271 04e6 0200     		.2byte	0x2
 4272 04e8 70       		.byte	0x70
 4273 04e9 2C       		.sleb128 44
 4274 04ea 41000000 		.4byte	.LVL64-1
 4275 04ee 42000000 		.4byte	.LVL64
ARM GAS  /tmp/ccZw1gyL.s 			page 76


 4276 04f2 0400     		.2byte	0x4
 4277 04f4 F3       		.byte	0xf3
 4278 04f5 01       		.uleb128 0x1
 4279 04f6 50       		.byte	0x50
 4280 04f7 9F       		.byte	0x9f
 4281 04f8 42000000 		.4byte	.LVL64
 4282 04fc 48000000 		.4byte	.LVL65
 4283 0500 0100     		.2byte	0x1
 4284 0502 54       		.byte	0x54
 4285 0503 48000000 		.4byte	.LVL65
 4286 0507 50000000 		.4byte	.LFE176
 4287 050b 0400     		.2byte	0x4
 4288 050d F3       		.byte	0xf3
 4289 050e 01       		.uleb128 0x1
 4290 050f 50       		.byte	0x50
 4291 0510 9F       		.byte	0x9f
 4292 0511 00000000 		.4byte	0
 4293 0515 00000000 		.4byte	0
 4294              	.LLST38:
 4295 0519 14000000 		.4byte	.LVL56
 4296 051d 41000000 		.4byte	.LVL64-1
 4297 0521 0100     		.2byte	0x1
 4298 0523 51       		.byte	0x51
 4299 0524 00000000 		.4byte	0
 4300 0528 00000000 		.4byte	0
 4301              	.LLST39:
 4302 052c 16000000 		.4byte	.LVL57
 4303 0530 26000000 		.4byte	.LVL59
 4304 0534 0100     		.2byte	0x1
 4305 0536 53       		.byte	0x53
 4306 0537 00000000 		.4byte	0
 4307 053b 00000000 		.4byte	0
 4308              	.LLST41:
 4309 053f 30000000 		.4byte	.LVL61
 4310 0543 3E000000 		.4byte	.LVL63
 4311 0547 0100     		.2byte	0x1
 4312 0549 54       		.byte	0x54
 4313 054a 3E000000 		.4byte	.LVL63
 4314 054e 41000000 		.4byte	.LVL64-1
 4315 0552 0200     		.2byte	0x2
 4316 0554 70       		.byte	0x70
 4317 0555 2C       		.sleb128 44
 4318 0556 41000000 		.4byte	.LVL64-1
 4319 055a 42000000 		.4byte	.LVL64
 4320 055e 0400     		.2byte	0x4
 4321 0560 F3       		.byte	0xf3
 4322 0561 01       		.uleb128 0x1
 4323 0562 50       		.byte	0x50
 4324 0563 9F       		.byte	0x9f
 4325 0564 00000000 		.4byte	0
 4326 0568 00000000 		.4byte	0
 4327              	.LLST42:
 4328 056c 30000000 		.4byte	.LVL61
 4329 0570 3E000000 		.4byte	.LVL63
 4330 0574 0100     		.2byte	0x1
 4331 0576 55       		.byte	0x55
 4332 0577 3E000000 		.4byte	.LVL63
ARM GAS  /tmp/ccZw1gyL.s 			page 77


 4333 057b 41000000 		.4byte	.LVL64-1
 4334 057f 0100     		.2byte	0x1
 4335 0581 50       		.byte	0x50
 4336 0582 00000000 		.4byte	0
 4337 0586 00000000 		.4byte	0
 4338              	.LLST43:
 4339 058a 08000000 		.4byte	.LVL66
 4340 058e 4E000000 		.4byte	.LVL75
 4341 0592 0100     		.2byte	0x1
 4342 0594 54       		.byte	0x54
 4343 0595 00000000 		.4byte	0
 4344 0599 00000000 		.4byte	0
 4345              	.LLST44:
 4346 059d 14000000 		.4byte	.LVL67
 4347 05a1 27000000 		.4byte	.LVL68-1
 4348 05a5 0100     		.2byte	0x1
 4349 05a7 53       		.byte	0x53
 4350 05a8 2C000000 		.4byte	.LVL69
 4351 05ac 3A000000 		.4byte	.LVL72
 4352 05b0 0100     		.2byte	0x1
 4353 05b2 53       		.byte	0x53
 4354 05b3 00000000 		.4byte	0
 4355 05b7 00000000 		.4byte	0
 4356              	.LLST46:
 4357 05bb 14000000 		.4byte	.LVL67
 4358 05bf 27000000 		.4byte	.LVL68-1
 4359 05c3 0100     		.2byte	0x1
 4360 05c5 52       		.byte	0x52
 4361 05c6 2E000000 		.4byte	.LVL70
 4362 05ca 3E000000 		.4byte	.LVL73
 4363 05ce 0100     		.2byte	0x1
 4364 05d0 52       		.byte	0x52
 4365 05d1 00000000 		.4byte	0
 4366 05d5 00000000 		.4byte	0
 4367              	.LLST47:
 4368 05d9 14000000 		.4byte	.LVL67
 4369 05dd 27000000 		.4byte	.LVL68-1
 4370 05e1 0100     		.2byte	0x1
 4371 05e3 53       		.byte	0x53
 4372 05e4 34000000 		.4byte	.LVL71
 4373 05e8 3A000000 		.4byte	.LVL72
 4374 05ec 0100     		.2byte	0x1
 4375 05ee 53       		.byte	0x53
 4376 05ef 00000000 		.4byte	0
 4377 05f3 00000000 		.4byte	0
 4378              		.section	.debug_aranges,"",%progbits
 4379 0000 54000000 		.4byte	0x54
 4380 0004 0200     		.2byte	0x2
 4381 0006 00000000 		.4byte	.Ldebug_info0
 4382 000a 04       		.byte	0x4
 4383 000b 00       		.byte	0
 4384 000c 0000     		.2byte	0
 4385 000e 0000     		.2byte	0
 4386 0010 00000000 		.4byte	.LFB170
 4387 0014 0A000000 		.4byte	.LFE170-.LFB170
 4388 0018 00000000 		.4byte	.LFB172
 4389 001c C8000000 		.4byte	.LFE172-.LFB172
ARM GAS  /tmp/ccZw1gyL.s 			page 78


 4390 0020 00000000 		.4byte	.LFB171
 4391 0024 14000000 		.4byte	.LFE171-.LFB171
 4392 0028 00000000 		.4byte	.LFB173
 4393 002c 30000000 		.4byte	.LFE173-.LFB173
 4394 0030 00000000 		.4byte	.LFB174
 4395 0034 20000000 		.4byte	.LFE174-.LFB174
 4396 0038 00000000 		.4byte	.LFB175
 4397 003c 64000000 		.4byte	.LFE175-.LFB175
 4398 0040 00000000 		.4byte	.LFB176
 4399 0044 50000000 		.4byte	.LFE176-.LFB176
 4400 0048 00000000 		.4byte	.LFB177
 4401 004c 54000000 		.4byte	.LFE177-.LFB177
 4402 0050 00000000 		.4byte	0
 4403 0054 00000000 		.4byte	0
 4404              		.section	.debug_ranges,"",%progbits
 4405              	.Ldebug_ranges0:
 4406 0000 0C000000 		.4byte	.LBB105
 4407 0004 44000000 		.4byte	.LBE105
 4408 0008 48000000 		.4byte	.LBB132
 4409 000c B8000000 		.4byte	.LBE132
 4410 0010 00000000 		.4byte	0
 4411 0014 00000000 		.4byte	0
 4412 0018 4C000000 		.4byte	.LBB108
 4413 001c 52000000 		.4byte	.LBE108
 4414 0020 54000000 		.4byte	.LBB111
 4415 0024 58000000 		.4byte	.LBE111
 4416 0028 00000000 		.4byte	0
 4417 002c 00000000 		.4byte	0
 4418 0030 5E000000 		.4byte	.LBB112
 4419 0034 62000000 		.4byte	.LBE112
 4420 0038 64000000 		.4byte	.LBB116
 4421 003c 68000000 		.4byte	.LBE116
 4422 0040 6A000000 		.4byte	.LBB120
 4423 0044 6E000000 		.4byte	.LBE120
 4424 0048 00000000 		.4byte	0
 4425 004c 00000000 		.4byte	0
 4426 0050 68000000 		.4byte	.LBB117
 4427 0054 6A000000 		.4byte	.LBE117
 4428 0058 6E000000 		.4byte	.LBB121
 4429 005c 86000000 		.4byte	.LBE121
 4430 0060 00000000 		.4byte	0
 4431 0064 00000000 		.4byte	0
 4432 0068 86000000 		.4byte	.LBB122
 4433 006c 8A000000 		.4byte	.LBE122
 4434 0070 8C000000 		.4byte	.LBB126
 4435 0074 90000000 		.4byte	.LBE126
 4436 0078 92000000 		.4byte	.LBB130
 4437 007c 96000000 		.4byte	.LBE130
 4438 0080 00000000 		.4byte	0
 4439 0084 00000000 		.4byte	0
 4440 0088 90000000 		.4byte	.LBB127
 4441 008c 92000000 		.4byte	.LBE127
 4442 0090 96000000 		.4byte	.LBB131
 4443 0094 AC000000 		.4byte	.LBE131
 4444 0098 00000000 		.4byte	0
 4445 009c 00000000 		.4byte	0
 4446 00a0 08000000 		.4byte	.LBB159
ARM GAS  /tmp/ccZw1gyL.s 			page 79


 4447 00a4 0E000000 		.4byte	.LBE159
 4448 00a8 16000000 		.4byte	.LBB173
 4449 00ac 24000000 		.4byte	.LBE173
 4450 00b0 00000000 		.4byte	0
 4451 00b4 00000000 		.4byte	0
 4452 00b8 0E000000 		.4byte	.LBB164
 4453 00bc 14000000 		.4byte	.LBE164
 4454 00c0 24000000 		.4byte	.LBB174
 4455 00c4 2A000000 		.4byte	.LBE174
 4456 00c8 00000000 		.4byte	0
 4457 00cc 00000000 		.4byte	0
 4458 00d0 30000000 		.4byte	.LBB192
 4459 00d4 32000000 		.4byte	.LBE192
 4460 00d8 38000000 		.4byte	.LBB195
 4461 00dc 3C000000 		.4byte	.LBE195
 4462 00e0 00000000 		.4byte	0
 4463 00e4 00000000 		.4byte	0
 4464 00e8 4A000000 		.4byte	.LBB196
 4465 00ec 52000000 		.4byte	.LBE196
 4466 00f0 56000000 		.4byte	.LBB205
 4467 00f4 64000000 		.4byte	.LBE205
 4468 00f8 00000000 		.4byte	0
 4469 00fc 00000000 		.4byte	0
 4470 0100 12000000 		.4byte	.LBB210
 4471 0104 3C000000 		.4byte	.LBE210
 4472 0108 3E000000 		.4byte	.LBB221
 4473 010c 42000000 		.4byte	.LBE221
 4474 0110 00000000 		.4byte	0
 4475 0114 00000000 		.4byte	0
 4476 0118 2C000000 		.4byte	.LBB215
 4477 011c 2E000000 		.4byte	.LBE215
 4478 0120 30000000 		.4byte	.LBB219
 4479 0124 32000000 		.4byte	.LBE219
 4480 0128 34000000 		.4byte	.LBB220
 4481 012c 36000000 		.4byte	.LBE220
 4482 0130 00000000 		.4byte	0
 4483 0134 00000000 		.4byte	0
 4484 0138 04000000 		.4byte	.LBB222
 4485 013c 06000000 		.4byte	.LBE222
 4486 0140 08000000 		.4byte	.LBB229
 4487 0144 0C000000 		.4byte	.LBE229
 4488 0148 00000000 		.4byte	0
 4489 014c 00000000 		.4byte	0
 4490 0150 10000000 		.4byte	.LBB230
 4491 0154 28000000 		.4byte	.LBE230
 4492 0158 2C000000 		.4byte	.LBB240
 4493 015c 38000000 		.4byte	.LBE240
 4494 0160 00000000 		.4byte	0
 4495 0164 00000000 		.4byte	0
 4496 0168 16000000 		.4byte	.LBB232
 4497 016c 18000000 		.4byte	.LBE232
 4498 0170 1A000000 		.4byte	.LBB235
 4499 0174 1E000000 		.4byte	.LBE235
 4500 0178 00000000 		.4byte	0
 4501 017c 00000000 		.4byte	0
 4502 0180 00000000 		.4byte	.LFB170
 4503 0184 0A000000 		.4byte	.LFE170
ARM GAS  /tmp/ccZw1gyL.s 			page 80


 4504 0188 00000000 		.4byte	.LFB172
 4505 018c C8000000 		.4byte	.LFE172
 4506 0190 00000000 		.4byte	.LFB171
 4507 0194 14000000 		.4byte	.LFE171
 4508 0198 00000000 		.4byte	.LFB173
 4509 019c 30000000 		.4byte	.LFE173
 4510 01a0 00000000 		.4byte	.LFB174
 4511 01a4 20000000 		.4byte	.LFE174
 4512 01a8 00000000 		.4byte	.LFB175
 4513 01ac 64000000 		.4byte	.LFE175
 4514 01b0 00000000 		.4byte	.LFB176
 4515 01b4 50000000 		.4byte	.LFE176
 4516 01b8 00000000 		.4byte	.LFB177
 4517 01bc 54000000 		.4byte	.LFE177
 4518 01c0 00000000 		.4byte	0
 4519 01c4 00000000 		.4byte	0
 4520              		.section	.debug_line,"",%progbits
 4521              	.Ldebug_line0:
 4522 0000 DA040000 		.section	.debug_str,"MS",%progbits,1
 4522      02004B02 
 4522      00000201 
 4522      FB0E0D00 
 4522      01010101 
 4523              	.LASF46:
 4524 0000 63685F74 		.ascii	"ch_threads_list\000"
 4524      68726561 
 4524      64735F6C 
 4524      69737400 
 4525              	.LASF47:
 4526 0010 74687265 		.ascii	"threads_queue_t\000"
 4526      6164735F 
 4526      71756575 
 4526      655F7400 
 4527              	.LASF36:
 4528 0020 705F7761 		.ascii	"p_waiting\000"
 4528      6974696E 
 4528      6700
 4529              	.LASF87:
 4530 002a 77746D74 		.ascii	"wtmtxp\000"
 4530      787000
 4531              	.LASF81:
 4532 0031 746D5F63 		.ascii	"tm_calibration_t\000"
 4532      616C6962 
 4532      72617469 
 4532      6F6E5F74 
 4532      00
 4533              	.LASF115:
 4534 0042 63684D74 		.ascii	"chMtxLock\000"
 4534      784C6F63 
 4534      6B00
 4535              	.LASF96:
 4536 004c 63686172 		.ascii	"char\000"
 4536      00
 4537              	.LASF76:
 4538 0051 72656761 		.ascii	"regarm_t\000"
 4538      726D5F74 
 4538      00
ARM GAS  /tmp/ccZw1gyL.s 			page 81


 4539              	.LASF31:
 4540 005a 705F7072 		.ascii	"p_prio\000"
 4540      696F00
 4541              	.LASF27:
 4542 0061 73797374 		.ascii	"systime_t\000"
 4542      696D655F 
 4542      7400
 4543              	.LASF94:
 4544 006b 6D5F6F77 		.ascii	"m_owner\000"
 4544      6E657200 
 4545              	.LASF90:
 4546 0073 735F7175 		.ascii	"s_queue\000"
 4546      65756500 
 4547              	.LASF65:
 4548 007b 76745F73 		.ascii	"vt_systime\000"
 4548      79737469 
 4548      6D6500
 4549              	.LASF37:
 4550 0086 705F6D73 		.ascii	"p_msgqueue\000"
 4550      67717565 
 4550      756500
 4551              	.LASF0:
 4552 0091 756E7369 		.ascii	"unsigned int\000"
 4552      676E6564 
 4552      20696E74 
 4552      00
 4553              	.LASF44:
 4554 009e 74687265 		.ascii	"threads_list_t\000"
 4554      6164735F 
 4554      6C697374 
 4554      5F7400
 4555              	.LASF7:
 4556 00ad 5F5F696E 		.ascii	"__int32_t\000"
 4556      7433325F 
 4556      7400
 4557              	.LASF84:
 4558 00b7 77746F62 		.ascii	"wtobjp\000"
 4558      6A7000
 4559              	.LASF98:
 4560 00be 706F7274 		.ascii	"port_lock\000"
 4560      5F6C6F63 
 4560      6B00
 4561              	.LASF72:
 4562 00c8 76746C69 		.ascii	"vtlist\000"
 4562      737400
 4563              	.LASF50:
 4564 00cf 63685F72 		.ascii	"ch_ready_list\000"
 4564      65616479 
 4564      5F6C6973 
 4564      7400
 4565              	.LASF74:
 4566 00dd 69646C65 		.ascii	"idle_thread_wa\000"
 4566      5F746872 
 4566      6561645F 
 4566      776100
 4567              	.LASF88:
 4568 00ec 65776D61 		.ascii	"ewmask\000"
ARM GAS  /tmp/ccZw1gyL.s 			page 82


 4568      736B00
 4569              	.LASF48:
 4570 00f3 63685F74 		.ascii	"ch_threads_queue\000"
 4570      68726561 
 4570      64735F71 
 4570      75657565 
 4570      00
 4571              	.LASF55:
 4572 0104 76746675 		.ascii	"vtfunc_t\000"
 4572      6E635F74 
 4572      00
 4573              	.LASF121:
 4574 010d 63685363 		.ascii	"chSchReadyI\000"
 4574      68526561 
 4574      64794900 
 4575              	.LASF91:
 4576 0119 735F636E 		.ascii	"s_cnt\000"
 4576      7400
 4577              	.LASF67:
 4578 011f 63685F73 		.ascii	"ch_system_debug\000"
 4578      79737465 
 4578      6D5F6465 
 4578      62756700 
 4579              	.LASF124:
 4580 012f 63684D74 		.ascii	"chMtxTryLock\000"
 4580      78547279 
 4580      4C6F636B 
 4580      00
 4581              	.LASF17:
 4582 013c 75696E74 		.ascii	"uint32_t\000"
 4582      33325F74 
 4582      00
 4583              	.LASF25:
 4584 0145 6576656E 		.ascii	"eventmask_t\000"
 4584      746D6173 
 4584      6B5F7400 
 4585              	.LASF52:
 4586 0151 725F7072 		.ascii	"r_prio\000"
 4586      696F00
 4587              	.LASF62:
 4588 0158 76745F70 		.ascii	"vt_par\000"
 4588      617200
 4589              	.LASF89:
 4590 015f 63685F73 		.ascii	"ch_semaphore\000"
 4590      656D6170 
 4590      686F7265 
 4590      00
 4591              	.LASF23:
 4592 016c 74707269 		.ascii	"tprio_t\000"
 4592      6F5F7400 
 4593              	.LASF57:
 4594 0174 63685F76 		.ascii	"ch_virtual_timer\000"
 4594      69727475 
 4594      616C5F74 
 4594      696D6572 
 4594      00
 4595              	.LASF13:
ARM GAS  /tmp/ccZw1gyL.s 			page 83


 4596 0185 6C6F6E67 		.ascii	"long long unsigned int\000"
 4596      206C6F6E 
 4596      6720756E 
 4596      7369676E 
 4596      65642069 
 4597              	.LASF113:
 4598 019c 63684D74 		.ascii	"chMtxObjectInit\000"
 4598      784F626A 
 4598      65637449 
 4598      6E697400 
 4599              	.LASF117:
 4600 01ac 6E657770 		.ascii	"newprio\000"
 4600      72696F00 
 4601              	.LASF5:
 4602 01b4 5F5F7569 		.ascii	"__uint16_t\000"
 4602      6E743136 
 4602      5F7400
 4603              	.LASF26:
 4604 01bf 636E745F 		.ascii	"cnt_t\000"
 4604      7400
 4605              	.LASF108:
 4606 01c5 63685379 		.ascii	"chSysUnlock\000"
 4606      73556E6C 
 4606      6F636B00 
 4607              	.LASF100:
 4608 01d1 76616C75 		.ascii	"value\000"
 4608      6500
 4609              	.LASF64:
 4610 01d7 63685F76 		.ascii	"ch_virtual_timers_list\000"
 4610      69727475 
 4610      616C5F74 
 4610      696D6572 
 4610      735F6C69 
 4611              	.LASF28:
 4612 01ee 74687265 		.ascii	"thread_t\000"
 4612      61645F74 
 4612      00
 4613              	.LASF82:
 4614 01f7 7264796D 		.ascii	"rdymsg\000"
 4614      736700
 4615              	.LASF80:
 4616 01fe 6F666673 		.ascii	"offset\000"
 4616      657400
 4617              	.LASF119:
 4618 0205 63684D74 		.ascii	"chMtxUnlockAll\000"
 4618      78556E6C 
 4618      6F636B41 
 4618      6C6C00
 4619              	.LASF101:
 4620 0214 5F426F6F 		.ascii	"_Bool\000"
 4620      6C00
 4621              	.LASF92:
 4622 021a 63685F6D 		.ascii	"ch_mutex\000"
 4622      75746578 
 4622      00
 4623              	.LASF12:
 4624 0223 5F5F7569 		.ascii	"__uint64_t\000"
ARM GAS  /tmp/ccZw1gyL.s 			page 84


 4624      6E743634 
 4624      5F7400
 4625              	.LASF126:
 4626 022e 63685363 		.ascii	"chSchRescheduleS\000"
 4626      68526573 
 4626      63686564 
 4626      756C6553 
 4626      00
 4627              	.LASF107:
 4628 023f 63685379 		.ascii	"chSysLock\000"
 4628      734C6F63 
 4628      6B00
 4629              	.LASF106:
 4630 0249 71756575 		.ascii	"queue_prio_insert\000"
 4630      655F7072 
 4630      696F5F69 
 4630      6E736572 
 4630      7400
 4631              	.LASF60:
 4632 025b 76745F64 		.ascii	"vt_delta\000"
 4632      656C7461 
 4632      00
 4633              	.LASF43:
 4634 0264 74687265 		.ascii	"thread_reference_t\000"
 4634      61645F72 
 4634      65666572 
 4634      656E6365 
 4634      5F7400
 4635              	.LASF104:
 4636 0277 71756575 		.ascii	"queue_notempty\000"
 4636      655F6E6F 
 4636      74656D70 
 4636      747900
 4637              	.LASF21:
 4638 0286 74737461 		.ascii	"tstate_t\000"
 4638      74655F74 
 4638      00
 4639              	.LASF33:
 4640 028f 705F7374 		.ascii	"p_state\000"
 4640      61746500 
 4641              	.LASF14:
 4642 0297 75696E74 		.ascii	"uint8_t\000"
 4642      385F7400 
 4643              	.LASF42:
 4644 029f 705F6D70 		.ascii	"p_mpool\000"
 4644      6F6F6C00 
 4645              	.LASF40:
 4646 02a7 705F6D74 		.ascii	"p_mtxlist\000"
 4646      786C6973 
 4646      7400
 4647              	.LASF45:
 4648 02b1 63685F74 		.ascii	"ch_thread\000"
 4648      68726561 
 4648      6400
 4649              	.LASF66:
 4650 02bb 73797374 		.ascii	"system_debug_t\000"
 4650      656D5F64 
ARM GAS  /tmp/ccZw1gyL.s 			page 85


 4650      65627567 
 4650      5F7400
 4651              	.LASF11:
 4652 02ca 6C6F6E67 		.ascii	"long long int\000"
 4652      206C6F6E 
 4652      6720696E 
 4652      7400
 4653              	.LASF51:
 4654 02d8 725F7175 		.ascii	"r_queue\000"
 4654      65756500 
 4655              	.LASF116:
 4656 02e0 63684D74 		.ascii	"chMtxUnlock\000"
 4656      78556E6C 
 4656      6F636B00 
 4657              	.LASF24:
 4658 02ec 6D73675F 		.ascii	"msg_t\000"
 4658      7400
 4659              	.LASF122:
 4660 02f2 474E5520 		.ascii	"GNU C 4.9.3 20150529 (release) [ARM/embedded-4_9-br"
 4660      4320342E 
 4660      392E3320 
 4660      32303135 
 4660      30353239 
 4661 0325 616E6368 		.ascii	"anch revision 224288] -mcpu=cortex-m3 -mno-thumb-in"
 4661      20726576 
 4661      6973696F 
 4661      6E203232 
 4661      34323838 
 4662 0358 74657277 		.ascii	"terwork -mthumb -ggdb -O2 -fomit-frame-pointer -fal"
 4662      6F726B20 
 4662      2D6D7468 
 4662      756D6220 
 4662      2D676764 
 4663 038b 69676E2D 		.ascii	"ign-functions=16 -ffunction-sections -fdata-section"
 4663      66756E63 
 4663      74696F6E 
 4663      733D3136 
 4663      202D6666 
 4664 03be 73202D66 		.ascii	"s -fno-common\000"
 4664      6E6F2D63 
 4664      6F6D6D6F 
 4664      6E00
 4665              	.LASF78:
 4666 03cc 636F6E74 		.ascii	"context\000"
 4666      65787400 
 4667              	.LASF34:
 4668 03d4 705F666C 		.ascii	"p_flags\000"
 4668      61677300 
 4669              	.LASF56:
 4670 03dc 76697274 		.ascii	"virtual_timer_t\000"
 4670      75616C5F 
 4670      74696D65 
 4670      725F7400 
 4671              	.LASF112:
 4672 03ec 71756575 		.ascii	"queue_fifo_remove\000"
 4672      655F6669 
 4672      666F5F72 
ARM GAS  /tmp/ccZw1gyL.s 			page 86


 4672      656D6F76 
 4672      6500
 4673              	.LASF68:
 4674 03fe 70616E69 		.ascii	"panic_msg\000"
 4674      635F6D73 
 4674      6700
 4675              	.LASF111:
 4676 0408 63684D74 		.ascii	"chMtxQueueNotEmptyS\000"
 4676      78517565 
 4676      75654E6F 
 4676      74456D70 
 4676      74795300 
 4677              	.LASF38:
 4678 041c 705F6D73 		.ascii	"p_msg\000"
 4678      6700
 4679              	.LASF20:
 4680 0422 746D6F64 		.ascii	"tmode_t\000"
 4680      655F7400 
 4681              	.LASF73:
 4682 042a 6D61696E 		.ascii	"mainthread\000"
 4682      74687265 
 4682      616400
 4683              	.LASF15:
 4684 0435 75696E74 		.ascii	"uint16_t\000"
 4684      31365F74 
 4684      00
 4685              	.LASF19:
 4686 043e 7274636E 		.ascii	"rtcnt_t\000"
 4686      745F7400 
 4687              	.LASF110:
 4688 0446 63684D74 		.ascii	"chMtxTryLockS\000"
 4688      78547279 
 4688      4C6F636B 
 4688      5300
 4689              	.LASF41:
 4690 0454 705F7265 		.ascii	"p_realprio\000"
 4690      616C7072 
 4690      696F00
 4691              	.LASF3:
 4692 045f 73686F72 		.ascii	"short int\000"
 4692      7420696E 
 4692      7400
 4693              	.LASF54:
 4694 0469 725F6375 		.ascii	"r_current\000"
 4694      7272656E 
 4694      7400
 4695              	.LASF39:
 4696 0473 705F6570 		.ascii	"p_epending\000"
 4696      656E6469 
 4696      6E6700
 4697              	.LASF93:
 4698 047e 6D5F7175 		.ascii	"m_queue\000"
 4698      65756500 
 4699              	.LASF8:
 4700 0486 6C6F6E67 		.ascii	"long int\000"
 4700      20696E74 
 4700      00
ARM GAS  /tmp/ccZw1gyL.s 			page 87


 4701              	.LASF79:
 4702 048f 706F7274 		.ascii	"port_intctx\000"
 4702      5F696E74 
 4702      63747800 
 4703              	.LASF120:
 4704 049b 49544D5F 		.ascii	"ITM_RxBuffer\000"
 4704      52784275 
 4704      66666572 
 4704      00
 4705              	.LASF70:
 4706 04a8 63685F73 		.ascii	"ch_system\000"
 4706      79737465 
 4706      6D00
 4707              	.LASF102:
 4708 04b2 5F5F7365 		.ascii	"__set_BASEPRI\000"
 4708      745F4241 
 4708      53455052 
 4708      4900
 4709              	.LASF29:
 4710 04c0 705F6E65 		.ascii	"p_next\000"
 4710      787400
 4711              	.LASF18:
 4712 04c7 75696E74 		.ascii	"uint64_t\000"
 4712      36345F74 
 4712      00
 4713              	.LASF32:
 4714 04d0 705F6374 		.ascii	"p_ctx\000"
 4714      7800
 4715              	.LASF71:
 4716 04d6 726C6973 		.ascii	"rlist\000"
 4716      7400
 4717              	.LASF4:
 4718 04dc 5F5F7569 		.ascii	"__uint8_t\000"
 4718      6E74385F 
 4718      7400
 4719              	.LASF105:
 4720 04e6 71756575 		.ascii	"queue_dequeue\000"
 4720      655F6465 
 4720      71756575 
 4720      6500
 4721              	.LASF125:
 4722 04f4 63685363 		.ascii	"chSchGoSleepS\000"
 4722      68476F53 
 4722      6C656570 
 4722      5300
 4723              	.LASF118:
 4724 0502 63684D74 		.ascii	"chMtxUnlockS\000"
 4724      78556E6C 
 4724      6F636B53 
 4724      00
 4725              	.LASF114:
 4726 050f 63684D74 		.ascii	"chMtxLockS\000"
 4726      784C6F63 
 4726      6B5300
 4727              	.LASF30:
 4728 051a 705F7072 		.ascii	"p_prev\000"
 4728      657600
ARM GAS  /tmp/ccZw1gyL.s 			page 88


 4729              	.LASF75:
 4730 0521 73697A65 		.ascii	"sizetype\000"
 4730      74797065 
 4730      00
 4731              	.LASF22:
 4732 052a 74726566 		.ascii	"trefs_t\000"
 4732      735F7400 
 4733              	.LASF10:
 4734 0532 6C6F6E67 		.ascii	"long unsigned int\000"
 4734      20756E73 
 4734      69676E65 
 4734      6420696E 
 4734      7400
 4735              	.LASF49:
 4736 0544 72656164 		.ascii	"ready_list_t\000"
 4736      795F6C69 
 4736      73745F74 
 4736      00
 4737              	.LASF123:
 4738 0551 2F686F6D 		.ascii	"/home/maciek/ChibiOS_16.1.5/os/rt/src/chmtx.c\000"
 4738      652F6D61 
 4738      6369656B 
 4738      2F436869 
 4738      62694F53 
 4739              	.LASF16:
 4740 057f 696E7433 		.ascii	"int32_t\000"
 4740      325F7400 
 4741              	.LASF86:
 4742 0587 77747365 		.ascii	"wtsemp\000"
 4742      6D7000
 4743              	.LASF97:
 4744 058e 6D757465 		.ascii	"mutex_t\000"
 4744      785F7400 
 4745              	.LASF103:
 4746 0596 71756575 		.ascii	"queue_init\000"
 4746      655F696E 
 4746      697400
 4747              	.LASF2:
 4748 05a1 756E7369 		.ascii	"unsigned char\000"
 4748      676E6564 
 4748      20636861 
 4748      7200
 4749              	.LASF9:
 4750 05af 5F5F7569 		.ascii	"__uint32_t\000"
 4750      6E743332 
 4750      5F7400
 4751              	.LASF63:
 4752 05ba 76697274 		.ascii	"virtual_timers_list_t\000"
 4752      75616C5F 
 4752      74696D65 
 4752      72735F6C 
 4752      6973745F 
 4753              	.LASF35:
 4754 05d0 705F7265 		.ascii	"p_refs\000"
 4754      667300
 4755              	.LASF58:
 4756 05d7 76745F6E 		.ascii	"vt_next\000"
ARM GAS  /tmp/ccZw1gyL.s 			page 89


 4756      65787400 
 4757              	.LASF69:
 4758 05df 63685F73 		.ascii	"ch_system_t\000"
 4758      79737465 
 4758      6D5F7400 
 4759              	.LASF85:
 4760 05eb 77747472 		.ascii	"wttrp\000"
 4760      7000
 4761              	.LASF95:
 4762 05f1 6D5F6E65 		.ascii	"m_next\000"
 4762      787400
 4763              	.LASF1:
 4764 05f8 7369676E 		.ascii	"signed char\000"
 4764      65642063 
 4764      68617200 
 4765              	.LASF6:
 4766 0604 73686F72 		.ascii	"short unsigned int\000"
 4766      7420756E 
 4766      7369676E 
 4766      65642069 
 4766      6E7400
 4767              	.LASF53:
 4768 0617 725F6374 		.ascii	"r_ctx\000"
 4768      7800
 4769              	.LASF77:
 4770 061d 73746B61 		.ascii	"stkalign_t\000"
 4770      6C69676E 
 4770      5F7400
 4771              	.LASF109:
 4772 0628 5F5F6675 		.ascii	"__func__\000"
 4772      6E635F5F 
 4772      00
 4773              	.LASF61:
 4774 0631 76745F66 		.ascii	"vt_func\000"
 4774      756E6300 
 4775              	.LASF99:
 4776 0639 706F7274 		.ascii	"port_unlock\000"
 4776      5F756E6C 
 4776      6F636B00 
 4777              	.LASF59:
 4778 0645 76745F70 		.ascii	"vt_prev\000"
 4778      72657600 
 4779              	.LASF83:
 4780 064d 65786974 		.ascii	"exitcode\000"
 4780      636F6465 
 4780      00
 4781              		.ident	"GCC: (GNU Tools for ARM Embedded Processors) 4.9.3 20150529 (release) [ARM/embedded-4_9-br
ARM GAS  /tmp/ccZw1gyL.s 			page 90


DEFINED SYMBOLS
                            *ABS*:00000000 chmtx.c
     /tmp/ccZw1gyL.s:19     .text.chMtxObjectInit:00000000 $t
     /tmp/ccZw1gyL.s:25     .text.chMtxObjectInit:00000000 chMtxObjectInit
     /tmp/ccZw1gyL.s:52     .text.chMtxLockS:00000000 $t
     /tmp/ccZw1gyL.s:58     .text.chMtxLockS:00000000 chMtxLockS
     /tmp/ccZw1gyL.s:329    .text.chMtxLockS:000000c4 $d
     /tmp/ccZw1gyL.s:334    .text.chMtxLock:00000000 $t
     /tmp/ccZw1gyL.s:340    .text.chMtxLock:00000000 chMtxLock
     /tmp/ccZw1gyL.s:390    .text.chMtxTryLock:00000000 $t
     /tmp/ccZw1gyL.s:396    .text.chMtxTryLock:00000000 chMtxTryLock
     /tmp/ccZw1gyL.s:499    .text.chMtxTryLock:0000002c $d
     /tmp/ccZw1gyL.s:504    .text.chMtxTryLockS:00000000 $t
     /tmp/ccZw1gyL.s:510    .text.chMtxTryLockS:00000000 chMtxTryLockS
     /tmp/ccZw1gyL.s:552    .text.chMtxTryLockS:0000001c $d
     /tmp/ccZw1gyL.s:559    .text.chMtxUnlock:00000000 $t
     /tmp/ccZw1gyL.s:565    .text.chMtxUnlock:00000000 chMtxUnlock
     /tmp/ccZw1gyL.s:728    .text.chMtxUnlock:00000060 $d
     /tmp/ccZw1gyL.s:738    .text.chMtxUnlockS:00000000 $t
     /tmp/ccZw1gyL.s:744    .text.chMtxUnlockS:00000000 chMtxUnlockS
     /tmp/ccZw1gyL.s:878    .text.chMtxUnlockS:0000004c $d
     /tmp/ccZw1gyL.s:883    .text.chMtxUnlockAll:00000000 $t
     /tmp/ccZw1gyL.s:889    .text.chMtxUnlockAll:00000000 chMtxUnlockAll
     /tmp/ccZw1gyL.s:1028   .text.chMtxUnlockAll:00000050 $d
                     .debug_frame:00000010 $d

UNDEFINED SYMBOLS
chSchGoSleepS
chSchReadyI
ch
chSchRescheduleS
