ARM GAS  /tmp/ccZw1gyL.s 			page 1


   1              		.syntax unified
   2              		.cpu cortex-m3
   3              		.fpu softvfp
   4              		.eabi_attribute 20, 1
   5              		.eabi_attribute 21, 1
   6              		.eabi_attribute 23, 3
   7              		.eabi_attribute 24, 1
   8              		.eabi_attribute 25, 1
   9              		.eabi_attribute 26, 1
  10              		.eabi_attribute 30, 2
  11              		.eabi_attribute 34, 1
  12              		.eabi_attribute 18, 4
  13              		.thumb
  14              		.file	"chmtx.c"
  15              		.text
  16              	.Ltext0:
  17              		.cfi_sections	.debug_frame
  18              		.section	.text.chMtxObjectInit,"ax",%progbits
  19              		.align	2
  20              		.p2align 4,,15
  21              		.global	chMtxObjectInit
  22              		.thumb
  23              		.thumb_func
  24              		.type	chMtxObjectInit, %function
  25              	chMtxObjectInit:
  26              	.LFB170:
  27              		.file 1 "/home/maciek/ChibiOS_16.1.5/os/rt/src/chmtx.c"
  28              		.loc 1 103 0
  29              		.cfi_startproc
  30              		@ args = 0, pretend = 0, frame = 0
  31              		@ frame_needed = 0, uses_anonymous_args = 0
  32              		@ link register save eliminated.
  33              	.LVL0:
  34              		.loc 1 108 0
  35 0000 0023     		movs	r3, #0
  36              	.LBB103:
  37              	.LBB104:
  38              		.file 2 "/home/maciek/ChibiOS_16.1.5/os/rt/include/chschd.h"
  39              		.loc 2 604 0
  40 0002 0060     		str	r0, [r0]
  41              		.loc 2 605 0
  42 0004 4060     		str	r0, [r0, #4]
  43              	.LBE104:
  44              	.LBE103:
  45              		.loc 1 108 0
  46 0006 8360     		str	r3, [r0, #8]
  47 0008 7047     		bx	lr
  48              		.cfi_endproc
  49              	.LFE170:
  50              		.size	chMtxObjectInit, .-chMtxObjectInit
  51 000a 00BF     		.section	.text.chMtxLockS,"ax",%progbits
  52              		.align	2
  53              		.p2align 4,,15
  54              		.global	chMtxLockS
  55              		.thumb
  56              		.thumb_func
  57              		.type	chMtxLockS, %function
ARM GAS  /tmp/ccZw1gyL.s 			page 2


  58              	chMtxLockS:
  59              	.LFB172:
  60              		.loc 1 139 0
  61              		.cfi_startproc
  62              		@ args = 0, pretend = 0, frame = 0
  63              		@ frame_needed = 0, uses_anonymous_args = 0
  64              	.LVL1:
  65 0000 F8B5     		push	{r3, r4, r5, r6, r7, lr}
  66              		.cfi_def_cfa_offset 24
  67              		.cfi_offset 3, -24
  68              		.cfi_offset 4, -20
  69              		.cfi_offset 5, -16
  70              		.cfi_offset 6, -12
  71              		.cfi_offset 7, -8
  72              		.cfi_offset 14, -4
  73              		.loc 1 146 0
  74 0002 8268     		ldr	r2, [r0, #8]
  75              		.loc 1 140 0
  76 0004 2F4B     		ldr	r3, .L28
  77 0006 1C69     		ldr	r4, [r3, #16]
  78              	.LVL2:
  79              		.loc 1 146 0
  80 0008 002A     		cmp	r2, #0
  81 000a 55D0     		beq	.L3
  82              	.LBB105:
  83              		.loc 1 165 0
  84 000c A168     		ldr	r1, [r4, #8]
  85 000e 9368     		ldr	r3, [r2, #8]
  86 0010 0546     		mov	r5, r0
  87              	.LVL3:
  88 0012 9942     		cmp	r1, r3
  89 0014 06D9     		bls	.L5
  90              	.LVL4:
  91              	.L10:
  92              		.loc 1 170 0
  93 0016 137C     		ldrb	r3, [r2, #16]	@ zero_extendqisi2
  94              		.loc 1 167 0
  95 0018 9160     		str	r1, [r2, #8]
  96              		.loc 1 170 0
  97 001a 062B     		cmp	r3, #6
  98 001c 33D0     		beq	.L6
  99 001e 072B     		cmp	r3, #7
 100 0020 1DD0     		beq	.L7
 101 0022 9BB1     		cbz	r3, .L27
 102              	.LVL5:
 103              	.L5:
 104              	.LBB106:
 105              	.LBB107:
 106              		.loc 2 653 0
 107 0024 2B46     		mov	r3, r5
 108 0026 03E0     		b	.L18
 109              	.LVL6:
 110              	.L17:
 111              		.loc 2 656 0
 112 0028 9968     		ldr	r1, [r3, #8]
 113 002a A268     		ldr	r2, [r4, #8]
 114 002c 9142     		cmp	r1, r2
ARM GAS  /tmp/ccZw1gyL.s 			page 3


 115 002e 02D3     		bcc	.L19
 116              	.L18:
 117              		.loc 2 655 0
 118 0030 1B68     		ldr	r3, [r3]
 119              	.LVL7:
 120              		.loc 2 656 0
 121 0032 9D42     		cmp	r5, r3
 122 0034 F8D1     		bne	.L17
 123              	.L19:
 124              		.loc 2 658 0
 125 0036 5A68     		ldr	r2, [r3, #4]
 126              		.loc 2 657 0
 127 0038 2360     		str	r3, [r4]
 128              		.loc 2 658 0
 129 003a 6260     		str	r2, [r4, #4]
 130              		.loc 2 659 0
 131 003c 1460     		str	r4, [r2]
 132              		.loc 2 660 0
 133 003e 5C60     		str	r4, [r3, #4]
 134              	.LBE107:
 135              	.LBE106:
 136              		.loc 1 213 0
 137 0040 6561     		str	r5, [r4, #20]
 138              		.loc 1 214 0
 139 0042 0620     		movs	r0, #6
 140              	.LBE105:
 141              		.loc 1 236 0
 142 0044 BDE8F840 		pop	{r3, r4, r5, r6, r7, lr}
 143              		.cfi_remember_state
 144              		.cfi_restore 14
 145              		.cfi_restore 7
 146              		.cfi_restore 6
 147              		.cfi_restore 5
 148              		.cfi_restore 4
 149              		.cfi_restore 3
 150              		.cfi_def_cfa_offset 0
 151              	.LVL8:
 152              	.LBB132:
 153              		.loc 1 214 0
 154 0048 FFF7FEBF 		b	chSchGoSleepS
 155              	.LVL9:
 156              	.L27:
 157              		.cfi_restore_state
 158              	.LBB108:
 159              	.LBB109:
 160              		.loc 2 691 0
 161 004c 92E80A00 		ldmia	r2, {r1, r3}
 162 0050 1960     		str	r1, [r3]
 163              	.LBE109:
 164              	.LBE108:
 165              		.loc 1 202 0
 166 0052 1046     		mov	r0, r2
 167              	.LBB111:
 168              	.LBB110:
 169              		.loc 2 692 0
 170 0054 1268     		ldr	r2, [r2]
 171              	.LVL10:
ARM GAS  /tmp/ccZw1gyL.s 			page 4


 172 0056 5360     		str	r3, [r2, #4]
 173              	.LBE110:
 174              	.LBE111:
 175              		.loc 1 202 0
 176 0058 FFF7FEFF 		bl	chSchReadyI
 177              	.LVL11:
 178              		.loc 1 203 0
 179 005c E2E7     		b	.L5
 180              	.LVL12:
 181              	.L7:
 182              	.LBB112:
 183              	.LBB113:
 184              		.loc 2 691 0
 185 005e 1768     		ldr	r7, [r2]
 186 0060 5068     		ldr	r0, [r2, #4]
 187              	.LBE113:
 188              	.LBE112:
 189              		.loc 1 193 0
 190 0062 5669     		ldr	r6, [r2, #20]
 191              	.LVL13:
 192              	.LBB116:
 193              	.LBB114:
 194              		.loc 2 691 0
 195 0064 0760     		str	r7, [r0]
 196              		.loc 2 692 0
 197 0066 1768     		ldr	r7, [r2]
 198              	.LBE114:
 199              	.LBE116:
 200              	.LBB117:
 201              	.LBB118:
 202              		.loc 2 653 0
 203 0068 3346     		mov	r3, r6
 204              	.LBE118:
 205              	.LBE117:
 206              	.LBB120:
 207              	.LBB115:
 208              		.loc 2 692 0
 209 006a 7860     		str	r0, [r7, #4]
 210 006c 02E0     		b	.L15
 211              	.LVL14:
 212              	.L14:
 213              	.LBE115:
 214              	.LBE120:
 215              	.LBB121:
 216              	.LBB119:
 217              		.loc 2 656 0
 218 006e 9868     		ldr	r0, [r3, #8]
 219 0070 8842     		cmp	r0, r1
 220 0072 02D3     		bcc	.L16
 221              	.L15:
 222              		.loc 2 655 0
 223 0074 1B68     		ldr	r3, [r3]
 224              	.LVL15:
 225              		.loc 2 656 0
 226 0076 9E42     		cmp	r6, r3
 227 0078 F9D1     		bne	.L14
 228              	.L16:
ARM GAS  /tmp/ccZw1gyL.s 			page 5


 229              		.loc 2 658 0
 230 007a 5968     		ldr	r1, [r3, #4]
 231              		.loc 2 657 0
 232 007c 1360     		str	r3, [r2]
 233              		.loc 2 658 0
 234 007e 5160     		str	r1, [r2, #4]
 235              		.loc 2 659 0
 236 0080 0A60     		str	r2, [r1]
 237              		.loc 2 660 0
 238 0082 5A60     		str	r2, [r3, #4]
 239 0084 CEE7     		b	.L5
 240              	.LVL16:
 241              	.L6:
 242              	.LBE119:
 243              	.LBE121:
 244              	.LBB122:
 245              	.LBB123:
 246              		.loc 2 691 0
 247 0086 1768     		ldr	r7, [r2]
 248 0088 5068     		ldr	r0, [r2, #4]
 249              	.LBE123:
 250              	.LBE122:
 251              		.loc 1 173 0
 252 008a 5669     		ldr	r6, [r2, #20]
 253              	.LVL17:
 254              	.LBB126:
 255              	.LBB124:
 256              		.loc 2 691 0
 257 008c 0760     		str	r7, [r0]
 258              		.loc 2 692 0
 259 008e 1768     		ldr	r7, [r2]
 260              	.LBE124:
 261              	.LBE126:
 262              	.LBB127:
 263              	.LBB128:
 264              		.loc 2 653 0
 265 0090 3346     		mov	r3, r6
 266              	.LBE128:
 267              	.LBE127:
 268              	.LBB130:
 269              	.LBB125:
 270              		.loc 2 692 0
 271 0092 7860     		str	r0, [r7, #4]
 272 0094 02E0     		b	.L12
 273              	.LVL18:
 274              	.L9:
 275              	.LBE125:
 276              	.LBE130:
 277              	.LBB131:
 278              	.LBB129:
 279              		.loc 2 656 0
 280 0096 9868     		ldr	r0, [r3, #8]
 281 0098 8842     		cmp	r0, r1
 282 009a 02D3     		bcc	.L13
 283              	.L12:
 284              		.loc 2 655 0
 285 009c 1B68     		ldr	r3, [r3]
ARM GAS  /tmp/ccZw1gyL.s 			page 6


 286              	.LVL19:
 287              		.loc 2 656 0
 288 009e 9E42     		cmp	r6, r3
 289 00a0 F9D1     		bne	.L9
 290              	.L13:
 291              		.loc 2 658 0
 292 00a2 5968     		ldr	r1, [r3, #4]
 293              		.loc 2 657 0
 294 00a4 1360     		str	r3, [r2]
 295              		.loc 2 658 0
 296 00a6 5160     		str	r1, [r2, #4]
 297              		.loc 2 659 0
 298 00a8 0A60     		str	r2, [r1]
 299              		.loc 2 660 0
 300 00aa 5A60     		str	r2, [r3, #4]
 301              	.LBE129:
 302              	.LBE131:
 303              		.loc 1 174 0
 304 00ac B268     		ldr	r2, [r6, #8]
 305              	.LVL20:
 306              		.loc 1 165 0
 307 00ae A168     		ldr	r1, [r4, #8]
 308 00b0 9368     		ldr	r3, [r2, #8]
 309              	.LVL21:
 310 00b2 8B42     		cmp	r3, r1
 311 00b4 AFD3     		bcc	.L10
 312 00b6 B5E7     		b	.L5
 313              	.LVL22:
 314              	.L3:
 315              	.LBE132:
 316              		.loc 1 233 0
 317 00b8 E36A     		ldr	r3, [r4, #44]
 318              		.loc 1 232 0
 319 00ba 8460     		str	r4, [r0, #8]
 320              		.loc 1 233 0
 321 00bc C360     		str	r3, [r0, #12]
 322              		.loc 1 234 0
 323 00be E062     		str	r0, [r4, #44]
 324 00c0 F8BD     		pop	{r3, r4, r5, r6, r7, pc}
 325              	.LVL23:
 326              	.L29:
 327 00c2 00BF     		.align	2
 328              	.L28:
 329 00c4 00000000 		.word	ch
 330              		.cfi_endproc
 331              	.LFE172:
 332              		.size	chMtxLockS, .-chMtxLockS
 333              		.section	.text.chMtxLock,"ax",%progbits
 334              		.align	2
 335              		.p2align 4,,15
 336              		.global	chMtxLock
 337              		.thumb
 338              		.thumb_func
 339              		.type	chMtxLock, %function
 340              	chMtxLock:
 341              	.LFB171:
 342              		.loc 1 123 0
ARM GAS  /tmp/ccZw1gyL.s 			page 7


 343              		.cfi_startproc
 344              		@ args = 0, pretend = 0, frame = 0
 345              		@ frame_needed = 0, uses_anonymous_args = 0
 346              	.LVL24:
 347 0000 08B5     		push	{r3, lr}
 348              		.cfi_def_cfa_offset 8
 349              		.cfi_offset 3, -8
 350              		.cfi_offset 14, -4
 351              	.LBB133:
 352              	.LBB134:
 353              	.LBB135:
 354              	.LBB136:
 355              		.file 3 "/home/maciek/ChibiOS_16.1.5/os/ext/CMSIS/include/core_cmFunc.h"
 356              		.loc 3 548 0
 357 0002 2023     		movs	r3, #32
 358              	@ 548 "/home/maciek/ChibiOS_16.1.5/os/ext/CMSIS/include/core_cmFunc.h" 1
 359 0004 83F31188 		MSR basepri, r3
 360              	@ 0 "" 2
 361              		.thumb
 362              	.LBE136:
 363              	.LBE135:
 364              	.LBE134:
 365              	.LBE133:
 366              		.loc 1 126 0
 367 0008 FFF7FEFF 		bl	chMtxLockS
 368              	.LVL25:
 369              	.LBB137:
 370              	.LBB138:
 371              	.LBB139:
 372              	.LBB140:
 373              	.LBB141:
 374              		.loc 3 548 0
 375 000c 0023     		movs	r3, #0
 376              	@ 548 "/home/maciek/ChibiOS_16.1.5/os/ext/CMSIS/include/core_cmFunc.h" 1
 377 000e 83F31188 		MSR basepri, r3
 378              	@ 0 "" 2
 379              		.thumb
 380 0012 08BD     		pop	{r3, pc}
 381              	.LBE141:
 382              	.LBE140:
 383              	.LBE139:
 384              	.LBE138:
 385              	.LBE137:
 386              		.cfi_endproc
 387              	.LFE171:
 388              		.size	chMtxLock, .-chMtxLock
 389              		.section	.text.chMtxTryLock,"ax",%progbits
 390              		.align	2
 391              		.p2align 4,,15
 392              		.global	chMtxTryLock
 393              		.thumb
 394              		.thumb_func
 395              		.type	chMtxTryLock, %function
 396              	chMtxTryLock:
 397              	.LFB173:
 398              		.loc 1 255 0
 399              		.cfi_startproc
ARM GAS  /tmp/ccZw1gyL.s 			page 8


 400              		@ args = 0, pretend = 0, frame = 0
 401              		@ frame_needed = 0, uses_anonymous_args = 0
 402              		@ link register save eliminated.
 403              	.LVL26:
 404              		.loc 1 255 0
 405 0000 0346     		mov	r3, r0
 406              	.LBB155:
 407              	.LBB156:
 408              	.LBB157:
 409              	.LBB158:
 410              		.loc 3 548 0
 411 0002 2022     		movs	r2, #32
 412              	@ 548 "/home/maciek/ChibiOS_16.1.5/os/ext/CMSIS/include/core_cmFunc.h" 1
 413 0004 82F31188 		MSR basepri, r2
 414              	@ 0 "" 2
 415              	.LVL27:
 416              		.thumb
 417              	.LBE158:
 418              	.LBE157:
 419              	.LBE156:
 420              	.LBE155:
 421              	.LBB159:
 422              	.LBB160:
 423              		.loc 1 287 0
 424 0008 8268     		ldr	r2, [r0, #8]
 425              		.loc 1 297 0
 426 000a 0020     		movs	r0, #0
 427              	.LVL28:
 428              		.loc 1 287 0
 429 000c 1AB1     		cbz	r2, .L35
 430              	.LVL29:
 431              	.LBE160:
 432              	.LBE159:
 433              	.LBB164:
 434              	.LBB165:
 435              	.LBB166:
 436              	.LBB167:
 437              	.LBB168:
 438              		.loc 3 548 0
 439 000e 0023     		movs	r3, #0
 440              	.LVL30:
 441              	@ 548 "/home/maciek/ChibiOS_16.1.5/os/ext/CMSIS/include/core_cmFunc.h" 1
 442 0010 83F31188 		MSR basepri, r3
 443              	@ 0 "" 2
 444              		.thumb
 445              	.LBE168:
 446              	.LBE167:
 447              	.LBE166:
 448              	.LBE165:
 449              	.LBE164:
 450              		.loc 1 263 0
 451 0014 7047     		bx	lr
 452              	.LVL31:
 453              	.L35:
 454              	.LBB173:
 455              	.LBB163:
 456              	.LBB161:
ARM GAS  /tmp/ccZw1gyL.s 			page 9


 457              	.LBB162:
 458              		.loc 1 305 0
 459 0016 054A     		ldr	r2, .L36
 460              		.loc 1 307 0
 461 0018 0120     		movs	r0, #1
 462              		.loc 1 305 0
 463 001a 1269     		ldr	r2, [r2, #16]
 464              		.loc 1 306 0
 465 001c D16A     		ldr	r1, [r2, #44]
 466              		.loc 1 305 0
 467 001e 9A60     		str	r2, [r3, #8]
 468              		.loc 1 306 0
 469 0020 D960     		str	r1, [r3, #12]
 470              		.loc 1 307 0
 471 0022 D362     		str	r3, [r2, #44]
 472              	.LVL32:
 473              	.LBE162:
 474              	.LBE161:
 475              	.LBE163:
 476              	.LBE173:
 477              	.LBB174:
 478              	.LBB172:
 479              	.LBB171:
 480              	.LBB170:
 481              	.LBB169:
 482              		.loc 3 548 0
 483 0024 0023     		movs	r3, #0
 484              	.LVL33:
 485              	@ 548 "/home/maciek/ChibiOS_16.1.5/os/ext/CMSIS/include/core_cmFunc.h" 1
 486 0026 83F31188 		MSR basepri, r3
 487              	@ 0 "" 2
 488              		.thumb
 489              	.LBE169:
 490              	.LBE170:
 491              	.LBE171:
 492              	.LBE172:
 493              	.LBE174:
 494              		.loc 1 263 0
 495 002a 7047     		bx	lr
 496              	.L37:
 497              		.align	2
 498              	.L36:
 499 002c 00000000 		.word	ch
 500              		.cfi_endproc
 501              	.LFE173:
 502              		.size	chMtxTryLock, .-chMtxTryLock
 503              		.section	.text.chMtxTryLockS,"ax",%progbits
 504              		.align	2
 505              		.p2align 4,,15
 506              		.global	chMtxTryLockS
 507              		.thumb
 508              		.thumb_func
 509              		.type	chMtxTryLockS, %function
 510              	chMtxTryLockS:
 511              	.LFB174:
 512              		.loc 1 282 0
 513              		.cfi_startproc
ARM GAS  /tmp/ccZw1gyL.s 			page 10


 514              		@ args = 0, pretend = 0, frame = 0
 515              		@ frame_needed = 0, uses_anonymous_args = 0
 516              		@ link register save eliminated.
 517              	.LVL34:
 518              		.loc 1 287 0
 519 0000 8268     		ldr	r2, [r0, #8]
 520              		.loc 1 282 0
 521 0002 0346     		mov	r3, r0
 522              		.loc 1 287 0
 523 0004 0AB1     		cbz	r2, .L41
 524              		.loc 1 297 0
 525 0006 0020     		movs	r0, #0
 526              	.LVL35:
 527              		.loc 1 309 0
 528 0008 7047     		bx	lr
 529              	.LVL36:
 530              	.L41:
 531              	.LBB177:
 532              	.LBB178:
 533              		.loc 1 305 0
 534 000a 044A     		ldr	r2, .L42
 535              		.loc 1 307 0
 536 000c 0120     		movs	r0, #1
 537              	.LVL37:
 538              		.loc 1 305 0
 539 000e 1269     		ldr	r2, [r2, #16]
 540              		.loc 1 306 0
 541 0010 D16A     		ldr	r1, [r2, #44]
 542              		.loc 1 305 0
 543 0012 9A60     		str	r2, [r3, #8]
 544              		.loc 1 306 0
 545 0014 D960     		str	r1, [r3, #12]
 546              		.loc 1 307 0
 547 0016 D362     		str	r3, [r2, #44]
 548 0018 7047     		bx	lr
 549              	.L43:
 550 001a 00BF     		.align	2
 551              	.L42:
 552 001c 00000000 		.word	ch
 553              	.LBE178:
 554              	.LBE177:
 555              		.cfi_endproc
 556              	.LFE174:
 557              		.size	chMtxTryLockS, .-chMtxTryLockS
 558              		.section	.text.chMtxUnlock,"ax",%progbits
 559              		.align	2
 560              		.p2align 4,,15
 561              		.global	chMtxUnlock
 562              		.thumb
 563              		.thumb_func
 564              		.type	chMtxUnlock, %function
 565              	chMtxUnlock:
 566              	.LFB175:
 567              		.loc 1 323 0
 568              		.cfi_startproc
 569              		@ args = 0, pretend = 0, frame = 0
 570              		@ frame_needed = 0, uses_anonymous_args = 0
ARM GAS  /tmp/ccZw1gyL.s 			page 11


 571              	.LVL38:
 572              		.loc 1 324 0
 573 0000 174B     		ldr	r3, .L55
 574              		.loc 1 323 0
 575 0002 70B5     		push	{r4, r5, r6, lr}
 576              		.cfi_def_cfa_offset 16
 577              		.cfi_offset 4, -16
 578              		.cfi_offset 5, -12
 579              		.cfi_offset 6, -8
 580              		.cfi_offset 14, -4
 581              		.loc 1 324 0
 582 0004 1D69     		ldr	r5, [r3, #16]
 583              	.LVL39:
 584              	.LBB179:
 585              	.LBB180:
 586              	.LBB181:
 587              	.LBB182:
 588              		.loc 3 548 0
 589 0006 2023     		movs	r3, #32
 590              	@ 548 "/home/maciek/ChibiOS_16.1.5/os/ext/CMSIS/include/core_cmFunc.h" 1
 591 0008 83F31188 		MSR basepri, r3
 592              	@ 0 "" 2
 593              		.thumb
 594              	.LBE182:
 595              	.LBE181:
 596              	.LBE180:
 597              	.LBE179:
 598              	.LBB183:
 599              	.LBB184:
 600              	.LBB185:
 601              	.LBB186:
 602              		.loc 2 631 0
 603 000c 0468     		ldr	r4, [r0]
 604              	.LBE186:
 605              	.LBE185:
 606              	.LBE184:
 607              	.LBE183:
 608              		.loc 1 344 0
 609 000e C368     		ldr	r3, [r0, #12]
 610              		.loc 1 347 0
 611 0010 A042     		cmp	r0, r4
 612              		.loc 1 344 0
 613 0012 EB62     		str	r3, [r5, #44]
 614              	.LVL40:
 615              		.loc 1 347 0
 616 0014 1DD0     		beq	.L45
 617              	.LBB187:
 618              		.loc 1 352 0
 619 0016 296B     		ldr	r1, [r5, #48]
 620              	.LVL41:
 621              		.loc 1 354 0
 622 0018 4BB1     		cbz	r3, .L46
 623              	.L48:
 624              	.LVL42:
 625              	.LBB188:
 626              	.LBB189:
 627              	.LBB190:
ARM GAS  /tmp/ccZw1gyL.s 			page 12


 628              	.LBB191:
 629              		.loc 2 631 0
 630 001a 1A68     		ldr	r2, [r3]
 631              	.LBE191:
 632              	.LBE190:
 633              	.LBE189:
 634              	.LBE188:
 635              		.loc 1 358 0
 636 001c 9342     		cmp	r3, r2
 637 001e 03D0     		beq	.L47
 638              		.loc 1 359 0 discriminator 1
 639 0020 9268     		ldr	r2, [r2, #8]
 640 0022 9142     		cmp	r1, r2
 641 0024 38BF     		it	cc
 642 0026 1146     		movcc	r1, r2
 643              	.LVL43:
 644              	.L47:
 645              		.loc 1 362 0
 646 0028 DB68     		ldr	r3, [r3, #12]
 647              	.LVL44:
 648              		.loc 1 354 0
 649 002a 002B     		cmp	r3, #0
 650 002c F5D1     		bne	.L48
 651              	.L46:
 652 002e 0346     		mov	r3, r0
 653              	.LVL45:
 654              	.LBB192:
 655              	.LBB193:
 656              		.loc 2 674 0
 657 0030 2268     		ldr	r2, [r4]
 658              	.LBE193:
 659              	.LBE192:
 660              		.loc 1 376 0
 661 0032 E66A     		ldr	r6, [r4, #44]
 662              		.loc 1 383 0
 663 0034 2046     		mov	r0, r4
 664              	.LVL46:
 665              		.loc 1 367 0
 666 0036 A960     		str	r1, [r5, #8]
 667              	.LVL47:
 668              	.LBB195:
 669              	.LBB194:
 670              		.loc 2 674 0
 671 0038 1A60     		str	r2, [r3]
 672              		.loc 2 675 0
 673 003a 5360     		str	r3, [r2, #4]
 674              	.LBE194:
 675              	.LBE195:
 676              		.loc 1 375 0
 677 003c 9C60     		str	r4, [r3, #8]
 678              		.loc 1 376 0
 679 003e DE60     		str	r6, [r3, #12]
 680              		.loc 1 377 0
 681 0040 E362     		str	r3, [r4, #44]
 682              		.loc 1 383 0
 683 0042 FFF7FEFF 		bl	chSchReadyI
 684              	.LVL48:
ARM GAS  /tmp/ccZw1gyL.s 			page 13


 685              		.loc 1 384 0
 686 0046 FFF7FEFF 		bl	chSchRescheduleS
 687              	.LVL49:
 688              	.LBE187:
 689              	.LBB196:
 690              	.LBB197:
 691              	.LBB198:
 692              	.LBB199:
 693              	.LBB200:
 694              		.loc 3 548 0
 695 004a 0023     		movs	r3, #0
 696              	@ 548 "/home/maciek/ChibiOS_16.1.5/os/ext/CMSIS/include/core_cmFunc.h" 1
 697 004c 83F31188 		MSR basepri, r3
 698              	@ 0 "" 2
 699              		.thumb
 700 0050 70BD     		pop	{r4, r5, r6, pc}
 701              	.LVL50:
 702              	.L45:
 703              	.LBE200:
 704              	.LBE199:
 705              	.LBE198:
 706              	.LBE197:
 707              	.LBE196:
 708              		.loc 1 387 0
 709 0052 0023     		movs	r3, #0
 710 0054 8360     		str	r3, [r0, #8]
 711              	.LVL51:
 712              	.LBB205:
 713              	.LBB204:
 714              	.LBB203:
 715              	.LBB202:
 716              	.LBB201:
 717              		.loc 3 548 0
 718 0056 0023     		movs	r3, #0
 719              	@ 548 "/home/maciek/ChibiOS_16.1.5/os/ext/CMSIS/include/core_cmFunc.h" 1
 720 0058 83F31188 		MSR basepri, r3
 721              	@ 0 "" 2
 722              		.thumb
 723 005c 70BD     		pop	{r4, r5, r6, pc}
 724              	.LVL52:
 725              	.L56:
 726 005e 00BF     		.align	2
 727              	.L55:
 728 0060 00000000 		.word	ch
 729              	.LBE201:
 730              	.LBE202:
 731              	.LBE203:
 732              	.LBE204:
 733              	.LBE205:
 734              		.cfi_endproc
 735              	.LFE175:
 736              		.size	chMtxUnlock, .-chMtxUnlock
 737              		.section	.text.chMtxUnlockS,"ax",%progbits
 738              		.align	2
 739              		.p2align 4,,15
 740              		.global	chMtxUnlockS
 741              		.thumb
ARM GAS  /tmp/ccZw1gyL.s 			page 14


 742              		.thumb_func
 743              		.type	chMtxUnlockS, %function
 744              	chMtxUnlockS:
 745              	.LFB176:
 746              		.loc 1 410 0
 747              		.cfi_startproc
 748              		@ args = 0, pretend = 0, frame = 0
 749              		@ frame_needed = 0, uses_anonymous_args = 0
 750              		@ link register save eliminated.
 751              	.LVL53:
 752 0000 30B4     		push	{r4, r5}
 753              		.cfi_def_cfa_offset 8
 754              		.cfi_offset 4, -8
 755              		.cfi_offset 5, -4
 756              		.loc 1 410 0
 757 0002 0446     		mov	r4, r0
 758              		.loc 1 411 0
 759 0004 114A     		ldr	r2, .L67
 760              	.LBB206:
 761              	.LBB207:
 762              	.LBB208:
 763              	.LBB209:
 764              		.loc 2 631 0
 765 0006 2568     		ldr	r5, [r4]
 766              	.LBE209:
 767              	.LBE208:
 768              	.LBE207:
 769              	.LBE206:
 770              		.loc 1 430 0
 771 0008 C368     		ldr	r3, [r0, #12]
 772              		.loc 1 411 0
 773 000a 1069     		ldr	r0, [r2, #16]
 774              	.LVL54:
 775              		.loc 1 433 0
 776 000c AC42     		cmp	r4, r5
 777              		.loc 1 430 0
 778 000e C362     		str	r3, [r0, #44]
 779              	.LVL55:
 780              		.loc 1 433 0
 781 0010 17D0     		beq	.L58
 782              	.LBB210:
 783              		.loc 1 438 0
 784 0012 016B     		ldr	r1, [r0, #48]
 785              	.LVL56:
 786              		.loc 1 440 0
 787 0014 4BB1     		cbz	r3, .L59
 788              	.L61:
 789              	.LVL57:
 790              	.LBB211:
 791              	.LBB212:
 792              	.LBB213:
 793              	.LBB214:
 794              		.loc 2 631 0
 795 0016 1A68     		ldr	r2, [r3]
 796              	.LBE214:
 797              	.LBE213:
 798              	.LBE212:
ARM GAS  /tmp/ccZw1gyL.s 			page 15


 799              	.LBE211:
 800              		.loc 1 444 0
 801 0018 9342     		cmp	r3, r2
 802 001a 03D0     		beq	.L60
 803              		.loc 1 445 0 discriminator 1
 804 001c 9268     		ldr	r2, [r2, #8]
 805 001e 9142     		cmp	r1, r2
 806 0020 38BF     		it	cc
 807 0022 1146     		movcc	r1, r2
 808              	.LVL58:
 809              	.L60:
 810              		.loc 1 448 0
 811 0024 DB68     		ldr	r3, [r3, #12]
 812              	.LVL59:
 813              		.loc 1 440 0
 814 0026 002B     		cmp	r3, #0
 815 0028 F5D1     		bne	.L61
 816              	.L59:
 817              		.loc 1 462 0
 818 002a EA6A     		ldr	r2, [r5, #44]
 819              	.LBB215:
 820              	.LBB216:
 821              		.loc 2 674 0
 822 002c 2B68     		ldr	r3, [r5]
 823              	.LVL60:
 824              	.LBE216:
 825              	.LBE215:
 826              		.loc 1 453 0
 827 002e 8160     		str	r1, [r0, #8]
 828              	.LVL61:
 829              	.LBB219:
 830              	.LBB217:
 831              		.loc 2 674 0
 832 0030 2360     		str	r3, [r4]
 833              	.LBE217:
 834              	.LBE219:
 835              		.loc 1 464 0
 836 0032 2846     		mov	r0, r5
 837              	.LVL62:
 838              	.LBB220:
 839              	.LBB218:
 840              		.loc 2 675 0
 841 0034 5C60     		str	r4, [r3, #4]
 842              	.LBE218:
 843              	.LBE220:
 844              		.loc 1 461 0
 845 0036 A560     		str	r5, [r4, #8]
 846              		.loc 1 462 0
 847 0038 E260     		str	r2, [r4, #12]
 848              		.loc 1 463 0
 849 003a EC62     		str	r4, [r5, #44]
 850              	.LBE210:
 851              		.loc 1 472 0
 852 003c 30BC     		pop	{r4, r5}
 853              		.cfi_remember_state
 854              		.cfi_restore 5
 855              		.cfi_restore 4
ARM GAS  /tmp/ccZw1gyL.s 			page 16


 856              		.cfi_def_cfa_offset 0
 857              	.LVL63:
 858              	.LBB221:
 859              		.loc 1 464 0
 860 003e FFF7FEBF 		b	chSchReadyI
 861              	.LVL64:
 862              	.L58:
 863              		.cfi_restore_state
 864              	.LBE221:
 865              		.loc 1 467 0
 866 0042 0023     		movs	r3, #0
 867 0044 A360     		str	r3, [r4, #8]
 868              		.loc 1 472 0
 869 0046 30BC     		pop	{r4, r5}
 870              		.cfi_restore 5
 871              		.cfi_restore 4
 872              		.cfi_def_cfa_offset 0
 873              	.LVL65:
 874 0048 7047     		bx	lr
 875              	.L68:
 876 004a 00BF     		.align	2
 877              	.L67:
 878 004c 00000000 		.word	ch
 879              		.cfi_endproc
 880              	.LFE176:
 881              		.size	chMtxUnlockS, .-chMtxUnlockS
 882              		.section	.text.chMtxUnlockAll,"ax",%progbits
 883              		.align	2
 884              		.p2align 4,,15
 885              		.global	chMtxUnlockAll
 886              		.thumb
 887              		.thumb_func
 888              		.type	chMtxUnlockAll, %function
 889              	chMtxUnlockAll:
 890              	.LFB177:
 891              		.loc 1 485 0
 892              		.cfi_startproc
 893              		@ args = 0, pretend = 0, frame = 0
 894              		@ frame_needed = 0, uses_anonymous_args = 0
 895              		.loc 1 486 0
 896 0000 134A     		ldr	r2, .L81
 897              		.loc 1 485 0
 898 0002 70B5     		push	{r4, r5, r6, lr}
 899              		.cfi_def_cfa_offset 16
 900              		.cfi_offset 4, -16
 901              		.cfi_offset 5, -12
 902              		.cfi_offset 6, -8
 903              		.cfi_offset 14, -4
 904              	.LBB222:
 905              	.LBB223:
 906              	.LBB224:
 907              	.LBB225:
 908              		.loc 3 548 0
 909 0004 2023     		movs	r3, #32
 910              	.LBE225:
 911              	.LBE224:
 912              	.LBE223:
ARM GAS  /tmp/ccZw1gyL.s 			page 17


 913              	.LBE222:
 914              		.loc 1 486 0
 915 0006 1469     		ldr	r4, [r2, #16]
 916              	.LVL66:
 917              	.LBB229:
 918              	.LBB228:
 919              	.LBB227:
 920              	.LBB226:
 921              		.loc 3 548 0
 922              	@ 548 "/home/maciek/ChibiOS_16.1.5/os/ext/CMSIS/include/core_cmFunc.h" 1
 923 0008 83F31188 		MSR basepri, r3
 924              	@ 0 "" 2
 925              		.thumb
 926              	.LBE226:
 927              	.LBE227:
 928              	.LBE228:
 929              	.LBE229:
 930              		.loc 1 489 0
 931 000c E36A     		ldr	r3, [r4, #44]
 932 000e D3B1     		cbz	r3, .L70
 933              	.LBB230:
 934              		.loc 1 507 0
 935 0010 0026     		movs	r6, #0
 936 0012 0BE0     		b	.L73
 937              	.LVL67:
 938              	.L80:
 939              	.LBB231:
 940              		.loc 1 499 0
 941 0014 D56A     		ldr	r5, [r2, #44]
 942              	.LBB232:
 943              	.LBB233:
 944              		.loc 2 674 0
 945 0016 1168     		ldr	r1, [r2]
 946              	.LBE233:
 947              	.LBE232:
 948              		.loc 1 501 0
 949 0018 1046     		mov	r0, r2
 950              	.LBB235:
 951              	.LBB234:
 952              		.loc 2 674 0
 953 001a 1960     		str	r1, [r3]
 954              		.loc 2 675 0
 955 001c 4B60     		str	r3, [r1, #4]
 956              	.LBE234:
 957              	.LBE235:
 958              		.loc 1 498 0
 959 001e 9A60     		str	r2, [r3, #8]
 960              		.loc 1 499 0
 961 0020 DD60     		str	r5, [r3, #12]
 962              		.loc 1 500 0
 963 0022 D362     		str	r3, [r2, #44]
 964              		.loc 1 501 0
 965 0024 FFF7FEFF 		bl	chSchReadyI
 966              	.LVL68:
 967              	.LBE231:
 968              	.LBE230:
 969              		.loc 1 509 0
ARM GAS  /tmp/ccZw1gyL.s 			page 18


 970 0028 E36A     		ldr	r3, [r4, #44]
 971 002a 43B1     		cbz	r3, .L79
 972              	.L73:
 973              	.LVL69:
 974              	.LBB240:
 975              	.LBB236:
 976              	.LBB237:
 977              	.LBB238:
 978              	.LBB239:
 979              		.loc 2 631 0
 980 002c 1A68     		ldr	r2, [r3]
 981              	.LVL70:
 982              	.LBE239:
 983              	.LBE238:
 984              	.LBE237:
 985              	.LBE236:
 986              		.loc 1 492 0
 987 002e D968     		ldr	r1, [r3, #12]
 988              		.loc 1 493 0
 989 0030 9342     		cmp	r3, r2
 990              		.loc 1 492 0
 991 0032 E162     		str	r1, [r4, #44]
 992              	.LVL71:
 993              		.loc 1 493 0
 994 0034 EED1     		bne	.L80
 995              		.loc 1 507 0
 996 0036 9E60     		str	r6, [r3, #8]
 997              	.LBE240:
 998              		.loc 1 509 0
 999 0038 E36A     		ldr	r3, [r4, #44]
 1000              	.LVL72:
 1001 003a 002B     		cmp	r3, #0
 1002 003c F6D1     		bne	.L73
 1003              	.LVL73:
 1004              	.L79:
 1005              		.loc 1 510 0
 1006 003e 236B     		ldr	r3, [r4, #48]
 1007 0040 A360     		str	r3, [r4, #8]
 1008              		.loc 1 511 0
 1009 0042 FFF7FEFF 		bl	chSchRescheduleS
 1010              	.LVL74:
 1011              	.L70:
 1012              	.LBB241:
 1013              	.LBB242:
 1014              	.LBB243:
 1015              	.LBB244:
 1016              	.LBB245:
 1017              		.loc 3 548 0
 1018 0046 0023     		movs	r3, #0
 1019              	@ 548 "/home/maciek/ChibiOS_16.1.5/os/ext/CMSIS/include/core_cmFunc.h" 1
 1020 0048 83F31188 		MSR basepri, r3
 1021              	@ 0 "" 2
 1022              		.thumb
 1023 004c 70BD     		pop	{r4, r5, r6, pc}
 1024              	.LVL75:
 1025              	.L82:
 1026 004e 00BF     		.align	2
ARM GAS  /tmp/ccZw1gyL.s 			page 19


 1027              	.L81:
 1028 0050 00000000 		.word	ch
 1029              	.LBE245:
 1030              	.LBE244:
 1031              	.LBE243:
 1032              	.LBE242:
 1033              	.LBE241:
 1034              		.cfi_endproc
 1035              	.LFE177:
 1036              		.size	chMtxUnlockAll, .-chMtxUnlockAll
 1037              		.text
 1038              	.Letext0:
 1039              		.file 4 "/opt/stm32/gcc/gcc-arm-none-eabi-4_9-2015q2/arm-none-eabi/include/machine/_default_types.
 1040              		.file 5 "/opt/stm32/gcc/gcc-arm-none-eabi-4_9-2015q2/arm-none-eabi/include/sys/_stdint.h"
 1041              		.file 6 "/home/maciek/ChibiOS_16.1.5/os/rt/ports/ARMCMx/compilers/GCC/chtypes.h"
 1042              		.file 7 "/home/maciek/ChibiOS_16.1.5/os/rt/include/chsystypes.h"
 1043              		.file 8 "/home/maciek/ChibiOS_16.1.5/os/rt/ports/ARMCMx/chcore.h"
 1044              		.file 9 "/home/maciek/ChibiOS_16.1.5/os/rt/ports/ARMCMx/chcore_v7m.h"
 1045              		.file 10 "/home/maciek/ChibiOS_16.1.5/os/rt/include/chtm.h"
 1046              		.file 11 "/home/maciek/ChibiOS_16.1.5/os/rt/include/chsem.h"
 1047              		.file 12 "/home/maciek/ChibiOS_16.1.5/os/rt/include/chmtx.h"
 1048              		.file 13 "/home/maciek/ChibiOS_16.1.5/os/rt/include/chsys.h"
 1049              		.file 14 "/home/maciek/ChibiOS_16.1.5/os/ext/CMSIS/include/core_cm3.h"