ARM GAS  /tmp/ccHmBCIp.s 			page 1


   1              		.syntax unified
   2              		.cpu cortex-m3
   3              		.fpu softvfp
   4              		.eabi_attribute 20, 1
   5              		.eabi_attribute 21, 1
   6              		.eabi_attribute 23, 3
   7              		.eabi_attribute 24, 1
   8              		.eabi_attribute 25, 1
   9              		.eabi_attribute 26, 1
  10              		.eabi_attribute 30, 2
  11              		.eabi_attribute 34, 1
  12              		.eabi_attribute 18, 4
  13              		.thumb
  14              		.file	"chschd.c"
  15              		.text
  16              	.Ltext0:
  17              		.cfi_sections	.debug_frame
  18              		.section	.text.wakeup,"ax",%progbits
  19              		.align	2
  20              		.p2align 4,,15
  21              		.thumb
  22              		.thumb_func
  23              		.type	wakeup, %function
  24              	wakeup:
  25              	.LFB173:
  26              		.file 1 "/home/maciek/ChibiOS_16.1.5/os/rt/src/chschd.c"
  27              		.loc 1 275 0
  28              		.cfi_startproc
  29              		@ args = 0, pretend = 0, frame = 0
  30              		@ frame_needed = 0, uses_anonymous_args = 0
  31              		@ link register save eliminated.
  32              	.LVL0:
  33 0000 10B4     		push	{r4}
  34              		.cfi_def_cfa_offset 4
  35              		.cfi_offset 4, -4
  36              	.LBB128:
  37              	.LBB129:
  38              	.LBB130:
  39              	.LBB131:
  40              	.LBB132:
  41              		.file 2 "/home/maciek/ChibiOS_16.1.5/os/ext/CMSIS/include/core_cmFunc.h"
  42              		.loc 2 548 0
  43 0002 2023     		movs	r3, #32
  44              	@ 548 "/home/maciek/ChibiOS_16.1.5/os/ext/CMSIS/include/core_cmFunc.h" 1
  45 0004 83F31188 		MSR basepri, r3
  46              	@ 0 "" 2
  47              		.thumb
  48              	.LBE132:
  49              	.LBE131:
  50              	.LBE130:
  51              	.LBE129:
  52              	.LBE128:
  53              		.loc 1 279 0
  54 0008 037C     		ldrb	r3, [r0, #16]	@ zero_extendqisi2
  55 000a 072B     		cmp	r3, #7
  56 000c 0ED8     		bhi	.L2
  57 000e DFE803F0 		tbb	[pc, r3]
ARM GAS  /tmp/ccHmBCIp.s 			page 2


  58              	.L4:
  59 0012 27       		.byte	(.L3-.L4)/2
  60 0013 0D       		.byte	(.L2-.L4)/2
  61 0014 0D       		.byte	(.L2-.L4)/2
  62 0015 23       		.byte	(.L5-.L4)/2
  63 0016 08       		.byte	(.L6-.L4)/2
  64 0017 04       		.byte	(.L7-.L4)/2
  65 0018 0D       		.byte	(.L2-.L4)/2
  66 0019 08       		.byte	(.L6-.L4)/2
  67              		.p2align 1
  68              	.L7:
  69              		.loc 1 290 0
  70 001a 4269     		ldr	r2, [r0, #20]
  71              	.LVL1:
  72              	.LBB133:
  73              	.LBB134:
  74              		.file 3 "/home/maciek/ChibiOS_16.1.5/os/rt/include/chsem.h"
  75              		.loc 3 138 0
  76 001c 9368     		ldr	r3, [r2, #8]
  77 001e 0133     		adds	r3, r3, #1
  78 0020 9360     		str	r3, [r2, #8]
  79              	.LVL2:
  80              	.L6:
  81              	.LBE134:
  82              	.LBE133:
  83              	.LBB135:
  84              	.LBB136:
  85              		.file 4 "/home/maciek/ChibiOS_16.1.5/os/rt/include/chschd.h"
  86              		.loc 4 691 0
  87 0022 90E80C00 		ldmia	r0, {r2, r3}
  88 0026 1A60     		str	r2, [r3]
  89              		.loc 4 692 0
  90 0028 0268     		ldr	r2, [r0]
  91 002a 5360     		str	r3, [r2, #4]
  92              	.LVL3:
  93              	.L2:
  94              	.LBE136:
  95              	.LBE135:
  96              		.loc 1 304 0
  97 002c 4FF0FF34 		mov	r4, #-1
  98              	.LBB137:
  99              	.LBB138:
 100              		.loc 1 227 0
 101 0030 0022     		movs	r2, #0
 102 0032 8168     		ldr	r1, [r0, #8]
 103              	.LBE138:
 104              	.LBE137:
 105              	.LBB140:
 106              	.LBB141:
 107              	.LBB142:
 108              	.LBB143:
 109              		.loc 1 228 0
 110 0034 0D4B     		ldr	r3, .L13
 111              	.LBE143:
 112              	.LBE142:
 113              	.LBE141:
 114              	.LBE140:
ARM GAS  /tmp/ccHmBCIp.s 			page 3


 115              		.loc 1 304 0
 116 0036 4461     		str	r4, [r0, #20]
 117              	.LVL4:
 118              	.LBB159:
 119              	.LBB139:
 120              		.loc 1 227 0
 121 0038 0274     		strb	r2, [r0, #16]
 122              	.LVL5:
 123              	.L9:
 124              	.LBE139:
 125              	.LBE159:
 126              	.LBB160:
 127              	.LBB158:
 128              	.LBB146:
 129              	.LBB144:
 130              		.loc 1 230 0
 131 003a 1B68     		ldr	r3, [r3]
 132              	.LVL6:
 133              		.loc 1 231 0
 134 003c 9A68     		ldr	r2, [r3, #8]
 135 003e 8A42     		cmp	r2, r1
 136 0040 FBD2     		bcs	.L9
 137              		.loc 1 234 0
 138 0042 5A68     		ldr	r2, [r3, #4]
 139              	.LBE144:
 140              	.LBE146:
 141              	.LBB147:
 142              	.LBB148:
 143              	.LBB149:
 144              	.LBB150:
 145              	.LBB151:
 146              		.loc 2 548 0
 147 0044 0021     		movs	r1, #0
 148              	.LBE151:
 149              	.LBE150:
 150              	.LBE149:
 151              	.LBE148:
 152              	.LBE147:
 153              	.LBB156:
 154              	.LBB145:
 155              		.loc 1 233 0
 156 0046 0360     		str	r3, [r0]
 157              		.loc 1 234 0
 158 0048 4260     		str	r2, [r0, #4]
 159              		.loc 1 235 0
 160 004a 1060     		str	r0, [r2]
 161              		.loc 1 236 0
 162 004c 5860     		str	r0, [r3, #4]
 163              	.LVL7:
 164              	.LBE145:
 165              	.LBE156:
 166              	.LBB157:
 167              	.LBB155:
 168              	.LBB154:
 169              	.LBB153:
 170              	.LBB152:
 171              		.loc 2 548 0
ARM GAS  /tmp/ccHmBCIp.s 			page 4


 172              	@ 548 "/home/maciek/ChibiOS_16.1.5/os/ext/CMSIS/include/core_cmFunc.h" 1
 173 004e 81F31188 		MSR basepri, r1
 174              	@ 0 "" 2
 175              		.thumb
 176              	.LBE152:
 177              	.LBE153:
 178              	.LBE154:
 179              	.LBE155:
 180              	.LBE157:
 181              	.LBE158:
 182              	.LBE160:
 183              		.loc 1 307 0
 184 0052 5DF8044B 		ldr	r4, [sp], #4
 185              		.cfi_remember_state
 186              		.cfi_restore 4
 187              		.cfi_def_cfa_offset 0
 188 0056 7047     		bx	lr
 189              	.LVL8:
 190              	.L5:
 191              		.cfi_restore_state
 192              		.loc 1 286 0
 193 0058 4369     		ldr	r3, [r0, #20]
 194 005a 0022     		movs	r2, #0
 195 005c 1A60     		str	r2, [r3]
 196              		.loc 1 287 0
 197 005e E5E7     		b	.L2
 198              	.L3:
 199              	.LVL9:
 200              	.LBB161:
 201              	.LBB162:
 202              	.LBB163:
 203              	.LBB164:
 204              	.LBB165:
 205              		.loc 2 548 0
 206 0060 0023     		movs	r3, #0
 207              	@ 548 "/home/maciek/ChibiOS_16.1.5/os/ext/CMSIS/include/core_cmFunc.h" 1
 208 0062 83F31188 		MSR basepri, r3
 209              	@ 0 "" 2
 210              		.thumb
 211              	.LBE165:
 212              	.LBE164:
 213              	.LBE163:
 214              	.LBE162:
 215              	.LBE161:
 216              		.loc 1 307 0
 217 0066 5DF8044B 		ldr	r4, [sp], #4
 218              		.cfi_restore 4
 219              		.cfi_def_cfa_offset 0
 220 006a 7047     		bx	lr
 221              	.L14:
 222              		.align	2
 223              	.L13:
 224 006c 00000000 		.word	.LANCHOR0
 225              		.cfi_endproc
 226              	.LFE173:
 227              		.size	wakeup, .-wakeup
 228              		.section	.text._scheduler_init,"ax",%progbits
ARM GAS  /tmp/ccHmBCIp.s 			page 5


 229              		.align	2
 230              		.p2align 4,,15
 231              		.global	_scheduler_init
 232              		.thumb
 233              		.thumb_func
 234              		.type	_scheduler_init, %function
 235              	_scheduler_init:
 236              	.LFB170:
 237              		.loc 1 65 0
 238              		.cfi_startproc
 239              		@ args = 0, pretend = 0, frame = 0
 240              		@ frame_needed = 0, uses_anonymous_args = 0
 241              		@ link register save eliminated.
 242              	.LVL10:
 243              	.LBB166:
 244              	.LBB167:
 245              		.loc 4 604 0
 246 0000 024B     		ldr	r3, .L16
 247              	.LBE167:
 248              	.LBE166:
 249              		.loc 1 68 0
 250 0002 0022     		movs	r2, #0
 251              	.LBB169:
 252              	.LBB168:
 253              		.loc 4 604 0
 254 0004 1B60     		str	r3, [r3]
 255              		.loc 4 605 0
 256 0006 5B60     		str	r3, [r3, #4]
 257              	.LBE168:
 258              	.LBE169:
 259              		.loc 1 68 0
 260 0008 9A60     		str	r2, [r3, #8]
 261 000a 7047     		bx	lr
 262              	.L17:
 263              		.align	2
 264              	.L16:
 265 000c 00000000 		.word	.LANCHOR0
 266              		.cfi_endproc
 267              	.LFE170:
 268              		.size	_scheduler_init, .-_scheduler_init
 269              		.section	.text.chSchReadyI,"ax",%progbits
 270              		.align	2
 271              		.p2align 4,,15
 272              		.global	chSchReadyI
 273              		.thumb
 274              		.thumb_func
 275              		.type	chSchReadyI, %function
 276              	chSchReadyI:
 277              	.LFB171:
 278              		.loc 1 218 0
 279              		.cfi_startproc
 280              		@ args = 0, pretend = 0, frame = 0
 281              		@ frame_needed = 0, uses_anonymous_args = 0
 282              		@ link register save eliminated.
 283              	.LVL11:
 284 0000 10B4     		push	{r4}
 285              		.cfi_def_cfa_offset 4
ARM GAS  /tmp/ccHmBCIp.s 			page 6


 286              		.cfi_offset 4, -4
 287              		.loc 1 218 0
 288 0002 0446     		mov	r4, r0
 289              		.loc 1 227 0
 290 0004 0022     		movs	r2, #0
 291 0006 8168     		ldr	r1, [r0, #8]
 292              		.loc 1 228 0
 293 0008 074B     		ldr	r3, .L22
 294              		.loc 1 227 0
 295 000a 0274     		strb	r2, [r0, #16]
 296              	.LVL12:
 297              	.L19:
 298              		.loc 1 230 0 discriminator 1
 299 000c 1B68     		ldr	r3, [r3]
 300              	.LVL13:
 301              		.loc 1 231 0 discriminator 1
 302 000e 9A68     		ldr	r2, [r3, #8]
 303 0010 8A42     		cmp	r2, r1
 304 0012 FBD2     		bcs	.L19
 305              		.loc 1 234 0
 306 0014 5A68     		ldr	r2, [r3, #4]
 307              		.loc 1 239 0
 308 0016 2046     		mov	r0, r4
 309              	.LVL14:
 310              		.loc 1 233 0
 311 0018 2360     		str	r3, [r4]
 312              		.loc 1 234 0
 313 001a 6260     		str	r2, [r4, #4]
 314              		.loc 1 235 0
 315 001c 1460     		str	r4, [r2]
 316              		.loc 1 236 0
 317 001e 5C60     		str	r4, [r3, #4]
 318              		.loc 1 239 0
 319 0020 5DF8044B 		ldr	r4, [sp], #4
 320              		.cfi_restore 4
 321              		.cfi_def_cfa_offset 0
 322              	.LVL15:
 323 0024 7047     		bx	lr
 324              	.L23:
 325 0026 00BF     		.align	2
 326              	.L22:
 327 0028 00000000 		.word	.LANCHOR0
 328              		.cfi_endproc
 329              	.LFE171:
 330              		.size	chSchReadyI, .-chSchReadyI
 331              		.section	.text.chSchGoSleepS,"ax",%progbits
 332              		.align	2
 333              		.p2align 4,,15
 334              		.global	chSchGoSleepS
 335              		.thumb
 336              		.thumb_func
 337              		.type	chSchGoSleepS, %function
 338              	chSchGoSleepS:
 339              	.LFB172:
 340              		.loc 1 250 0
 341              		.cfi_startproc
 342              		@ args = 0, pretend = 0, frame = 0
ARM GAS  /tmp/ccHmBCIp.s 			page 7


 343              		@ frame_needed = 0, uses_anonymous_args = 0
 344              		@ link register save eliminated.
 345              	.LVL16:
 346              		.loc 1 255 0
 347 0000 074B     		ldr	r3, .L26
 348              		.loc 1 250 0
 349 0002 30B4     		push	{r4, r5}
 350              		.cfi_def_cfa_offset 8
 351              		.cfi_offset 4, -8
 352              		.cfi_offset 5, -4
 353              	.LBB170:
 354              	.LBB171:
 355              		.loc 4 672 0
 356 0004 1A68     		ldr	r2, [r3]
 357              	.LBE171:
 358              	.LBE170:
 359              		.loc 1 255 0
 360 0006 1969     		ldr	r1, [r3, #16]
 361              	.LVL17:
 362              	.LBB175:
 363              	.LBB172:
 364              		.loc 4 674 0
 365 0008 1468     		ldr	r4, [r2]
 366              	.LBE172:
 367              	.LBE175:
 368              		.loc 1 268 0
 369 000a 0125     		movs	r5, #1
 370              		.loc 1 256 0
 371 000c 0874     		strb	r0, [r1, #16]
 372              	.LVL18:
 373              	.LBB176:
 374              	.LBB173:
 375              		.loc 4 675 0
 376 000e 6360     		str	r3, [r4, #4]
 377              	.LBE173:
 378              	.LBE176:
 379              		.loc 1 262 0
 380 0010 1A61     		str	r2, [r3, #16]
 381              		.loc 1 268 0
 382 0012 1574     		strb	r5, [r2, #16]
 383              	.LBB177:
 384              	.LBB174:
 385              		.loc 4 674 0
 386 0014 1C60     		str	r4, [r3]
 387              	.LBE174:
 388              	.LBE177:
 389              		.loc 1 269 0
 390 0016 1046     		mov	r0, r2
 391              	.LVL19:
 392              		.loc 1 270 0
 393 0018 30BC     		pop	{r4, r5}
 394              		.cfi_restore 5
 395              		.cfi_restore 4
 396              		.cfi_def_cfa_offset 0
 397              		.loc 1 269 0
 398 001a FFF7FEBF 		b	_port_switch
 399              	.LVL20:
ARM GAS  /tmp/ccHmBCIp.s 			page 8


 400              	.L27:
 401 001e 00BF     		.align	2
 402              	.L26:
 403 0020 00000000 		.word	.LANCHOR0
 404              		.cfi_endproc
 405              	.LFE172:
 406              		.size	chSchGoSleepS, .-chSchGoSleepS
 407              		.section	.text.chSchGoSleepTimeoutS,"ax",%progbits
 408              		.align	2
 409              		.p2align 4,,15
 410              		.global	chSchGoSleepTimeoutS
 411              		.thumb
 412              		.thumb_func
 413              		.type	chSchGoSleepTimeoutS, %function
 414              	chSchGoSleepTimeoutS:
 415              	.LFB174:
 416              		.loc 1 330 0
 417              		.cfi_startproc
 418              		@ args = 0, pretend = 0, frame = 24
 419              		@ frame_needed = 0, uses_anonymous_args = 0
 420              	.LVL21:
 421              		.loc 1 334 0
 422 0000 4FF6FF73 		movw	r3, #65535
 423              		.loc 1 330 0
 424 0004 30B5     		push	{r4, r5, lr}
 425              		.cfi_def_cfa_offset 12
 426              		.cfi_offset 4, -12
 427              		.cfi_offset 5, -8
 428              		.cfi_offset 14, -4
 429              		.loc 1 334 0
 430 0006 9942     		cmp	r1, r3
 431              		.loc 1 330 0
 432 0008 87B0     		sub	sp, sp, #28
 433              		.cfi_def_cfa_offset 40
 434              		.loc 1 334 0
 435 000a 12D0     		beq	.L29
 436 000c 0546     		mov	r5, r0
 437              	.LBB178:
 438              		.loc 1 337 0
 439 000e 0C4C     		ldr	r4, .L36
 440 0010 01A8     		add	r0, sp, #4
 441              	.LVL22:
 442 0012 2369     		ldr	r3, [r4, #16]
 443 0014 0B4A     		ldr	r2, .L36+4
 444 0016 FFF7FEFF 		bl	chVTDoSetI
 445              	.LVL23:
 446              		.loc 1 338 0
 447 001a 2846     		mov	r0, r5
 448 001c FFF7FEFF 		bl	chSchGoSleepS
 449              	.LVL24:
 450              		.loc 1 339 0
 451 0020 049B     		ldr	r3, [sp, #16]
 452 0022 13B1     		cbz	r3, .L31
 453              		.loc 1 340 0
 454 0024 01A8     		add	r0, sp, #4
 455              	.LVL25:
 456 0026 FFF7FEFF 		bl	chVTDoResetI
ARM GAS  /tmp/ccHmBCIp.s 			page 9


 457              	.LVL26:
 458              	.L31:
 459              	.LBE178:
 460              		.loc 1 347 0
 461 002a 2369     		ldr	r3, [r4, #16]
 462              		.loc 1 348 0
 463 002c 5869     		ldr	r0, [r3, #20]
 464 002e 07B0     		add	sp, sp, #28
 465              		.cfi_remember_state
 466              		.cfi_def_cfa_offset 12
 467              		@ sp needed
 468 0030 30BD     		pop	{r4, r5, pc}
 469              	.LVL27:
 470              	.L29:
 471              		.cfi_restore_state
 472              		.loc 1 344 0
 473 0032 FFF7FEFF 		bl	chSchGoSleepS
 474              	.LVL28:
 475 0036 024C     		ldr	r4, .L36
 476              		.loc 1 347 0
 477 0038 2369     		ldr	r3, [r4, #16]
 478              		.loc 1 348 0
 479 003a 5869     		ldr	r0, [r3, #20]
 480 003c 07B0     		add	sp, sp, #28
 481              		.cfi_def_cfa_offset 12
 482              		@ sp needed
 483 003e 30BD     		pop	{r4, r5, pc}
 484              	.L37:
 485              		.align	2
 486              	.L36:
 487 0040 00000000 		.word	.LANCHOR0
 488 0044 00000000 		.word	wakeup
 489              		.cfi_endproc
 490              	.LFE174:
 491              		.size	chSchGoSleepTimeoutS, .-chSchGoSleepTimeoutS
 492              		.section	.text.chSchWakeupS,"ax",%progbits
 493              		.align	2
 494              		.p2align 4,,15
 495              		.global	chSchWakeupS
 496              		.thumb
 497              		.thumb_func
 498              		.type	chSchWakeupS, %function
 499              	chSchWakeupS:
 500              	.LFB175:
 501              		.loc 1 367 0
 502              		.cfi_startproc
 503              		@ args = 0, pretend = 0, frame = 0
 504              		@ frame_needed = 0, uses_anonymous_args = 0
 505              		@ link register save eliminated.
 506              	.LVL29:
 507              		.loc 1 383 0
 508 0000 144B     		ldr	r3, .L47
 509              		.loc 1 367 0
 510 0002 70B4     		push	{r4, r5, r6}
 511              		.cfi_def_cfa_offset 12
 512              		.cfi_offset 4, -12
 513              		.cfi_offset 5, -8
ARM GAS  /tmp/ccHmBCIp.s 			page 10


 514              		.cfi_offset 6, -4
 515              		.loc 1 383 0
 516 0004 1E69     		ldr	r6, [r3, #16]
 517 0006 8468     		ldr	r4, [r0, #8]
 518              		.loc 1 367 0
 519 0008 0546     		mov	r5, r0
 520              		.loc 1 377 0
 521 000a 4161     		str	r1, [r0, #20]
 522              		.loc 1 383 0
 523 000c B068     		ldr	r0, [r6, #8]
 524              	.LVL30:
 525 000e 8442     		cmp	r4, r0
 526 0010 0CD8     		bhi	.L39
 527              	.LVL31:
 528              	.LBB179:
 529              	.LBB180:
 530              		.loc 1 227 0
 531 0012 0022     		movs	r2, #0
 532 0014 2A74     		strb	r2, [r5, #16]
 533              	.LVL32:
 534              	.L40:
 535              		.loc 1 230 0
 536 0016 1B68     		ldr	r3, [r3]
 537              	.LVL33:
 538              		.loc 1 231 0
 539 0018 9A68     		ldr	r2, [r3, #8]
 540 001a 9442     		cmp	r4, r2
 541 001c FBD9     		bls	.L40
 542              		.loc 1 234 0
 543 001e 5A68     		ldr	r2, [r3, #4]
 544              		.loc 1 233 0
 545 0020 2B60     		str	r3, [r5]
 546              		.loc 1 234 0
 547 0022 6A60     		str	r2, [r5, #4]
 548              		.loc 1 235 0
 549 0024 1560     		str	r5, [r2]
 550              		.loc 1 236 0
 551 0026 5D60     		str	r5, [r3, #4]
 552              	.LBE180:
 553              	.LBE179:
 554              		.loc 1 397 0
 555 0028 70BC     		pop	{r4, r5, r6}
 556              		.cfi_remember_state
 557              		.cfi_restore 6
 558              		.cfi_restore 5
 559              		.cfi_restore 4
 560              		.cfi_def_cfa_offset 0
 561              	.LVL34:
 562 002a 7047     		bx	lr
 563              	.LVL35:
 564              	.L39:
 565              		.cfi_restore_state
 566              	.LBB181:
 567              	.LBB182:
 568              	.LBB183:
 569              		.loc 1 228 0
 570 002c 1A46     		mov	r2, r3
ARM GAS  /tmp/ccHmBCIp.s 			page 11


 571              		.loc 1 227 0
 572 002e 0021     		movs	r1, #0
 573              	.LVL36:
 574 0030 3174     		strb	r1, [r6, #16]
 575              	.LVL37:
 576              	.L42:
 577              		.loc 1 230 0
 578 0032 1268     		ldr	r2, [r2]
 579              	.LVL38:
 580              		.loc 1 231 0
 581 0034 9168     		ldr	r1, [r2, #8]
 582 0036 8842     		cmp	r0, r1
 583 0038 FBD9     		bls	.L42
 584              		.loc 1 234 0
 585 003a 5068     		ldr	r0, [r2, #4]
 586              	.LBE183:
 587              	.LBE182:
 588              		.loc 1 394 0
 589 003c 0124     		movs	r4, #1
 590              	.LBB185:
 591              	.LBB184:
 592              		.loc 1 234 0
 593 003e 7060     		str	r0, [r6, #4]
 594              		.loc 1 233 0
 595 0040 3260     		str	r2, [r6]
 596              		.loc 1 235 0
 597 0042 0660     		str	r6, [r0]
 598              		.loc 1 236 0
 599 0044 5660     		str	r6, [r2, #4]
 600              	.LBE184:
 601              	.LBE185:
 602              		.loc 1 388 0
 603 0046 1D61     		str	r5, [r3, #16]
 604              		.loc 1 394 0
 605 0048 2C74     		strb	r4, [r5, #16]
 606              		.loc 1 395 0
 607 004a 3146     		mov	r1, r6
 608 004c 2846     		mov	r0, r5
 609              	.LBE181:
 610              		.loc 1 397 0
 611 004e 70BC     		pop	{r4, r5, r6}
 612              		.cfi_restore 6
 613              		.cfi_restore 5
 614              		.cfi_restore 4
 615              		.cfi_def_cfa_offset 0
 616              	.LVL39:
 617              	.LBB186:
 618              		.loc 1 395 0
 619 0050 FFF7FEBF 		b	_port_switch
 620              	.LVL40:
 621              	.L48:
 622              		.align	2
 623              	.L47:
 624 0054 00000000 		.word	.LANCHOR0
 625              	.LBE186:
 626              		.cfi_endproc
 627              	.LFE175:
ARM GAS  /tmp/ccHmBCIp.s 			page 12


 628              		.size	chSchWakeupS, .-chSchWakeupS
 629              		.section	.text.chSchIsPreemptionRequired,"ax",%progbits
 630              		.align	2
 631              		.p2align 4,,15
 632              		.global	chSchIsPreemptionRequired
 633              		.thumb
 634              		.thumb_func
 635              		.type	chSchIsPreemptionRequired, %function
 636              	chSchIsPreemptionRequired:
 637              	.LFB177:
 638              		.loc 1 428 0
 639              		.cfi_startproc
 640              		@ args = 0, pretend = 0, frame = 0
 641              		@ frame_needed = 0, uses_anonymous_args = 0
 642              		@ link register save eliminated.
 643              	.LVL41:
 644              		.loc 1 429 0
 645 0000 044B     		ldr	r3, .L50
 646 0002 1A68     		ldr	r2, [r3]
 647              		.loc 1 430 0
 648 0004 1B69     		ldr	r3, [r3, #16]
 649              		.loc 1 441 0
 650 0006 9068     		ldr	r0, [r2, #8]
 651 0008 9B68     		ldr	r3, [r3, #8]
 652              		.loc 1 443 0
 653 000a 9842     		cmp	r0, r3
 654 000c 94BF     		ite	ls
 655 000e 0020     		movls	r0, #0
 656 0010 0120     		movhi	r0, #1
 657 0012 7047     		bx	lr
 658              	.L51:
 659              		.align	2
 660              	.L50:
 661 0014 00000000 		.word	.LANCHOR0
 662              		.cfi_endproc
 663              	.LFE177:
 664              		.size	chSchIsPreemptionRequired, .-chSchIsPreemptionRequired
 665              		.section	.text.chSchDoRescheduleBehind,"ax",%progbits
 666              		.align	2
 667              		.p2align 4,,15
 668              		.global	chSchDoRescheduleBehind
 669              		.thumb
 670              		.thumb_func
 671              		.type	chSchDoRescheduleBehind, %function
 672              	chSchDoRescheduleBehind:
 673              	.LFB178:
 674              		.loc 1 455 0
 675              		.cfi_startproc
 676              		@ args = 0, pretend = 0, frame = 0
 677              		@ frame_needed = 0, uses_anonymous_args = 0
 678              		@ link register save eliminated.
 679              		.loc 1 458 0
 680 0000 0D4A     		ldr	r2, .L57
 681              		.loc 1 455 0
 682 0002 F0B4     		push	{r4, r5, r6, r7}
 683              		.cfi_def_cfa_offset 16
 684              		.cfi_offset 4, -16
ARM GAS  /tmp/ccHmBCIp.s 			page 13


 685              		.cfi_offset 5, -12
 686              		.cfi_offset 6, -8
 687              		.cfi_offset 7, -4
 688              	.LBB187:
 689              	.LBB188:
 690              		.loc 4 672 0
 691 0004 1068     		ldr	r0, [r2]
 692              	.LBE188:
 693              	.LBE187:
 694              		.loc 1 458 0
 695 0006 1469     		ldr	r4, [r2, #16]
 696              	.LVL42:
 697              	.LBB191:
 698              	.LBB189:
 699              		.loc 4 674 0
 700 0008 0568     		ldr	r5, [r0]
 701              	.LBE189:
 702              	.LBE191:
 703              		.loc 1 466 0
 704 000a 0127     		movs	r7, #1
 705              	.LBB192:
 706              	.LBB193:
 707              		.loc 1 227 0
 708 000c 0026     		movs	r6, #0
 709 000e A168     		ldr	r1, [r4, #8]
 710 0010 2B46     		mov	r3, r5
 711              	.LBE193:
 712              	.LBE192:
 713              	.LBB196:
 714              	.LBB190:
 715              		.loc 4 675 0
 716 0012 6A60     		str	r2, [r5, #4]
 717              		.loc 4 674 0
 718 0014 1560     		str	r5, [r2]
 719              	.LBE190:
 720              	.LBE196:
 721              		.loc 1 460 0
 722 0016 1061     		str	r0, [r2, #16]
 723              		.loc 1 466 0
 724 0018 0774     		strb	r7, [r0, #16]
 725              	.LVL43:
 726              	.LBB197:
 727              	.LBB194:
 728              		.loc 1 227 0
 729 001a 2674     		strb	r6, [r4, #16]
 730              	.LVL44:
 731 001c 00E0     		b	.L54
 732              	.LVL45:
 733              	.L56:
 734 001e 1B68     		ldr	r3, [r3]
 735              	.LVL46:
 736              	.L54:
 737              		.loc 1 231 0
 738 0020 9A68     		ldr	r2, [r3, #8]
 739 0022 8A42     		cmp	r2, r1
 740 0024 FBD2     		bcs	.L56
 741              		.loc 1 234 0
ARM GAS  /tmp/ccHmBCIp.s 			page 14


 742 0026 5A68     		ldr	r2, [r3, #4]
 743              	.LBE194:
 744              	.LBE197:
 745              		.loc 1 471 0
 746 0028 2146     		mov	r1, r4
 747              	.LBB198:
 748              	.LBB195:
 749              		.loc 1 233 0
 750 002a 2360     		str	r3, [r4]
 751              		.loc 1 234 0
 752 002c 6260     		str	r2, [r4, #4]
 753              		.loc 1 235 0
 754 002e 1460     		str	r4, [r2]
 755              		.loc 1 236 0
 756 0030 5C60     		str	r4, [r3, #4]
 757              	.LBE195:
 758              	.LBE198:
 759              		.loc 1 472 0
 760 0032 F0BC     		pop	{r4, r5, r6, r7}
 761              		.cfi_restore 7
 762              		.cfi_restore 6
 763              		.cfi_restore 5
 764              		.cfi_restore 4
 765              		.cfi_def_cfa_offset 0
 766              	.LVL47:
 767              		.loc 1 471 0
 768 0034 FFF7FEBF 		b	_port_switch
 769              	.LVL48:
 770              	.L58:
 771              		.align	2
 772              	.L57:
 773 0038 00000000 		.word	.LANCHOR0
 774              		.cfi_endproc
 775              	.LFE178:
 776              		.size	chSchDoRescheduleBehind, .-chSchDoRescheduleBehind
 777              		.section	.text.chSchDoRescheduleAhead,"ax",%progbits
 778              		.align	2
 779              		.p2align 4,,15
 780              		.global	chSchDoRescheduleAhead
 781              		.thumb
 782              		.thumb_func
 783              		.type	chSchDoRescheduleAhead, %function
 784              	chSchDoRescheduleAhead:
 785              	.LFB179:
 786              		.loc 1 483 0
 787              		.cfi_startproc
 788              		@ args = 0, pretend = 0, frame = 0
 789              		@ frame_needed = 0, uses_anonymous_args = 0
 790              		@ link register save eliminated.
 791              		.loc 1 486 0
 792 0000 0D4A     		ldr	r2, .L64
 793              		.loc 1 483 0
 794 0002 F0B4     		push	{r4, r5, r6, r7}
 795              		.cfi_def_cfa_offset 16
 796              		.cfi_offset 4, -16
 797              		.cfi_offset 5, -12
 798              		.cfi_offset 6, -8
ARM GAS  /tmp/ccHmBCIp.s 			page 15


 799              		.cfi_offset 7, -4
 800              	.LBB199:
 801              	.LBB200:
 802              		.loc 4 672 0
 803 0004 1068     		ldr	r0, [r2]
 804              	.LBE200:
 805              	.LBE199:
 806              		.loc 1 486 0
 807 0006 1469     		ldr	r4, [r2, #16]
 808              	.LVL49:
 809              	.LBB203:
 810              	.LBB201:
 811              		.loc 4 674 0
 812 0008 0568     		ldr	r5, [r0]
 813              	.LBE201:
 814              	.LBE203:
 815              		.loc 1 494 0
 816 000a 0127     		movs	r7, #1
 817              		.loc 1 496 0
 818 000c 0026     		movs	r6, #0
 819 000e A168     		ldr	r1, [r4, #8]
 820 0010 2B46     		mov	r3, r5
 821              	.LBB204:
 822              	.LBB202:
 823              		.loc 4 675 0
 824 0012 6A60     		str	r2, [r5, #4]
 825              		.loc 4 674 0
 826 0014 1560     		str	r5, [r2]
 827              	.LBE202:
 828              	.LBE204:
 829              		.loc 1 488 0
 830 0016 1061     		str	r0, [r2, #16]
 831              		.loc 1 494 0
 832 0018 0774     		strb	r7, [r0, #16]
 833              		.loc 1 496 0
 834 001a 2674     		strb	r6, [r4, #16]
 835              	.LVL50:
 836 001c 00E0     		b	.L61
 837              	.LVL51:
 838              	.L63:
 839 001e 1B68     		ldr	r3, [r3]
 840              	.LVL52:
 841              	.L61:
 842              		.loc 1 500 0 discriminator 1
 843 0020 9A68     		ldr	r2, [r3, #8]
 844 0022 8A42     		cmp	r2, r1
 845 0024 FBD8     		bhi	.L63
 846              		.loc 1 503 0
 847 0026 5A68     		ldr	r2, [r3, #4]
 848              		.loc 1 507 0
 849 0028 2146     		mov	r1, r4
 850              		.loc 1 502 0
 851 002a 2360     		str	r3, [r4]
 852              		.loc 1 503 0
 853 002c 6260     		str	r2, [r4, #4]
 854              		.loc 1 504 0
 855 002e 1460     		str	r4, [r2]
ARM GAS  /tmp/ccHmBCIp.s 			page 16


 856              		.loc 1 505 0
 857 0030 5C60     		str	r4, [r3, #4]
 858              		.loc 1 508 0
 859 0032 F0BC     		pop	{r4, r5, r6, r7}
 860              		.cfi_restore 7
 861              		.cfi_restore 6
 862              		.cfi_restore 5
 863              		.cfi_restore 4
 864              		.cfi_def_cfa_offset 0
 865              	.LVL53:
 866              		.loc 1 507 0
 867 0034 FFF7FEBF 		b	_port_switch
 868              	.LVL54:
 869              	.L65:
 870              		.align	2
 871              	.L64:
 872 0038 00000000 		.word	.LANCHOR0
 873              		.cfi_endproc
 874              	.LFE179:
 875              		.size	chSchDoRescheduleAhead, .-chSchDoRescheduleAhead
 876              		.section	.text.chSchRescheduleS,"ax",%progbits
 877              		.align	2
 878              		.p2align 4,,15
 879              		.global	chSchRescheduleS
 880              		.thumb
 881              		.thumb_func
 882              		.type	chSchRescheduleS, %function
 883              	chSchRescheduleS:
 884              	.LFB176:
 885              		.loc 1 406 0
 886              		.cfi_startproc
 887              		@ args = 0, pretend = 0, frame = 0
 888              		@ frame_needed = 0, uses_anonymous_args = 0
 889              		@ link register save eliminated.
 890              	.LBB205:
 891              	.LBB206:
 892              		.loc 4 713 0
 893 0000 044B     		ldr	r3, .L69
 894 0002 1A68     		ldr	r2, [r3]
 895 0004 1B69     		ldr	r3, [r3, #16]
 896              	.LBE206:
 897              	.LBE205:
 898              		.loc 1 410 0
 899 0006 9268     		ldr	r2, [r2, #8]
 900 0008 9B68     		ldr	r3, [r3, #8]
 901 000a 9A42     		cmp	r2, r3
 902 000c 00D8     		bhi	.L68
 903 000e 7047     		bx	lr
 904              	.L68:
 905              		.loc 1 411 0
 906 0010 FFF7FEBF 		b	chSchDoRescheduleAhead
 907              	.LVL55:
 908              	.L70:
 909              		.align	2
 910              	.L69:
 911 0014 00000000 		.word	.LANCHOR0
 912              		.cfi_endproc
ARM GAS  /tmp/ccHmBCIp.s 			page 17


 913              	.LFE176:
 914              		.size	chSchRescheduleS, .-chSchRescheduleS
 915              		.section	.text.chSchDoReschedule,"ax",%progbits
 916              		.align	2
 917              		.p2align 4,,15
 918              		.global	chSchDoReschedule
 919              		.thumb
 920              		.thumb_func
 921              		.type	chSchDoReschedule, %function
 922              	chSchDoReschedule:
 923              	.LFB180:
 924              		.loc 1 520 0
 925              		.cfi_startproc
 926              		@ args = 0, pretend = 0, frame = 0
 927              		@ frame_needed = 0, uses_anonymous_args = 0
 928              		@ link register save eliminated.
 929              		.loc 1 538 0
 930 0000 FFF7FEBF 		b	chSchDoRescheduleAhead
 931              	.LVL56:
 932              		.cfi_endproc
 933              	.LFE180:
 934              		.size	chSchDoReschedule, .-chSchDoReschedule
 935              		.global	ch
 936              		.section	.bss.ch,"aw",%nobits
 937              		.align	3
 938              		.set	.LANCHOR0,. + 0
 939              		.type	ch, %object
 940              		.size	ch, 304
 941              	ch:
 942 0000 00000000 		.space	304
 942      00000000 
 942      00000000 
 942      00000000 
 942      00000000 
 943              		.text
 944              	.Letext0:
 945              		.file 5 "/opt/stm32/gcc/gcc-arm-none-eabi-4_9-2015q2/lib/gcc/arm-none-eabi/4.9.3/include/stddef.h"
 946              		.file 6 "/opt/stm32/gcc/gcc-arm-none-eabi-4_9-2015q2/arm-none-eabi/include/machine/_default_types.
 947              		.file 7 "/opt/stm32/gcc/gcc-arm-none-eabi-4_9-2015q2/arm-none-eabi/include/sys/_stdint.h"
 948              		.file 8 "/home/maciek/ChibiOS_16.1.5/os/rt/ports/ARMCMx/compilers/GCC/chtypes.h"
 949              		.file 9 "/home/maciek/ChibiOS_16.1.5/os/rt/include/chsystypes.h"
 950              		.file 10 "/home/maciek/ChibiOS_16.1.5/os/rt/ports/ARMCMx/chcore.h"
 951              		.file 11 "/home/maciek/ChibiOS_16.1.5/os/rt/ports/ARMCMx/chcore_v7m.h"
 952              		.file 12 "/home/maciek/ChibiOS_16.1.5/os/rt/include/chtm.h"
 953              		.file 13 "/home/maciek/ChibiOS_16.1.5/os/rt/include/chmtx.h"
 954              		.file 14 "/home/maciek/ChibiOS_16.1.5/os/rt/include/chvt.h"
 955              		.file 15 "/home/maciek/ChibiOS_16.1.5/os/rt/include/chsys.h"
 956              		.file 16 "/home/maciek/ChibiOS_16.1.5/os/ext/CMSIS/include/core_cm3.h"