ARM GAS  /tmp/cc9EAuRb.s 			page 1


   1              		.syntax unified
   2              		.cpu cortex-m3
   3              		.fpu softvfp
   4              		.eabi_attribute 20, 1
   5              		.eabi_attribute 21, 1
   6              		.eabi_attribute 23, 3
   7              		.eabi_attribute 24, 1
   8              		.eabi_attribute 25, 1
   9              		.eabi_attribute 26, 1
  10              		.eabi_attribute 30, 2
  11              		.eabi_attribute 34, 1
  12              		.eabi_attribute 18, 4
  13              		.thumb
  14              		.file	"chsys.c"
  15              		.text
  16              	.Ltext0:
  17              		.cfi_sections	.debug_frame
  18              		.section	.text._idle_thread,"ax",%progbits
  19              		.align	2
  20              		.p2align 4,,15
  21              		.thumb
  22              		.thumb_func
  23              		.type	_idle_thread, %function
  24              	_idle_thread:
  25              	.LFB170:
  26              		.file 1 "/home/maciek/ChibiOS_16.1.5/os/rt/src/chsys.c"
  27              		.loc 1 65 0
  28              		.cfi_startproc
  29              		@ Volatile: function does not return.
  30              		@ args = 0, pretend = 0, frame = 0
  31              		@ frame_needed = 0, uses_anonymous_args = 0
  32              		@ link register save eliminated.
  33              	.LVL0:
  34              	.L2:
  35 0000 FEE7     		b	.L2
  36              		.cfi_endproc
  37              	.LFE170:
  38              		.size	_idle_thread, .-_idle_thread
  39 0002 00BF     		.section	.text.chSysInit,"ax",%progbits
  40              		.align	2
  41              		.p2align 4,,15
  42              		.global	chSysInit
  43              		.thumb
  44              		.thumb_func
  45              		.type	chSysInit, %function
  46              	chSysInit:
  47              	.LFB171:
  48              		.loc 1 93 0
  49              		.cfi_startproc
  50              		@ args = 0, pretend = 0, frame = 0
  51              		@ frame_needed = 0, uses_anonymous_args = 0
  52              	.LBB142:
  53              	.LBB143:
  54              	.LBB144:
  55              	.LBB145:
  56              		.file 2 "/home/maciek/ChibiOS_16.1.5/os/ext/CMSIS/include/core_cm3.h"
  57              		.loc 2 1356 0
ARM GAS  /tmp/cc9EAuRb.s 			page 2


  58 0000 4FF6FF01 		movw	r1, #63743
  59              	.LBE145:
  60              	.LBE144:
  61              		.file 3 "/home/maciek/ChibiOS_16.1.5/os/rt/ports/ARMCMx/chcore_v7m.h"
  62              		.loc 3 386 0
  63 0004 1B4B     		ldr	r3, .L5
  64              	.LBE143:
  65              	.LBE142:
  66              		.loc 1 93 0
  67 0006 70B5     		push	{r4, r5, r6, lr}
  68              		.cfi_def_cfa_offset 16
  69              		.cfi_offset 4, -16
  70              		.cfi_offset 5, -12
  71              		.cfi_offset 6, -8
  72              		.cfi_offset 14, -4
  73              	.LBB161:
  74              	.LBB158:
  75              		.loc 3 386 0
  76 0008 0025     		movs	r5, #0
  77 000a 9D60     		str	r5, [r3, #8]
  78              	.LVL1:
  79              	.LBB148:
  80              	.LBB146:
  81              		.loc 2 1355 0
  82 000c D868     		ldr	r0, [r3, #12]
  83              	.LVL2:
  84              		.loc 2 1357 0
  85 000e 1A4A     		ldr	r2, .L5+4
  86              		.loc 2 1356 0
  87 0010 0140     		ands	r1, r1, r0
  88              	.LVL3:
  89              		.loc 2 1357 0
  90 0012 0A43     		orrs	r2, r2, r1
  91              	.LVL4:
  92              	.LBE146:
  93              	.LBE148:
  94              		.loc 3 392 0
  95 0014 1948     		ldr	r0, .L5+8
  96              	.LBB149:
  97              	.LBB147:
  98              		.loc 2 1360 0
  99 0016 DA60     		str	r2, [r3, #12]
 100              	.LBE147:
 101              	.LBE149:
 102              		.loc 3 392 0
 103 0018 C268     		ldr	r2, [r0, #12]
 104              	.LVL5:
 105              		.loc 3 396 0
 106 001a 1949     		ldr	r1, .L5+12
 107              		.loc 3 392 0
 108 001c 42F08072 		orr	r2, r2, #16777216
 109 0020 C260     		str	r2, [r0, #12]
 110              	.LVL6:
 111              		.loc 3 396 0
 112 0022 0A68     		ldr	r2, [r1]
 113              	.LBB150:
 114              	.LBB151:
ARM GAS  /tmp/cc9EAuRb.s 			page 3


 115              		.loc 2 1467 0
 116 0024 2020     		movs	r0, #32
 117              	.LBE151:
 118              	.LBE150:
 119              		.loc 3 396 0
 120 0026 42F00102 		orr	r2, r2, #1
 121              	.LBE158:
 122              	.LBE161:
 123              		.loc 1 119 0
 124 002a 164C     		ldr	r4, .L5+16
 125              	.LBB162:
 126              	.LBB159:
 127              	.LBB153:
 128              	.LBB154:
 129              		.loc 2 1467 0
 130 002c 1026     		movs	r6, #16
 131              	.LBE154:
 132              	.LBE153:
 133              		.loc 3 396 0
 134 002e 0A60     		str	r2, [r1]
 135              	.LVL7:
 136              	.LBE159:
 137              	.LBE162:
 138              		.loc 1 93 0
 139 0030 82B0     		sub	sp, sp, #8
 140              		.cfi_def_cfa_offset 24
 141              	.LBB163:
 142              	.LBB160:
 143              	.LBB156:
 144              	.LBB155:
 145              		.loc 2 1467 0
 146 0032 DE77     		strb	r6, [r3, #31]
 147              	.LVL8:
 148              	.LBE155:
 149              	.LBE156:
 150              	.LBB157:
 151              	.LBB152:
 152 0034 83F82200 		strb	r0, [r3, #34]
 153              	.LBE152:
 154              	.LBE157:
 155              	.LBE160:
 156              	.LBE163:
 157              		.loc 1 99 0
 158 0038 FFF7FEFF 		bl	_scheduler_init
 159              	.LVL9:
 160              		.loc 1 100 0
 161 003c FFF7FEFF 		bl	_vt_init
 162              	.LVL10:
 163              		.loc 1 102 0
 164 0040 FFF7FEFF 		bl	_tm_init
 165              	.LVL11:
 166              		.loc 1 105 0
 167 0044 FFF7FEFF 		bl	_core_init
 168              	.LVL12:
 169              		.loc 1 108 0
 170 0048 FFF7FEFF 		bl	_heap_init
 171              	.LVL13:
ARM GAS  /tmp/cc9EAuRb.s 			page 4


 172              		.loc 1 119 0
 173 004c 2046     		mov	r0, r4
 174 004e 4021     		movs	r1, #64
 175 0050 FFF7FEFF 		bl	_thread_init
 176              	.LVL14:
 177              		.loc 1 125 0
 178 0054 0122     		movs	r2, #1
 179              		.loc 1 119 0
 180 0056 44F8140C 		str	r0, [r4, #-20]
 181              		.loc 1 125 0
 182 005a 0274     		strb	r2, [r0, #16]
 183              	.LVL15:
 184              	.LBB164:
 185              	.LBB165:
 186              	.LBB166:
 187              	.LBB167:
 188              		.file 4 "/home/maciek/ChibiOS_16.1.5/os/ext/CMSIS/include/core_cmFunc.h"
 189              		.loc 4 548 0
 190              	@ 548 "/home/maciek/ChibiOS_16.1.5/os/ext/CMSIS/include/core_cmFunc.h" 1
 191 005c 85F31188 		MSR basepri, r5
 192              	@ 0 "" 2
 193              		.thumb
 194              	.LBE167:
 195              	.LBE166:
 196              	.LBB168:
 197              	.LBB169:
 198              		.loc 4 333 0
 199              	@ 333 "/home/maciek/ChibiOS_16.1.5/os/ext/CMSIS/include/core_cmFunc.h" 1
 200 0060 62B6     		cpsie i
 201              	@ 0 "" 2
 202              		.thumb
 203              	.LBE169:
 204              	.LBE168:
 205              	.LBE165:
 206              	.LBE164:
 207              	.LBB170:
 208              		.loc 1 150 0
 209 0062 D021     		movs	r1, #208
 210 0064 0095     		str	r5, [sp]
 211 0066 04F13C00 		add	r0, r4, #60
 212 006a 074B     		ldr	r3, .L5+20
 213 006c FFF7FEFF 		bl	chThdCreateStatic
 214              	.LVL16:
 215              	.LBE170:
 216              		.loc 1 158 0
 217 0070 02B0     		add	sp, sp, #8
 218              		.cfi_def_cfa_offset 16
 219              		@ sp needed
 220 0072 70BD     		pop	{r4, r5, r6, pc}
 221              	.L6:
 222              		.align	2
 223              	.L5:
 224 0074 00ED00E0 		.word	-536810240
 225 0078 0003FA05 		.word	100270848
 226 007c F0ED00E0 		.word	-536810000
 227 0080 001000E0 		.word	-536866816
 228 0084 24000000 		.word	ch+36
ARM GAS  /tmp/cc9EAuRb.s 			page 5


 229 0088 00000000 		.word	_idle_thread
 230              		.cfi_endproc
 231              	.LFE171:
 232              		.size	chSysInit, .-chSysInit
 233              		.section	.text.chSysHalt,"ax",%progbits
 234              		.align	2
 235              		.p2align 4,,15
 236              		.global	chSysHalt
 237              		.thumb
 238              		.thumb_func
 239              		.type	chSysHalt, %function
 240              	chSysHalt:
 241              	.LFB172:
 242              		.loc 1 172 0
 243              		.cfi_startproc
 244              		@ Volatile: function does not return.
 245              		@ args = 0, pretend = 0, frame = 0
 246              		@ frame_needed = 0, uses_anonymous_args = 0
 247              		@ link register save eliminated.
 248              	.LVL17:
 249              	.LBB171:
 250              	.LBB172:
 251              	.LBB173:
 252              		.loc 4 344 0
 253              	@ 344 "/home/maciek/ChibiOS_16.1.5/os/ext/CMSIS/include/core_cmFunc.h" 1
 254 0000 72B6     		cpsid i
 255              	@ 0 "" 2
 256              		.thumb
 257              	.LBE173:
 258              	.LBE172:
 259              	.LBE171:
 260              		.loc 1 181 0
 261 0002 014B     		ldr	r3, .L10
 262 0004 1862     		str	r0, [r3, #32]
 263              	.L8:
 264              		.loc 1 185 0 discriminator 1
 265 0006 FEE7     		b	.L8
 266              	.L11:
 267              		.align	2
 268              	.L10:
 269 0008 00000000 		.word	ch
 270              		.cfi_endproc
 271              	.LFE172:
 272              		.size	chSysHalt, .-chSysHalt
 273              		.section	.text.chSysIntegrityCheckI,"ax",%progbits
 274              		.align	2
 275              		.p2align 4,,15
 276              		.global	chSysIntegrityCheckI
 277              		.thumb
 278              		.thumb_func
 279              		.type	chSysIntegrityCheckI, %function
 280              	chSysIntegrityCheckI:
 281              	.LFB173:
 282              		.loc 1 212 0
 283              		.cfi_startproc
 284              		@ args = 0, pretend = 0, frame = 0
 285              		@ frame_needed = 0, uses_anonymous_args = 0
ARM GAS  /tmp/cc9EAuRb.s 			page 6


 286              		@ link register save eliminated.
 287              	.LVL18:
 288              		.loc 1 218 0
 289 0000 C307     		lsls	r3, r0, #31
 290              		.loc 1 212 0
 291 0002 10B4     		push	{r4}
 292              		.cfi_def_cfa_offset 4
 293              		.cfi_offset 4, -4
 294              		.loc 1 218 0
 295 0004 10D5     		bpl	.L13
 296              	.LVL19:
 297              	.LBB174:
 298              		.loc 1 223 0
 299 0006 1D4C     		ldr	r4, .L38
 300 0008 2268     		ldr	r2, [r4]
 301              	.LVL20:
 302              		.loc 1 224 0
 303 000a A242     		cmp	r2, r4
 304 000c 2BD0     		beq	.L14
 305 000e 0023     		movs	r3, #0
 306              	.LVL21:
 307              	.L15:
 308              		.loc 1 226 0
 309 0010 1268     		ldr	r2, [r2]
 310              	.LVL22:
 311              		.loc 1 225 0
 312 0012 0133     		adds	r3, r3, #1
 313              	.LVL23:
 314              		.loc 1 224 0
 315 0014 A242     		cmp	r2, r4
 316 0016 FBD1     		bne	.L15
 317              		.loc 1 230 0
 318 0018 5168     		ldr	r1, [r2, #4]
 319              	.LVL24:
 320              		.loc 1 231 0
 321 001a 9142     		cmp	r1, r2
 322 001c 1FD0     		beq	.L26
 323              	.LVL25:
 324              	.L17:
 325              		.loc 1 233 0
 326 001e 4968     		ldr	r1, [r1, #4]
 327              	.LVL26:
 328              		.loc 1 232 0
 329 0020 013B     		subs	r3, r3, #1
 330              	.LVL27:
 331              		.loc 1 231 0
 332 0022 A142     		cmp	r1, r4
 333 0024 FBD1     		bne	.L17
 334              		.loc 1 237 0
 335 0026 D3B9     		cbnz	r3, .L26
 336              	.LVL28:
 337              	.L13:
 338              	.LBE174:
 339              		.loc 1 243 0
 340 0028 10F00200 		ands	r0, r0, #2
 341              	.LVL29:
 342 002c 14D0     		beq	.L36
ARM GAS  /tmp/cc9EAuRb.s 			page 7


 343              	.LVL30:
 344              	.LBB175:
 345              		.loc 1 248 0
 346 002e 134C     		ldr	r4, .L38
 347 0030 2146     		mov	r1, r4
 348 0032 51F8143F 		ldr	r3, [r1, #20]!
 349              	.LVL31:
 350              		.loc 1 249 0
 351 0036 8B42     		cmp	r3, r1
 352 0038 1BD0     		beq	.L18
 353 003a 0020     		movs	r0, #0
 354              	.LVL32:
 355              	.L19:
 356              		.loc 1 251 0
 357 003c 1B68     		ldr	r3, [r3]
 358              	.LVL33:
 359              		.loc 1 250 0
 360 003e 0130     		adds	r0, r0, #1
 361              	.LVL34:
 362              		.loc 1 249 0
 363 0040 8B42     		cmp	r3, r1
 364 0042 FBD1     		bne	.L19
 365              		.loc 1 255 0
 366 0044 A269     		ldr	r2, [r4, #24]
 367              	.LVL35:
 368              		.loc 1 256 0
 369 0046 9A42     		cmp	r2, r3
 370 0048 09D0     		beq	.L26
 371              	.LVL36:
 372              	.L20:
 373              		.loc 1 258 0
 374 004a 5268     		ldr	r2, [r2, #4]
 375              	.LVL37:
 376              		.loc 1 257 0
 377 004c 0138     		subs	r0, r0, #1
 378              	.LVL38:
 379              		.loc 1 256 0
 380 004e 8A42     		cmp	r2, r1
 381 0050 FBD1     		bne	.L20
 382              		.loc 1 262 0
 383 0052 0030     		adds	r0, r0, #0
 384 0054 18BF     		it	ne
 385 0056 0120     		movne	r0, #1
 386              	.LVL39:
 387              	.L36:
 388              	.LBE175:
 389              		.loc 1 300 0
 390 0058 5DF8044B 		ldr	r4, [sp], #4
 391              		.cfi_remember_state
 392              		.cfi_restore 4
 393              		.cfi_def_cfa_offset 0
 394 005c 7047     		bx	lr
 395              	.L26:
 396              		.cfi_restore_state
 397              	.LBB176:
 398              		.loc 1 238 0
 399 005e 0120     		movs	r0, #1
ARM GAS  /tmp/cc9EAuRb.s 			page 8


 400              	.LBE176:
 401              		.loc 1 300 0
 402 0060 5DF8044B 		ldr	r4, [sp], #4
 403              		.cfi_remember_state
 404              		.cfi_restore 4
 405              		.cfi_def_cfa_offset 0
 406 0064 7047     		bx	lr
 407              	.LVL40:
 408              	.L14:
 409              		.cfi_restore_state
 410              	.LBB177:
 411              		.loc 1 230 0
 412 0066 6168     		ldr	r1, [r4, #4]
 413              	.LVL41:
 414              		.loc 1 231 0
 415 0068 A142     		cmp	r1, r4
 416              		.loc 1 222 0
 417 006a 18BF     		it	ne
 418 006c 0023     		movne	r3, #0
 419              		.loc 1 231 0
 420 006e D6D1     		bne	.L17
 421 0070 DAE7     		b	.L13
 422              	.LVL42:
 423              	.L18:
 424              	.LBE177:
 425              	.LBB178:
 426              		.loc 1 255 0
 427 0072 A269     		ldr	r2, [r4, #24]
 428              	.LVL43:
 429              		.loc 1 247 0
 430 0074 0020     		movs	r0, #0
 431              		.loc 1 256 0
 432 0076 9A42     		cmp	r2, r3
 433 0078 E7D1     		bne	.L20
 434 007a EDE7     		b	.L36
 435              	.L39:
 436              		.align	2
 437              	.L38:
 438 007c 00000000 		.word	ch
 439              	.LBE178:
 440              		.cfi_endproc
 441              	.LFE173:
 442              		.size	chSysIntegrityCheckI, .-chSysIntegrityCheckI
 443              		.section	.text.chSysTimerHandlerI,"ax",%progbits
 444              		.align	2
 445              		.p2align 4,,15
 446              		.global	chSysTimerHandlerI
 447              		.thumb
 448              		.thumb_func
 449              		.type	chSysTimerHandlerI, %function
 450              	chSysTimerHandlerI:
 451              	.LFB174:
 452              		.loc 1 313 0
 453              		.cfi_startproc
 454              		@ args = 0, pretend = 0, frame = 0
 455              		@ frame_needed = 0, uses_anonymous_args = 0
 456 0000 F8B5     		push	{r3, r4, r5, r6, r7, lr}
ARM GAS  /tmp/cc9EAuRb.s 			page 9


 457              		.cfi_def_cfa_offset 24
 458              		.cfi_offset 3, -24
 459              		.cfi_offset 4, -20
 460              		.cfi_offset 5, -16
 461              		.cfi_offset 6, -12
 462              		.cfi_offset 7, -8
 463              		.cfi_offset 14, -4
 464              	.LBB192:
 465              	.LBB193:
 466              		.file 5 "/home/maciek/ChibiOS_16.1.5/os/rt/include/chvt.h"
 467              		.loc 5 507 0
 468 0002 104D     		ldr	r5, .L47
 469              		.loc 5 508 0
 470 0004 2E46     		mov	r6, r5
 471              		.loc 5 507 0
 472 0006 EA8B     		ldrh	r2, [r5, #30]
 473              		.loc 5 508 0
 474 0008 56F8143F 		ldr	r3, [r6, #20]!
 475              		.loc 5 507 0
 476 000c 0132     		adds	r2, r2, #1
 477 000e 92B2     		uxth	r2, r2
 478              		.loc 5 508 0
 479 0010 B342     		cmp	r3, r6
 480              		.loc 5 507 0
 481 0012 EA83     		strh	r2, [r5, #30]	@ movhi
 482              		.loc 5 508 0
 483 0014 14D0     		beq	.L40
 484              		.loc 5 510 0
 485 0016 1C89     		ldrh	r4, [r3, #8]
 486 0018 013C     		subs	r4, r4, #1
 487 001a A4B2     		uxth	r4, r4
 488 001c 1C81     		strh	r4, [r3, #8]	@ movhi
 489              		.loc 5 511 0
 490 001e 7CB9     		cbnz	r4, .L40
 491              	.LBB194:
 492              	.LBB195:
 493              	.LBB196:
 494              	.LBB197:
 495              	.LBB198:
 496              	.LBB199:
 497              		.loc 4 548 0
 498 0020 2027     		movs	r7, #32
 499              	.L43:
 500              	.LVL44:
 501              	.LBE199:
 502              	.LBE198:
 503              	.LBE197:
 504              	.LBE196:
 505              	.LBE195:
 506              		.loc 5 518 0
 507 0022 1A68     		ldr	r2, [r3]
 508              		.loc 5 516 0
 509 0024 D968     		ldr	r1, [r3, #12]
 510              	.LVL45:
 511              		.loc 5 517 0
 512 0026 DC60     		str	r4, [r3, #12]
 513              		.loc 5 518 0
ARM GAS  /tmp/cc9EAuRb.s 			page 10


 514 0028 5660     		str	r6, [r2, #4]
 515              		.loc 5 519 0
 516 002a 6A61     		str	r2, [r5, #20]
 517              	.LVL46:
 518              	.LBB204:
 519              	.LBB205:
 520              	.LBB206:
 521              	.LBB207:
 522              	.LBB208:
 523              		.loc 4 548 0
 524              	@ 548 "/home/maciek/ChibiOS_16.1.5/os/ext/CMSIS/include/core_cmFunc.h" 1
 525 002c 84F31188 		MSR basepri, r4
 526              	@ 0 "" 2
 527              		.thumb
 528              	.LBE208:
 529              	.LBE207:
 530              	.LBE206:
 531              	.LBE205:
 532              	.LBE204:
 533              		.loc 5 521 0
 534 0030 1869     		ldr	r0, [r3, #16]
 535 0032 8847     		blx	r1
 536              	.LVL47:
 537              	.LBB209:
 538              	.LBB203:
 539              	.LBB202:
 540              	.LBB201:
 541              	.LBB200:
 542              		.loc 4 548 0
 543              	@ 548 "/home/maciek/ChibiOS_16.1.5/os/ext/CMSIS/include/core_cmFunc.h" 1
 544 0034 87F31188 		MSR basepri, r7
 545              	@ 0 "" 2
 546              		.thumb
 547              	.LBE200:
 548              	.LBE201:
 549              	.LBE202:
 550              	.LBE203:
 551              	.LBE209:
 552              	.LBE194:
 553              		.loc 5 511 0
 554 0038 6B69     		ldr	r3, [r5, #20]
 555 003a 1A89     		ldrh	r2, [r3, #8]
 556 003c 002A     		cmp	r2, #0
 557 003e F0D0     		beq	.L43
 558              	.LVL48:
 559              	.L40:
 560 0040 F8BD     		pop	{r3, r4, r5, r6, r7, pc}
 561              	.L48:
 562 0042 00BF     		.align	2
 563              	.L47:
 564 0044 00000000 		.word	ch
 565              	.LBE193:
 566              	.LBE192:
 567              		.cfi_endproc
 568              	.LFE174:
 569              		.size	chSysTimerHandlerI, .-chSysTimerHandlerI
 570              		.section	.text.chSysGetStatusAndLockX,"ax",%progbits
ARM GAS  /tmp/cc9EAuRb.s 			page 11


 571              		.align	2
 572              		.p2align 4,,15
 573              		.global	chSysGetStatusAndLockX
 574              		.thumb
 575              		.thumb_func
 576              		.type	chSysGetStatusAndLockX, %function
 577              	chSysGetStatusAndLockX:
 578              	.LFB175:
 579              		.loc 1 346 0
 580              		.cfi_startproc
 581              		@ args = 0, pretend = 0, frame = 0
 582              		@ frame_needed = 0, uses_anonymous_args = 0
 583              		@ link register save eliminated.
 584              	.LBB210:
 585              	.LBB211:
 586              	.LBB212:
 587              	.LBB213:
 588              		.loc 4 535 0
 589              	@ 535 "/home/maciek/ChibiOS_16.1.5/os/ext/CMSIS/include/core_cmFunc.h" 1
 590 0000 EFF31180 		MRS r0, basepri
 591              	@ 0 "" 2
 592              	.LVL49:
 593              		.thumb
 594              	.LBE213:
 595              	.LBE212:
 596              	.LBE211:
 597              	.LBE210:
 598              		.loc 1 349 0
 599 0004 20B9     		cbnz	r0, .L50
 600              	.LBB214:
 601              	.LBB215:
 602              	.LBB216:
 603              	.LBB217:
 604              		.loc 4 385 0
 605              	@ 385 "/home/maciek/ChibiOS_16.1.5/os/ext/CMSIS/include/core_cmFunc.h" 1
 606 0006 EFF30583 		MRS r3, ipsr
 607              	@ 0 "" 2
 608              	.LVL50:
 609              		.thumb
 610              	.LBE217:
 611              	.LBE216:
 612              	.LBE215:
 613              	.LBE214:
 614              	.LBB218:
 615              	.LBB219:
 616              	.LBB220:
 617              	.LBB221:
 618              		.loc 4 548 0
 619 000a 2023     		movs	r3, #32
 620              	.LVL51:
 621              	@ 548 "/home/maciek/ChibiOS_16.1.5/os/ext/CMSIS/include/core_cmFunc.h" 1
 622 000c 83F31188 		MSR basepri, r3
 623              	@ 0 "" 2
 624              	.LVL52:
 625              		.thumb
 626              	.L50:
 627              	.LBE221:
ARM GAS  /tmp/cc9EAuRb.s 			page 12


 628              	.LBE220:
 629              	.LBE219:
 630              	.LBE218:
 631              		.loc 1 358 0
 632 0010 7047     		bx	lr
 633              		.cfi_endproc
 634              	.LFE175:
 635              		.size	chSysGetStatusAndLockX, .-chSysGetStatusAndLockX
 636 0012 00BF     		.section	.text.chSysRestoreStatusX,"ax",%progbits
 637              		.align	2
 638              		.p2align 4,,15
 639              		.global	chSysRestoreStatusX
 640              		.thumb
 641              		.thumb_func
 642              		.type	chSysRestoreStatusX, %function
 643              	chSysRestoreStatusX:
 644              	.LFB176:
 645              		.loc 1 369 0
 646              		.cfi_startproc
 647              		@ args = 0, pretend = 0, frame = 0
 648              		@ frame_needed = 0, uses_anonymous_args = 0
 649              	.LVL53:
 650              		.loc 1 371 0
 651 0000 68B9     		cbnz	r0, .L56
 652              		.loc 1 369 0
 653 0002 10B5     		push	{r4, lr}
 654              		.cfi_def_cfa_offset 8
 655              		.cfi_offset 4, -8
 656              		.cfi_offset 14, -4
 657              	.LBB222:
 658              	.LBB223:
 659              	.LBB224:
 660              	.LBB225:
 661              		.loc 4 385 0
 662              	@ 385 "/home/maciek/ChibiOS_16.1.5/os/ext/CMSIS/include/core_cmFunc.h" 1
 663 0004 EFF30584 		MRS r4, ipsr
 664              	@ 0 "" 2
 665              	.LVL54:
 666              		.thumb
 667              	.LBE225:
 668              	.LBE224:
 669              		.loc 3 448 0
 670 0008 C4F30804 		ubfx	r4, r4, #0, #9
 671              	.LVL55:
 672              	.LBE223:
 673              	.LBE222:
 674              		.loc 1 372 0
 675 000c 14B1     		cbz	r4, .L54
 676              	.LVL56:
 677              	.LBB226:
 678              	.LBB227:
 679              	.LBB228:
 680              	.LBB229:
 681              	.LBB230:
 682              		.loc 4 548 0
 683              	@ 548 "/home/maciek/ChibiOS_16.1.5/os/ext/CMSIS/include/core_cmFunc.h" 1
 684 000e 80F31188 		MSR basepri, r0
ARM GAS  /tmp/cc9EAuRb.s 			page 13


 685              	@ 0 "" 2
 686              		.thumb
 687 0012 10BD     		pop	{r4, pc}
 688              	.LVL57:
 689              	.L54:
 690              	.LBE230:
 691              	.LBE229:
 692              	.LBE228:
 693              	.LBE227:
 694              	.LBE226:
 695              		.loc 1 376 0
 696 0014 FFF7FEFF 		bl	chSchRescheduleS
 697              	.LVL58:
 698              	.LBB231:
 699              	.LBB232:
 700              	.LBB233:
 701              	.LBB234:
 702              	.LBB235:
 703              		.loc 4 548 0
 704              	@ 548 "/home/maciek/ChibiOS_16.1.5/os/ext/CMSIS/include/core_cmFunc.h" 1
 705 0018 84F31188 		MSR basepri, r4
 706              	@ 0 "" 2
 707              		.thumb
 708 001c 10BD     		pop	{r4, pc}
 709              	.LVL59:
 710              	.L56:
 711              		.cfi_def_cfa_offset 0
 712              		.cfi_restore 4
 713              		.cfi_restore 14
 714 001e 7047     		bx	lr
 715              	.LBE235:
 716              	.LBE234:
 717              	.LBE233:
 718              	.LBE232:
 719              	.LBE231:
 720              		.cfi_endproc
 721              	.LFE176:
 722              		.size	chSysRestoreStatusX, .-chSysRestoreStatusX
 723              		.section	.text.chSysIsCounterWithinX,"ax",%progbits
 724              		.align	2
 725              		.p2align 4,,15
 726              		.global	chSysIsCounterWithinX
 727              		.thumb
 728              		.thumb_func
 729              		.type	chSysIsCounterWithinX, %function
 730              	chSysIsCounterWithinX:
 731              	.LFB177:
 732              		.loc 1 401 0
 733              		.cfi_startproc
 734              		@ args = 0, pretend = 0, frame = 0
 735              		@ frame_needed = 0, uses_anonymous_args = 0
 736              		@ link register save eliminated.
 737              	.LVL60:
 738              		.loc 1 403 0
 739 0000 401A     		subs	r0, r0, r1
 740              	.LVL61:
 741 0002 521A     		subs	r2, r2, r1
ARM GAS  /tmp/cc9EAuRb.s 			page 14


 742              	.LVL62:
 743              		.loc 1 404 0
 744 0004 9042     		cmp	r0, r2
 745 0006 2CBF     		ite	cs
 746 0008 0020     		movcs	r0, #0
 747 000a 0120     		movcc	r0, #1
 748 000c 7047     		bx	lr
 749              		.cfi_endproc
 750              	.LFE177:
 751              		.size	chSysIsCounterWithinX, .-chSysIsCounterWithinX
 752 000e 00BF     		.section	.text.chSysPolledDelayX,"ax",%progbits
 753              		.align	2
 754              		.p2align 4,,15
 755              		.global	chSysPolledDelayX
 756              		.thumb
 757              		.thumb_func
 758              		.type	chSysPolledDelayX, %function
 759              	chSysPolledDelayX:
 760              	.LFB178:
 761              		.loc 1 417 0
 762              		.cfi_startproc
 763              		@ args = 0, pretend = 0, frame = 0
 764              		@ frame_needed = 0, uses_anonymous_args = 0
 765              		@ link register save eliminated.
 766              	.LVL63:
 767              	.LBB236:
 768              	.LBB237:
 769              		.loc 3 570 0
 770 0000 034B     		ldr	r3, .L61
 771              	.LBE237:
 772              	.LBE236:
 773              	.LBB239:
 774              	.LBB240:
 775 0002 1946     		mov	r1, r3
 776              	.LBE240:
 777              	.LBE239:
 778              	.LBB242:
 779              	.LBB238:
 780 0004 5A68     		ldr	r2, [r3, #4]
 781              	.LVL64:
 782              	.L59:
 783              	.LBE238:
 784              	.LBE242:
 785              	.LBB243:
 786              	.LBB241:
 787              		.loc 3 570 0 is_stmt 0 discriminator 1
 788 0006 4B68     		ldr	r3, [r1, #4]
 789              	.LVL65:
 790              	.LBE241:
 791              	.LBE243:
 792              	.LBB244:
 793              	.LBB245:
 794              		.loc 1 403 0 is_stmt 1 discriminator 1
 795 0008 9B1A     		subs	r3, r3, r2
 796              	.LVL66:
 797              	.LBE245:
 798              	.LBE244:
ARM GAS  /tmp/cc9EAuRb.s 			page 15


 799              		.loc 1 421 0 discriminator 1
 800 000a 9842     		cmp	r0, r3
 801 000c FBD8     		bhi	.L59
 802              		.loc 1 423 0
 803 000e 7047     		bx	lr
 804              	.L62:
 805              		.align	2
 806              	.L61:
 807 0010 001000E0 		.word	-536866816
 808              		.cfi_endproc
 809              	.LFE178:
 810              		.size	chSysPolledDelayX, .-chSysPolledDelayX
 811              		.text
 812              	.Letext0:
 813              		.file 6 "/opt/stm32/gcc/gcc-arm-none-eabi-4_9-2015q2/lib/gcc/arm-none-eabi/4.9.3/include/stddef.h"
 814              		.file 7 "/opt/stm32/gcc/gcc-arm-none-eabi-4_9-2015q2/arm-none-eabi/include/machine/_default_types.
 815              		.file 8 "/opt/stm32/gcc/gcc-arm-none-eabi-4_9-2015q2/arm-none-eabi/include/sys/_stdint.h"
 816              		.file 9 "/home/maciek/ChibiOS_16.1.5/os/rt/ports/ARMCMx/compilers/GCC/chtypes.h"
 817              		.file 10 "/home/maciek/ChibiOS_16.1.5/os/rt/include/chsystypes.h"
 818              		.file 11 "/home/maciek/ChibiOS_16.1.5/os/rt/include/chschd.h"
 819              		.file 12 "/home/maciek/ChibiOS_16.1.5/os/ext/CMSIS/ST/STM32F1xx/stm32f103xe.h"
 820              		.file 13 "/home/maciek/ChibiOS_16.1.5/os/rt/ports/ARMCMx/chcore.h"
 821              		.file 14 "/home/maciek/ChibiOS_16.1.5/os/rt/include/chtm.h"
 822              		.file 15 "/home/maciek/ChibiOS_16.1.5/os/rt/include/chsem.h"
 823              		.file 16 "/home/maciek/ChibiOS_16.1.5/os/rt/include/chmtx.h"
 824              		.file 17 "/home/maciek/ChibiOS_16.1.5/os/rt/include/chthreads.h"
 825              		.file 18 "/home/maciek/ChibiOS_16.1.5/os/rt/include/chsys.h"
 826              		.file 19 "/home/maciek/ChibiOS_16.1.5/os/rt/include/chregistry.h"
 827              		.file 20 "/home/maciek/ChibiOS_16.1.5/os/rt/include/chmemcore.h"
 828              		.file 21 "/home/maciek/ChibiOS_16.1.5/os/rt/include/chheap.h"