ARM GAS  /tmp/ccDY4CBw.s 			page 1


   1              		.syntax unified
   2              		.cpu cortex-m3
   3              		.fpu softvfp
   4              		.eabi_attribute 20, 1
   5              		.eabi_attribute 21, 1
   6              		.eabi_attribute 23, 3
   7              		.eabi_attribute 24, 1
   8              		.eabi_attribute 25, 1
   9              		.eabi_attribute 26, 1
  10              		.eabi_attribute 30, 2
  11              		.eabi_attribute 34, 1
  12              		.eabi_attribute 18, 4
  13              		.thumb
  14              		.file	"chthreads.c"
  15              		.text
  16              	.Ltext0:
  17              		.cfi_sections	.debug_frame
  18              		.section	.text._thread_init,"ax",%progbits
  19              		.align	2
  20              		.p2align 4,,15
  21              		.global	_thread_init
  22              		.thumb
  23              		.thumb_func
  24              		.type	_thread_init, %function
  25              	_thread_init:
  26              	.LFB170:
  27              		.file 1 "/home/maciek/ChibiOS_16.1.5/os/rt/src/chthreads.c"
  28              		.loc 1 91 0
  29              		.cfi_startproc
  30              		@ args = 0, pretend = 0, frame = 0
  31              		@ frame_needed = 0, uses_anonymous_args = 0
  32              		@ link register save eliminated.
  33              	.LVL0:
  34 0000 F0B4     		push	{r4, r5, r6, r7}
  35              		.cfi_def_cfa_offset 16
  36              		.cfi_offset 4, -16
  37              		.cfi_offset 5, -12
  38              		.cfi_offset 6, -8
  39              		.cfi_offset 7, -4
  40              		.loc 1 120 0
  41 0002 00F11C04 		add	r4, r0, #28
  42              		.loc 1 95 0
  43 0006 0022     		movs	r2, #0
  44              		.loc 1 94 0
  45 0008 0227     		movs	r7, #2
  46              		.loc 1 110 0
  47 000a 0126     		movs	r6, #1
  48              		.loc 1 117 0
  49 000c 00F11805 		add	r5, r0, #24
  50              		.loc 1 94 0
  51 0010 0774     		strb	r7, [r0, #16]
  52              		.loc 1 110 0
  53 0012 8674     		strb	r6, [r0, #18]
  54              	.LVL1:
  55              	.LBB184:
  56              	.LBB185:
  57              		.file 2 "/home/maciek/ChibiOS_16.1.5/os/rt/include/chschd.h"
ARM GAS  /tmp/ccDY4CBw.s 			page 2


  58              		.loc 2 566 0
  59 0014 8561     		str	r5, [r0, #24]
  60              	.LBE185:
  61              	.LBE184:
  62              	.LBB186:
  63              	.LBB187:
  64              		.loc 2 604 0
  65 0016 C461     		str	r4, [r0, #28]
  66              		.loc 2 605 0
  67 0018 0462     		str	r4, [r0, #32]
  68              	.LBE187:
  69              	.LBE186:
  70              		.loc 1 93 0
  71 001a 8160     		str	r1, [r0, #8]
  72              		.loc 1 100 0
  73 001c 0163     		str	r1, [r0, #48]
  74              		.loc 1 95 0
  75 001e 4274     		strb	r2, [r0, #17]
  76              		.loc 1 101 0
  77 0020 C262     		str	r2, [r0, #44]
  78              		.loc 1 104 0
  79 0022 8262     		str	r2, [r0, #40]
  80              		.loc 1 132 0
  81 0024 F0BC     		pop	{r4, r5, r6, r7}
  82              		.cfi_restore 7
  83              		.cfi_restore 6
  84              		.cfi_restore 5
  85              		.cfi_restore 4
  86              		.cfi_def_cfa_offset 0
  87              	.LVL2:
  88 0026 7047     		bx	lr
  89              		.cfi_endproc
  90              	.LFE170:
  91              		.size	_thread_init, .-_thread_init
  92              		.section	.text.chThdCreateI,"ax",%progbits
  93              		.align	2
  94              		.p2align 4,,15
  95              		.global	chThdCreateI
  96              		.thumb
  97              		.thumb_func
  98              		.type	chThdCreateI, %function
  99              	chThdCreateI:
 100              	.LFB171:
 101              		.loc 1 177 0
 102              		.cfi_startproc
 103              		@ args = 4, pretend = 0, frame = 0
 104              		@ frame_needed = 0, uses_anonymous_args = 0
 105              	.LVL3:
 106 0000 2DE9F043 		push	{r4, r5, r6, r7, r8, r9, lr}
 107              		.cfi_def_cfa_offset 28
 108              		.cfi_offset 4, -28
 109              		.cfi_offset 5, -24
 110              		.cfi_offset 6, -20
 111              		.cfi_offset 7, -16
 112              		.cfi_offset 8, -12
 113              		.cfi_offset 9, -8
 114              		.cfi_offset 14, -4
ARM GAS  /tmp/ccDY4CBw.s 			page 3


 115              		.loc 1 186 0
 116 0004 2439     		subs	r1, r1, #36
 117              	.LVL4:
 118 0006 4618     		adds	r6, r0, r1
 119 0008 C660     		str	r6, [r0, #12]
 120 000a DFF83C90 		ldr	r9, .L5
 121 000e 4350     		str	r3, [r0, r1]
 122 0010 079B     		ldr	r3, [sp, #28]
 123              	.LVL5:
 124              	.LBB188:
 125              	.LBB189:
 126              		.loc 1 95 0
 127 0012 0025     		movs	r5, #0
 128              		.loc 1 120 0
 129 0014 00F11C07 		add	r7, r0, #28
 130              		.loc 1 94 0
 131 0018 4FF00208 		mov	r8, #2
 132              		.loc 1 110 0
 133 001c 4FF0010C 		mov	ip, #1
 134              		.loc 1 117 0
 135 0020 00F1180E 		add	lr, r0, #24
 136              	.LBE189:
 137              	.LBE188:
 138              		.loc 1 186 0
 139 0024 7360     		str	r3, [r6, #4]
 140 0026 C6F82090 		str	r9, [r6, #32]
 141              	.LVL6:
 142              	.LBB195:
 143              	.LBB194:
 144              		.loc 1 93 0
 145 002a 8260     		str	r2, [r0, #8]
 146              		.loc 1 100 0
 147 002c 0263     		str	r2, [r0, #48]
 148              		.loc 1 94 0
 149 002e 80F81080 		strb	r8, [r0, #16]
 150              	.LVL7:
 151              		.loc 1 110 0
 152 0032 80F812C0 		strb	ip, [r0, #18]
 153              	.LVL8:
 154              	.LBB190:
 155              	.LBB191:
 156              		.loc 2 566 0
 157 0036 C0F818E0 		str	lr, [r0, #24]
 158              	.LBE191:
 159              	.LBE190:
 160              	.LBB192:
 161              	.LBB193:
 162              		.loc 2 604 0
 163 003a C761     		str	r7, [r0, #28]
 164              		.loc 2 605 0
 165 003c 0762     		str	r7, [r0, #32]
 166              	.LBE193:
 167              	.LBE192:
 168              		.loc 1 95 0
 169 003e 4574     		strb	r5, [r0, #17]
 170              		.loc 1 101 0
 171 0040 C562     		str	r5, [r0, #44]
ARM GAS  /tmp/ccDY4CBw.s 			page 4


 172              		.loc 1 104 0
 173 0042 8562     		str	r5, [r0, #40]
 174              	.LBE194:
 175              	.LBE195:
 176              		.loc 1 189 0
 177 0044 BDE8F083 		pop	{r4, r5, r6, r7, r8, r9, pc}
 178              	.LVL9:
 179              	.L6:
 180              		.align	2
 181              	.L5:
 182 0048 00000000 		.word	_port_thread_start
 183              		.cfi_endproc
 184              	.LFE171:
 185              		.size	chThdCreateI, .-chThdCreateI
 186              		.section	.text.chThdCreateStatic,"ax",%progbits
 187              		.align	2
 188              		.p2align 4,,15
 189              		.global	chThdCreateStatic
 190              		.thumb
 191              		.thumb_func
 192              		.type	chThdCreateStatic, %function
 193              	chThdCreateStatic:
 194              	.LFB172:
 195              		.loc 1 208 0
 196              		.cfi_startproc
 197              		@ args = 4, pretend = 0, frame = 0
 198              		@ frame_needed = 0, uses_anonymous_args = 0
 199              	.LVL10:
 200 0000 2DE9F047 		push	{r4, r5, r6, r7, r8, r9, r10, lr}
 201              		.cfi_def_cfa_offset 32
 202              		.cfi_offset 4, -32
 203              		.cfi_offset 5, -28
 204              		.cfi_offset 6, -24
 205              		.cfi_offset 7, -20
 206              		.cfi_offset 8, -16
 207              		.cfi_offset 9, -12
 208              		.cfi_offset 10, -8
 209              		.cfi_offset 14, -4
 210              		.loc 1 208 0
 211 0004 9A46     		mov	r10, r3
 212 0006 0446     		mov	r4, r0
 213              	.LBB196:
 214              	.LBB197:
 215              	.LBB198:
 216              	.LBB199:
 217              		.file 3 "/home/maciek/ChibiOS_16.1.5/os/ext/CMSIS/include/core_cmFunc.h"
 218              		.loc 3 548 0
 219 0008 2023     		movs	r3, #32
 220              	.LVL11:
 221              	@ 548 "/home/maciek/ChibiOS_16.1.5/os/ext/CMSIS/include/core_cmFunc.h" 1
 222 000a 83F31188 		MSR basepri, r3
 223              	@ 0 "" 2
 224              	.LVL12:
 225              		.thumb
 226              	.LBE199:
 227              	.LBE198:
 228              	.LBE197:
ARM GAS  /tmp/ccDY4CBw.s 			page 5


 229              	.LBE196:
 230              	.LBB200:
 231              	.LBB201:
 232              		.loc 1 186 0
 233 000e DFF85090 		ldr	r9, .L9
 234 0012 2439     		subs	r1, r1, #36
 235              	.LVL13:
 236 0014 089F     		ldr	r7, [sp, #32]
 237 0016 4618     		adds	r6, r0, r1
 238              	.LBB202:
 239              	.LBB203:
 240              		.loc 1 95 0
 241 0018 0025     		movs	r5, #0
 242              		.loc 1 120 0
 243 001a 00F11C03 		add	r3, r0, #28
 244              		.loc 1 110 0
 245 001e 4FF0010C 		mov	ip, #1
 246              		.loc 1 117 0
 247 0022 00F1180E 		add	lr, r0, #24
 248              		.loc 1 94 0
 249 0026 4FF00208 		mov	r8, #2
 250              	.LBE203:
 251              	.LBE202:
 252              		.loc 1 186 0
 253 002a C660     		str	r6, [r0, #12]
 254 002c 40F801A0 		str	r10, [r0, r1]
 255 0030 7760     		str	r7, [r6, #4]
 256 0032 C6F82090 		str	r9, [r6, #32]
 257              	.LVL14:
 258              	.LBE201:
 259              	.LBE200:
 260              		.loc 1 222 0
 261 0036 2946     		mov	r1, r5
 262              	.LVL15:
 263              	.LBB211:
 264              	.LBB210:
 265              	.LBB209:
 266              	.LBB208:
 267              		.loc 1 93 0
 268 0038 8260     		str	r2, [r0, #8]
 269              		.loc 1 100 0
 270 003a 0263     		str	r2, [r0, #48]
 271              		.loc 1 94 0
 272 003c 80F81080 		strb	r8, [r0, #16]
 273              		.loc 1 110 0
 274 0040 80F812C0 		strb	ip, [r0, #18]
 275              	.LVL16:
 276              	.LBB204:
 277              	.LBB205:
 278              		.loc 2 566 0
 279 0044 C0F818E0 		str	lr, [r0, #24]
 280              	.LBE205:
 281              	.LBE204:
 282              		.loc 1 95 0
 283 0048 4574     		strb	r5, [r0, #17]
 284              		.loc 1 101 0
 285 004a C562     		str	r5, [r0, #44]
ARM GAS  /tmp/ccDY4CBw.s 			page 6


 286              		.loc 1 104 0
 287 004c 8562     		str	r5, [r0, #40]
 288              	.LBB206:
 289              	.LBB207:
 290              		.loc 2 604 0
 291 004e C361     		str	r3, [r0, #28]
 292              		.loc 2 605 0
 293 0050 0362     		str	r3, [r0, #32]
 294              	.LBE207:
 295              	.LBE206:
 296              	.LBE208:
 297              	.LBE209:
 298              	.LBE210:
 299              	.LBE211:
 300              		.loc 1 222 0
 301 0052 FFF7FEFF 		bl	chSchWakeupS
 302              	.LVL17:
 303              	.LBB212:
 304              	.LBB213:
 305              	.LBB214:
 306              	.LBB215:
 307              	.LBB216:
 308              		.loc 3 548 0
 309              	@ 548 "/home/maciek/ChibiOS_16.1.5/os/ext/CMSIS/include/core_cmFunc.h" 1
 310 0056 85F31188 		MSR basepri, r5
 311              	@ 0 "" 2
 312              		.thumb
 313              	.LBE216:
 314              	.LBE215:
 315              	.LBE214:
 316              	.LBE213:
 317              	.LBE212:
 318              		.loc 1 226 0
 319 005a 2046     		mov	r0, r4
 320 005c BDE8F087 		pop	{r4, r5, r6, r7, r8, r9, r10, pc}
 321              	.LVL18:
 322              	.L10:
 323              		.align	2
 324              	.L9:
 325 0060 00000000 		.word	_port_thread_start
 326              		.cfi_endproc
 327              	.LFE172:
 328              		.size	chThdCreateStatic, .-chThdCreateStatic
 329              		.section	.text.chThdStart,"ax",%progbits
 330              		.align	2
 331              		.p2align 4,,15
 332              		.global	chThdStart
 333              		.thumb
 334              		.thumb_func
 335              		.type	chThdStart, %function
 336              	chThdStart:
 337              	.LFB173:
 338              		.loc 1 237 0
 339              		.cfi_startproc
 340              		@ args = 0, pretend = 0, frame = 0
 341              		@ frame_needed = 0, uses_anonymous_args = 0
 342              	.LVL19:
ARM GAS  /tmp/ccDY4CBw.s 			page 7


 343 0000 08B5     		push	{r3, lr}
 344              		.cfi_def_cfa_offset 8
 345              		.cfi_offset 3, -8
 346              		.cfi_offset 14, -4
 347              	.LBB217:
 348              	.LBB218:
 349              	.LBB219:
 350              	.LBB220:
 351              		.loc 3 548 0
 352 0002 2023     		movs	r3, #32
 353              	@ 548 "/home/maciek/ChibiOS_16.1.5/os/ext/CMSIS/include/core_cmFunc.h" 1
 354 0004 83F31188 		MSR basepri, r3
 355              	@ 0 "" 2
 356              	.LVL20:
 357              		.thumb
 358              	.LBE220:
 359              	.LBE219:
 360              	.LBE218:
 361              	.LBE217:
 362              	.LBB221:
 363              	.LBB222:
 364              		.file 4 "/home/maciek/ChibiOS_16.1.5/os/rt/include/chthreads.h"
 365              		.loc 4 249 0
 366 0008 FFF7FEFF 		bl	chSchReadyI
 367              	.LVL21:
 368              	.LBE222:
 369              	.LBE221:
 370              	.LBB223:
 371              	.LBB224:
 372              	.LBB225:
 373              	.LBB226:
 374              	.LBB227:
 375              		.loc 3 548 0
 376 000c 0023     		movs	r3, #0
 377              	@ 548 "/home/maciek/ChibiOS_16.1.5/os/ext/CMSIS/include/core_cmFunc.h" 1
 378 000e 83F31188 		MSR basepri, r3
 379              	@ 0 "" 2
 380              		.thumb
 381              	.LBE227:
 382              	.LBE226:
 383              	.LBE225:
 384              	.LBE224:
 385              	.LBE223:
 386              		.loc 1 244 0
 387 0012 08BD     		pop	{r3, pc}
 388              		.cfi_endproc
 389              	.LFE173:
 390              		.size	chThdStart, .-chThdStart
 391              		.section	.text.chThdSetPriority,"ax",%progbits
 392              		.align	2
 393              		.p2align 4,,15
 394              		.global	chThdSetPriority
 395              		.thumb
 396              		.thumb_func
 397              		.type	chThdSetPriority, %function
 398              	chThdSetPriority:
 399              	.LFB174:
ARM GAS  /tmp/ccDY4CBw.s 			page 8


 400              		.loc 1 258 0
 401              		.cfi_startproc
 402              		@ args = 0, pretend = 0, frame = 0
 403              		@ frame_needed = 0, uses_anonymous_args = 0
 404              	.LVL22:
 405 0000 10B5     		push	{r4, lr}
 406              		.cfi_def_cfa_offset 8
 407              		.cfi_offset 4, -8
 408              		.cfi_offset 14, -4
 409              	.LBB228:
 410              	.LBB229:
 411              	.LBB230:
 412              	.LBB231:
 413              		.loc 3 548 0
 414 0002 2023     		movs	r3, #32
 415              	@ 548 "/home/maciek/ChibiOS_16.1.5/os/ext/CMSIS/include/core_cmFunc.h" 1
 416 0004 83F31188 		MSR basepri, r3
 417              	@ 0 "" 2
 418              		.thumb
 419              	.LBE231:
 420              	.LBE230:
 421              	.LBE229:
 422              	.LBE228:
 423              		.loc 1 265 0
 424 0008 084B     		ldr	r3, .L18
 425 000a 1B69     		ldr	r3, [r3, #16]
 426 000c 1C6B     		ldr	r4, [r3, #48]
 427              	.LVL23:
 428              		.loc 1 266 0
 429 000e 9968     		ldr	r1, [r3, #8]
 430 0010 8C42     		cmp	r4, r1
 431 0012 01D0     		beq	.L14
 432              		.loc 1 266 0 is_stmt 0 discriminator 1
 433 0014 8142     		cmp	r1, r0
 434 0016 00D2     		bcs	.L15
 435              	.L14:
 436              		.loc 1 267 0 is_stmt 1
 437 0018 9860     		str	r0, [r3, #8]
 438              	.L15:
 439              		.loc 1 269 0
 440 001a 1863     		str	r0, [r3, #48]
 441              		.loc 1 274 0
 442 001c FFF7FEFF 		bl	chSchRescheduleS
 443              	.LVL24:
 444              	.LBB232:
 445              	.LBB233:
 446              	.LBB234:
 447              	.LBB235:
 448              	.LBB236:
 449              		.loc 3 548 0
 450 0020 0023     		movs	r3, #0
 451              	@ 548 "/home/maciek/ChibiOS_16.1.5/os/ext/CMSIS/include/core_cmFunc.h" 1
 452 0022 83F31188 		MSR basepri, r3
 453              	@ 0 "" 2
 454              		.thumb
 455              	.LBE236:
 456              	.LBE235:
ARM GAS  /tmp/ccDY4CBw.s 			page 9


 457              	.LBE234:
 458              	.LBE233:
 459              	.LBE232:
 460              		.loc 1 278 0
 461 0026 2046     		mov	r0, r4
 462 0028 10BD     		pop	{r4, pc}
 463              	.LVL25:
 464              	.L19:
 465 002a 00BF     		.align	2
 466              	.L18:
 467 002c 00000000 		.word	ch
 468              		.cfi_endproc
 469              	.LFE174:
 470              		.size	chThdSetPriority, .-chThdSetPriority
 471              		.section	.text.chThdTerminate,"ax",%progbits
 472              		.align	2
 473              		.p2align 4,,15
 474              		.global	chThdTerminate
 475              		.thumb
 476              		.thumb_func
 477              		.type	chThdTerminate, %function
 478              	chThdTerminate:
 479              	.LFB175:
 480              		.loc 1 292 0
 481              		.cfi_startproc
 482              		@ args = 0, pretend = 0, frame = 0
 483              		@ frame_needed = 0, uses_anonymous_args = 0
 484              		@ link register save eliminated.
 485              	.LVL26:
 486              	.LBB237:
 487              	.LBB238:
 488              	.LBB239:
 489              	.LBB240:
 490              		.loc 3 548 0
 491 0000 2023     		movs	r3, #32
 492              	@ 548 "/home/maciek/ChibiOS_16.1.5/os/ext/CMSIS/include/core_cmFunc.h" 1
 493 0002 83F31188 		MSR basepri, r3
 494              	@ 0 "" 2
 495              		.thumb
 496              	.LBE240:
 497              	.LBE239:
 498              	.LBE238:
 499              	.LBE237:
 500              		.loc 1 295 0
 501 0006 437C     		ldrb	r3, [r0, #17]	@ zero_extendqisi2
 502              	.LBB241:
 503              	.LBB242:
 504              	.LBB243:
 505              	.LBB244:
 506              	.LBB245:
 507              		.loc 3 548 0
 508 0008 0022     		movs	r2, #0
 509              	.LBE245:
 510              	.LBE244:
 511              	.LBE243:
 512              	.LBE242:
 513              	.LBE241:
ARM GAS  /tmp/ccDY4CBw.s 			page 10


 514              		.loc 1 295 0
 515 000a 43F00403 		orr	r3, r3, #4
 516 000e 4374     		strb	r3, [r0, #17]
 517              	.LVL27:
 518              	.LBB250:
 519              	.LBB249:
 520              	.LBB248:
 521              	.LBB247:
 522              	.LBB246:
 523              		.loc 3 548 0
 524              	@ 548 "/home/maciek/ChibiOS_16.1.5/os/ext/CMSIS/include/core_cmFunc.h" 1
 525 0010 82F31188 		MSR basepri, r2
 526              	@ 0 "" 2
 527              		.thumb
 528 0014 7047     		bx	lr
 529              	.LBE246:
 530              	.LBE247:
 531              	.LBE248:
 532              	.LBE249:
 533              	.LBE250:
 534              		.cfi_endproc
 535              	.LFE175:
 536              		.size	chThdTerminate, .-chThdTerminate
 537 0016 00BF     		.section	.text.chThdSleep,"ax",%progbits
 538              		.align	2
 539              		.p2align 4,,15
 540              		.global	chThdSleep
 541              		.thumb
 542              		.thumb_func
 543              		.type	chThdSleep, %function
 544              	chThdSleep:
 545              	.LFB176:
 546              		.loc 1 311 0
 547              		.cfi_startproc
 548              		@ args = 0, pretend = 0, frame = 0
 549              		@ frame_needed = 0, uses_anonymous_args = 0
 550              	.LVL28:
 551 0000 08B5     		push	{r3, lr}
 552              		.cfi_def_cfa_offset 8
 553              		.cfi_offset 3, -8
 554              		.cfi_offset 14, -4
 555              		.loc 1 311 0
 556 0002 0146     		mov	r1, r0
 557              	.LBB251:
 558              	.LBB252:
 559              	.LBB253:
 560              	.LBB254:
 561              		.loc 3 548 0
 562 0004 2023     		movs	r3, #32
 563              	@ 548 "/home/maciek/ChibiOS_16.1.5/os/ext/CMSIS/include/core_cmFunc.h" 1
 564 0006 83F31188 		MSR basepri, r3
 565              	@ 0 "" 2
 566              	.LVL29:
 567              		.thumb
 568              	.LBE254:
 569              	.LBE253:
 570              	.LBE252:
ARM GAS  /tmp/ccDY4CBw.s 			page 11


 571              	.LBE251:
 572              	.LBB255:
 573              	.LBB256:
 574              		.loc 4 268 0
 575 000a 0820     		movs	r0, #8
 576              	.LVL30:
 577 000c FFF7FEFF 		bl	chSchGoSleepTimeoutS
 578              	.LVL31:
 579              	.LBE256:
 580              	.LBE255:
 581              	.LBB257:
 582              	.LBB258:
 583              	.LBB259:
 584              	.LBB260:
 585              	.LBB261:
 586              		.loc 3 548 0
 587 0010 0023     		movs	r3, #0
 588              	@ 548 "/home/maciek/ChibiOS_16.1.5/os/ext/CMSIS/include/core_cmFunc.h" 1
 589 0012 83F31188 		MSR basepri, r3
 590              	@ 0 "" 2
 591              		.thumb
 592 0016 08BD     		pop	{r3, pc}
 593              	.LBE261:
 594              	.LBE260:
 595              	.LBE259:
 596              	.LBE258:
 597              	.LBE257:
 598              		.cfi_endproc
 599              	.LFE176:
 600              		.size	chThdSleep, .-chThdSleep
 601              		.section	.text.chThdSleepUntil,"ax",%progbits
 602              		.align	2
 603              		.p2align 4,,15
 604              		.global	chThdSleepUntil
 605              		.thumb
 606              		.thumb_func
 607              		.type	chThdSleepUntil, %function
 608              	chThdSleepUntil:
 609              	.LFB177:
 610              		.loc 1 331 0
 611              		.cfi_startproc
 612              		@ args = 0, pretend = 0, frame = 0
 613              		@ frame_needed = 0, uses_anonymous_args = 0
 614              	.LVL32:
 615 0000 08B5     		push	{r3, lr}
 616              		.cfi_def_cfa_offset 8
 617              		.cfi_offset 3, -8
 618              		.cfi_offset 14, -4
 619              	.LBB262:
 620              	.LBB263:
 621              	.LBB264:
 622              	.LBB265:
 623              		.loc 3 548 0
 624 0002 2023     		movs	r3, #32
 625              	@ 548 "/home/maciek/ChibiOS_16.1.5/os/ext/CMSIS/include/core_cmFunc.h" 1
 626 0004 83F31188 		MSR basepri, r3
 627              	@ 0 "" 2
ARM GAS  /tmp/ccDY4CBw.s 			page 12


 628              		.thumb
 629              	.LBE265:
 630              	.LBE264:
 631              	.LBE263:
 632              	.LBE262:
 633              	.LBB266:
 634              	.LBB267:
 635              		.file 5 "/home/maciek/ChibiOS_16.1.5/os/rt/include/chvt.h"
 636              		.loc 5 231 0
 637 0008 054B     		ldr	r3, .L29
 638 000a D98B     		ldrh	r1, [r3, #30]
 639              	.LBE267:
 640              	.LBE266:
 641              		.loc 1 334 0
 642 000c 411A     		subs	r1, r0, r1
 643 000e 89B2     		uxth	r1, r1
 644              	.LVL33:
 645              		.loc 1 335 0
 646 0010 11B1     		cbz	r1, .L24
 647              	.LVL34:
 648              	.LBB268:
 649              	.LBB269:
 650              		.loc 4 268 0
 651 0012 0820     		movs	r0, #8
 652 0014 FFF7FEFF 		bl	chSchGoSleepTimeoutS
 653              	.LVL35:
 654              	.L24:
 655              	.LBE269:
 656              	.LBE268:
 657              	.LBB270:
 658              	.LBB271:
 659              	.LBB272:
 660              	.LBB273:
 661              	.LBB274:
 662              		.loc 3 548 0
 663 0018 0023     		movs	r3, #0
 664              	@ 548 "/home/maciek/ChibiOS_16.1.5/os/ext/CMSIS/include/core_cmFunc.h" 1
 665 001a 83F31188 		MSR basepri, r3
 666              	@ 0 "" 2
 667              		.thumb
 668 001e 08BD     		pop	{r3, pc}
 669              	.L30:
 670              		.align	2
 671              	.L29:
 672 0020 00000000 		.word	ch
 673              	.LBE274:
 674              	.LBE273:
 675              	.LBE272:
 676              	.LBE271:
 677              	.LBE270:
 678              		.cfi_endproc
 679              	.LFE177:
 680              		.size	chThdSleepUntil, .-chThdSleepUntil
 681              		.section	.text.chThdSleepUntilWindowed,"ax",%progbits
 682              		.align	2
 683              		.p2align 4,,15
 684              		.global	chThdSleepUntilWindowed
ARM GAS  /tmp/ccDY4CBw.s 			page 13


 685              		.thumb
 686              		.thumb_func
 687              		.type	chThdSleepUntilWindowed, %function
 688              	chThdSleepUntilWindowed:
 689              	.LFB178:
 690              		.loc 1 355 0
 691              		.cfi_startproc
 692              		@ args = 0, pretend = 0, frame = 0
 693              		@ frame_needed = 0, uses_anonymous_args = 0
 694              	.LVL36:
 695 0000 10B5     		push	{r4, lr}
 696              		.cfi_def_cfa_offset 8
 697              		.cfi_offset 4, -8
 698              		.cfi_offset 14, -4
 699              	.LBB275:
 700              	.LBB276:
 701              	.LBB277:
 702              	.LBB278:
 703              		.loc 3 548 0
 704 0002 2023     		movs	r3, #32
 705              	.LBE278:
 706              	.LBE277:
 707              	.LBE276:
 708              	.LBE275:
 709              		.loc 1 355 0
 710 0004 0C46     		mov	r4, r1
 711              	.LBB282:
 712              	.LBB281:
 713              	.LBB280:
 714              	.LBB279:
 715              		.loc 3 548 0
 716              	@ 548 "/home/maciek/ChibiOS_16.1.5/os/ext/CMSIS/include/core_cmFunc.h" 1
 717 0006 83F31188 		MSR basepri, r3
 718              	@ 0 "" 2
 719              		.thumb
 720              	.LBE279:
 721              	.LBE280:
 722              	.LBE281:
 723              	.LBE282:
 724              	.LBB283:
 725              	.LBB284:
 726              		.loc 5 231 0
 727 000a 094A     		ldr	r2, .L34
 728              	.LBE284:
 729              	.LBE283:
 730              	.LBB287:
 731              	.LBB288:
 732              		.loc 5 288 0
 733 000c 0B1A     		subs	r3, r1, r0
 734              	.LBE288:
 735              	.LBE287:
 736              	.LBB290:
 737              	.LBB285:
 738              		.loc 5 231 0
 739 000e D18B     		ldrh	r1, [r2, #30]
 740              	.LVL37:
 741              	.LBE285:
ARM GAS  /tmp/ccDY4CBw.s 			page 14


 742              	.LBE290:
 743              		.loc 1 360 0
 744 0010 9BB2     		uxth	r3, r3
 745              	.LBB291:
 746              	.LBB286:
 747              		.loc 5 231 0
 748 0012 89B2     		uxth	r1, r1
 749              	.LVL38:
 750              	.LBE286:
 751              	.LBE291:
 752              	.LBB292:
 753              	.LBB289:
 754              		.loc 5 288 0
 755 0014 081A     		subs	r0, r1, r0
 756              	.LVL39:
 757              	.LBE289:
 758              	.LBE292:
 759              		.loc 1 360 0
 760 0016 80B2     		uxth	r0, r0
 761 0018 9842     		cmp	r0, r3
 762 001a 04D2     		bcs	.L32
 763              	.LVL40:
 764              		.loc 1 361 0
 765 001c 611A     		subs	r1, r4, r1
 766              	.LVL41:
 767              	.LBB293:
 768              	.LBB294:
 769              		.loc 4 268 0
 770 001e 89B2     		uxth	r1, r1
 771 0020 0820     		movs	r0, #8
 772 0022 FFF7FEFF 		bl	chSchGoSleepTimeoutS
 773              	.LVL42:
 774              	.L32:
 775              	.LBE294:
 776              	.LBE293:
 777              	.LBB295:
 778              	.LBB296:
 779              	.LBB297:
 780              	.LBB298:
 781              	.LBB299:
 782              		.loc 3 548 0
 783 0026 0023     		movs	r3, #0
 784              	@ 548 "/home/maciek/ChibiOS_16.1.5/os/ext/CMSIS/include/core_cmFunc.h" 1
 785 0028 83F31188 		MSR basepri, r3
 786              	@ 0 "" 2
 787              		.thumb
 788              	.LBE299:
 789              	.LBE298:
 790              	.LBE297:
 791              	.LBE296:
 792              	.LBE295:
 793              		.loc 1 366 0
 794 002c 2046     		mov	r0, r4
 795 002e 10BD     		pop	{r4, pc}
 796              	.LVL43:
 797              	.L35:
 798              		.align	2
ARM GAS  /tmp/ccDY4CBw.s 			page 15


 799              	.L34:
 800 0030 00000000 		.word	ch
 801              		.cfi_endproc
 802              	.LFE178:
 803              		.size	chThdSleepUntilWindowed, .-chThdSleepUntilWindowed
 804              		.section	.text.chThdYield,"ax",%progbits
 805              		.align	2
 806              		.p2align 4,,15
 807              		.global	chThdYield
 808              		.thumb
 809              		.thumb_func
 810              		.type	chThdYield, %function
 811              	chThdYield:
 812              	.LFB179:
 813              		.loc 1 375 0
 814              		.cfi_startproc
 815              		@ args = 0, pretend = 0, frame = 0
 816              		@ frame_needed = 0, uses_anonymous_args = 0
 817              	.LVL44:
 818 0000 08B5     		push	{r3, lr}
 819              		.cfi_def_cfa_offset 8
 820              		.cfi_offset 3, -8
 821              		.cfi_offset 14, -4
 822              	.LBB313:
 823              	.LBB314:
 824              	.LBB315:
 825              	.LBB316:
 826              		.loc 3 548 0
 827 0002 2023     		movs	r3, #32
 828              	@ 548 "/home/maciek/ChibiOS_16.1.5/os/ext/CMSIS/include/core_cmFunc.h" 1
 829 0004 83F31188 		MSR basepri, r3
 830              	@ 0 "" 2
 831              		.thumb
 832              	.LBE316:
 833              	.LBE315:
 834              	.LBE314:
 835              	.LBE313:
 836              	.LBB317:
 837              	.LBB318:
 838              	.LBB319:
 839              	.LBB320:
 840              		.loc 2 731 0
 841 0008 064B     		ldr	r3, .L39
 842 000a 1A68     		ldr	r2, [r3]
 843 000c 1B69     		ldr	r3, [r3, #16]
 844              	.LBE320:
 845              	.LBE319:
 846              		.loc 2 745 0
 847 000e 9268     		ldr	r2, [r2, #8]
 848 0010 9B68     		ldr	r3, [r3, #8]
 849 0012 9A42     		cmp	r2, r3
 850 0014 01D3     		bcc	.L37
 851              		.loc 2 746 0
 852 0016 FFF7FEFF 		bl	chSchDoRescheduleBehind
 853              	.LVL45:
 854              	.L37:
 855              	.LBE318:
ARM GAS  /tmp/ccDY4CBw.s 			page 16


 856              	.LBE317:
 857              	.LBB321:
 858              	.LBB322:
 859              	.LBB323:
 860              	.LBB324:
 861              	.LBB325:
 862              		.loc 3 548 0
 863 001a 0023     		movs	r3, #0
 864              	@ 548 "/home/maciek/ChibiOS_16.1.5/os/ext/CMSIS/include/core_cmFunc.h" 1
 865 001c 83F31188 		MSR basepri, r3
 866              	@ 0 "" 2
 867              		.thumb
 868 0020 08BD     		pop	{r3, pc}
 869              	.L40:
 870 0022 00BF     		.align	2
 871              	.L39:
 872 0024 00000000 		.word	ch
 873              	.LBE325:
 874              	.LBE324:
 875              	.LBE323:
 876              	.LBE322:
 877              	.LBE321:
 878              		.cfi_endproc
 879              	.LFE179:
 880              		.size	chThdYield, .-chThdYield
 881              		.section	.text.chThdExitS,"ax",%progbits
 882              		.align	2
 883              		.p2align 4,,15
 884              		.global	chThdExitS
 885              		.thumb
 886              		.thumb_func
 887              		.type	chThdExitS, %function
 888              	chThdExitS:
 889              	.LFB181:
 890              		.loc 1 417 0
 891              		.cfi_startproc
 892              		@ args = 0, pretend = 0, frame = 0
 893              		@ frame_needed = 0, uses_anonymous_args = 0
 894              	.LVL46:
 895 0000 38B5     		push	{r3, r4, r5, lr}
 896              		.cfi_def_cfa_offset 16
 897              		.cfi_offset 3, -16
 898              		.cfi_offset 4, -12
 899              		.cfi_offset 5, -8
 900              		.cfi_offset 14, -4
 901              		.loc 1 418 0
 902 0002 0A4B     		ldr	r3, .L47
 903 0004 1C69     		ldr	r4, [r3, #16]
 904              	.LVL47:
 905              	.LBB326:
 906              	.LBB327:
 907              		.loc 2 592 0
 908 0006 A369     		ldr	r3, [r4, #24]
 909              	.LBE327:
 910              	.LBE326:
 911              		.loc 1 425 0
 912 0008 04F11805 		add	r5, r4, #24
ARM GAS  /tmp/ccDY4CBw.s 			page 17


 913              	.LVL48:
 914 000c 9D42     		cmp	r5, r3
 915              		.loc 1 420 0
 916 000e 6061     		str	r0, [r4, #20]
 917              		.loc 1 425 0
 918 0010 07D0     		beq	.L44
 919              	.LVL49:
 920              	.L43:
 921              	.LBB329:
 922              	.LBB330:
 923              		.loc 2 646 0
 924 0012 1A68     		ldr	r2, [r3]
 925              	.LBE330:
 926              	.LBE329:
 927              		.loc 1 426 0
 928 0014 1846     		mov	r0, r3
 929              	.LBB332:
 930              	.LBB331:
 931              		.loc 2 646 0
 932 0016 A261     		str	r2, [r4, #24]
 933              	.LBE331:
 934              	.LBE332:
 935              		.loc 1 426 0
 936 0018 FFF7FEFF 		bl	chSchReadyI
 937              	.LVL50:
 938              	.LBB333:
 939              	.LBB328:
 940              		.loc 2 592 0
 941 001c A369     		ldr	r3, [r4, #24]
 942              	.LBE328:
 943              	.LBE333:
 944              		.loc 1 425 0
 945 001e AB42     		cmp	r3, r5
 946 0020 F7D1     		bne	.L43
 947              	.LVL51:
 948              	.L44:
 949              		.loc 1 436 0
 950 0022 0F20     		movs	r0, #15
 951              		.loc 1 440 0
 952 0024 BDE83840 		pop	{r3, r4, r5, lr}
 953              		.cfi_restore 14
 954              		.cfi_restore 5
 955              		.cfi_restore 4
 956              		.cfi_restore 3
 957              		.cfi_def_cfa_offset 0
 958              	.LVL52:
 959              		.loc 1 436 0
 960 0028 FFF7FEBF 		b	chSchGoSleepS
 961              	.LVL53:
 962              	.L48:
 963              		.align	2
 964              	.L47:
 965 002c 00000000 		.word	ch
 966              		.cfi_endproc
 967              	.LFE181:
 968              		.size	chThdExitS, .-chThdExitS
 969              		.section	.text.chThdExit,"ax",%progbits
ARM GAS  /tmp/ccDY4CBw.s 			page 18


 970              		.align	2
 971              		.p2align 4,,15
 972              		.global	chThdExit
 973              		.thumb
 974              		.thumb_func
 975              		.type	chThdExit, %function
 976              	chThdExit:
 977              	.LFB180:
 978              		.loc 1 396 0
 979              		.cfi_startproc
 980              		@ args = 0, pretend = 0, frame = 0
 981              		@ frame_needed = 0, uses_anonymous_args = 0
 982              		@ link register save eliminated.
 983              	.LVL54:
 984              	.LBB334:
 985              	.LBB335:
 986              	.LBB336:
 987              	.LBB337:
 988              		.loc 3 548 0
 989 0000 2023     		movs	r3, #32
 990              	@ 548 "/home/maciek/ChibiOS_16.1.5/os/ext/CMSIS/include/core_cmFunc.h" 1
 991 0002 83F31188 		MSR basepri, r3
 992              	@ 0 "" 2
 993              		.thumb
 994              	.LBE337:
 995              	.LBE336:
 996              	.LBE335:
 997              	.LBE334:
 998              		.loc 1 399 0
 999 0006 FFF7FEBF 		b	chThdExitS
 1000              	.LVL55:
 1001              		.cfi_endproc
 1002              	.LFE180:
 1003              		.size	chThdExit, .-chThdExit
 1004 000a 00BF     		.section	.text.chThdWait,"ax",%progbits
 1005              		.align	2
 1006              		.p2align 4,,15
 1007              		.global	chThdWait
 1008              		.thumb
 1009              		.thumb_func
 1010              		.type	chThdWait, %function
 1011              	chThdWait:
 1012              	.LFB182:
 1013              		.loc 1 474 0
 1014              		.cfi_startproc
 1015              		@ args = 0, pretend = 0, frame = 0
 1016              		@ frame_needed = 0, uses_anonymous_args = 0
 1017              	.LVL56:
 1018 0000 38B5     		push	{r3, r4, r5, lr}
 1019              		.cfi_def_cfa_offset 16
 1020              		.cfi_offset 3, -16
 1021              		.cfi_offset 4, -12
 1022              		.cfi_offset 5, -8
 1023              		.cfi_offset 14, -4
 1024              		.loc 1 474 0
 1025 0002 0446     		mov	r4, r0
 1026              	.LBB338:
ARM GAS  /tmp/ccDY4CBw.s 			page 19


 1027              	.LBB339:
 1028              	.LBB340:
 1029              	.LBB341:
 1030              		.loc 3 548 0
 1031 0004 2023     		movs	r3, #32
 1032              	@ 548 "/home/maciek/ChibiOS_16.1.5/os/ext/CMSIS/include/core_cmFunc.h" 1
 1033 0006 83F31188 		MSR basepri, r3
 1034              	@ 0 "" 2
 1035              		.thumb
 1036              	.LBE341:
 1037              	.LBE340:
 1038              	.LBE339:
 1039              	.LBE338:
 1040              		.loc 1 484 0
 1041 000a 037C     		ldrb	r3, [r0, #16]	@ zero_extendqisi2
 1042 000c 0F2B     		cmp	r3, #15
 1043 000e 07D0     		beq	.L51
 1044              		.loc 1 485 0
 1045 0010 084B     		ldr	r3, .L56
 1046              	.LBB342:
 1047              	.LBB343:
 1048              		.loc 2 639 0
 1049 0012 8269     		ldr	r2, [r0, #24]
 1050              	.LBE343:
 1051              	.LBE342:
 1052              		.loc 1 485 0
 1053 0014 1B69     		ldr	r3, [r3, #16]
 1054              	.LVL57:
 1055              		.loc 1 486 0
 1056 0016 0920     		movs	r0, #9
 1057              	.LVL58:
 1058              	.LBB345:
 1059              	.LBB344:
 1060              		.loc 2 639 0
 1061 0018 1A60     		str	r2, [r3]
 1062              		.loc 2 640 0
 1063 001a A361     		str	r3, [r4, #24]
 1064              	.LBE344:
 1065              	.LBE345:
 1066              		.loc 1 486 0
 1067 001c FFF7FEFF 		bl	chSchGoSleepS
 1068              	.LVL59:
 1069              	.L51:
 1070              		.loc 1 488 0
 1071 0020 6569     		ldr	r5, [r4, #20]
 1072              	.LVL60:
 1073              	.LBB346:
 1074              	.LBB347:
 1075              	.LBB348:
 1076              	.LBB349:
 1077              	.LBB350:
 1078              		.loc 3 548 0
 1079 0022 0023     		movs	r3, #0
 1080              	@ 548 "/home/maciek/ChibiOS_16.1.5/os/ext/CMSIS/include/core_cmFunc.h" 1
 1081 0024 83F31188 		MSR basepri, r3
 1082              	@ 0 "" 2
 1083              		.thumb
ARM GAS  /tmp/ccDY4CBw.s 			page 20


 1084              	.LBE350:
 1085              	.LBE349:
 1086              	.LBE348:
 1087              	.LBE347:
 1088              	.LBE346:
 1089              		.loc 1 493 0
 1090 0028 2046     		mov	r0, r4
 1091 002a FFF7FEFF 		bl	chThdRelease
 1092              	.LVL61:
 1093              		.loc 1 497 0
 1094 002e 2846     		mov	r0, r5
 1095 0030 38BD     		pop	{r3, r4, r5, pc}
 1096              	.LVL62:
 1097              	.L57:
 1098 0032 00BF     		.align	2
 1099              	.L56:
 1100 0034 00000000 		.word	ch
 1101              		.cfi_endproc
 1102              	.LFE182:
 1103              		.size	chThdWait, .-chThdWait
 1104              		.section	.text.chThdSuspendS,"ax",%progbits
 1105              		.align	2
 1106              		.p2align 4,,15
 1107              		.global	chThdSuspendS
 1108              		.thumb
 1109              		.thumb_func
 1110              		.type	chThdSuspendS, %function
 1111              	chThdSuspendS:
 1112              	.LFB183:
 1113              		.loc 1 510 0
 1114              		.cfi_startproc
 1115              		@ args = 0, pretend = 0, frame = 0
 1116              		@ frame_needed = 0, uses_anonymous_args = 0
 1117              	.LVL63:
 1118 0000 0246     		mov	r2, r0
 1119 0002 10B5     		push	{r4, lr}
 1120              		.cfi_def_cfa_offset 8
 1121              		.cfi_offset 4, -8
 1122              		.cfi_offset 14, -4
 1123              	.LBB351:
 1124              	.LBB352:
 1125              		.loc 4 176 0
 1126 0004 044C     		ldr	r4, .L60
 1127              	.LBE352:
 1128              	.LBE351:
 1129              		.loc 1 517 0
 1130 0006 0320     		movs	r0, #3
 1131              	.LVL64:
 1132              	.LBB354:
 1133              	.LBB353:
 1134              		.loc 4 176 0
 1135 0008 2369     		ldr	r3, [r4, #16]
 1136              	.LBE353:
 1137              	.LBE354:
 1138              		.loc 1 515 0
 1139 000a 1360     		str	r3, [r2]
 1140              		.loc 1 516 0
ARM GAS  /tmp/ccDY4CBw.s 			page 21


 1141 000c 5A61     		str	r2, [r3, #20]
 1142              		.loc 1 517 0
 1143 000e FFF7FEFF 		bl	chSchGoSleepS
 1144              	.LVL65:
 1145              		.loc 1 519 0
 1146 0012 2369     		ldr	r3, [r4, #16]
 1147              		.loc 1 520 0
 1148 0014 5869     		ldr	r0, [r3, #20]
 1149 0016 10BD     		pop	{r4, pc}
 1150              	.L61:
 1151              		.align	2
 1152              	.L60:
 1153 0018 00000000 		.word	ch
 1154              		.cfi_endproc
 1155              	.LFE183:
 1156              		.size	chThdSuspendS, .-chThdSuspendS
 1157              		.section	.text.chThdSuspendTimeoutS,"ax",%progbits
 1158              		.align	2
 1159              		.p2align 4,,15
 1160              		.global	chThdSuspendTimeoutS
 1161              		.thumb
 1162              		.thumb_func
 1163              		.type	chThdSuspendTimeoutS, %function
 1164              	chThdSuspendTimeoutS:
 1165              	.LFB184:
 1166              		.loc 1 541 0
 1167              		.cfi_startproc
 1168              		@ args = 0, pretend = 0, frame = 0
 1169              		@ frame_needed = 0, uses_anonymous_args = 0
 1170              		@ link register save eliminated.
 1171              	.LVL66:
 1172              	.LBB355:
 1173              	.LBB356:
 1174              		.loc 4 176 0
 1175 0000 054B     		ldr	r3, .L64
 1176              	.LBE356:
 1177              	.LBE355:
 1178              		.loc 1 541 0
 1179 0002 0246     		mov	r2, r0
 1180              	.LBB358:
 1181              	.LBB357:
 1182              		.loc 4 176 0
 1183 0004 1B69     		ldr	r3, [r3, #16]
 1184              	.LBE357:
 1185              	.LBE358:
 1186              		.loc 1 546 0
 1187 0006 21B1     		cbz	r1, .L63
 1188              		.loc 1 550 0
 1189 0008 0360     		str	r3, [r0]
 1190              		.loc 1 553 0
 1191 000a 0320     		movs	r0, #3
 1192              	.LVL67:
 1193              		.loc 1 551 0
 1194 000c 5A61     		str	r2, [r3, #20]
 1195              		.loc 1 553 0
 1196 000e FFF7FEBF 		b	chSchGoSleepTimeoutS
 1197              	.LVL68:
ARM GAS  /tmp/ccDY4CBw.s 			page 22


 1198              	.L63:
 1199              		.loc 1 554 0
 1200 0012 4FF0FF30 		mov	r0, #-1
 1201              	.LVL69:
 1202 0016 7047     		bx	lr
 1203              	.L65:
 1204              		.align	2
 1205              	.L64:
 1206 0018 00000000 		.word	ch
 1207              		.cfi_endproc
 1208              	.LFE184:
 1209              		.size	chThdSuspendTimeoutS, .-chThdSuspendTimeoutS
 1210              		.section	.text.chThdResumeI,"ax",%progbits
 1211              		.align	2
 1212              		.p2align 4,,15
 1213              		.global	chThdResumeI
 1214              		.thumb
 1215              		.thumb_func
 1216              		.type	chThdResumeI, %function
 1217              	chThdResumeI:
 1218              	.LFB185:
 1219              		.loc 1 566 0
 1220              		.cfi_startproc
 1221              		@ args = 0, pretend = 0, frame = 0
 1222              		@ frame_needed = 0, uses_anonymous_args = 0
 1223              		@ link register save eliminated.
 1224              	.LVL70:
 1225              		.loc 1 568 0
 1226 0000 0368     		ldr	r3, [r0]
 1227 0002 2BB1     		cbz	r3, .L66
 1228              	.LVL71:
 1229              	.LBB359:
 1230              		.loc 1 574 0
 1231 0004 0022     		movs	r2, #0
 1232 0006 0260     		str	r2, [r0]
 1233              		.loc 1 576 0
 1234 0008 1846     		mov	r0, r3
 1235              	.LVL72:
 1236              		.loc 1 575 0
 1237 000a 5961     		str	r1, [r3, #20]
 1238              		.loc 1 576 0
 1239 000c FFF7FEBF 		b	chSchReadyI
 1240              	.LVL73:
 1241              	.L66:
 1242 0010 7047     		bx	lr
 1243              	.LBE359:
 1244              		.cfi_endproc
 1245              	.LFE185:
 1246              		.size	chThdResumeI, .-chThdResumeI
 1247 0012 00BF     		.section	.text.chThdResumeS,"ax",%progbits
 1248              		.align	2
 1249              		.p2align 4,,15
 1250              		.global	chThdResumeS
 1251              		.thumb
 1252              		.thumb_func
 1253              		.type	chThdResumeS, %function
 1254              	chThdResumeS:
ARM GAS  /tmp/ccDY4CBw.s 			page 23


 1255              	.LFB186:
 1256              		.loc 1 590 0
 1257              		.cfi_startproc
 1258              		@ args = 0, pretend = 0, frame = 0
 1259              		@ frame_needed = 0, uses_anonymous_args = 0
 1260              		@ link register save eliminated.
 1261              	.LVL74:
 1262              		.loc 1 590 0
 1263 0000 0346     		mov	r3, r0
 1264              		.loc 1 592 0
 1265 0002 0068     		ldr	r0, [r0]
 1266              	.LVL75:
 1267 0004 18B1     		cbz	r0, .L68
 1268              	.LVL76:
 1269              	.LBB360:
 1270              		.loc 1 598 0
 1271 0006 0022     		movs	r2, #0
 1272 0008 1A60     		str	r2, [r3]
 1273              		.loc 1 599 0
 1274 000a FFF7FEBF 		b	chSchWakeupS
 1275              	.LVL77:
 1276              	.L68:
 1277 000e 7047     		bx	lr
 1278              	.LBE360:
 1279              		.cfi_endproc
 1280              	.LFE186:
 1281              		.size	chThdResumeS, .-chThdResumeS
 1282              		.section	.text.chThdResume,"ax",%progbits
 1283              		.align	2
 1284              		.p2align 4,,15
 1285              		.global	chThdResume
 1286              		.thumb
 1287              		.thumb_func
 1288              		.type	chThdResume, %function
 1289              	chThdResume:
 1290              	.LFB187:
 1291              		.loc 1 613 0
 1292              		.cfi_startproc
 1293              		@ args = 0, pretend = 0, frame = 0
 1294              		@ frame_needed = 0, uses_anonymous_args = 0
 1295              	.LVL78:
 1296              	.LBB361:
 1297              	.LBB362:
 1298              	.LBB363:
 1299              	.LBB364:
 1300              		.loc 3 548 0
 1301 0000 2023     		movs	r3, #32
 1302              	@ 548 "/home/maciek/ChibiOS_16.1.5/os/ext/CMSIS/include/core_cmFunc.h" 1
 1303 0002 83F31188 		MSR basepri, r3
 1304              	@ 0 "" 2
 1305              	.LVL79:
 1306              		.thumb
 1307              	.LBE364:
 1308              	.LBE363:
 1309              	.LBE362:
 1310              	.LBE361:
 1311              	.LBB365:
ARM GAS  /tmp/ccDY4CBw.s 			page 24


 1312              	.LBB366:
 1313              		.loc 1 592 0
 1314 0006 0268     		ldr	r2, [r0]
 1315 0008 52B1     		cbz	r2, .L76
 1316 000a 0346     		mov	r3, r0
 1317              	.LVL80:
 1318              	.LBE366:
 1319              	.LBE365:
 1320              		.loc 1 613 0
 1321 000c 10B5     		push	{r4, lr}
 1322              		.cfi_def_cfa_offset 8
 1323              		.cfi_offset 4, -8
 1324              		.cfi_offset 14, -4
 1325              	.LBB369:
 1326              	.LBB368:
 1327              	.LBB367:
 1328              		.loc 1 598 0
 1329 000e 0024     		movs	r4, #0
 1330 0010 1C60     		str	r4, [r3]
 1331              		.loc 1 599 0
 1332 0012 1046     		mov	r0, r2
 1333              	.LVL81:
 1334 0014 FFF7FEFF 		bl	chSchWakeupS
 1335              	.LVL82:
 1336              	.LBE367:
 1337              	.LBE368:
 1338              	.LBE369:
 1339              	.LBB370:
 1340              	.LBB371:
 1341              	.LBB372:
 1342              	.LBB373:
 1343              	.LBB374:
 1344              		.loc 3 548 0
 1345 0018 0023     		movs	r3, #0
 1346              	@ 548 "/home/maciek/ChibiOS_16.1.5/os/ext/CMSIS/include/core_cmFunc.h" 1
 1347 001a 83F31188 		MSR basepri, r3
 1348              	@ 0 "" 2
 1349              		.thumb
 1350 001e 10BD     		pop	{r4, pc}
 1351              	.LVL83:
 1352              	.L76:
 1353              		.cfi_def_cfa_offset 0
 1354              		.cfi_restore 4
 1355              		.cfi_restore 14
 1356 0020 0023     		movs	r3, #0
 1357              	@ 548 "/home/maciek/ChibiOS_16.1.5/os/ext/CMSIS/include/core_cmFunc.h" 1
 1358 0022 83F31188 		MSR basepri, r3
 1359              	@ 0 "" 2
 1360              		.thumb
 1361 0026 7047     		bx	lr
 1362              	.LBE374:
 1363              	.LBE373:
 1364              	.LBE372:
 1365              	.LBE371:
 1366              	.LBE370:
 1367              		.cfi_endproc
 1368              	.LFE187:
ARM GAS  /tmp/ccDY4CBw.s 			page 25


 1369              		.size	chThdResume, .-chThdResume
 1370              		.section	.text.chThdEnqueueTimeoutS,"ax",%progbits
 1371              		.align	2
 1372              		.p2align 4,,15
 1373              		.global	chThdEnqueueTimeoutS
 1374              		.thumb
 1375              		.thumb_func
 1376              		.type	chThdEnqueueTimeoutS, %function
 1377              	chThdEnqueueTimeoutS:
 1378              	.LFB188:
 1379              		.loc 1 643 0
 1380              		.cfi_startproc
 1381              		@ args = 0, pretend = 0, frame = 0
 1382              		@ frame_needed = 0, uses_anonymous_args = 0
 1383              		@ link register save eliminated.
 1384              	.LVL84:
 1385              		.loc 1 645 0
 1386 0000 69B1     		cbz	r1, .L78
 1387 0002 0246     		mov	r2, r0
 1388              		.loc 1 649 0
 1389 0004 074B     		ldr	r3, .L80
 1390              		.loc 1 643 0
 1391 0006 10B4     		push	{r4}
 1392              		.cfi_def_cfa_offset 4
 1393              		.cfi_offset 4, -4
 1394              		.loc 1 649 0
 1395 0008 1B69     		ldr	r3, [r3, #16]
 1396              	.LVL85:
 1397              	.LBB375:
 1398              	.LBB376:
 1399              		.loc 2 666 0
 1400 000a 4468     		ldr	r4, [r0, #4]
 1401              	.LBE376:
 1402              	.LBE375:
 1403              		.loc 1 651 0
 1404 000c 0420     		movs	r0, #4
 1405              	.LVL86:
 1406              	.LBB378:
 1407              	.LBB377:
 1408              		.loc 2 666 0
 1409 000e 83E81400 		stmia	r3, {r2, r4}
 1410              		.loc 2 667 0
 1411 0012 2360     		str	r3, [r4]
 1412              		.loc 2 668 0
 1413 0014 5360     		str	r3, [r2, #4]
 1414              	.LBE377:
 1415              	.LBE378:
 1416              		.loc 1 652 0
 1417 0016 5DF8044B 		ldr	r4, [sp], #4
 1418              		.cfi_restore 4
 1419              		.cfi_def_cfa_offset 0
 1420              		.loc 1 651 0
 1421 001a FFF7FEBF 		b	chSchGoSleepTimeoutS
 1422              	.LVL87:
 1423              	.L78:
 1424              		.loc 1 652 0
 1425 001e 4FF0FF30 		mov	r0, #-1
ARM GAS  /tmp/ccDY4CBw.s 			page 26


 1426              	.LVL88:
 1427 0022 7047     		bx	lr
 1428              	.L81:
 1429              		.align	2
 1430              	.L80:
 1431 0024 00000000 		.word	ch
 1432              		.cfi_endproc
 1433              	.LFE188:
 1434              		.size	chThdEnqueueTimeoutS, .-chThdEnqueueTimeoutS
 1435              		.section	.text.chThdDequeueNextI,"ax",%progbits
 1436              		.align	2
 1437              		.p2align 4,,15
 1438              		.global	chThdDequeueNextI
 1439              		.thumb
 1440              		.thumb_func
 1441              		.type	chThdDequeueNextI, %function
 1442              	chThdDequeueNextI:
 1443              	.LFB189:
 1444              		.loc 1 663 0
 1445              		.cfi_startproc
 1446              		@ args = 0, pretend = 0, frame = 0
 1447              		@ frame_needed = 0, uses_anonymous_args = 0
 1448              		@ link register save eliminated.
 1449              	.LVL89:
 1450              	.LBB379:
 1451              	.LBB380:
 1452              		.loc 2 631 0
 1453 0000 0268     		ldr	r2, [r0]
 1454              	.LBE380:
 1455              	.LBE379:
 1456              		.loc 1 663 0
 1457 0002 0346     		mov	r3, r0
 1458              	.LVL90:
 1459              		.loc 1 665 0
 1460 0004 9042     		cmp	r0, r2
 1461 0006 09D0     		beq	.L85
 1462              	.LVL91:
 1463              		.loc 1 663 0
 1464 0008 10B4     		push	{r4}
 1465              		.cfi_def_cfa_offset 4
 1466              		.cfi_offset 4, -4
 1467              	.LBB381:
 1468              	.LBB382:
 1469              	.LBB383:
 1470              	.LBB384:
 1471              		.loc 2 674 0
 1472 000a 1468     		ldr	r4, [r2]
 1473              	.LBE384:
 1474              	.LBE383:
 1475              		.loc 4 322 0
 1476 000c 1046     		mov	r0, r2
 1477              	.LVL92:
 1478              	.LBB386:
 1479              	.LBB385:
 1480              		.loc 2 674 0
 1481 000e 1C60     		str	r4, [r3]
 1482              		.loc 2 675 0
ARM GAS  /tmp/ccDY4CBw.s 			page 27


 1483 0010 6360     		str	r3, [r4, #4]
 1484              	.LBE385:
 1485              	.LBE386:
 1486              		.loc 4 321 0
 1487 0012 5161     		str	r1, [r2, #20]
 1488              	.LBE382:
 1489              	.LBE381:
 1490              		.loc 1 668 0
 1491 0014 5DF8044B 		ldr	r4, [sp], #4
 1492              		.cfi_restore 4
 1493              		.cfi_def_cfa_offset 0
 1494              	.LBB388:
 1495              	.LBB387:
 1496              		.loc 4 322 0
 1497 0018 FFF7FEBF 		b	chSchReadyI
 1498              	.LVL93:
 1499              	.L85:
 1500 001c 7047     		bx	lr
 1501              	.LBE387:
 1502              	.LBE388:
 1503              		.cfi_endproc
 1504              	.LFE189:
 1505              		.size	chThdDequeueNextI, .-chThdDequeueNextI
 1506 001e 00BF     		.section	.text.chThdDequeueAllI,"ax",%progbits
 1507              		.align	2
 1508              		.p2align 4,,15
 1509              		.global	chThdDequeueAllI
 1510              		.thumb
 1511              		.thumb_func
 1512              		.type	chThdDequeueAllI, %function
 1513              	chThdDequeueAllI:
 1514              	.LFB190:
 1515              		.loc 1 678 0
 1516              		.cfi_startproc
 1517              		@ args = 0, pretend = 0, frame = 0
 1518              		@ frame_needed = 0, uses_anonymous_args = 0
 1519              	.LVL94:
 1520 0000 38B5     		push	{r3, r4, r5, lr}
 1521              		.cfi_def_cfa_offset 16
 1522              		.cfi_offset 3, -16
 1523              		.cfi_offset 4, -12
 1524              		.cfi_offset 5, -8
 1525              		.cfi_offset 14, -4
 1526              	.LBB389:
 1527              	.LBB390:
 1528              		.loc 2 631 0
 1529 0002 0368     		ldr	r3, [r0]
 1530              	.LBE390:
 1531              	.LBE389:
 1532              		.loc 1 678 0
 1533 0004 0446     		mov	r4, r0
 1534              	.LVL95:
 1535              		.loc 1 680 0
 1536 0006 9842     		cmp	r0, r3
 1537              		.loc 1 678 0
 1538 0008 0D46     		mov	r5, r1
 1539              		.loc 1 680 0
ARM GAS  /tmp/ccDY4CBw.s 			page 28


 1540 000a 09D0     		beq	.L86
 1541              	.LVL96:
 1542              	.L88:
 1543              	.LBB392:
 1544              	.LBB393:
 1545              	.LBB394:
 1546              	.LBB395:
 1547              		.loc 2 674 0
 1548 000c 1A68     		ldr	r2, [r3]
 1549              	.LBE395:
 1550              	.LBE394:
 1551              		.loc 4 322 0
 1552 000e 1846     		mov	r0, r3
 1553              	.LBB397:
 1554              	.LBB396:
 1555              		.loc 2 674 0
 1556 0010 2260     		str	r2, [r4]
 1557              		.loc 2 675 0
 1558 0012 5460     		str	r4, [r2, #4]
 1559              	.LBE396:
 1560              	.LBE397:
 1561              		.loc 4 321 0
 1562 0014 5D61     		str	r5, [r3, #20]
 1563              		.loc 4 322 0
 1564 0016 FFF7FEFF 		bl	chSchReadyI
 1565              	.LVL97:
 1566              	.LBE393:
 1567              	.LBE392:
 1568              	.LBB398:
 1569              	.LBB391:
 1570              		.loc 2 631 0
 1571 001a 2368     		ldr	r3, [r4]
 1572              	.LBE391:
 1573              	.LBE398:
 1574              		.loc 1 680 0
 1575 001c 9C42     		cmp	r4, r3
 1576 001e F5D1     		bne	.L88
 1577              	.LVL98:
 1578              	.L86:
 1579 0020 38BD     		pop	{r3, r4, r5, pc}
 1580              		.cfi_endproc
 1581              	.LFE190:
 1582              		.size	chThdDequeueAllI, .-chThdDequeueAllI
 1583 0022 00BF     		.text
 1584              	.Letext0:
 1585              		.file 6 "/opt/stm32/gcc/gcc-arm-none-eabi-4_9-2015q2/lib/gcc/arm-none-eabi/4.9.3/include/stddef.h"
 1586              		.file 7 "/opt/stm32/gcc/gcc-arm-none-eabi-4_9-2015q2/arm-none-eabi/include/machine/_default_types.
 1587              		.file 8 "/opt/stm32/gcc/gcc-arm-none-eabi-4_9-2015q2/arm-none-eabi/include/sys/_stdint.h"
 1588              		.file 9 "/home/maciek/ChibiOS_16.1.5/os/rt/ports/ARMCMx/compilers/GCC/chtypes.h"
 1589              		.file 10 "/home/maciek/ChibiOS_16.1.5/os/rt/include/chsystypes.h"
 1590              		.file 11 "/home/maciek/ChibiOS_16.1.5/os/rt/ports/ARMCMx/chcore.h"
 1591              		.file 12 "/home/maciek/ChibiOS_16.1.5/os/rt/ports/ARMCMx/chcore_v7m.h"
 1592              		.file 13 "/home/maciek/ChibiOS_16.1.5/os/rt/include/chtm.h"
 1593              		.file 14 "/home/maciek/ChibiOS_16.1.5/os/rt/include/chsem.h"
 1594              		.file 15 "/home/maciek/ChibiOS_16.1.5/os/rt/include/chmtx.h"
 1595              		.file 16 "/home/maciek/ChibiOS_16.1.5/os/rt/include/chsys.h"
 1596              		.file 17 "/home/maciek/ChibiOS_16.1.5/os/ext/CMSIS/include/core_cm3.h"
ARM GAS  /tmp/ccDY4CBw.s 			page 29


 1597              		.file 18 "/home/maciek/ChibiOS_16.1.5/os/rt/include/chdynamic.h"