ARM GAS  /tmp/ccUTqzHm.s 			page 1


   1              		.syntax unified
   2              		.cpu cortex-m3
   3              		.fpu softvfp
   4              		.eabi_attribute 20, 1
   5              		.eabi_attribute 21, 1
   6              		.eabi_attribute 23, 3
   7              		.eabi_attribute 24, 1
   8              		.eabi_attribute 25, 1
   9              		.eabi_attribute 26, 1
  10              		.eabi_attribute 30, 2
  11              		.eabi_attribute 34, 1
  12              		.eabi_attribute 18, 4
  13              		.thumb
  14              		.file	"flash.c"
  15              		.text
  16              	.Ltext0:
  17              		.cfi_sections	.debug_frame
  18              		.section	.text.flashUnlock.part.0,"ax",%progbits
  19              		.align	2
  20              		.p2align 4,,15
  21              		.thumb
  22              		.thumb_func
  23              		.type	flashUnlock.part.0, %function
  24              	flashUnlock.part.0:
  25              	.LFB219:
  26              		.file 1 "flash/flash.c"
  27              		.loc 1 15 0
  28              		.cfi_startproc
  29              		@ args = 0, pretend = 0, frame = 0
  30              		@ frame_needed = 0, uses_anonymous_args = 0
  31              		@ link register save eliminated.
  32              		.loc 1 21 0
  33 0000 054B     		ldr	r3, .L2
  34 0002 0649     		ldr	r1, .L2+4
  35              		.loc 1 22 0
  36 0004 064A     		ldr	r2, .L2+8
  37              		.loc 1 21 0
  38 0006 5960     		str	r1, [r3, #4]
  39              		.loc 1 22 0
  40 0008 5A60     		str	r2, [r3, #4]
  41              		.loc 1 24 0
  42 000a 1869     		ldr	r0, [r3, #16]
  43 000c 80F08000 		eor	r0, r0, #128
  44              		.loc 1 28 0
  45 0010 C0F3C010 		ubfx	r0, r0, #7, #1
  46 0014 7047     		bx	lr
  47              	.L3:
  48 0016 00BF     		.align	2
  49              	.L2:
  50 0018 00200240 		.word	1073881088
  51 001c 23016745 		.word	1164378403
  52 0020 AB89EFCD 		.word	-839939669
  53              		.cfi_endproc
  54              	.LFE219:
  55              		.size	flashUnlock.part.0, .-flashUnlock.part.0
  56              		.section	.text.flashPageErase,"ax",%progbits
  57              		.align	2
ARM GAS  /tmp/ccUTqzHm.s 			page 2


  58              		.p2align 4,,15
  59              		.global	flashPageErase
  60              		.thumb
  61              		.thumb_func
  62              		.type	flashPageErase, %function
  63              	flashPageErase:
  64              	.LFB209:
  65              		.loc 1 38 0
  66              		.cfi_startproc
  67              		@ args = 0, pretend = 0, frame = 0
  68              		@ frame_needed = 0, uses_anonymous_args = 0
  69              	.LVL0:
  70              		.loc 1 41 0
  71 0000 224B     		ldr	r3, .L27
  72              		.loc 1 38 0
  73 0002 70B5     		push	{r4, r5, r6, lr}
  74              		.cfi_def_cfa_offset 16
  75              		.cfi_offset 4, -16
  76              		.cfi_offset 5, -12
  77              		.cfi_offset 6, -8
  78              		.cfi_offset 14, -4
  79              		.loc 1 41 0
  80 0004 0344     		add	r3, r3, r0
  81 0006 DE02     		lsls	r6, r3, #11
  82 0008 B6F5C05F 		cmp	r6, #6144
  83 000c 3BD2     		bcs	.L8
  84              	.LBB40:
  85              	.LBB41:
  86              		.loc 1 17 0
  87 000e 204B     		ldr	r3, .L27+4
  88 0010 0446     		mov	r4, r0
  89 0012 1B69     		ldr	r3, [r3, #16]
  90 0014 1A06     		lsls	r2, r3, #24
  91 0016 32D4     		bmi	.L26
  92              	.LVL1:
  93              	.L9:
  94              	.LBE41:
  95              	.LBE40:
  96              	.LBB43:
  97              	.LBB44:
  98              		.loc 1 49 0
  99 0018 1D49     		ldr	r1, .L27+4
 100              	.L19:
 101 001a CB68     		ldr	r3, [r1, #12]
 102 001c 1C4A     		ldr	r2, .L27+4
 103 001e DB07     		lsls	r3, r3, #31
 104 0020 FBD4     		bmi	.L19
 105              		.loc 1 57 0
 106 0022 1146     		mov	r1, r2
 107              		.loc 1 52 0
 108 0024 1369     		ldr	r3, [r2, #16]
 109              		.loc 1 53 0
 110 0026 06F10065 		add	r5, r6, #134217728
 111              		.loc 1 52 0
 112 002a 43F00203 		orr	r3, r3, #2
 113              		.loc 1 53 0
 114 002e 05F57A35 		add	r5, r5, #256000
ARM GAS  /tmp/ccUTqzHm.s 			page 3


 115              		.loc 1 52 0
 116 0032 1361     		str	r3, [r2, #16]
 117              		.loc 1 53 0
 118 0034 5561     		str	r5, [r2, #20]
 119              		.loc 1 54 0
 120 0036 1369     		ldr	r3, [r2, #16]
 121 0038 43F04003 		orr	r3, r3, #64
 122 003c 1361     		str	r3, [r2, #16]
 123              	.L10:
 124              		.loc 1 57 0
 125 003e CB68     		ldr	r3, [r1, #12]
 126 0040 134A     		ldr	r2, .L27+4
 127 0042 13F00103 		ands	r3, r3, #1
 128 0046 FAD1     		bne	.L10
 129              		.loc 1 60 0
 130 0048 1169     		ldr	r1, [r2, #16]
 131 004a 1361     		str	r3, [r2, #16]
 132              	.LBB45:
 133              	.LBB46:
 134              		.loc 1 34 0
 135 004c 1369     		ldr	r3, [r2, #16]
 136              	.LBE46:
 137              	.LBE45:
 138              	.LBB49:
 139              	.LBB50:
 140              		.loc 1 75 0
 141 004e 04F10820 		add	r0, r4, #134219776
 142              	.LBE50:
 143              	.LBE49:
 144              	.LBB53:
 145              	.LBB47:
 146              		.loc 1 34 0
 147 0052 43F08003 		orr	r3, r3, #128
 148              	.LBE47:
 149              	.LBE53:
 150              	.LBB54:
 151              	.LBB51:
 152              		.loc 1 80 0
 153 0056 8542     		cmp	r5, r0
 154              	.LBE51:
 155              	.LBE54:
 156              	.LBB55:
 157              	.LBB48:
 158              		.loc 1 34 0
 159 0058 1361     		str	r3, [r2, #16]
 160              	.LVL2:
 161              	.LBE48:
 162              	.LBE55:
 163              	.LBB56:
 164              	.LBB52:
 165              		.loc 1 80 0
 166 005a 0BD2     		bcs	.L14
 167              		.loc 1 81 0
 168 005c 2B68     		ldr	r3, [r5]
 169 005e 0133     		adds	r3, r3, #1
 170 0060 0AD1     		bne	.L16
 171 0062 0C4B     		ldr	r3, .L27+8
ARM GAS  /tmp/ccUTqzHm.s 			page 4


 172 0064 3344     		add	r3, r3, r6
 173 0066 03E0     		b	.L11
 174              	.LVL3:
 175              	.L12:
 176 0068 53F8042B 		ldr	r2, [r3], #4
 177              	.LVL4:
 178 006c 0132     		adds	r2, r2, #1
 179 006e 03D1     		bne	.L16
 180              	.LVL5:
 181              	.L11:
 182              		.loc 1 80 0
 183 0070 9842     		cmp	r0, r3
 184 0072 F9D8     		bhi	.L12
 185              	.LVL6:
 186              	.L14:
 187              	.LBE52:
 188              	.LBE56:
 189              		.loc 1 70 0
 190 0074 0120     		movs	r0, #1
 191              	.LVL7:
 192 0076 70BD     		pop	{r4, r5, r6, pc}
 193              	.LVL8:
 194              	.L16:
 195              		.loc 1 67 0
 196 0078 6FF00A00 		mvn	r0, #10
 197              	.LVL9:
 198              	.LBE44:
 199              	.LBE43:
 200              		.loc 1 71 0
 201 007c 70BD     		pop	{r4, r5, r6, pc}
 202              	.LVL10:
 203              	.L26:
 204              	.LBB57:
 205              	.LBB42:
 206 007e FFF7FEFF 		bl	flashUnlock.part.0
 207              	.LVL11:
 208              	.LBE42:
 209              	.LBE57:
 210              		.loc 1 45 0
 211 0082 0028     		cmp	r0, #0
 212 0084 C8D1     		bne	.L9
 213              	.LVL12:
 214              	.L8:
 215              		.loc 1 42 0
 216 0086 4FF0FF30 		mov	r0, #-1
 217 008a 70BD     		pop	{r4, r5, r6, pc}
 218              	.L28:
 219              		.align	2
 220              	.L27:
 221 008c 83FF1F00 		.word	2097027
 222 0090 00200240 		.word	1073881088
 223 0094 04E80308 		.word	134473732
 224              		.cfi_endproc
 225              	.LFE209:
 226              		.size	flashPageErase, .-flashPageErase
 227              		.section	.text.flashPageCheckErased,"ax",%progbits
 228              		.align	2
ARM GAS  /tmp/ccUTqzHm.s 			page 5


 229              		.p2align 4,,15
 230              		.global	flashPageCheckErased
 231              		.thumb
 232              		.thumb_func
 233              		.type	flashPageCheckErased, %function
 234              	flashPageCheckErased:
 235              	.LFB210:
 236              		.loc 1 73 0
 237              		.cfi_startproc
 238              		@ args = 0, pretend = 0, frame = 0
 239              		@ frame_needed = 0, uses_anonymous_args = 0
 240              		@ link register save eliminated.
 241              	.LVL13:
 242              		.loc 1 74 0
 243 0000 00F58033 		add	r3, r0, #65536
 244 0004 DB02     		lsls	r3, r3, #11
 245              	.LVL14:
 246              		.loc 1 75 0
 247 0006 00F10820 		add	r0, r0, #134219776
 248              	.LVL15:
 249              		.loc 1 80 0
 250 000a 8342     		cmp	r3, r0
 251 000c 0AD2     		bcs	.L33
 252              		.loc 1 81 0
 253 000e 1A68     		ldr	r2, [r3]
 254 0010 0132     		adds	r2, r2, #1
 255 0012 09D1     		bne	.L35
 256 0014 0433     		adds	r3, r3, #4
 257              	.LVL16:
 258 0016 03E0     		b	.L31
 259              	.LVL17:
 260              	.L32:
 261 0018 53F8042B 		ldr	r2, [r3], #4
 262              	.LVL18:
 263 001c 0132     		adds	r2, r2, #1
 264 001e 03D1     		bne	.L35
 265              	.LVL19:
 266              	.L31:
 267              		.loc 1 80 0 discriminator 2
 268 0020 9842     		cmp	r0, r3
 269 0022 F9D8     		bhi	.L32
 270              	.LVL20:
 271              	.L33:
 272              		.loc 1 86 0
 273 0024 0120     		movs	r0, #1
 274              	.LVL21:
 275 0026 7047     		bx	lr
 276              	.LVL22:
 277              	.L35:
 278              		.loc 1 82 0
 279 0028 0020     		movs	r0, #0
 280              	.LVL23:
 281              		.loc 1 87 0
 282 002a 7047     		bx	lr
 283              		.cfi_endproc
 284              	.LFE210:
 285              		.size	flashPageCheckErased, .-flashPageCheckErased
ARM GAS  /tmp/ccUTqzHm.s 			page 6


 286              		.section	.text.flashPageRead,"ax",%progbits
 287              		.align	2
 288              		.p2align 4,,15
 289              		.global	flashPageRead
 290              		.thumb
 291              		.thumb_func
 292              		.type	flashPageRead, %function
 293              	flashPageRead:
 294              	.LFB211:
 295              		.loc 1 90 0
 296              		.cfi_startproc
 297              		@ args = 0, pretend = 0, frame = 0
 298              		@ frame_needed = 0, uses_anonymous_args = 0
 299              	.LVL24:
 300 0000 08B5     		push	{r3, lr}
 301              		.cfi_def_cfa_offset 8
 302              		.cfi_offset 3, -8
 303              		.cfi_offset 14, -4
 304              		.loc 1 91 0
 305 0002 00F58033 		add	r3, r0, #65536
 306 0006 4FF40062 		mov	r2, #2048
 307 000a 0846     		mov	r0, r1
 308              	.LVL25:
 309 000c D902     		lsls	r1, r3, #11
 310              	.LVL26:
 311 000e FFF7FEFF 		bl	memcpy
 312              	.LVL27:
 313              		.loc 1 93 0
 314 0012 0120     		movs	r0, #1
 315 0014 08BD     		pop	{r3, pc}
 316              		.cfi_endproc
 317              	.LFE211:
 318              		.size	flashPageRead, .-flashPageRead
 319 0016 00BF     		.section	.text.flashCompare,"ax",%progbits
 320              		.align	2
 321              		.p2align 4,,15
 322              		.global	flashCompare
 323              		.thumb
 324              		.thumb_func
 325              		.type	flashCompare, %function
 326              	flashCompare:
 327              	.LFB212:
 328              		.loc 1 97 0
 329              		.cfi_startproc
 330              		@ args = 0, pretend = 0, frame = 0
 331              		@ frame_needed = 0, uses_anonymous_args = 0
 332              		@ link register save eliminated.
 333              	.LVL28:
 334 0000 30B4     		push	{r4, r5}
 335              		.cfi_def_cfa_offset 8
 336              		.cfi_offset 4, -8
 337              		.cfi_offset 5, -4
 338              		.loc 1 99 0
 339 0002 0123     		movs	r3, #1
 340              		.loc 1 109 0
 341 0004 4FF6FF75 		movw	r5, #65535
 342              		.loc 1 100 0
ARM GAS  /tmp/ccUTqzHm.s 			page 7


 343 0008 06E0     		b	.L39
 344              	.LVL29:
 345              	.L43:
 346              		.loc 1 109 0
 347 000a 0388     		ldrh	r3, [r0]
 348 000c 9BB2     		uxth	r3, r3
 349 000e AB42     		cmp	r3, r5
 350 0010 13D1     		bne	.L48
 351              	.LVL30:
 352              	.L57:
 353              		.loc 1 112 0
 354 0012 0230     		adds	r0, r0, #2
 355              	.LVL31:
 356              		.loc 1 114 0
 357 0014 023A     		subs	r2, r2, #2
 358              	.LVL32:
 359 0016 0023     		movs	r3, #0
 360              	.LVL33:
 361              	.L39:
 362              		.loc 1 100 0
 363 0018 012A     		cmp	r2, #1
 364 001a 11D9     		bls	.L42
 365              		.loc 1 102 0
 366 001c 0388     		ldrh	r3, [r0]
 367 001e 0C88     		ldrh	r4, [r1]
 368 0020 9BB2     		uxth	r3, r3
 369 0022 9C42     		cmp	r4, r3
 370 0024 01F10201 		add	r1, r1, #2
 371              	.LVL34:
 372 0028 EFD1     		bne	.L43
 373              	.LVL35:
 374              	.L51:
 375 002a 0488     		ldrh	r4, [r0]
 376 002c A4B2     		uxth	r4, r4
 377 002e 9C42     		cmp	r4, r3
 378 0030 FBD0     		beq	.L51
 379              	.LVL36:
 380              		.loc 1 109 0
 381 0032 0388     		ldrh	r3, [r0]
 382 0034 9BB2     		uxth	r3, r3
 383 0036 AB42     		cmp	r3, r5
 384 0038 EBD0     		beq	.L57
 385              	.L48:
 386              		.loc 1 110 0
 387 003a 0220     		movs	r0, #2
 388              	.LVL37:
 389              		.loc 1 140 0
 390 003c 30BC     		pop	{r4, r5}
 391              		.cfi_remember_state
 392              		.cfi_restore 4
 393              		.cfi_restore 5
 394              		.cfi_def_cfa_offset 0
 395 003e 7047     		bx	lr
 396              	.LVL38:
 397              	.L42:
 398              		.cfi_restore_state
 399              		.loc 1 117 0
ARM GAS  /tmp/ccUTqzHm.s 			page 8


 400 0040 52B1     		cbz	r2, .L58
 401              		.loc 1 120 0
 402 0042 0A78     		ldrb	r2, [r1]	@ zero_extendqisi2
 403              	.LVL39:
 404              	.L55:
 405 0044 0378     		ldrb	r3, [r0]	@ zero_extendqisi2
 406 0046 9342     		cmp	r3, r2
 407 0048 FCD1     		bne	.L55
 408              	.LVL40:
 409              		.loc 1 127 0
 410 004a 0378     		ldrb	r3, [r0]	@ zero_extendqisi2
 411 004c FF2B     		cmp	r3, #255
 412 004e 14BF     		ite	ne
 413 0050 0220     		movne	r0, #2
 414              	.LVL41:
 415 0052 0120     		moveq	r0, #1
 416              	.LVL42:
 417              	.L41:
 418              		.loc 1 140 0
 419 0054 30BC     		pop	{r4, r5}
 420              		.cfi_remember_state
 421              		.cfi_restore 5
 422              		.cfi_restore 4
 423              		.cfi_def_cfa_offset 0
 424 0056 7047     		bx	lr
 425              	.LVL43:
 426              	.L58:
 427              		.cfi_restore_state
 428 0058 83F00100 		eor	r0, r3, #1
 429              	.LVL44:
 430 005c FAE7     		b	.L41
 431              		.cfi_endproc
 432              	.LFE212:
 433              		.size	flashCompare, .-flashCompare
 434 005e 00BF     		.section	.text.flashPageCompare,"ax",%progbits
 435              		.align	2
 436              		.p2align 4,,15
 437              		.global	flashPageCompare
 438              		.thumb
 439              		.thumb_func
 440              		.type	flashPageCompare, %function
 441              	flashPageCompare:
 442              	.LFB213:
 443              		.loc 1 142 0
 444              		.cfi_startproc
 445              		@ args = 0, pretend = 0, frame = 0
 446              		@ frame_needed = 0, uses_anonymous_args = 0
 447              		@ link register save eliminated.
 448              	.LVL45:
 449              		.loc 1 143 0
 450 0000 00F58030 		add	r0, r0, #65536
 451              	.LVL46:
 452              		.loc 1 142 0
 453 0004 30B4     		push	{r4, r5}
 454              		.cfi_def_cfa_offset 8
 455              		.cfi_offset 4, -8
 456              		.cfi_offset 5, -4
ARM GAS  /tmp/ccUTqzHm.s 			page 9


 457              		.loc 1 143 0
 458 0006 C402     		lsls	r4, r0, #11
 459              	.LVL47:
 460 0008 231F     		subs	r3, r4, #4
 461 000a 0439     		subs	r1, r1, #4
 462              	.LVL48:
 463 000c 04F2FC74 		addw	r4, r4, #2044
 464              	.LVL49:
 465              		.loc 1 147 0
 466 0010 0125     		movs	r5, #1
 467 0012 02E0     		b	.L62
 468              	.LVL50:
 469              	.L67:
 470 0014 0025     		movs	r5, #0
 471              	.L60:
 472              		.loc 1 149 0 discriminator 2
 473 0016 A342     		cmp	r3, r4
 474 0018 0AD0     		beq	.L66
 475              	.L62:
 476              		.loc 1 151 0
 477 001a 53F8042F 		ldr	r2, [r3, #4]!
 478 001e 51F8040F 		ldr	r0, [r1, #4]!
 479 0022 8242     		cmp	r2, r0
 480 0024 F7D0     		beq	.L60
 481              		.loc 1 161 0
 482 0026 0132     		adds	r2, r2, #1
 483 0028 F4D0     		beq	.L67
 484              		.loc 1 162 0
 485 002a 0220     		movs	r0, #2
 486              		.loc 1 171 0
 487 002c 30BC     		pop	{r4, r5}
 488              		.cfi_remember_state
 489              		.cfi_restore 5
 490              		.cfi_restore 4
 491              		.cfi_def_cfa_offset 0
 492              	.LVL51:
 493 002e 7047     		bx	lr
 494              	.L66:
 495              		.cfi_restore_state
 496              		.loc 1 162 0
 497 0030 85F00100 		eor	r0, r5, #1
 498              		.loc 1 171 0
 499 0034 30BC     		pop	{r4, r5}
 500              		.cfi_restore 4
 501              		.cfi_restore 5
 502              		.cfi_def_cfa_offset 0
 503 0036 7047     		bx	lr
 504              		.cfi_endproc
 505              	.LFE213:
 506              		.size	flashPageCompare, .-flashPageCompare
 507              		.section	.text.flashPageWrite,"ax",%progbits
 508              		.align	2
 509              		.p2align 4,,15
 510              		.global	flashPageWrite
 511              		.thumb
 512              		.thumb_func
 513              		.type	flashPageWrite, %function
ARM GAS  /tmp/ccUTqzHm.s 			page 10


 514              	flashPageWrite:
 515              	.LFB214:
 516              		.loc 1 174 0
 517              		.cfi_startproc
 518              		@ args = 0, pretend = 0, frame = 0
 519              		@ frame_needed = 0, uses_anonymous_args = 0
 520              	.LVL52:
 521              		.loc 1 176 0
 522 0000 00F58030 		add	r0, r0, #65536
 523              	.LVL53:
 524              		.loc 1 174 0
 525 0004 F8B5     		push	{r3, r4, r5, r6, r7, lr}
 526              		.cfi_def_cfa_offset 24
 527              		.cfi_offset 3, -24
 528              		.cfi_offset 4, -20
 529              		.cfi_offset 5, -16
 530              		.cfi_offset 6, -12
 531              		.cfi_offset 7, -8
 532              		.cfi_offset 14, -4
 533              		.loc 1 176 0
 534 0006 C502     		lsls	r5, r0, #11
 535              	.LVL54:
 536              		.loc 1 179 0
 537 0008 05F17843 		add	r3, r5, #-134217728
 538 000c A3F57A33 		sub	r3, r3, #256000
 539 0010 B3F5C05F 		cmp	r3, #6144
 540 0014 37D2     		bcs	.L72
 541              	.LBB58:
 542              	.LBB59:
 543              		.loc 1 17 0
 544 0016 1D4B     		ldr	r3, .L88
 545 0018 0F46     		mov	r7, r1
 546 001a 1B69     		ldr	r3, [r3, #16]
 547 001c 1A06     		lsls	r2, r3, #24
 548 001e 2ED4     		bmi	.L87
 549              	.LVL55:
 550              	.L73:
 551              	.LBE59:
 552              	.LBE58:
 553              		.loc 1 188 0 discriminator 1
 554 0020 1A4A     		ldr	r2, .L88
 555              	.L80:
 556 0022 D368     		ldr	r3, [r2, #12]
 557 0024 DB07     		lsls	r3, r3, #31
 558 0026 FCD4     		bmi	.L80
 559              		.loc 1 193 0
 560 0028 184A     		ldr	r2, .L88
 561              		.loc 1 188 0
 562 002a 3846     		mov	r0, r7
 563              		.loc 1 199 0
 564 002c 1646     		mov	r6, r2
 565 002e ED1B     		subs	r5, r5, r7
 566              	.LVL56:
 567 0030 07F50067 		add	r7, r7, #2048
 568              	.LVL57:
 569              	.L75:
 570 0034 8646     		mov	lr, r0
ARM GAS  /tmp/ccUTqzHm.s 			page 11


 571              		.loc 1 193 0
 572 0036 1369     		ldr	r3, [r2, #16]
 573              		.loc 1 196 0
 574 0038 0188     		ldrh	r1, [r0]
 575              		.loc 1 193 0
 576 003a 43F00103 		orr	r3, r3, #1
 577 003e 1361     		str	r3, [r2, #16]
 578 0040 05EB000C 		add	ip, r5, r0
 579              		.loc 1 196 0
 580 0044 2952     		strh	r1, [r5, r0]	@ movhi
 581              	.L74:
 582              		.loc 1 199 0 discriminator 1
 583 0046 D368     		ldr	r3, [r2, #12]
 584 0048 1049     		ldr	r1, .L88
 585 004a 13F00103 		ands	r3, r3, #1
 586 004e FAD1     		bne	.L74
 587              		.loc 1 202 0
 588 0050 3469     		ldr	r4, [r6, #16]
 589              		.loc 1 206 0
 590 0052 BEF800E0 		ldrh	lr, [lr]
 591              		.loc 1 202 0
 592 0056 24F00104 		bic	r4, r4, #1
 593 005a 3461     		str	r4, [r6, #16]
 594              		.loc 1 206 0
 595 005c BCF80040 		ldrh	r4, [ip]
 596 0060 0230     		adds	r0, r0, #2
 597 0062 A4B2     		uxth	r4, r4
 598 0064 A645     		cmp	lr, r4
 599 0066 07D1     		bne	.L77
 600              	.LVL58:
 601              		.loc 1 190 0 discriminator 2
 602 0068 B842     		cmp	r0, r7
 603 006a E3D1     		bne	.L75
 604              	.LBB61:
 605              	.LBB62:
 606              		.loc 1 34 0
 607 006c 0A69     		ldr	r2, [r1, #16]
 608              	.LBE62:
 609              	.LBE61:
 610              		.loc 1 212 0
 611 006e 1846     		mov	r0, r3
 612              	.LBB64:
 613              	.LBB63:
 614              		.loc 1 34 0
 615 0070 42F08003 		orr	r3, r2, #128
 616 0074 0B61     		str	r3, [r1, #16]
 617              	.LBE63:
 618              	.LBE64:
 619              		.loc 1 212 0
 620 0076 F8BD     		pop	{r3, r4, r5, r6, r7, pc}
 621              	.LVL59:
 622              	.L77:
 623              		.loc 1 207 0
 624 0078 6FF00A00 		mvn	r0, #10
 625              		.loc 1 213 0
 626 007c F8BD     		pop	{r3, r4, r5, r6, r7, pc}
 627              	.LVL60:
ARM GAS  /tmp/ccUTqzHm.s 			page 12


 628              	.L87:
 629              	.LBB65:
 630              	.LBB60:
 631 007e FFF7FEFF 		bl	flashUnlock.part.0
 632              	.LVL61:
 633              	.LBE60:
 634              	.LBE65:
 635              		.loc 1 185 0
 636 0082 0028     		cmp	r0, #0
 637 0084 CCD1     		bne	.L73
 638              	.LVL62:
 639              	.L72:
 640              		.loc 1 180 0
 641 0086 4FF0FF30 		mov	r0, #-1
 642 008a F8BD     		pop	{r3, r4, r5, r6, r7, pc}
 643              	.LVL63:
 644              	.L89:
 645              		.align	2
 646              	.L88:
 647 008c 00200240 		.word	1073881088
 648              		.cfi_endproc
 649              	.LFE214:
 650              		.size	flashPageWrite, .-flashPageWrite
 651              		.section	.text.flashPageWriteIfNeeded,"ax",%progbits
 652              		.align	2
 653              		.p2align 4,,15
 654              		.global	flashPageWriteIfNeeded
 655              		.thumb
 656              		.thumb_func
 657              		.type	flashPageWriteIfNeeded, %function
 658              	flashPageWriteIfNeeded:
 659              	.LFB215:
 660              		.loc 1 216 0
 661              		.cfi_startproc
 662              		@ args = 0, pretend = 0, frame = 0
 663              		@ frame_needed = 0, uses_anonymous_args = 0
 664              	.LVL64:
 665 0000 38B5     		push	{r3, r4, r5, lr}
 666              		.cfi_def_cfa_offset 16
 667              		.cfi_offset 3, -16
 668              		.cfi_offset 4, -12
 669              		.cfi_offset 5, -8
 670              		.cfi_offset 14, -4
 671              		.loc 1 220 0
 672 0002 0E4B     		ldr	r3, .L100
 673 0004 0344     		add	r3, r3, r0
 674 0006 DB02     		lsls	r3, r3, #11
 675 0008 B3F5C05F 		cmp	r3, #6144
 676 000c 0DD2     		bcs	.L94
 677 000e 0D46     		mov	r5, r1
 678 0010 0446     		mov	r4, r0
 679              		.loc 1 223 0
 680 0012 FFF7FEFF 		bl	flashPageCompare
 681              	.LVL65:
 682              		.loc 1 226 0
 683 0016 0028     		cmp	r0, #0
 684 0018 09DD     		ble	.L91
ARM GAS  /tmp/ccUTqzHm.s 			page 13


 685              		.loc 1 230 0
 686 001a 0228     		cmp	r0, #2
 687 001c 08D0     		beq	.L92
 688              	.L93:
 689              		.loc 1 238 0
 690 001e 2046     		mov	r0, r4
 691              	.LVL66:
 692 0020 2946     		mov	r1, r5
 693              		.loc 1 241 0
 694 0022 BDE83840 		pop	{r3, r4, r5, lr}
 695              		.cfi_remember_state
 696              		.cfi_restore 14
 697              		.cfi_restore 5
 698              		.cfi_restore 4
 699              		.cfi_restore 3
 700              		.cfi_def_cfa_offset 0
 701              	.LVL67:
 702              		.loc 1 238 0
 703 0026 FFF7FEBF 		b	flashPageWrite
 704              	.LVL68:
 705              	.L94:
 706              		.cfi_restore_state
 707              		.loc 1 221 0
 708 002a 4FF0FF30 		mov	r0, #-1
 709              	.LVL69:
 710              	.L91:
 711              		.loc 1 241 0
 712 002e 38BD     		pop	{r3, r4, r5, pc}
 713              	.LVL70:
 714              	.L92:
 715              		.loc 1 231 0
 716 0030 2046     		mov	r0, r4
 717              	.LVL71:
 718 0032 FFF7FEFF 		bl	flashPageErase
 719              	.LVL72:
 720              		.loc 1 234 0
 721 0036 0128     		cmp	r0, #1
 722 0038 F1D0     		beq	.L93
 723 003a 38BD     		pop	{r3, r4, r5, pc}
 724              	.LVL73:
 725              	.L101:
 726              		.align	2
 727              	.L100:
 728 003c 83FF1F00 		.word	2097027
 729              		.cfi_endproc
 730              	.LFE215:
 731              		.size	flashPageWriteIfNeeded, .-flashPageWriteIfNeeded
 732              		.section	.text.flashWrite,"ax",%progbits
 733              		.align	2
 734              		.p2align 4,,15
 735              		.global	flashWrite
 736              		.thumb
 737              		.thumb_func
 738              		.type	flashWrite, %function
 739              	flashWrite:
 740              	.LFB218:
 741              		.loc 1 286 0
ARM GAS  /tmp/ccUTqzHm.s 			page 14


 742              		.cfi_startproc
 743              		@ args = 0, pretend = 0, frame = 8
 744              		@ frame_needed = 0, uses_anonymous_args = 0
 745              	.LVL74:
 746 0000 2DE9F043 		push	{r4, r5, r6, r7, r8, r9, lr}
 747              		.cfi_def_cfa_offset 28
 748              		.cfi_offset 4, -28
 749              		.cfi_offset 5, -24
 750              		.cfi_offset 6, -20
 751              		.cfi_offset 7, -16
 752              		.cfi_offset 8, -12
 753              		.cfi_offset 9, -8
 754              		.cfi_offset 14, -4
 755              	.LBB66:
 756              	.LBB67:
 757              		.loc 1 17 0
 758 0004 434B     		ldr	r3, .L132
 759              	.LBE67:
 760              	.LBE66:
 761              		.loc 1 286 0
 762 0006 1446     		mov	r4, r2
 763              	.LBB72:
 764              	.LBB68:
 765              		.loc 1 17 0
 766 0008 1B69     		ldr	r3, [r3, #16]
 767              	.LBE68:
 768              	.LBE72:
 769              		.loc 1 286 0
 770 000a 83B0     		sub	sp, sp, #12
 771              		.cfi_def_cfa_offset 40
 772              	.LBB73:
 773              	.LBB69:
 774              		.loc 1 17 0
 775 000c 1A06     		lsls	r2, r3, #24
 776              	.LVL75:
 777              	.LBE69:
 778              	.LBE73:
 779              		.loc 1 286 0
 780 000e 8046     		mov	r8, r0
 781 0010 0D46     		mov	r5, r1
 782              		.loc 1 287 0
 783 0012 0646     		mov	r6, r0
 784              	.LVL76:
 785              	.LBB74:
 786              	.LBB70:
 787              		.loc 1 17 0
 788 0014 5FD4     		bmi	.L129
 789              	.LVL77:
 790              	.L105:
 791              	.LBE70:
 792              	.LBE74:
 793              		.loc 1 294 0 discriminator 1
 794 0016 3F4A     		ldr	r2, .L132
 795              	.L119:
 796 0018 D368     		ldr	r3, [r2, #12]
 797 001a 3E4F     		ldr	r7, .L132
 798 001c DB07     		lsls	r3, r3, #31
ARM GAS  /tmp/ccUTqzHm.s 			page 15


 799 001e FBD4     		bmi	.L119
 800              	.LVL78:
 801              		.loc 1 298 0
 802 0020 18F0010F 		tst	r8, #1
 803 0024 31D1     		bne	.L130
 804              	.LVL79:
 805              	.L106:
 806              		.loc 1 331 0
 807 0026 012C     		cmp	r4, #1
 808 0028 24D9     		bls	.L108
 809              	.LBB75:
 810              	.LBB76:
 811              		.loc 1 246 0
 812 002a 3A4A     		ldr	r2, .L132
 813              	.LBE76:
 814              	.LBE75:
 815              		.loc 1 331 0
 816 002c 3046     		mov	r0, r6
 817              	.LBB82:
 818              	.LBB77:
 819              		.loc 1 252 0
 820 002e 9646     		mov	lr, r2
 821              	.LBE77:
 822              	.LBE82:
 823              		.loc 1 331 0
 824 0030 2146     		mov	r1, r4
 825 0032 AF1E     		subs	r7, r5, #2
 826              	.LVL80:
 827              	.L110:
 828              	.LBB83:
 829              	.LBB78:
 830              		.loc 1 246 0
 831 0034 1369     		ldr	r3, [r2, #16]
 832              	.LBE78:
 833              	.LBE83:
 834              		.loc 1 333 0
 835 0036 37F802CF 		ldrh	ip, [r7, #2]!
 836              	.LVL81:
 837              	.LBB84:
 838              	.LBB79:
 839              		.loc 1 246 0
 840 003a 43F00103 		orr	r3, r3, #1
 841 003e 1361     		str	r3, [r2, #16]
 842              		.loc 1 249 0
 843 0040 A0F800C0 		strh	ip, [r0]	@ movhi
 844              	.L109:
 845              		.loc 1 252 0
 846 0044 D368     		ldr	r3, [r2, #12]
 847 0046 DB07     		lsls	r3, r3, #31
 848 0048 FCD4     		bmi	.L109
 849              		.loc 1 255 0
 850 004a DEF81030 		ldr	r3, [lr, #16]
 851              	.LBE79:
 852              	.LBE84:
 853              		.loc 1 336 0
 854 004e 0239     		subs	r1, r1, #2
 855              	.LVL82:
ARM GAS  /tmp/ccUTqzHm.s 			page 16


 856              	.LBB85:
 857              	.LBB80:
 858              		.loc 1 255 0
 859 0050 23F00103 		bic	r3, r3, #1
 860              	.LBE80:
 861              	.LBE85:
 862              		.loc 1 331 0
 863 0054 0129     		cmp	r1, #1
 864 0056 00F10200 		add	r0, r0, #2
 865              	.LVL83:
 866              	.LBB86:
 867              	.LBB81:
 868              		.loc 1 255 0
 869 005a CEF81030 		str	r3, [lr, #16]
 870              	.LBE81:
 871              	.LBE86:
 872              		.loc 1 331 0
 873 005e E9D8     		bhi	.L110
 874 0060 A31E     		subs	r3, r4, #2
 875 0062 5B08     		lsrs	r3, r3, #1
 876 0064 0236     		adds	r6, r6, #2
 877 0066 5A1C     		adds	r2, r3, #1
 878 0068 06EB4306 		add	r6, r6, r3, lsl #1
 879 006c 05EB4205 		add	r5, r5, r2, lsl #1
 880 0070 04F00104 		and	r4, r4, #1
 881              	.LVL84:
 882              	.L108:
 883              		.loc 1 344 0
 884 0074 002C     		cmp	r4, #0
 885 0076 35D1     		bne	.L131
 886              	.L111:
 887              	.LBB87:
 888              	.LBB88:
 889              		.loc 1 34 0
 890 0078 264A     		ldr	r2, .L132
 891              	.LBE88:
 892              	.LBE87:
 893              		.loc 1 354 0
 894 007a 0120     		movs	r0, #1
 895              	.LBB90:
 896              	.LBB89:
 897              		.loc 1 34 0
 898 007c 1369     		ldr	r3, [r2, #16]
 899 007e 43F08003 		orr	r3, r3, #128
 900 0082 1361     		str	r3, [r2, #16]
 901              	.LVL85:
 902              	.L104:
 903              	.LBE89:
 904              	.LBE90:
 905              		.loc 1 356 0
 906 0084 03B0     		add	sp, sp, #12
 907              		.cfi_remember_state
 908              		.cfi_def_cfa_offset 28
 909              		@ sp needed
 910 0086 BDE8F083 		pop	{r4, r5, r6, r7, r8, r9, pc}
 911              	.LVL86:
 912              	.L130:
ARM GAS  /tmp/ccUTqzHm.s 			page 17


 913              		.cfi_restore_state
 914              	.LBB91:
 915              		.loc 1 312 0
 916 008a 14F10009 		adds	r9, r4, #0
 917              		.loc 1 308 0
 918 008e 38F8023C 		ldrh	r3, [r8, #-2]
 919              		.loc 1 312 0
 920 0092 18BF     		it	ne
 921 0094 4FF00109 		movne	r9, #1
 922              		.loc 1 316 0
 923 0098 4A46     		mov	r2, r9
 924 009a 2946     		mov	r1, r5
 925 009c 0DF10700 		add	r0, sp, #7
 926              		.loc 1 308 0
 927 00a0 ADF80630 		strh	r3, [sp, #6]	@ movhi
 928              	.LVL87:
 929              		.loc 1 316 0
 930 00a4 FFF7FEFF 		bl	memcpy
 931              	.LVL88:
 932              	.LBB92:
 933              	.LBB93:
 934              		.loc 1 252 0
 935 00a8 3946     		mov	r1, r7
 936              		.loc 1 246 0
 937 00aa 3B69     		ldr	r3, [r7, #16]
 938              	.LBE93:
 939              	.LBE92:
 940              		.loc 1 319 0
 941 00ac BDF80620 		ldrh	r2, [sp, #6]
 942              	.LVL89:
 943              	.LBB97:
 944              	.LBB94:
 945              		.loc 1 246 0
 946 00b0 43F00103 		orr	r3, r3, #1
 947 00b4 3B61     		str	r3, [r7, #16]
 948              		.loc 1 249 0
 949 00b6 28F8022C 		strh	r2, [r8, #-2]	@ movhi
 950              	.LVL90:
 951              	.L107:
 952              		.loc 1 252 0
 953 00ba CB68     		ldr	r3, [r1, #12]
 954 00bc 154A     		ldr	r2, .L132
 955 00be D807     		lsls	r0, r3, #31
 956 00c0 FBD4     		bmi	.L107
 957              		.loc 1 255 0
 958 00c2 1369     		ldr	r3, [r2, #16]
 959              	.LBE94:
 960              	.LBE97:
 961              		.loc 1 322 0
 962 00c4 08EB4906 		add	r6, r8, r9, lsl #1
 963              	.LVL91:
 964              	.LBB98:
 965              	.LBB95:
 966              		.loc 1 255 0
 967 00c8 23F00103 		bic	r3, r3, #1
 968              	.LBE95:
 969              	.LBE98:
ARM GAS  /tmp/ccUTqzHm.s 			page 18


 970              		.loc 1 323 0
 971 00cc 4D44     		add	r5, r5, r9
 972              	.LVL92:
 973              		.loc 1 324 0
 974 00ce C9EB0404 		rsb	r4, r9, r4
 975              	.LVL93:
 976              	.LBB99:
 977              	.LBB96:
 978              		.loc 1 255 0
 979 00d2 1361     		str	r3, [r2, #16]
 980              	.LVL94:
 981 00d4 A7E7     		b	.L106
 982              	.LVL95:
 983              	.L129:
 984              	.LBE96:
 985              	.LBE99:
 986              	.LBE91:
 987              	.LBB100:
 988              	.LBB71:
 989 00d6 FFF7FEFF 		bl	flashUnlock.part.0
 990              	.LVL96:
 991              	.LBE71:
 992              	.LBE100:
 993              		.loc 1 290 0
 994 00da 0028     		cmp	r0, #0
 995 00dc 9BD1     		bne	.L105
 996              		.loc 1 291 0
 997 00de 4FF0FF30 		mov	r0, #-1
 998 00e2 CFE7     		b	.L104
 999              	.LVL97:
 1000              	.L131:
 1001              	.LBB101:
 1002              	.LBB102:
 1003              	.LBB103:
 1004              		.loc 1 246 0
 1005 00e4 0B4B     		ldr	r3, .L132
 1006              	.LBE103:
 1007              	.LBE102:
 1008              		.loc 1 346 0
 1009 00e6 3088     		ldrh	r0, [r6]
 1010              	.LBB107:
 1011              	.LBB104:
 1012              		.loc 1 252 0
 1013 00e8 1946     		mov	r1, r3
 1014              	.LBE104:
 1015              	.LBE107:
 1016              		.loc 1 347 0
 1017 00ea 2A78     		ldrb	r2, [r5]	@ zero_extendqisi2
 1018              		.loc 1 346 0
 1019 00ec ADF80600 		strh	r0, [sp, #6]	@ movhi
 1020              		.loc 1 347 0
 1021 00f0 8DF80620 		strb	r2, [sp, #6]
 1022              	.LBB108:
 1023              	.LBB105:
 1024              		.loc 1 246 0
 1025 00f4 1A69     		ldr	r2, [r3, #16]
 1026              	.LBE105:
ARM GAS  /tmp/ccUTqzHm.s 			page 19


 1027              	.LBE108:
 1028              		.loc 1 348 0
 1029 00f6 BDF80600 		ldrh	r0, [sp, #6]
 1030              	.LVL98:
 1031              	.LBB109:
 1032              	.LBB106:
 1033              		.loc 1 246 0
 1034 00fa 42F00102 		orr	r2, r2, #1
 1035 00fe 1A61     		str	r2, [r3, #16]
 1036              		.loc 1 249 0
 1037 0100 3080     		strh	r0, [r6]	@ movhi
 1038              	.L112:
 1039              		.loc 1 252 0
 1040 0102 CB68     		ldr	r3, [r1, #12]
 1041 0104 034A     		ldr	r2, .L132
 1042 0106 DB07     		lsls	r3, r3, #31
 1043 0108 FBD4     		bmi	.L112
 1044              		.loc 1 255 0
 1045 010a 1369     		ldr	r3, [r2, #16]
 1046 010c 23F00103 		bic	r3, r3, #1
 1047 0110 1361     		str	r3, [r2, #16]
 1048 0112 B1E7     		b	.L111
 1049              	.L133:
 1050              		.align	2
 1051              	.L132:
 1052 0114 00200240 		.word	1073881088
 1053              	.LBE106:
 1054              	.LBE109:
 1055              	.LBE101:
 1056              		.cfi_endproc
 1057              	.LFE218:
 1058              		.size	flashWrite, .-flashWrite
 1059              		.section	.text.flashWriteIfNeeded,"ax",%progbits
 1060              		.align	2
 1061              		.p2align 4,,15
 1062              		.global	flashWriteIfNeeded
 1063              		.thumb
 1064              		.thumb_func
 1065              		.type	flashWriteIfNeeded, %function
 1066              	flashWriteIfNeeded:
 1067              	.LFB217:
 1068              		.loc 1 259 0
 1069              		.cfi_startproc
 1070              		@ args = 0, pretend = 0, frame = 0
 1071              		@ frame_needed = 0, uses_anonymous_args = 0
 1072              	.LVL99:
 1073 0000 F8B5     		push	{r3, r4, r5, r6, r7, lr}
 1074              		.cfi_def_cfa_offset 24
 1075              		.cfi_offset 3, -24
 1076              		.cfi_offset 4, -20
 1077              		.cfi_offset 5, -16
 1078              		.cfi_offset 6, -12
 1079              		.cfi_offset 7, -8
 1080              		.cfi_offset 14, -4
 1081              		.loc 1 262 0
 1082 0002 00F17847 		add	r7, r0, #-134217728
 1083 0006 A7F57A36 		sub	r6, r7, #256000
ARM GAS  /tmp/ccUTqzHm.s 			page 20


 1084 000a B6F5C05F 		cmp	r6, #6144
 1085 000e 0FD2     		bcs	.L138
 1086 0010 1646     		mov	r6, r2
 1087 0012 0D46     		mov	r5, r1
 1088 0014 0446     		mov	r4, r0
 1089              		.loc 1 265 0
 1090 0016 FFF7FEFF 		bl	flashCompare
 1091              	.LVL100:
 1092              		.loc 1 268 0
 1093 001a 0028     		cmp	r0, #0
 1094 001c 0ADD     		ble	.L135
 1095              		.loc 1 272 0
 1096 001e 0228     		cmp	r0, #2
 1097 0020 09D0     		beq	.L136
 1098              	.L137:
 1099              		.loc 1 280 0
 1100 0022 2046     		mov	r0, r4
 1101              	.LVL101:
 1102 0024 2946     		mov	r1, r5
 1103 0026 3246     		mov	r2, r6
 1104              		.loc 1 284 0
 1105 0028 BDE8F840 		pop	{r3, r4, r5, r6, r7, lr}
 1106              		.cfi_remember_state
 1107              		.cfi_restore 14
 1108              		.cfi_restore 7
 1109              		.cfi_restore 6
 1110              		.cfi_restore 5
 1111              		.cfi_restore 4
 1112              		.cfi_restore 3
 1113              		.cfi_def_cfa_offset 0
 1114              	.LVL102:
 1115              		.loc 1 280 0
 1116 002c FFF7FEBF 		b	flashWrite
 1117              	.LVL103:
 1118              	.L138:
 1119              		.cfi_restore_state
 1120              		.loc 1 263 0
 1121 0030 4FF0FF30 		mov	r0, #-1
 1122              	.LVL104:
 1123              	.L135:
 1124              		.loc 1 284 0
 1125 0034 F8BD     		pop	{r3, r4, r5, r6, r7, pc}
 1126              	.LVL105:
 1127              	.L136:
 1128              		.loc 1 273 0
 1129 0036 F80A     		lsrs	r0, r7, #11
 1130              	.LVL106:
 1131 0038 FFF7FEFF 		bl	flashPageErase
 1132              	.LVL107:
 1133              		.loc 1 276 0
 1134 003c 0128     		cmp	r0, #1
 1135 003e F0D0     		beq	.L137
 1136 0040 F8BD     		pop	{r3, r4, r5, r6, r7, pc}
 1137              		.cfi_endproc
 1138              	.LFE217:
 1139              		.size	flashWriteIfNeeded, .-flashWriteIfNeeded
 1140 0042 00BF     		.text
ARM GAS  /tmp/ccUTqzHm.s 			page 21


 1141              	.Letext0:
 1142              		.file 2 "/opt/stm32/gcc/gcc-arm-none-eabi-4_9-2015q2/lib/gcc/arm-none-eabi/4.9.3/include/stddef.h"
 1143              		.file 3 "/opt/stm32/gcc/gcc-arm-none-eabi-4_9-2015q2/arm-none-eabi/include/machine/_default_types.
 1144              		.file 4 "/opt/stm32/gcc/gcc-arm-none-eabi-4_9-2015q2/arm-none-eabi/include/sys/_stdint.h"
 1145              		.file 5 "/home/maciek/ChibiOS_16.1.5/os/rt/ports/ARMCMx/compilers/GCC/chtypes.h"
 1146              		.file 6 "/home/maciek/ChibiOS_16.1.5/os/rt/include/chsystypes.h"
 1147              		.file 7 "/home/maciek/ChibiOS_16.1.5/os/rt/include/chschd.h"
 1148              		.file 8 "/home/maciek/ChibiOS_16.1.5/os/ext/CMSIS/ST/STM32F1xx/stm32f103xe.h"
 1149              		.file 9 "/home/maciek/ChibiOS_16.1.5/os/rt/ports/ARMCMx/chcore.h"
 1150              		.file 10 "/home/maciek/ChibiOS_16.1.5/os/rt/ports/ARMCMx/chcore_v7m.h"
 1151              		.file 11 "/home/maciek/ChibiOS_16.1.5/os/rt/include/chtm.h"
 1152              		.file 12 "/home/maciek/ChibiOS_16.1.5/os/rt/include/chsem.h"
 1153              		.file 13 "/home/maciek/ChibiOS_16.1.5/os/rt/include/chmtx.h"
 1154              		.file 14 "./flash/flash.h"
 1155              		.file 15 "/home/maciek/ChibiOS_16.1.5/os/ext/CMSIS/include/core_cm3.h"
 1156              		.section	.debug_info,"",%progbits
 1157              	.Ldebug_info0:
 1158 0000 100D0000 		.4byte	0xd10
 1159 0004 0400     		.2byte	0x4
 1160 0006 00000000 		.4byte	.Ldebug_abbrev0
 1161 000a 04       		.byte	0x4
 1162 000b 01       		.uleb128 0x1
 1163 000c 19010000 		.4byte	.LASF136
 1164 0010 01       		.byte	0x1
 1165 0011 7A040000 		.4byte	.LASF137
 1166 0015 0B030000 		.4byte	.LASF138
 1167 0019 58010000 		.4byte	.Ldebug_ranges0+0x158
 1168 001d 00000000 		.4byte	0
 1169 0021 00000000 		.4byte	.Ldebug_line0
 1170 0025 02       		.uleb128 0x2
 1171 0026 04       		.byte	0x4
 1172 0027 05       		.byte	0x5
 1173 0028 696E7400 		.ascii	"int\000"
 1174 002c 03       		.uleb128 0x3
 1175 002d 0D000000 		.4byte	.LASF1
 1176 0031 02       		.byte	0x2
 1177 0032 D4       		.byte	0xd4
 1178 0033 37000000 		.4byte	0x37
 1179 0037 04       		.uleb128 0x4
 1180 0038 04       		.byte	0x4
 1181 0039 07       		.byte	0x7
 1182 003a A1020000 		.4byte	.LASF0
 1183 003e 03       		.uleb128 0x3
 1184 003f 97000000 		.4byte	.LASF2
 1185 0043 03       		.byte	0x3
 1186 0044 1B       		.byte	0x1b
 1187 0045 49000000 		.4byte	0x49
 1188 0049 04       		.uleb128 0x4
 1189 004a 01       		.byte	0x1
 1190 004b 06       		.byte	0x6
 1191 004c DE000000 		.4byte	.LASF3
 1192 0050 03       		.uleb128 0x3
 1193 0051 24000000 		.4byte	.LASF4
 1194 0055 03       		.byte	0x3
 1195 0056 1D       		.byte	0x1d
 1196 0057 5B000000 		.4byte	0x5b
 1197 005b 04       		.uleb128 0x4
ARM GAS  /tmp/ccUTqzHm.s 			page 22


 1198 005c 01       		.byte	0x1
 1199 005d 08       		.byte	0x8
 1200 005e EC040000 		.4byte	.LASF5
 1201 0062 04       		.uleb128 0x4
 1202 0063 02       		.byte	0x2
 1203 0064 05       		.byte	0x5
 1204 0065 10050000 		.4byte	.LASF6
 1205 0069 03       		.uleb128 0x3
 1206 006a D6050000 		.4byte	.LASF7
 1207 006e 03       		.byte	0x3
 1208 006f 2B       		.byte	0x2b
 1209 0070 74000000 		.4byte	0x74
 1210 0074 04       		.uleb128 0x4
 1211 0075 02       		.byte	0x2
 1212 0076 07       		.byte	0x7
 1213 0077 4E020000 		.4byte	.LASF8
 1214 007b 03       		.uleb128 0x3
 1215 007c 78030000 		.4byte	.LASF9
 1216 0080 03       		.byte	0x3
 1217 0081 3F       		.byte	0x3f
 1218 0082 86000000 		.4byte	0x86
 1219 0086 04       		.uleb128 0x4
 1220 0087 04       		.byte	0x4
 1221 0088 05       		.byte	0x5
 1222 0089 03020000 		.4byte	.LASF10
 1223 008d 03       		.uleb128 0x3
 1224 008e 61020000 		.4byte	.LASF11
 1225 0092 03       		.byte	0x3
 1226 0093 41       		.byte	0x41
 1227 0094 98000000 		.4byte	0x98
 1228 0098 04       		.uleb128 0x4
 1229 0099 04       		.byte	0x4
 1230 009a 07       		.byte	0x7
 1231 009b BA050000 		.4byte	.LASF12
 1232 009f 04       		.uleb128 0x4
 1233 00a0 08       		.byte	0x8
 1234 00a1 05       		.byte	0x5
 1235 00a2 D0000000 		.4byte	.LASF13
 1236 00a6 03       		.uleb128 0x3
 1237 00a7 6F040000 		.4byte	.LASF14
 1238 00ab 03       		.byte	0x3
 1239 00ac 5B       		.byte	0x5b
 1240 00ad B1000000 		.4byte	0xb1
 1241 00b1 04       		.uleb128 0x4
 1242 00b2 08       		.byte	0x8
 1243 00b3 07       		.byte	0x7
 1244 00b4 49000000 		.4byte	.LASF15
 1245 00b8 04       		.uleb128 0x4
 1246 00b9 04       		.byte	0x4
 1247 00ba 07       		.byte	0x7
 1248 00bb C8030000 		.4byte	.LASF16
 1249 00bf 05       		.uleb128 0x5
 1250 00c0 04       		.byte	0x4
 1251 00c1 04       		.uleb128 0x4
 1252 00c2 01       		.byte	0x1
 1253 00c3 08       		.byte	0x8
 1254 00c4 D1050000 		.4byte	.LASF17
ARM GAS  /tmp/ccUTqzHm.s 			page 23


 1255 00c8 06       		.uleb128 0x6
 1256 00c9 04       		.byte	0x4
 1257 00ca CE000000 		.4byte	0xce
 1258 00ce 07       		.uleb128 0x7
 1259 00cf C1000000 		.4byte	0xc1
 1260 00d3 03       		.uleb128 0x3
 1261 00d4 4C060000 		.4byte	.LASF18
 1262 00d8 04       		.byte	0x4
 1263 00d9 13       		.byte	0x13
 1264 00da 3E000000 		.4byte	0x3e
 1265 00de 03       		.uleb128 0x3
 1266 00df AA060000 		.4byte	.LASF19
 1267 00e3 04       		.byte	0x4
 1268 00e4 14       		.byte	0x14
 1269 00e5 50000000 		.4byte	0x50
 1270 00e9 03       		.uleb128 0x3
 1271 00ea 24020000 		.4byte	.LASF20
 1272 00ee 04       		.byte	0x4
 1273 00ef 1A       		.byte	0x1a
 1274 00f0 69000000 		.4byte	0x69
 1275 00f4 03       		.uleb128 0x3
 1276 00f5 E4040000 		.4byte	.LASF21
 1277 00f9 04       		.byte	0x4
 1278 00fa 1F       		.byte	0x1f
 1279 00fb 7B000000 		.4byte	0x7b
 1280 00ff 03       		.uleb128 0x3
 1281 0100 89050000 		.4byte	.LASF22
 1282 0104 04       		.byte	0x4
 1283 0105 20       		.byte	0x20
 1284 0106 8D000000 		.4byte	0x8d
 1285 010a 03       		.uleb128 0x3
 1286 010b 1B000000 		.4byte	.LASF23
 1287 010f 04       		.byte	0x4
 1288 0110 26       		.byte	0x26
 1289 0111 A6000000 		.4byte	0xa6
 1290 0115 03       		.uleb128 0x3
 1291 0116 44060000 		.4byte	.LASF24
 1292 011a 05       		.byte	0x5
 1293 011b 39       		.byte	0x39
 1294 011c FF000000 		.4byte	0xff
 1295 0120 03       		.uleb128 0x3
 1296 0121 C9060000 		.4byte	.LASF25
 1297 0125 05       		.byte	0x5
 1298 0126 3C       		.byte	0x3c
 1299 0127 DE000000 		.4byte	0xde
 1300 012b 03       		.uleb128 0x3
 1301 012c 0C020000 		.4byte	.LASF26
 1302 0130 05       		.byte	0x5
 1303 0131 3D       		.byte	0x3d
 1304 0132 DE000000 		.4byte	0xde
 1305 0136 03       		.uleb128 0x3
 1306 0137 95040000 		.4byte	.LASF27
 1307 013b 05       		.byte	0x5
 1308 013c 3E       		.byte	0x3e
 1309 013d DE000000 		.4byte	0xde
 1310 0141 03       		.uleb128 0x3
 1311 0142 B9040000 		.4byte	.LASF28
ARM GAS  /tmp/ccUTqzHm.s 			page 24


 1312 0146 05       		.byte	0x5
 1313 0147 40       		.byte	0x40
 1314 0148 FF000000 		.4byte	0xff
 1315 014c 03       		.uleb128 0x3
 1316 014d F9020000 		.4byte	.LASF29
 1317 0151 05       		.byte	0x5
 1318 0152 41       		.byte	0x41
 1319 0153 F4000000 		.4byte	0xf4
 1320 0157 03       		.uleb128 0x3
 1321 0158 6C030000 		.4byte	.LASF30
 1322 015c 05       		.byte	0x5
 1323 015d 43       		.byte	0x43
 1324 015e FF000000 		.4byte	0xff
 1325 0162 03       		.uleb128 0x3
 1326 0163 9B020000 		.4byte	.LASF31
 1327 0167 05       		.byte	0x5
 1328 0168 45       		.byte	0x45
 1329 0169 F4000000 		.4byte	0xf4
 1330 016d 03       		.uleb128 0x3
 1331 016e FC050000 		.4byte	.LASF32
 1332 0172 06       		.byte	0x6
 1333 0173 35       		.byte	0x35
 1334 0174 E9000000 		.4byte	0xe9
 1335 0178 03       		.uleb128 0x3
 1336 0179 EC050000 		.4byte	.LASF33
 1337 017d 06       		.byte	0x6
 1338 017e 3F       		.byte	0x3f
 1339 017f 83010000 		.4byte	0x183
 1340 0183 08       		.uleb128 0x8
 1341 0184 EF020000 		.4byte	.LASF50
 1342 0188 38       		.byte	0x38
 1343 0189 07       		.byte	0x7
 1344 018a C2       		.byte	0xc2
 1345 018b 4C020000 		.4byte	0x24c
 1346 018f 09       		.uleb128 0x9
 1347 0190 4A050000 		.4byte	.LASF34
 1348 0194 07       		.byte	0x7
 1349 0195 C3       		.byte	0xc3
 1350 0196 57020000 		.4byte	0x257
 1351 019a 00       		.byte	0
 1352 019b 09       		.uleb128 0x9
 1353 019c B2040000 		.4byte	.LASF35
 1354 01a0 07       		.byte	0x7
 1355 01a1 C5       		.byte	0xc5
 1356 01a2 57020000 		.4byte	0x257
 1357 01a6 04       		.byte	0x4
 1358 01a7 09       		.uleb128 0x9
 1359 01a8 BE000000 		.4byte	.LASF36
 1360 01ac 07       		.byte	0x7
 1361 01ad C7       		.byte	0xc7
 1362 01ae 41010000 		.4byte	0x141
 1363 01b2 08       		.byte	0x8
 1364 01b3 09       		.uleb128 0x9
 1365 01b4 DF060000 		.4byte	.LASF37
 1366 01b8 07       		.byte	0x7
 1367 01b9 C8       		.byte	0xc8
 1368 01ba F1040000 		.4byte	0x4f1
ARM GAS  /tmp/ccUTqzHm.s 			page 25


 1369 01be 0C       		.byte	0xc
 1370 01bf 09       		.uleb128 0x9
 1371 01c0 1A050000 		.4byte	.LASF38
 1372 01c4 07       		.byte	0x7
 1373 01c5 DD       		.byte	0xdd
 1374 01c6 2B010000 		.4byte	0x12b
 1375 01ca 10       		.byte	0x10
 1376 01cb 09       		.uleb128 0x9
 1377 01cc 51050000 		.4byte	.LASF39
 1378 01d0 07       		.byte	0x7
 1379 01d1 E1       		.byte	0xe1
 1380 01d2 20010000 		.4byte	0x120
 1381 01d6 11       		.byte	0x11
 1382 01d7 09       		.uleb128 0x9
 1383 01d8 89060000 		.4byte	.LASF40
 1384 01dc 07       		.byte	0x7
 1385 01dd E6       		.byte	0xe6
 1386 01de 36010000 		.4byte	0x136
 1387 01e2 12       		.byte	0x12
 1388 01e3 0A       		.uleb128 0xa
 1389 01e4 705F7500 		.ascii	"p_u\000"
 1390 01e8 07       		.byte	0x7
 1391 01e9 3101     		.2byte	0x131
 1392 01eb AB050000 		.4byte	0x5ab
 1393 01ef 14       		.byte	0x14
 1394 01f0 0B       		.uleb128 0xb
 1395 01f1 B4030000 		.4byte	.LASF41
 1396 01f5 07       		.byte	0x7
 1397 01f6 3601     		.2byte	0x136
 1398 01f8 5D020000 		.4byte	0x25d
 1399 01fc 18       		.byte	0x18
 1400 01fd 0B       		.uleb128 0xb
 1401 01fe BD020000 		.4byte	.LASF42
 1402 0202 07       		.byte	0x7
 1403 0203 3C01     		.2byte	0x13c
 1404 0205 81020000 		.4byte	0x281
 1405 0209 1C       		.byte	0x1c
 1406 020a 0B       		.uleb128 0xb
 1407 020b D1060000 		.4byte	.LASF43
 1408 020f 07       		.byte	0x7
 1409 0210 4001     		.2byte	0x140
 1410 0212 4C010000 		.4byte	0x14c
 1411 0216 24       		.byte	0x24
 1412 0217 0B       		.uleb128 0xb
 1413 0218 7E050000 		.4byte	.LASF44
 1414 021c 07       		.byte	0x7
 1415 021d 4601     		.2byte	0x146
 1416 021f 57010000 		.4byte	0x157
 1417 0223 28       		.byte	0x28
 1418 0224 0B       		.uleb128 0xb
 1419 0225 06050000 		.4byte	.LASF45
 1420 0229 07       		.byte	0x7
 1421 022a 4D01     		.2byte	0x14d
 1422 022c 6A060000 		.4byte	0x66a
 1423 0230 2C       		.byte	0x2c
 1424 0231 0B       		.uleb128 0xb
 1425 0232 06060000 		.4byte	.LASF46
ARM GAS  /tmp/ccUTqzHm.s 			page 26


 1426 0236 07       		.byte	0x7
 1427 0237 5101     		.2byte	0x151
 1428 0239 41010000 		.4byte	0x141
 1429 023d 30       		.byte	0x30
 1430 023e 0B       		.uleb128 0xb
 1431 023f F8000000 		.4byte	.LASF47
 1432 0243 07       		.byte	0x7
 1433 0244 5801     		.2byte	0x158
 1434 0246 BF000000 		.4byte	0xbf
 1435 024a 34       		.byte	0x34
 1436 024b 00       		.byte	0
 1437 024c 03       		.uleb128 0x3
 1438 024d D1030000 		.4byte	.LASF48
 1439 0251 06       		.byte	0x6
 1440 0252 44       		.byte	0x44
 1441 0253 57020000 		.4byte	0x257
 1442 0257 06       		.uleb128 0x6
 1443 0258 04       		.byte	0x4
 1444 0259 78010000 		.4byte	0x178
 1445 025d 03       		.uleb128 0x3
 1446 025e A5030000 		.4byte	.LASF49
 1447 0262 06       		.byte	0x6
 1448 0263 49       		.byte	0x49
 1449 0264 68020000 		.4byte	0x268
 1450 0268 08       		.uleb128 0x8
 1451 0269 AA050000 		.4byte	.LASF51
 1452 026d 04       		.byte	0x4
 1453 026e 07       		.byte	0x7
 1454 026f B0       		.byte	0xb0
 1455 0270 81020000 		.4byte	0x281
 1456 0274 09       		.uleb128 0x9
 1457 0275 4A050000 		.4byte	.LASF34
 1458 0279 07       		.byte	0x7
 1459 027a B1       		.byte	0xb1
 1460 027b 57020000 		.4byte	0x257
 1461 027f 00       		.byte	0
 1462 0280 00       		.byte	0
 1463 0281 03       		.uleb128 0x3
 1464 0282 70060000 		.4byte	.LASF52
 1465 0286 06       		.byte	0x6
 1466 0287 50       		.byte	0x50
 1467 0288 8C020000 		.4byte	0x28c
 1468 028c 08       		.uleb128 0x8
 1469 028d AD000000 		.4byte	.LASF53
 1470 0291 08       		.byte	0x8
 1471 0292 07       		.byte	0x7
 1472 0293 B7       		.byte	0xb7
 1473 0294 B1020000 		.4byte	0x2b1
 1474 0298 09       		.uleb128 0x9
 1475 0299 4A050000 		.4byte	.LASF34
 1476 029d 07       		.byte	0x7
 1477 029e B8       		.byte	0xb8
 1478 029f 57020000 		.4byte	0x257
 1479 02a3 00       		.byte	0
 1480 02a4 09       		.uleb128 0x9
 1481 02a5 B2040000 		.4byte	.LASF35
 1482 02a9 07       		.byte	0x7
ARM GAS  /tmp/ccUTqzHm.s 			page 27


 1483 02aa B9       		.byte	0xb9
 1484 02ab 57020000 		.4byte	0x257
 1485 02af 04       		.byte	0x4
 1486 02b0 00       		.byte	0
 1487 02b1 03       		.uleb128 0x3
 1488 02b2 00000000 		.4byte	.LASF54
 1489 02b6 06       		.byte	0x6
 1490 02b7 57       		.byte	0x57
 1491 02b8 BC020000 		.4byte	0x2bc
 1492 02bc 0C       		.uleb128 0xc
 1493 02bd 5E030000 		.4byte	.LASF55
 1494 02c1 14       		.byte	0x14
 1495 02c2 07       		.byte	0x7
 1496 02c3 9001     		.2byte	0x190
 1497 02c5 FE020000 		.4byte	0x2fe
 1498 02c9 0B       		.uleb128 0xb
 1499 02ca 99050000 		.4byte	.LASF56
 1500 02ce 07       		.byte	0x7
 1501 02cf 9101     		.2byte	0x191
 1502 02d1 81020000 		.4byte	0x281
 1503 02d5 00       		.byte	0
 1504 02d6 0B       		.uleb128 0xb
 1505 02d7 33050000 		.4byte	.LASF57
 1506 02db 07       		.byte	0x7
 1507 02dc 9201     		.2byte	0x192
 1508 02de 41010000 		.4byte	0x141
 1509 02e2 08       		.byte	0x8
 1510 02e3 0B       		.uleb128 0xb
 1511 02e4 36040000 		.4byte	.LASF58
 1512 02e8 07       		.byte	0x7
 1513 02e9 9401     		.2byte	0x194
 1514 02eb F1040000 		.4byte	0x4f1
 1515 02ef 0C       		.byte	0xc
 1516 02f0 0B       		.uleb128 0xb
 1517 02f1 65040000 		.4byte	.LASF59
 1518 02f5 07       		.byte	0x7
 1519 02f6 9B01     		.2byte	0x19b
 1520 02f8 57020000 		.4byte	0x257
 1521 02fc 10       		.byte	0x10
 1522 02fd 00       		.byte	0
 1523 02fe 03       		.uleb128 0x3
 1524 02ff 11060000 		.4byte	.LASF60
 1525 0303 06       		.byte	0x6
 1526 0304 5C       		.byte	0x5c
 1527 0305 09030000 		.4byte	0x309
 1528 0309 06       		.uleb128 0x6
 1529 030a 04       		.byte	0x4
 1530 030b 0F030000 		.4byte	0x30f
 1531 030f 0D       		.uleb128 0xd
 1532 0310 1A030000 		.4byte	0x31a
 1533 0314 0E       		.uleb128 0xe
 1534 0315 BF000000 		.4byte	0xbf
 1535 0319 00       		.byte	0
 1536 031a 03       		.uleb128 0x3
 1537 031b A2040000 		.4byte	.LASF61
 1538 031f 06       		.byte	0x6
 1539 0320 61       		.byte	0x61
ARM GAS  /tmp/ccUTqzHm.s 			page 28


 1540 0321 25030000 		.4byte	0x325
 1541 0325 0C       		.uleb128 0xc
 1542 0326 33060000 		.4byte	.LASF62
 1543 032a 14       		.byte	0x14
 1544 032b 07       		.byte	0x7
 1545 032c 6B01     		.2byte	0x16b
 1546 032e 74030000 		.4byte	0x374
 1547 0332 0B       		.uleb128 0xb
 1548 0333 AE020000 		.4byte	.LASF63
 1549 0337 07       		.byte	0x7
 1550 0338 6C01     		.2byte	0x16c
 1551 033a 70060000 		.4byte	0x670
 1552 033e 00       		.byte	0
 1553 033f 0B       		.uleb128 0xb
 1554 0340 75020000 		.4byte	.LASF64
 1555 0344 07       		.byte	0x7
 1556 0345 6D01     		.2byte	0x16d
 1557 0347 70060000 		.4byte	0x670
 1558 034b 04       		.byte	0x4
 1559 034c 0B       		.uleb128 0xb
 1560 034d A1050000 		.4byte	.LASF65
 1561 0351 07       		.byte	0x7
 1562 0352 6E01     		.2byte	0x16e
 1563 0354 6D010000 		.4byte	0x16d
 1564 0358 08       		.byte	0x8
 1565 0359 0B       		.uleb128 0xb
 1566 035a E5060000 		.4byte	.LASF66
 1567 035e 07       		.byte	0x7
 1568 035f 6F01     		.2byte	0x16f
 1569 0361 FE020000 		.4byte	0x2fe
 1570 0365 0C       		.byte	0xc
 1571 0366 0B       		.uleb128 0xb
 1572 0367 5F060000 		.4byte	.LASF67
 1573 036b 07       		.byte	0x7
 1574 036c 7101     		.2byte	0x171
 1575 036e BF000000 		.4byte	0xbf
 1576 0372 10       		.byte	0x10
 1577 0373 00       		.byte	0
 1578 0374 03       		.uleb128 0x3
 1579 0375 81000000 		.4byte	.LASF68
 1580 0379 06       		.byte	0x6
 1581 037a 66       		.byte	0x66
 1582 037b 7F030000 		.4byte	0x37f
 1583 037f 0C       		.uleb128 0xc
 1584 0380 E4030000 		.4byte	.LASF69
 1585 0384 0C       		.byte	0xc
 1586 0385 07       		.byte	0x7
 1587 0386 7B01     		.2byte	0x17b
 1588 0388 C1030000 		.4byte	0x3c1
 1589 038c 0B       		.uleb128 0xb
 1590 038d AE020000 		.4byte	.LASF63
 1591 0391 07       		.byte	0x7
 1592 0392 7C01     		.2byte	0x17c
 1593 0394 70060000 		.4byte	0x670
 1594 0398 00       		.byte	0
 1595 0399 0B       		.uleb128 0xb
 1596 039a 75020000 		.4byte	.LASF64
ARM GAS  /tmp/ccUTqzHm.s 			page 29


 1597 039e 07       		.byte	0x7
 1598 039f 7E01     		.2byte	0x17e
 1599 03a1 70060000 		.4byte	0x670
 1600 03a5 04       		.byte	0x4
 1601 03a6 0B       		.uleb128 0xb
 1602 03a7 A1050000 		.4byte	.LASF65
 1603 03ab 07       		.byte	0x7
 1604 03ac 8001     		.2byte	0x180
 1605 03ae 6D010000 		.4byte	0x16d
 1606 03b2 08       		.byte	0x8
 1607 03b3 0B       		.uleb128 0xb
 1608 03b4 BE060000 		.4byte	.LASF70
 1609 03b8 07       		.byte	0x7
 1610 03b9 8201     		.2byte	0x182
 1611 03bb 76060000 		.4byte	0x676
 1612 03bf 0A       		.byte	0xa
 1613 03c0 00       		.byte	0
 1614 03c1 03       		.uleb128 0x3
 1615 03c2 3A000000 		.4byte	.LASF71
 1616 03c6 06       		.byte	0x6
 1617 03c7 6B       		.byte	0x6b
 1618 03c8 CC030000 		.4byte	0x3cc
 1619 03cc 0C       		.uleb128 0xc
 1620 03cd CE040000 		.4byte	.LASF72
 1621 03d1 04       		.byte	0x4
 1622 03d2 07       		.byte	0x7
 1623 03d3 A201     		.2byte	0x1a2
 1624 03d5 E7030000 		.4byte	0x3e7
 1625 03d9 0B       		.uleb128 0xb
 1626 03da 1A060000 		.4byte	.LASF73
 1627 03de 07       		.byte	0x7
 1628 03df AA01     		.2byte	0x1aa
 1629 03e1 7B060000 		.4byte	0x67b
 1630 03e5 00       		.byte	0
 1631 03e6 00       		.byte	0
 1632 03e7 03       		.uleb128 0x3
 1633 03e8 FF020000 		.4byte	.LASF74
 1634 03ec 06       		.byte	0x6
 1635 03ed 70       		.byte	0x70
 1636 03ee F2030000 		.4byte	0x3f2
 1637 03f2 0F       		.uleb128 0xf
 1638 03f3 F9010000 		.4byte	.LASF75
 1639 03f7 3001     		.2byte	0x130
 1640 03f9 07       		.byte	0x7
 1641 03fa C201     		.2byte	0x1c2
 1642 03fc 4E040000 		.4byte	0x44e
 1643 0400 0B       		.uleb128 0xb
 1644 0401 A4060000 		.4byte	.LASF76
 1645 0405 07       		.byte	0x7
 1646 0406 C601     		.2byte	0x1c6
 1647 0408 B1020000 		.4byte	0x2b1
 1648 040c 00       		.byte	0
 1649 040d 0B       		.uleb128 0xb
 1650 040e 7D020000 		.4byte	.LASF77
 1651 0412 07       		.byte	0x7
 1652 0413 CA01     		.2byte	0x1ca
 1653 0415 74030000 		.4byte	0x374
ARM GAS  /tmp/ccUTqzHm.s 			page 30


 1654 0419 14       		.byte	0x14
 1655 041a 0A       		.uleb128 0xa
 1656 041b 64626700 		.ascii	"dbg\000"
 1657 041f 07       		.byte	0x7
 1658 0420 CE01     		.2byte	0x1ce
 1659 0422 C1030000 		.4byte	0x3c1
 1660 0426 20       		.byte	0x20
 1661 0427 0B       		.uleb128 0xb
 1662 0428 76000000 		.4byte	.LASF78
 1663 042c 07       		.byte	0x7
 1664 042d D201     		.2byte	0x1d2
 1665 042f 78010000 		.4byte	0x178
 1666 0433 24       		.byte	0x24
 1667 0434 0A       		.uleb128 0xa
 1668 0435 746D00   		.ascii	"tm\000"
 1669 0438 07       		.byte	0x7
 1670 0439 D701     		.2byte	0x1d7
 1671 043b A0050000 		.4byte	0x5a0
 1672 043f 5C       		.byte	0x5c
 1673 0440 0B       		.uleb128 0xb
 1674 0441 8C020000 		.4byte	.LASF79
 1675 0445 07       		.byte	0x7
 1676 0446 E301     		.2byte	0x1e3
 1677 0448 80060000 		.4byte	0x680
 1678 044c 60       		.byte	0x60
 1679 044d 00       		.byte	0
 1680 044e 10       		.uleb128 0x10
 1681 044f FF000000 		.4byte	0xff
 1682 0453 11       		.uleb128 0x11
 1683 0454 24       		.byte	0x24
 1684 0455 08       		.byte	0x8
 1685 0456 9401     		.2byte	0x194
 1686 0458 CF040000 		.4byte	0x4cf
 1687 045c 0A       		.uleb128 0xa
 1688 045d 41435200 		.ascii	"ACR\000"
 1689 0461 08       		.byte	0x8
 1690 0462 9601     		.2byte	0x196
 1691 0464 4E040000 		.4byte	0x44e
 1692 0468 00       		.byte	0
 1693 0469 0B       		.uleb128 0xb
 1694 046a 9D040000 		.4byte	.LASF80
 1695 046e 08       		.byte	0x8
 1696 046f 9701     		.2byte	0x197
 1697 0471 4E040000 		.4byte	0x44e
 1698 0475 04       		.byte	0x4
 1699 0476 0B       		.uleb128 0xb
 1700 0477 1C020000 		.4byte	.LASF81
 1701 047b 08       		.byte	0x8
 1702 047c 9801     		.2byte	0x198
 1703 047e 4E040000 		.4byte	0x44e
 1704 0482 08       		.byte	0x8
 1705 0483 0A       		.uleb128 0xa
 1706 0484 535200   		.ascii	"SR\000"
 1707 0487 08       		.byte	0x8
 1708 0488 9901     		.2byte	0x199
 1709 048a 4E040000 		.4byte	0x44e
 1710 048e 0C       		.byte	0xc
ARM GAS  /tmp/ccUTqzHm.s 			page 31


 1711 048f 0A       		.uleb128 0xa
 1712 0490 435200   		.ascii	"CR\000"
 1713 0493 08       		.byte	0x8
 1714 0494 9A01     		.2byte	0x19a
 1715 0496 4E040000 		.4byte	0x44e
 1716 049a 10       		.byte	0x10
 1717 049b 0A       		.uleb128 0xa
 1718 049c 415200   		.ascii	"AR\000"
 1719 049f 08       		.byte	0x8
 1720 04a0 9B01     		.2byte	0x19b
 1721 04a2 4E040000 		.4byte	0x44e
 1722 04a6 14       		.byte	0x14
 1723 04a7 0B       		.uleb128 0xb
 1724 04a8 3A050000 		.4byte	.LASF82
 1725 04ac 08       		.byte	0x8
 1726 04ad 9C01     		.2byte	0x19c
 1727 04af 4E040000 		.4byte	0x44e
 1728 04b3 18       		.byte	0x18
 1729 04b4 0A       		.uleb128 0xa
 1730 04b5 4F425200 		.ascii	"OBR\000"
 1731 04b9 08       		.byte	0x8
 1732 04ba 9D01     		.2byte	0x19d
 1733 04bc 4E040000 		.4byte	0x44e
 1734 04c0 1C       		.byte	0x1c
 1735 04c1 0B       		.uleb128 0xb
 1736 04c2 CC050000 		.4byte	.LASF83
 1737 04c6 08       		.byte	0x8
 1738 04c7 9E01     		.2byte	0x19e
 1739 04c9 4E040000 		.4byte	0x44e
 1740 04cd 20       		.byte	0x20
 1741 04ce 00       		.byte	0
 1742 04cf 12       		.uleb128 0x12
 1743 04d0 EA000000 		.4byte	.LASF84
 1744 04d4 08       		.byte	0x8
 1745 04d5 9F01     		.2byte	0x19f
 1746 04d7 53040000 		.4byte	0x453
 1747 04db 03       		.uleb128 0x3
 1748 04dc 6C020000 		.4byte	.LASF85
 1749 04e0 09       		.byte	0x9
 1750 04e1 65       		.byte	0x65
 1751 04e2 BF000000 		.4byte	0xbf
 1752 04e6 03       		.uleb128 0x3
 1753 04e7 82030000 		.4byte	.LASF86
 1754 04eb 09       		.byte	0x9
 1755 04ec 6D       		.byte	0x6d
 1756 04ed 0A010000 		.4byte	0x10a
 1757 04f1 08       		.uleb128 0x8
 1758 04f2 2B060000 		.4byte	.LASF87
 1759 04f6 04       		.byte	0x4
 1760 04f7 09       		.byte	0x9
 1761 04f8 89       		.byte	0x89
 1762 04f9 0A050000 		.4byte	0x50a
 1763 04fd 13       		.uleb128 0x13
 1764 04fe 72313300 		.ascii	"r13\000"
 1765 0502 09       		.byte	0x9
 1766 0503 8A       		.byte	0x8a
 1767 0504 85050000 		.4byte	0x585
ARM GAS  /tmp/ccUTqzHm.s 			page 32


 1768 0508 00       		.byte	0
 1769 0509 00       		.byte	0
 1770 050a 08       		.uleb128 0x8
 1771 050b 2E000000 		.4byte	.LASF88
 1772 050f 24       		.byte	0x24
 1773 0510 0A       		.byte	0xa
 1774 0511 FD       		.byte	0xfd
 1775 0512 85050000 		.4byte	0x585
 1776 0516 0A       		.uleb128 0xa
 1777 0517 723400   		.ascii	"r4\000"
 1778 051a 0A       		.byte	0xa
 1779 051b 1001     		.2byte	0x110
 1780 051d DB040000 		.4byte	0x4db
 1781 0521 00       		.byte	0
 1782 0522 0A       		.uleb128 0xa
 1783 0523 723500   		.ascii	"r5\000"
 1784 0526 0A       		.byte	0xa
 1785 0527 1101     		.2byte	0x111
 1786 0529 DB040000 		.4byte	0x4db
 1787 052d 04       		.byte	0x4
 1788 052e 0A       		.uleb128 0xa
 1789 052f 723600   		.ascii	"r6\000"
 1790 0532 0A       		.byte	0xa
 1791 0533 1201     		.2byte	0x112
 1792 0535 DB040000 		.4byte	0x4db
 1793 0539 08       		.byte	0x8
 1794 053a 0A       		.uleb128 0xa
 1795 053b 723700   		.ascii	"r7\000"
 1796 053e 0A       		.byte	0xa
 1797 053f 1301     		.2byte	0x113
 1798 0541 DB040000 		.4byte	0x4db
 1799 0545 0C       		.byte	0xc
 1800 0546 0A       		.uleb128 0xa
 1801 0547 723800   		.ascii	"r8\000"
 1802 054a 0A       		.byte	0xa
 1803 054b 1401     		.2byte	0x114
 1804 054d DB040000 		.4byte	0x4db
 1805 0551 10       		.byte	0x10
 1806 0552 0A       		.uleb128 0xa
 1807 0553 723900   		.ascii	"r9\000"
 1808 0556 0A       		.byte	0xa
 1809 0557 1501     		.2byte	0x115
 1810 0559 DB040000 		.4byte	0x4db
 1811 055d 14       		.byte	0x14
 1812 055e 0A       		.uleb128 0xa
 1813 055f 72313000 		.ascii	"r10\000"
 1814 0563 0A       		.byte	0xa
 1815 0564 1601     		.2byte	0x116
 1816 0566 DB040000 		.4byte	0x4db
 1817 056a 18       		.byte	0x18
 1818 056b 0A       		.uleb128 0xa
 1819 056c 72313100 		.ascii	"r11\000"
 1820 0570 0A       		.byte	0xa
 1821 0571 1701     		.2byte	0x117
 1822 0573 DB040000 		.4byte	0x4db
 1823 0577 1C       		.byte	0x1c
 1824 0578 0A       		.uleb128 0xa
ARM GAS  /tmp/ccUTqzHm.s 			page 33


 1825 0579 6C7200   		.ascii	"lr\000"
 1826 057c 0A       		.byte	0xa
 1827 057d 1801     		.2byte	0x118
 1828 057f DB040000 		.4byte	0x4db
 1829 0583 20       		.byte	0x20
 1830 0584 00       		.byte	0
 1831 0585 06       		.uleb128 0x6
 1832 0586 04       		.byte	0x4
 1833 0587 0A050000 		.4byte	0x50a
 1834 058b 14       		.uleb128 0x14
 1835 058c 04       		.byte	0x4
 1836 058d 0B       		.byte	0xb
 1837 058e 38       		.byte	0x38
 1838 058f A0050000 		.4byte	0x5a0
 1839 0593 09       		.uleb128 0x9
 1840 0594 24060000 		.4byte	.LASF89
 1841 0598 0B       		.byte	0xb
 1842 0599 3C       		.byte	0x3c
 1843 059a 15010000 		.4byte	0x115
 1844 059e 00       		.byte	0
 1845 059f 00       		.byte	0
 1846 05a0 03       		.uleb128 0x3
 1847 05a1 3C040000 		.4byte	.LASF90
 1848 05a5 0B       		.byte	0xb
 1849 05a6 3D       		.byte	0x3d
 1850 05a7 8B050000 		.4byte	0x58b
 1851 05ab 15       		.uleb128 0x15
 1852 05ac 04       		.byte	0x4
 1853 05ad 07       		.byte	0x7
 1854 05ae FA       		.byte	0xfa
 1855 05af 08060000 		.4byte	0x608
 1856 05b3 16       		.uleb128 0x16
 1857 05b4 14000000 		.4byte	.LASF91
 1858 05b8 07       		.byte	0x7
 1859 05b9 0101     		.2byte	0x101
 1860 05bb 4C010000 		.4byte	0x14c
 1861 05bf 16       		.uleb128 0x16
 1862 05c0 6D000000 		.4byte	.LASF92
 1863 05c4 07       		.byte	0x7
 1864 05c5 0801     		.2byte	0x108
 1865 05c7 4C010000 		.4byte	0x14c
 1866 05cb 16       		.uleb128 0x16
 1867 05cc B2060000 		.4byte	.LASF93
 1868 05d0 07       		.byte	0x7
 1869 05d1 0F01     		.2byte	0x10f
 1870 05d3 BF000000 		.4byte	0xbf
 1871 05d7 16       		.uleb128 0x16
 1872 05d8 F3010000 		.4byte	.LASF94
 1873 05dc 07       		.byte	0x7
 1874 05dd 1601     		.2byte	0x116
 1875 05df 08060000 		.4byte	0x608
 1876 05e3 16       		.uleb128 0x16
 1877 05e4 B6020000 		.4byte	.LASF95
 1878 05e8 07       		.byte	0x7
 1879 05e9 1E01     		.2byte	0x11e
 1880 05eb 33060000 		.4byte	0x633
 1881 05ef 16       		.uleb128 0x16
ARM GAS  /tmp/ccUTqzHm.s 			page 34


 1882 05f0 92050000 		.4byte	.LASF96
 1883 05f4 07       		.byte	0x7
 1884 05f5 2701     		.2byte	0x127
 1885 05f7 6A060000 		.4byte	0x66a
 1886 05fb 16       		.uleb128 0x16
 1887 05fc 43050000 		.4byte	.LASF97
 1888 0600 07       		.byte	0x7
 1889 0601 2F01     		.2byte	0x12f
 1890 0603 57010000 		.4byte	0x157
 1891 0607 00       		.byte	0
 1892 0608 06       		.uleb128 0x6
 1893 0609 04       		.byte	0x4
 1894 060a 4C020000 		.4byte	0x24c
 1895 060e 08       		.uleb128 0x8
 1896 060f 71050000 		.4byte	.LASF98
 1897 0613 0C       		.byte	0xc
 1898 0614 0C       		.byte	0xc
 1899 0615 34       		.byte	0x34
 1900 0616 33060000 		.4byte	0x633
 1901 061a 09       		.uleb128 0x9
 1902 061b 65000000 		.4byte	.LASF99
 1903 061f 0C       		.byte	0xc
 1904 0620 35       		.byte	0x35
 1905 0621 81020000 		.4byte	0x281
 1906 0625 00       		.byte	0
 1907 0626 09       		.uleb128 0x9
 1908 0627 CD020000 		.4byte	.LASF100
 1909 062b 0C       		.byte	0xc
 1910 062c 37       		.byte	0x37
 1911 062d 62010000 		.4byte	0x162
 1912 0631 08       		.byte	0x8
 1913 0632 00       		.byte	0
 1914 0633 06       		.uleb128 0x6
 1915 0634 04       		.byte	0x4
 1916 0635 0E060000 		.4byte	0x60e
 1917 0639 08       		.uleb128 0x8
 1918 063a 80060000 		.4byte	.LASF101
 1919 063e 10       		.byte	0x10
 1920 063f 0D       		.byte	0xd
 1921 0640 39       		.byte	0x39
 1922 0641 6A060000 		.4byte	0x66a
 1923 0645 09       		.uleb128 0x9
 1924 0646 07010000 		.4byte	.LASF102
 1925 064a 0D       		.byte	0xd
 1926 064b 3A       		.byte	0x3a
 1927 064c 81020000 		.4byte	0x281
 1928 0650 00       		.byte	0
 1929 0651 09       		.uleb128 0x9
 1930 0652 D7060000 		.4byte	.LASF103
 1931 0656 0D       		.byte	0xd
 1932 0657 3C       		.byte	0x3c
 1933 0658 57020000 		.4byte	0x257
 1934 065c 08       		.byte	0x8
 1935 065d 09       		.uleb128 0x9
 1936 065e F5050000 		.4byte	.LASF104
 1937 0662 0D       		.byte	0xd
 1938 0663 3E       		.byte	0x3e
ARM GAS  /tmp/ccUTqzHm.s 			page 35


 1939 0664 9B060000 		.4byte	0x69b
 1940 0668 0C       		.byte	0xc
 1941 0669 00       		.byte	0
 1942 066a 06       		.uleb128 0x6
 1943 066b 04       		.byte	0x4
 1944 066c 39060000 		.4byte	0x639
 1945 0670 06       		.uleb128 0x6
 1946 0671 04       		.byte	0x4
 1947 0672 1A030000 		.4byte	0x31a
 1948 0676 10       		.uleb128 0x10
 1949 0677 6D010000 		.4byte	0x16d
 1950 067b 10       		.uleb128 0x10
 1951 067c C8000000 		.4byte	0xc8
 1952 0680 17       		.uleb128 0x17
 1953 0681 E6040000 		.4byte	0x4e6
 1954 0685 90060000 		.4byte	0x690
 1955 0689 18       		.uleb128 0x18
 1956 068a B8000000 		.4byte	0xb8
 1957 068e 19       		.byte	0x19
 1958 068f 00       		.byte	0
 1959 0690 03       		.uleb128 0x3
 1960 0691 84020000 		.4byte	.LASF105
 1961 0695 0D       		.byte	0xd
 1962 0696 34       		.byte	0x34
 1963 0697 39060000 		.4byte	0x639
 1964 069b 06       		.uleb128 0x6
 1965 069c 04       		.byte	0x4
 1966 069d 90060000 		.4byte	0x690
 1967 06a1 04       		.uleb128 0x4
 1968 06a2 01       		.byte	0x1
 1969 06a3 02       		.byte	0x2
 1970 06a4 DE040000 		.4byte	.LASF106
 1971 06a8 03       		.uleb128 0x3
 1972 06a9 00010000 		.4byte	.LASF107
 1973 06ad 0E       		.byte	0xe
 1974 06ae 0F       		.byte	0xf
 1975 06af D3000000 		.4byte	0xd3
 1976 06b3 03       		.uleb128 0x3
 1977 06b4 59040000 		.4byte	.LASF108
 1978 06b8 0E       		.byte	0xe
 1979 06b9 48       		.byte	0x48
 1980 06ba 37000000 		.4byte	0x37
 1981 06be 03       		.uleb128 0x3
 1982 06bf 4D040000 		.4byte	.LASF109
 1983 06c3 0E       		.byte	0xe
 1984 06c4 49       		.byte	0x49
 1985 06c5 E9000000 		.4byte	0xe9
 1986 06c9 03       		.uleb128 0x3
 1987 06ca 8D030000 		.4byte	.LASF110
 1988 06ce 0E       		.byte	0xe
 1989 06cf 4A       		.byte	0x4a
 1990 06d0 FF000000 		.4byte	0xff
 1991 06d4 19       		.uleb128 0x19
 1992 06d5 42020000 		.4byte	.LASF139
 1993 06d9 01       		.byte	0x1
 1994 06da 0F       		.byte	0xf
 1995 06db A8060000 		.4byte	0x6a8
ARM GAS  /tmp/ccUTqzHm.s 			page 36


 1996 06df 01       		.byte	0x1
 1997 06e0 1A       		.uleb128 0x1a
 1998 06e1 BE030000 		.4byte	.LASF140
 1999 06e5 01       		.byte	0x1
 2000 06e6 21       		.byte	0x21
 2001 06e7 01       		.byte	0x1
 2002 06e8 1B       		.uleb128 0x1b
 2003 06e9 21040000 		.4byte	.LASF114
 2004 06ed 01       		.byte	0x1
 2005 06ee 49       		.byte	0x49
 2006 06ef A8060000 		.4byte	0x6a8
 2007 06f3 01       		.byte	0x1
 2008 06f4 25070000 		.4byte	0x725
 2009 06f8 1C       		.uleb128 0x1c
 2010 06f9 C8020000 		.4byte	.LASF116
 2011 06fd 01       		.byte	0x1
 2012 06fe 49       		.byte	0x49
 2013 06ff B3060000 		.4byte	0x6b3
 2014 0703 1D       		.uleb128 0x1d
 2015 0704 88040000 		.4byte	.LASF111
 2016 0708 01       		.byte	0x1
 2017 0709 4A       		.byte	0x4a
 2018 070a 25070000 		.4byte	0x725
 2019 070e 1D       		.uleb128 0x1d
 2020 070f FA040000 		.4byte	.LASF112
 2021 0713 01       		.byte	0x1
 2022 0714 4B       		.byte	0x4b
 2023 0715 25070000 		.4byte	0x725
 2024 0719 1D       		.uleb128 0x1d
 2025 071a 60000000 		.4byte	.LASF113
 2026 071e 01       		.byte	0x1
 2027 071f 4D       		.byte	0x4d
 2028 0720 2A070000 		.4byte	0x72a
 2029 0724 00       		.byte	0
 2030 0725 07       		.uleb128 0x7
 2031 0726 2A070000 		.4byte	0x72a
 2032 072a 06       		.uleb128 0x6
 2033 072b 04       		.byte	0x4
 2034 072c FF000000 		.4byte	0xff
 2035 0730 1B       		.uleb128 0x1b
 2036 0731 03040000 		.4byte	.LASF115
 2037 0735 01       		.byte	0x1
 2038 0736 26       		.byte	0x26
 2039 0737 25000000 		.4byte	0x25
 2040 073b 01       		.byte	0x1
 2041 073c 4C070000 		.4byte	0x74c
 2042 0740 1C       		.uleb128 0x1c
 2043 0741 C8020000 		.4byte	.LASF116
 2044 0745 01       		.byte	0x1
 2045 0746 26       		.byte	0x26
 2046 0747 B3060000 		.4byte	0x6b3
 2047 074b 00       		.byte	0
 2048 074c 1E       		.uleb128 0x1e
 2049 074d 59050000 		.4byte	.LASF141
 2050 0751 01       		.byte	0x1
 2051 0752 F3       		.byte	0xf3
 2052 0753 01       		.byte	0x1
ARM GAS  /tmp/ccUTqzHm.s 			page 37


 2053 0754 6F070000 		.4byte	0x76f
 2054 0758 1C       		.uleb128 0x1c
 2055 0759 FB030000 		.4byte	.LASF117
 2056 075d 01       		.byte	0x1
 2057 075e F3       		.byte	0xf3
 2058 075f 6F070000 		.4byte	0x76f
 2059 0763 1C       		.uleb128 0x1c
 2060 0764 D3020000 		.4byte	.LASF118
 2061 0768 01       		.byte	0x1
 2062 0769 F3       		.byte	0xf3
 2063 076a 7A070000 		.4byte	0x77a
 2064 076e 00       		.byte	0
 2065 076f 06       		.uleb128 0x6
 2066 0770 04       		.byte	0x4
 2067 0771 75070000 		.4byte	0x775
 2068 0775 10       		.uleb128 0x10
 2069 0776 BE060000 		.4byte	0x6be
 2070 077a 07       		.uleb128 0x7
 2071 077b BE060000 		.4byte	0x6be
 2072 077f 1F       		.uleb128 0x1f
 2073 0780 D4060000 		.4byte	0x6d4
 2074 0784 00000000 		.4byte	.LFB219
 2075 0788 24000000 		.4byte	.LFE219-.LFB219
 2076 078c 01       		.uleb128 0x1
 2077 078d 9C       		.byte	0x9c
 2078 078e 20       		.uleb128 0x20
 2079 078f 30070000 		.4byte	0x730
 2080 0793 00000000 		.4byte	.LFB209
 2081 0797 98000000 		.4byte	.LFE209-.LFB209
 2082 079b 01       		.uleb128 0x1
 2083 079c 9C       		.byte	0x9c
 2084 079d 20080000 		.4byte	0x820
 2085 07a1 21       		.uleb128 0x21
 2086 07a2 40070000 		.4byte	0x740
 2087 07a6 00000000 		.4byte	.LLST0
 2088 07aa 22       		.uleb128 0x22
 2089 07ab D4060000 		.4byte	0x6d4
 2090 07af 0E000000 		.4byte	.LBB40
 2091 07b3 00000000 		.4byte	.Ldebug_ranges0+0
 2092 07b7 01       		.byte	0x1
 2093 07b8 2D       		.byte	0x2d
 2094 07b9 C7070000 		.4byte	0x7c7
 2095 07bd 23       		.uleb128 0x23
 2096 07be 82000000 		.4byte	.LVL11
 2097 07c2 7F070000 		.4byte	0x77f
 2098 07c6 00       		.byte	0
 2099 07c7 24       		.uleb128 0x24
 2100 07c8 18000000 		.4byte	.LBB43
 2101 07cc 64000000 		.4byte	.LBE43-.LBB43
 2102 07d0 25       		.uleb128 0x25
 2103 07d1 40070000 		.4byte	0x740
 2104 07d5 26       		.uleb128 0x26
 2105 07d6 E0060000 		.4byte	0x6e0
 2106 07da 4C000000 		.4byte	.LBB45
 2107 07de 18000000 		.4byte	.Ldebug_ranges0+0x18
 2108 07e2 01       		.byte	0x1
 2109 07e3 3F       		.byte	0x3f
ARM GAS  /tmp/ccUTqzHm.s 			page 38


 2110 07e4 27       		.uleb128 0x27
 2111 07e5 E8060000 		.4byte	0x6e8
 2112 07e9 4E000000 		.4byte	.LBB49
 2113 07ed 38000000 		.4byte	.Ldebug_ranges0+0x38
 2114 07f1 01       		.byte	0x1
 2115 07f2 42       		.byte	0x42
 2116 07f3 21       		.uleb128 0x21
 2117 07f4 F8060000 		.4byte	0x6f8
 2118 07f8 42000000 		.4byte	.LLST1
 2119 07fc 28       		.uleb128 0x28
 2120 07fd 38000000 		.4byte	.Ldebug_ranges0+0x38
 2121 0801 29       		.uleb128 0x29
 2122 0802 03070000 		.4byte	0x703
 2123 0806 55000000 		.4byte	.LLST2
 2124 080a 29       		.uleb128 0x29
 2125 080b 0E070000 		.4byte	0x70e
 2126 080f 68000000 		.4byte	.LLST3
 2127 0813 29       		.uleb128 0x29
 2128 0814 19070000 		.4byte	0x719
 2129 0818 A8000000 		.4byte	.LLST4
 2130 081c 00       		.byte	0
 2131 081d 00       		.byte	0
 2132 081e 00       		.byte	0
 2133 081f 00       		.byte	0
 2134 0820 20       		.uleb128 0x20
 2135 0821 E8060000 		.4byte	0x6e8
 2136 0825 00000000 		.4byte	.LFB210
 2137 0829 2C000000 		.4byte	.LFE210-.LFB210
 2138 082d 01       		.uleb128 0x1
 2139 082e 9C       		.byte	0x9c
 2140 082f 58080000 		.4byte	0x858
 2141 0833 21       		.uleb128 0x21
 2142 0834 F8060000 		.4byte	0x6f8
 2143 0838 DE000000 		.4byte	.LLST5
 2144 083c 29       		.uleb128 0x29
 2145 083d 03070000 		.4byte	0x703
 2146 0841 10010000 		.4byte	.LLST6
 2147 0845 29       		.uleb128 0x29
 2148 0846 0E070000 		.4byte	0x70e
 2149 084a 56010000 		.4byte	.LLST7
 2150 084e 29       		.uleb128 0x29
 2151 084f 19070000 		.4byte	0x719
 2152 0853 9A010000 		.4byte	.LLST8
 2153 0857 00       		.byte	0
 2154 0858 2A       		.uleb128 0x2a
 2155 0859 2D020000 		.4byte	.LASF120
 2156 085d 01       		.byte	0x1
 2157 085e 5A       		.byte	0x5a
 2158 085f A8060000 		.4byte	0x6a8
 2159 0863 00000000 		.4byte	.LFB211
 2160 0867 16000000 		.4byte	.LFE211-.LFB211
 2161 086b 01       		.uleb128 0x1
 2162 086c 9C       		.byte	0x9c
 2163 086d B5080000 		.4byte	0x8b5
 2164 0871 2B       		.uleb128 0x2b
 2165 0872 C8020000 		.4byte	.LASF116
 2166 0876 01       		.byte	0x1
ARM GAS  /tmp/ccUTqzHm.s 			page 39


 2167 0877 5A       		.byte	0x5a
 2168 0878 B3060000 		.4byte	0x6b3
 2169 087c DD010000 		.4byte	.LLST9
 2170 0880 2B       		.uleb128 0x2b
 2171 0881 3B020000 		.4byte	.LASF119
 2172 0885 01       		.byte	0x1
 2173 0886 5A       		.byte	0x5a
 2174 0887 B5080000 		.4byte	0x8b5
 2175 088b 0D020000 		.4byte	.LLST10
 2176 088f 2C       		.uleb128 0x2c
 2177 0890 12000000 		.4byte	.LVL27
 2178 0894 EF0C0000 		.4byte	0xcef
 2179 0898 2D       		.uleb128 0x2d
 2180 0899 01       		.uleb128 0x1
 2181 089a 52       		.byte	0x52
 2182 089b 03       		.uleb128 0x3
 2183 089c 0A       		.byte	0xa
 2184 089d 0008     		.2byte	0x800
 2185 089f 2D       		.uleb128 0x2d
 2186 08a0 01       		.uleb128 0x1
 2187 08a1 51       		.byte	0x51
 2188 08a2 09       		.uleb128 0x9
 2189 08a3 F3       		.byte	0xf3
 2190 08a4 01       		.uleb128 0x1
 2191 08a5 50       		.byte	0x50
 2192 08a6 23       		.byte	0x23
 2193 08a7 808004   		.uleb128 0x10000
 2194 08aa 3B       		.byte	0x3b
 2195 08ab 24       		.byte	0x24
 2196 08ac 2D       		.uleb128 0x2d
 2197 08ad 01       		.uleb128 0x1
 2198 08ae 50       		.byte	0x50
 2199 08af 03       		.uleb128 0x3
 2200 08b0 F3       		.byte	0xf3
 2201 08b1 01       		.uleb128 0x1
 2202 08b2 51       		.byte	0x51
 2203 08b3 00       		.byte	0
 2204 08b4 00       		.byte	0
 2205 08b5 06       		.uleb128 0x6
 2206 08b6 04       		.byte	0x4
 2207 08b7 BE060000 		.4byte	0x6be
 2208 08bb 2A       		.uleb128 0x2a
 2209 08bc C1040000 		.4byte	.LASF121
 2210 08c0 01       		.byte	0x1
 2211 08c1 61       		.byte	0x61
 2212 08c2 25000000 		.4byte	0x25
 2213 08c6 00000000 		.4byte	.LFB212
 2214 08ca 5E000000 		.4byte	.LFE212-.LFB212
 2215 08ce 01       		.uleb128 0x1
 2216 08cf 9C       		.byte	0x9c
 2217 08d0 11090000 		.4byte	0x911
 2218 08d4 2B       		.uleb128 0x2b
 2219 08d5 FB030000 		.4byte	.LASF117
 2220 08d9 01       		.byte	0x1
 2221 08da 61       		.byte	0x61
 2222 08db C9060000 		.4byte	0x6c9
 2223 08df 39020000 		.4byte	.LLST11
ARM GAS  /tmp/ccUTqzHm.s 			page 40


 2224 08e3 2B       		.uleb128 0x2b
 2225 08e4 3B020000 		.4byte	.LASF119
 2226 08e8 01       		.byte	0x1
 2227 08e9 61       		.byte	0x61
 2228 08ea C8000000 		.4byte	0xc8
 2229 08ee 7A020000 		.4byte	.LLST12
 2230 08f2 2B       		.uleb128 0x2b
 2231 08f3 B9060000 		.4byte	.LASF122
 2232 08f7 01       		.byte	0x1
 2233 08f8 61       		.byte	0x61
 2234 08f9 2C000000 		.4byte	0x2c
 2235 08fd BD020000 		.4byte	.LLST13
 2236 0901 2E       		.uleb128 0x2e
 2237 0902 0F010000 		.4byte	.LASF124
 2238 0906 01       		.byte	0x1
 2239 0907 63       		.byte	0x63
 2240 0908 A8060000 		.4byte	0x6a8
 2241 090c F1020000 		.4byte	.LLST14
 2242 0910 00       		.byte	0
 2243 0911 2A       		.uleb128 0x2a
 2244 0912 22050000 		.4byte	.LASF123
 2245 0916 01       		.byte	0x1
 2246 0917 8E       		.byte	0x8e
 2247 0918 25000000 		.4byte	0x25
 2248 091c 00000000 		.4byte	.LFB213
 2249 0920 38000000 		.4byte	.LFE213-.LFB213
 2250 0924 01       		.uleb128 0x1
 2251 0925 9C       		.byte	0x9c
 2252 0926 85090000 		.4byte	0x985
 2253 092a 2B       		.uleb128 0x2b
 2254 092b C8020000 		.4byte	.LASF116
 2255 092f 01       		.byte	0x1
 2256 0930 8E       		.byte	0x8e
 2257 0931 B3060000 		.4byte	0x6b3
 2258 0935 29030000 		.4byte	.LLST15
 2259 0939 2B       		.uleb128 0x2b
 2260 093a 3B020000 		.4byte	.LASF119
 2261 093e 01       		.byte	0x1
 2262 093f 8E       		.byte	0x8e
 2263 0940 85090000 		.4byte	0x985
 2264 0944 59030000 		.4byte	.LLST16
 2265 0948 2E       		.uleb128 0x2e
 2266 0949 68050000 		.4byte	.LASF125
 2267 094d 01       		.byte	0x1
 2268 094e 8F       		.byte	0x8f
 2269 094f 8B090000 		.4byte	0x98b
 2270 0953 87030000 		.4byte	.LLST17
 2271 0957 2E       		.uleb128 0x2e
 2272 0958 E1050000 		.4byte	.LASF126
 2273 095c 01       		.byte	0x1
 2274 095d 90       		.byte	0x90
 2275 095e 8B090000 		.4byte	0x98b
 2276 0962 BC030000 		.4byte	.LLST18
 2277 0966 2F       		.uleb128 0x2f
 2278 0967 706F7300 		.ascii	"pos\000"
 2279 096b 01       		.byte	0x1
 2280 096c 92       		.byte	0x92
ARM GAS  /tmp/ccUTqzHm.s 			page 41


 2281 096d 37000000 		.4byte	0x37
 2282 0971 EA030000 		.4byte	.LLST19
 2283 0975 2E       		.uleb128 0x2e
 2284 0976 0F010000 		.4byte	.LASF124
 2285 097a 01       		.byte	0x1
 2286 097b 93       		.byte	0x93
 2287 097c A8060000 		.4byte	0x6a8
 2288 0980 FE030000 		.4byte	.LLST20
 2289 0984 00       		.byte	0
 2290 0985 06       		.uleb128 0x6
 2291 0986 04       		.byte	0x4
 2292 0987 7A070000 		.4byte	0x77a
 2293 098b 07       		.uleb128 0x7
 2294 098c 90090000 		.4byte	0x990
 2295 0990 06       		.uleb128 0x6
 2296 0991 04       		.byte	0x4
 2297 0992 96090000 		.4byte	0x996
 2298 0996 07       		.uleb128 0x7
 2299 0997 FF000000 		.4byte	0xff
 2300 099b 2A       		.uleb128 0x2a
 2301 099c 12040000 		.4byte	.LASF127
 2302 09a0 01       		.byte	0x1
 2303 09a1 AE       		.byte	0xae
 2304 09a2 25000000 		.4byte	0x25
 2305 09a6 00000000 		.4byte	.LFB214
 2306 09aa 90000000 		.4byte	.LFE214-.LFB214
 2307 09ae 01       		.uleb128 0x1
 2308 09af 9C       		.byte	0x9c
 2309 09b0 190A0000 		.4byte	0xa19
 2310 09b4 2B       		.uleb128 0x2b
 2311 09b5 C8020000 		.4byte	.LASF116
 2312 09b9 01       		.byte	0x1
 2313 09ba AE       		.byte	0xae
 2314 09bb B3060000 		.4byte	0x6b3
 2315 09bf 12040000 		.4byte	.LLST21
 2316 09c3 2B       		.uleb128 0x2b
 2317 09c4 3B020000 		.4byte	.LASF119
 2318 09c8 01       		.byte	0x1
 2319 09c9 AE       		.byte	0xae
 2320 09ca 85090000 		.4byte	0x985
 2321 09ce 42040000 		.4byte	.LLST22
 2322 09d2 2E       		.uleb128 0x2e
 2323 09d3 68050000 		.4byte	.LASF125
 2324 09d7 01       		.byte	0x1
 2325 09d8 AF       		.byte	0xaf
 2326 09d9 190A0000 		.4byte	0xa19
 2327 09dd A0040000 		.4byte	.LLST23
 2328 09e1 30       		.uleb128 0x30
 2329 09e2 706F7300 		.ascii	"pos\000"
 2330 09e6 01       		.byte	0x1
 2331 09e7 B6       		.byte	0xb6
 2332 09e8 37000000 		.4byte	0x37
 2333 09ec 22       		.uleb128 0x22
 2334 09ed D4060000 		.4byte	0x6d4
 2335 09f1 16000000 		.4byte	.LBB58
 2336 09f5 58000000 		.4byte	.Ldebug_ranges0+0x58
 2337 09f9 01       		.byte	0x1
ARM GAS  /tmp/ccUTqzHm.s 			page 42


 2338 09fa B9       		.byte	0xb9
 2339 09fb 090A0000 		.4byte	0xa09
 2340 09ff 23       		.uleb128 0x23
 2341 0a00 82000000 		.4byte	.LVL61
 2342 0a04 7F070000 		.4byte	0x77f
 2343 0a08 00       		.byte	0
 2344 0a09 26       		.uleb128 0x26
 2345 0a0a E0060000 		.4byte	0x6e0
 2346 0a0e 6C000000 		.4byte	.LBB61
 2347 0a12 70000000 		.4byte	.Ldebug_ranges0+0x70
 2348 0a16 01       		.byte	0x1
 2349 0a17 D2       		.byte	0xd2
 2350 0a18 00       		.byte	0
 2351 0a19 07       		.uleb128 0x7
 2352 0a1a 6F070000 		.4byte	0x76f
 2353 0a1e 2A       		.uleb128 0x2a
 2354 0a1f D8020000 		.4byte	.LASF128
 2355 0a23 01       		.byte	0x1
 2356 0a24 D8       		.byte	0xd8
 2357 0a25 25000000 		.4byte	0x25
 2358 0a29 00000000 		.4byte	.LFB215
 2359 0a2d 40000000 		.4byte	.LFE215-.LFB215
 2360 0a31 01       		.uleb128 0x1
 2361 0a32 9C       		.byte	0x9c
 2362 0a33 AB0A0000 		.4byte	0xaab
 2363 0a37 2B       		.uleb128 0x2b
 2364 0a38 C8020000 		.4byte	.LASF116
 2365 0a3c 01       		.byte	0x1
 2366 0a3d D8       		.byte	0xd8
 2367 0a3e B3060000 		.4byte	0x6b3
 2368 0a42 E6040000 		.4byte	.LLST24
 2369 0a46 2B       		.uleb128 0x2b
 2370 0a47 3B020000 		.4byte	.LASF119
 2371 0a4b 01       		.byte	0x1
 2372 0a4c D8       		.byte	0xd8
 2373 0a4d 85090000 		.4byte	0x985
 2374 0a51 4F050000 		.4byte	.LLST25
 2375 0a55 2F       		.uleb128 0x2f
 2376 0a56 65727200 		.ascii	"err\000"
 2377 0a5a 01       		.byte	0x1
 2378 0a5b D9       		.byte	0xd9
 2379 0a5c 25000000 		.4byte	0x25
 2380 0a60 B8050000 		.4byte	.LLST26
 2381 0a64 31       		.uleb128 0x31
 2382 0a65 16000000 		.4byte	.LVL65
 2383 0a69 11090000 		.4byte	0x911
 2384 0a6d 7E0A0000 		.4byte	0xa7e
 2385 0a71 2D       		.uleb128 0x2d
 2386 0a72 01       		.uleb128 0x1
 2387 0a73 51       		.byte	0x51
 2388 0a74 02       		.uleb128 0x2
 2389 0a75 75       		.byte	0x75
 2390 0a76 00       		.sleb128 0
 2391 0a77 2D       		.uleb128 0x2d
 2392 0a78 01       		.uleb128 0x1
 2393 0a79 50       		.byte	0x50
 2394 0a7a 02       		.uleb128 0x2
ARM GAS  /tmp/ccUTqzHm.s 			page 43


 2395 0a7b 74       		.byte	0x74
 2396 0a7c 00       		.sleb128 0
 2397 0a7d 00       		.byte	0
 2398 0a7e 32       		.uleb128 0x32
 2399 0a7f 2A000000 		.4byte	.LVL68
 2400 0a83 9B090000 		.4byte	0x99b
 2401 0a87 9A0A0000 		.4byte	0xa9a
 2402 0a8b 2D       		.uleb128 0x2d
 2403 0a8c 01       		.uleb128 0x1
 2404 0a8d 51       		.byte	0x51
 2405 0a8e 03       		.uleb128 0x3
 2406 0a8f F3       		.byte	0xf3
 2407 0a90 01       		.uleb128 0x1
 2408 0a91 51       		.byte	0x51
 2409 0a92 2D       		.uleb128 0x2d
 2410 0a93 01       		.uleb128 0x1
 2411 0a94 50       		.byte	0x50
 2412 0a95 03       		.uleb128 0x3
 2413 0a96 F3       		.byte	0xf3
 2414 0a97 01       		.uleb128 0x1
 2415 0a98 50       		.byte	0x50
 2416 0a99 00       		.byte	0
 2417 0a9a 2C       		.uleb128 0x2c
 2418 0a9b 36000000 		.4byte	.LVL72
 2419 0a9f 30070000 		.4byte	0x730
 2420 0aa3 2D       		.uleb128 0x2d
 2421 0aa4 01       		.uleb128 0x1
 2422 0aa5 50       		.byte	0x50
 2423 0aa6 02       		.uleb128 0x2
 2424 0aa7 74       		.byte	0x74
 2425 0aa8 00       		.sleb128 0
 2426 0aa9 00       		.byte	0
 2427 0aaa 00       		.byte	0
 2428 0aab 33       		.uleb128 0x33
 2429 0aac C5000000 		.4byte	.LASF129
 2430 0ab0 01       		.byte	0x1
 2431 0ab1 1D01     		.2byte	0x11d
 2432 0ab3 25000000 		.4byte	0x25
 2433 0ab7 00000000 		.4byte	.LFB218
 2434 0abb 18010000 		.4byte	.LFE218-.LFB218
 2435 0abf 01       		.uleb128 0x1
 2436 0ac0 9C       		.byte	0x9c
 2437 0ac1 230C0000 		.4byte	0xc23
 2438 0ac5 34       		.uleb128 0x34
 2439 0ac6 99030000 		.4byte	.LASF130
 2440 0aca 01       		.byte	0x1
 2441 0acb 1D01     		.2byte	0x11d
 2442 0acd C9060000 		.4byte	0x6c9
 2443 0ad1 E1050000 		.4byte	.LLST27
 2444 0ad5 34       		.uleb128 0x34
 2445 0ad6 3B020000 		.4byte	.LASF119
 2446 0ada 01       		.byte	0x1
 2447 0adb 1D01     		.2byte	0x11d
 2448 0add C8000000 		.4byte	0xc8
 2449 0ae1 41060000 		.4byte	.LLST28
 2450 0ae5 34       		.uleb128 0x34
 2451 0ae6 B9060000 		.4byte	.LASF122
ARM GAS  /tmp/ccUTqzHm.s 			page 44


 2452 0aea 01       		.byte	0x1
 2453 0aeb 1D01     		.2byte	0x11d
 2454 0aed 2C000000 		.4byte	0x2c
 2455 0af1 A5060000 		.4byte	.LLST29
 2456 0af5 35       		.uleb128 0x35
 2457 0af6 FB030000 		.4byte	.LASF117
 2458 0afa 01       		.byte	0x1
 2459 0afb 1F01     		.2byte	0x11f
 2460 0afd 6F070000 		.4byte	0x76f
 2461 0b01 F1060000 		.4byte	.LLST30
 2462 0b05 35       		.uleb128 0x35
 2463 0b06 53060000 		.4byte	.LASF131
 2464 0b0a 01       		.byte	0x1
 2465 0b0b 2901     		.2byte	0x129
 2466 0b0d 2C000000 		.4byte	0x2c
 2467 0b11 3B070000 		.4byte	.LLST31
 2468 0b15 36       		.uleb128 0x36
 2469 0b16 D4060000 		.4byte	0x6d4
 2470 0b1a 04000000 		.4byte	.LBB66
 2471 0b1e 88000000 		.4byte	.Ldebug_ranges0+0x88
 2472 0b22 01       		.byte	0x1
 2473 0b23 2201     		.2byte	0x122
 2474 0b25 330B0000 		.4byte	0xb33
 2475 0b29 23       		.uleb128 0x23
 2476 0b2a DA000000 		.4byte	.LVL96
 2477 0b2e 7F070000 		.4byte	0x77f
 2478 0b32 00       		.byte	0
 2479 0b33 36       		.uleb128 0x36
 2480 0b34 4C070000 		.4byte	0x74c
 2481 0b38 2A000000 		.4byte	.LBB75
 2482 0b3c B8000000 		.4byte	.Ldebug_ranges0+0xb8
 2483 0b40 01       		.byte	0x1
 2484 0b41 4D01     		.2byte	0x14d
 2485 0b43 5A0B0000 		.4byte	0xb5a
 2486 0b47 21       		.uleb128 0x21
 2487 0b48 63070000 		.4byte	0x763
 2488 0b4c 8E070000 		.4byte	.LLST32
 2489 0b50 21       		.uleb128 0x21
 2490 0b51 58070000 		.4byte	0x758
 2491 0b55 A1070000 		.4byte	.LLST33
 2492 0b59 00       		.byte	0
 2493 0b5a 37       		.uleb128 0x37
 2494 0b5b E0060000 		.4byte	0x6e0
 2495 0b5f 78000000 		.4byte	.LBB87
 2496 0b63 F0000000 		.4byte	.Ldebug_ranges0+0xf0
 2497 0b67 01       		.byte	0x1
 2498 0b68 6001     		.2byte	0x160
 2499 0b6a 38       		.uleb128 0x38
 2500 0b6b 8A000000 		.4byte	.LBB91
 2501 0b6f 4C000000 		.4byte	.LBE91-.LBB91
 2502 0b73 EA0B0000 		.4byte	0xbea
 2503 0b77 35       		.uleb128 0x35
 2504 0b78 90060000 		.4byte	.LASF132
 2505 0b7c 01       		.byte	0x1
 2506 0b7d 3101     		.2byte	0x131
 2507 0b7f C9060000 		.4byte	0x6c9
 2508 0b83 C1070000 		.4byte	.LLST34
ARM GAS  /tmp/ccUTqzHm.s 			page 45


 2509 0b87 39       		.uleb128 0x39
 2510 0b88 746D7000 		.ascii	"tmp\000"
 2511 0b8c 01       		.byte	0x1
 2512 0b8d 3401     		.2byte	0x134
 2513 0b8f BE060000 		.4byte	0x6be
 2514 0b93 02       		.uleb128 0x2
 2515 0b94 91       		.byte	0x91
 2516 0b95 5E       		.sleb128 -34
 2517 0b96 35       		.uleb128 0x35
 2518 0b97 66060000 		.4byte	.LASF133
 2519 0b9b 01       		.byte	0x1
 2520 0b9c 3701     		.2byte	0x137
 2521 0b9e 2C000000 		.4byte	0x2c
 2522 0ba2 E3070000 		.4byte	.LLST35
 2523 0ba6 36       		.uleb128 0x36
 2524 0ba7 4C070000 		.4byte	0x74c
 2525 0bab A8000000 		.4byte	.LBB92
 2526 0baf 08010000 		.4byte	.Ldebug_ranges0+0x108
 2527 0bb3 01       		.byte	0x1
 2528 0bb4 3F01     		.2byte	0x13f
 2529 0bb6 CD0B0000 		.4byte	0xbcd
 2530 0bba 21       		.uleb128 0x21
 2531 0bbb 63070000 		.4byte	0x763
 2532 0bbf 01080000 		.4byte	.LLST36
 2533 0bc3 21       		.uleb128 0x21
 2534 0bc4 58070000 		.4byte	0x758
 2535 0bc8 38080000 		.4byte	.LLST37
 2536 0bcc 00       		.byte	0
 2537 0bcd 2C       		.uleb128 0x2c
 2538 0bce A8000000 		.4byte	.LVL88
 2539 0bd2 EF0C0000 		.4byte	0xcef
 2540 0bd6 2D       		.uleb128 0x2d
 2541 0bd7 01       		.uleb128 0x1
 2542 0bd8 52       		.byte	0x52
 2543 0bd9 02       		.uleb128 0x2
 2544 0bda 79       		.byte	0x79
 2545 0bdb 00       		.sleb128 0
 2546 0bdc 2D       		.uleb128 0x2d
 2547 0bdd 01       		.uleb128 0x1
 2548 0bde 51       		.byte	0x51
 2549 0bdf 02       		.uleb128 0x2
 2550 0be0 75       		.byte	0x75
 2551 0be1 00       		.sleb128 0
 2552 0be2 2D       		.uleb128 0x2d
 2553 0be3 01       		.uleb128 0x1
 2554 0be4 50       		.byte	0x50
 2555 0be5 02       		.uleb128 0x2
 2556 0be6 91       		.byte	0x91
 2557 0be7 5F       		.sleb128 -33
 2558 0be8 00       		.byte	0
 2559 0be9 00       		.byte	0
 2560 0bea 24       		.uleb128 0x24
 2561 0beb E4000000 		.4byte	.LBB101
 2562 0bef 34000000 		.4byte	.LBE101-.LBB101
 2563 0bf3 39       		.uleb128 0x39
 2564 0bf4 746D7000 		.ascii	"tmp\000"
 2565 0bf8 01       		.byte	0x1
ARM GAS  /tmp/ccUTqzHm.s 			page 46


 2566 0bf9 5A01     		.2byte	0x15a
 2567 0bfb BE060000 		.4byte	0x6be
 2568 0bff 02       		.uleb128 0x2
 2569 0c00 91       		.byte	0x91
 2570 0c01 5E       		.sleb128 -34
 2571 0c02 3A       		.uleb128 0x3a
 2572 0c03 4C070000 		.4byte	0x74c
 2573 0c07 E4000000 		.4byte	.LBB102
 2574 0c0b 30010000 		.4byte	.Ldebug_ranges0+0x130
 2575 0c0f 01       		.byte	0x1
 2576 0c10 5C01     		.2byte	0x15c
 2577 0c12 3B       		.uleb128 0x3b
 2578 0c13 63070000 		.4byte	0x763
 2579 0c17 01       		.uleb128 0x1
 2580 0c18 50       		.byte	0x50
 2581 0c19 3B       		.uleb128 0x3b
 2582 0c1a 58070000 		.4byte	0x758
 2583 0c1e 01       		.uleb128 0x1
 2584 0c1f 56       		.byte	0x56
 2585 0c20 00       		.byte	0
 2586 0c21 00       		.byte	0
 2587 0c22 00       		.byte	0
 2588 0c23 33       		.uleb128 0x33
 2589 0c24 ED060000 		.4byte	.LASF134
 2590 0c28 01       		.byte	0x1
 2591 0c29 0201     		.2byte	0x102
 2592 0c2b 25000000 		.4byte	0x25
 2593 0c2f 00000000 		.4byte	.LFB217
 2594 0c33 42000000 		.4byte	.LFE217-.LFB217
 2595 0c37 01       		.uleb128 0x1
 2596 0c38 9C       		.byte	0x9c
 2597 0c39 D30C0000 		.4byte	0xcd3
 2598 0c3d 34       		.uleb128 0x34
 2599 0c3e FB030000 		.4byte	.LASF117
 2600 0c42 01       		.byte	0x1
 2601 0c43 0201     		.2byte	0x102
 2602 0c45 C9060000 		.4byte	0x6c9
 2603 0c49 5A080000 		.4byte	.LLST38
 2604 0c4d 34       		.uleb128 0x34
 2605 0c4e 3B020000 		.4byte	.LASF119
 2606 0c52 01       		.byte	0x1
 2607 0c53 0201     		.2byte	0x102
 2608 0c55 C8000000 		.4byte	0xc8
 2609 0c59 B8080000 		.4byte	.LLST39
 2610 0c5d 34       		.uleb128 0x34
 2611 0c5e B9060000 		.4byte	.LASF122
 2612 0c62 01       		.byte	0x1
 2613 0c63 0201     		.2byte	0x102
 2614 0c65 2C000000 		.4byte	0x2c
 2615 0c69 13090000 		.4byte	.LLST40
 2616 0c6d 3C       		.uleb128 0x3c
 2617 0c6e 65727200 		.ascii	"err\000"
 2618 0c72 01       		.byte	0x1
 2619 0c73 0301     		.2byte	0x103
 2620 0c75 25000000 		.4byte	0x25
 2621 0c79 6E090000 		.4byte	.LLST41
 2622 0c7d 31       		.uleb128 0x31
ARM GAS  /tmp/ccUTqzHm.s 			page 47


 2623 0c7e 1A000000 		.4byte	.LVL100
 2624 0c82 BB080000 		.4byte	0x8bb
 2625 0c86 9D0C0000 		.4byte	0xc9d
 2626 0c8a 2D       		.uleb128 0x2d
 2627 0c8b 01       		.uleb128 0x1
 2628 0c8c 52       		.byte	0x52
 2629 0c8d 02       		.uleb128 0x2
 2630 0c8e 76       		.byte	0x76
 2631 0c8f 00       		.sleb128 0
 2632 0c90 2D       		.uleb128 0x2d
 2633 0c91 01       		.uleb128 0x1
 2634 0c92 51       		.byte	0x51
 2635 0c93 02       		.uleb128 0x2
 2636 0c94 75       		.byte	0x75
 2637 0c95 00       		.sleb128 0
 2638 0c96 2D       		.uleb128 0x2d
 2639 0c97 01       		.uleb128 0x1
 2640 0c98 50       		.byte	0x50
 2641 0c99 02       		.uleb128 0x2
 2642 0c9a 74       		.byte	0x74
 2643 0c9b 00       		.sleb128 0
 2644 0c9c 00       		.byte	0
 2645 0c9d 32       		.uleb128 0x32
 2646 0c9e 30000000 		.4byte	.LVL103
 2647 0ca2 AB0A0000 		.4byte	0xaab
 2648 0ca6 C00C0000 		.4byte	0xcc0
 2649 0caa 2D       		.uleb128 0x2d
 2650 0cab 01       		.uleb128 0x1
 2651 0cac 52       		.byte	0x52
 2652 0cad 03       		.uleb128 0x3
 2653 0cae F3       		.byte	0xf3
 2654 0caf 01       		.uleb128 0x1
 2655 0cb0 52       		.byte	0x52
 2656 0cb1 2D       		.uleb128 0x2d
 2657 0cb2 01       		.uleb128 0x1
 2658 0cb3 51       		.byte	0x51
 2659 0cb4 03       		.uleb128 0x3
 2660 0cb5 F3       		.byte	0xf3
 2661 0cb6 01       		.uleb128 0x1
 2662 0cb7 51       		.byte	0x51
 2663 0cb8 2D       		.uleb128 0x2d
 2664 0cb9 01       		.uleb128 0x1
 2665 0cba 50       		.byte	0x50
 2666 0cbb 03       		.uleb128 0x3
 2667 0cbc F3       		.byte	0xf3
 2668 0cbd 01       		.uleb128 0x1
 2669 0cbe 50       		.byte	0x50
 2670 0cbf 00       		.byte	0
 2671 0cc0 2C       		.uleb128 0x2c
 2672 0cc1 3C000000 		.4byte	.LVL107
 2673 0cc5 30070000 		.4byte	0x730
 2674 0cc9 2D       		.uleb128 0x2d
 2675 0cca 01       		.uleb128 0x1
 2676 0ccb 50       		.byte	0x50
 2677 0ccc 04       		.uleb128 0x4
 2678 0ccd 77       		.byte	0x77
 2679 0cce 00       		.sleb128 0
ARM GAS  /tmp/ccUTqzHm.s 			page 48


 2680 0ccf 3B       		.byte	0x3b
 2681 0cd0 25       		.byte	0x25
 2682 0cd1 00       		.byte	0
 2683 0cd2 00       		.byte	0
 2684 0cd3 3D       		.uleb128 0x3d
 2685 0cd4 A0000000 		.4byte	.LASF135
 2686 0cd8 0F       		.byte	0xf
 2687 0cd9 5506     		.2byte	0x655
 2688 0cdb DF0C0000 		.4byte	0xcdf
 2689 0cdf 10       		.uleb128 0x10
 2690 0ce0 F4000000 		.4byte	0xf4
 2691 0ce4 3E       		.uleb128 0x3e
 2692 0ce5 636800   		.ascii	"ch\000"
 2693 0ce8 07       		.byte	0x7
 2694 0ce9 0902     		.2byte	0x209
 2695 0ceb E7030000 		.4byte	0x3e7
 2696 0cef 3F       		.uleb128 0x3f
 2697 0cf0 15020000 		.4byte	.LASF142
 2698 0cf4 BF000000 		.4byte	0xbf
 2699 0cf8 0C0D0000 		.4byte	0xd0c
 2700 0cfc 0E       		.uleb128 0xe
 2701 0cfd BF000000 		.4byte	0xbf
 2702 0d01 0E       		.uleb128 0xe
 2703 0d02 0C0D0000 		.4byte	0xd0c
 2704 0d06 0E       		.uleb128 0xe
 2705 0d07 B8000000 		.4byte	0xb8
 2706 0d0b 00       		.byte	0
 2707 0d0c 06       		.uleb128 0x6
 2708 0d0d 04       		.byte	0x4
 2709 0d0e 120D0000 		.4byte	0xd12
 2710 0d12 40       		.uleb128 0x40
 2711 0d13 00       		.byte	0
 2712              		.section	.debug_abbrev,"",%progbits
 2713              	.Ldebug_abbrev0:
 2714 0000 01       		.uleb128 0x1
 2715 0001 11       		.uleb128 0x11
 2716 0002 01       		.byte	0x1
 2717 0003 25       		.uleb128 0x25
 2718 0004 0E       		.uleb128 0xe
 2719 0005 13       		.uleb128 0x13
 2720 0006 0B       		.uleb128 0xb
 2721 0007 03       		.uleb128 0x3
 2722 0008 0E       		.uleb128 0xe
 2723 0009 1B       		.uleb128 0x1b
 2724 000a 0E       		.uleb128 0xe
 2725 000b 55       		.uleb128 0x55
 2726 000c 17       		.uleb128 0x17
 2727 000d 11       		.uleb128 0x11
 2728 000e 01       		.uleb128 0x1
 2729 000f 10       		.uleb128 0x10
 2730 0010 17       		.uleb128 0x17
 2731 0011 00       		.byte	0
 2732 0012 00       		.byte	0
 2733 0013 02       		.uleb128 0x2
 2734 0014 24       		.uleb128 0x24
 2735 0015 00       		.byte	0
 2736 0016 0B       		.uleb128 0xb
ARM GAS  /tmp/ccUTqzHm.s 			page 49


 2737 0017 0B       		.uleb128 0xb
 2738 0018 3E       		.uleb128 0x3e
 2739 0019 0B       		.uleb128 0xb
 2740 001a 03       		.uleb128 0x3
 2741 001b 08       		.uleb128 0x8
 2742 001c 00       		.byte	0
 2743 001d 00       		.byte	0
 2744 001e 03       		.uleb128 0x3
 2745 001f 16       		.uleb128 0x16
 2746 0020 00       		.byte	0
 2747 0021 03       		.uleb128 0x3
 2748 0022 0E       		.uleb128 0xe
 2749 0023 3A       		.uleb128 0x3a
 2750 0024 0B       		.uleb128 0xb
 2751 0025 3B       		.uleb128 0x3b
 2752 0026 0B       		.uleb128 0xb
 2753 0027 49       		.uleb128 0x49
 2754 0028 13       		.uleb128 0x13
 2755 0029 00       		.byte	0
 2756 002a 00       		.byte	0
 2757 002b 04       		.uleb128 0x4
 2758 002c 24       		.uleb128 0x24
 2759 002d 00       		.byte	0
 2760 002e 0B       		.uleb128 0xb
 2761 002f 0B       		.uleb128 0xb
 2762 0030 3E       		.uleb128 0x3e
 2763 0031 0B       		.uleb128 0xb
 2764 0032 03       		.uleb128 0x3
 2765 0033 0E       		.uleb128 0xe
 2766 0034 00       		.byte	0
 2767 0035 00       		.byte	0
 2768 0036 05       		.uleb128 0x5
 2769 0037 0F       		.uleb128 0xf
 2770 0038 00       		.byte	0
 2771 0039 0B       		.uleb128 0xb
 2772 003a 0B       		.uleb128 0xb
 2773 003b 00       		.byte	0
 2774 003c 00       		.byte	0
 2775 003d 06       		.uleb128 0x6
 2776 003e 0F       		.uleb128 0xf
 2777 003f 00       		.byte	0
 2778 0040 0B       		.uleb128 0xb
 2779 0041 0B       		.uleb128 0xb
 2780 0042 49       		.uleb128 0x49
 2781 0043 13       		.uleb128 0x13
 2782 0044 00       		.byte	0
 2783 0045 00       		.byte	0
 2784 0046 07       		.uleb128 0x7
 2785 0047 26       		.uleb128 0x26
 2786 0048 00       		.byte	0
 2787 0049 49       		.uleb128 0x49
 2788 004a 13       		.uleb128 0x13
 2789 004b 00       		.byte	0
 2790 004c 00       		.byte	0
 2791 004d 08       		.uleb128 0x8
 2792 004e 13       		.uleb128 0x13
 2793 004f 01       		.byte	0x1
ARM GAS  /tmp/ccUTqzHm.s 			page 50


 2794 0050 03       		.uleb128 0x3
 2795 0051 0E       		.uleb128 0xe
 2796 0052 0B       		.uleb128 0xb
 2797 0053 0B       		.uleb128 0xb
 2798 0054 3A       		.uleb128 0x3a
 2799 0055 0B       		.uleb128 0xb
 2800 0056 3B       		.uleb128 0x3b
 2801 0057 0B       		.uleb128 0xb
 2802 0058 01       		.uleb128 0x1
 2803 0059 13       		.uleb128 0x13
 2804 005a 00       		.byte	0
 2805 005b 00       		.byte	0
 2806 005c 09       		.uleb128 0x9
 2807 005d 0D       		.uleb128 0xd
 2808 005e 00       		.byte	0
 2809 005f 03       		.uleb128 0x3
 2810 0060 0E       		.uleb128 0xe
 2811 0061 3A       		.uleb128 0x3a
 2812 0062 0B       		.uleb128 0xb
 2813 0063 3B       		.uleb128 0x3b
 2814 0064 0B       		.uleb128 0xb
 2815 0065 49       		.uleb128 0x49
 2816 0066 13       		.uleb128 0x13
 2817 0067 38       		.uleb128 0x38
 2818 0068 0B       		.uleb128 0xb
 2819 0069 00       		.byte	0
 2820 006a 00       		.byte	0
 2821 006b 0A       		.uleb128 0xa
 2822 006c 0D       		.uleb128 0xd
 2823 006d 00       		.byte	0
 2824 006e 03       		.uleb128 0x3
 2825 006f 08       		.uleb128 0x8
 2826 0070 3A       		.uleb128 0x3a
 2827 0071 0B       		.uleb128 0xb
 2828 0072 3B       		.uleb128 0x3b
 2829 0073 05       		.uleb128 0x5
 2830 0074 49       		.uleb128 0x49
 2831 0075 13       		.uleb128 0x13
 2832 0076 38       		.uleb128 0x38
 2833 0077 0B       		.uleb128 0xb
 2834 0078 00       		.byte	0
 2835 0079 00       		.byte	0
 2836 007a 0B       		.uleb128 0xb
 2837 007b 0D       		.uleb128 0xd
 2838 007c 00       		.byte	0
 2839 007d 03       		.uleb128 0x3
 2840 007e 0E       		.uleb128 0xe
 2841 007f 3A       		.uleb128 0x3a
 2842 0080 0B       		.uleb128 0xb
 2843 0081 3B       		.uleb128 0x3b
 2844 0082 05       		.uleb128 0x5
 2845 0083 49       		.uleb128 0x49
 2846 0084 13       		.uleb128 0x13
 2847 0085 38       		.uleb128 0x38
 2848 0086 0B       		.uleb128 0xb
 2849 0087 00       		.byte	0
 2850 0088 00       		.byte	0
ARM GAS  /tmp/ccUTqzHm.s 			page 51


 2851 0089 0C       		.uleb128 0xc
 2852 008a 13       		.uleb128 0x13
 2853 008b 01       		.byte	0x1
 2854 008c 03       		.uleb128 0x3
 2855 008d 0E       		.uleb128 0xe
 2856 008e 0B       		.uleb128 0xb
 2857 008f 0B       		.uleb128 0xb
 2858 0090 3A       		.uleb128 0x3a
 2859 0091 0B       		.uleb128 0xb
 2860 0092 3B       		.uleb128 0x3b
 2861 0093 05       		.uleb128 0x5
 2862 0094 01       		.uleb128 0x1
 2863 0095 13       		.uleb128 0x13
 2864 0096 00       		.byte	0
 2865 0097 00       		.byte	0
 2866 0098 0D       		.uleb128 0xd
 2867 0099 15       		.uleb128 0x15
 2868 009a 01       		.byte	0x1
 2869 009b 27       		.uleb128 0x27
 2870 009c 19       		.uleb128 0x19
 2871 009d 01       		.uleb128 0x1
 2872 009e 13       		.uleb128 0x13
 2873 009f 00       		.byte	0
 2874 00a0 00       		.byte	0
 2875 00a1 0E       		.uleb128 0xe
 2876 00a2 05       		.uleb128 0x5
 2877 00a3 00       		.byte	0
 2878 00a4 49       		.uleb128 0x49
 2879 00a5 13       		.uleb128 0x13
 2880 00a6 00       		.byte	0
 2881 00a7 00       		.byte	0
 2882 00a8 0F       		.uleb128 0xf
 2883 00a9 13       		.uleb128 0x13
 2884 00aa 01       		.byte	0x1
 2885 00ab 03       		.uleb128 0x3
 2886 00ac 0E       		.uleb128 0xe
 2887 00ad 0B       		.uleb128 0xb
 2888 00ae 05       		.uleb128 0x5
 2889 00af 3A       		.uleb128 0x3a
 2890 00b0 0B       		.uleb128 0xb
 2891 00b1 3B       		.uleb128 0x3b
 2892 00b2 05       		.uleb128 0x5
 2893 00b3 01       		.uleb128 0x1
 2894 00b4 13       		.uleb128 0x13
 2895 00b5 00       		.byte	0
 2896 00b6 00       		.byte	0
 2897 00b7 10       		.uleb128 0x10
 2898 00b8 35       		.uleb128 0x35
 2899 00b9 00       		.byte	0
 2900 00ba 49       		.uleb128 0x49
 2901 00bb 13       		.uleb128 0x13
 2902 00bc 00       		.byte	0
 2903 00bd 00       		.byte	0
 2904 00be 11       		.uleb128 0x11
 2905 00bf 13       		.uleb128 0x13
 2906 00c0 01       		.byte	0x1
 2907 00c1 0B       		.uleb128 0xb
ARM GAS  /tmp/ccUTqzHm.s 			page 52


 2908 00c2 0B       		.uleb128 0xb
 2909 00c3 3A       		.uleb128 0x3a
 2910 00c4 0B       		.uleb128 0xb
 2911 00c5 3B       		.uleb128 0x3b
 2912 00c6 05       		.uleb128 0x5
 2913 00c7 01       		.uleb128 0x1
 2914 00c8 13       		.uleb128 0x13
 2915 00c9 00       		.byte	0
 2916 00ca 00       		.byte	0
 2917 00cb 12       		.uleb128 0x12
 2918 00cc 16       		.uleb128 0x16
 2919 00cd 00       		.byte	0
 2920 00ce 03       		.uleb128 0x3
 2921 00cf 0E       		.uleb128 0xe
 2922 00d0 3A       		.uleb128 0x3a
 2923 00d1 0B       		.uleb128 0xb
 2924 00d2 3B       		.uleb128 0x3b
 2925 00d3 05       		.uleb128 0x5
 2926 00d4 49       		.uleb128 0x49
 2927 00d5 13       		.uleb128 0x13
 2928 00d6 00       		.byte	0
 2929 00d7 00       		.byte	0
 2930 00d8 13       		.uleb128 0x13
 2931 00d9 0D       		.uleb128 0xd
 2932 00da 00       		.byte	0
 2933 00db 03       		.uleb128 0x3
 2934 00dc 08       		.uleb128 0x8
 2935 00dd 3A       		.uleb128 0x3a
 2936 00de 0B       		.uleb128 0xb
 2937 00df 3B       		.uleb128 0x3b
 2938 00e0 0B       		.uleb128 0xb
 2939 00e1 49       		.uleb128 0x49
 2940 00e2 13       		.uleb128 0x13
 2941 00e3 38       		.uleb128 0x38
 2942 00e4 0B       		.uleb128 0xb
 2943 00e5 00       		.byte	0
 2944 00e6 00       		.byte	0
 2945 00e7 14       		.uleb128 0x14
 2946 00e8 13       		.uleb128 0x13
 2947 00e9 01       		.byte	0x1
 2948 00ea 0B       		.uleb128 0xb
 2949 00eb 0B       		.uleb128 0xb
 2950 00ec 3A       		.uleb128 0x3a
 2951 00ed 0B       		.uleb128 0xb
 2952 00ee 3B       		.uleb128 0x3b
 2953 00ef 0B       		.uleb128 0xb
 2954 00f0 01       		.uleb128 0x1
 2955 00f1 13       		.uleb128 0x13
 2956 00f2 00       		.byte	0
 2957 00f3 00       		.byte	0
 2958 00f4 15       		.uleb128 0x15
 2959 00f5 17       		.uleb128 0x17
 2960 00f6 01       		.byte	0x1
 2961 00f7 0B       		.uleb128 0xb
 2962 00f8 0B       		.uleb128 0xb
 2963 00f9 3A       		.uleb128 0x3a
 2964 00fa 0B       		.uleb128 0xb
ARM GAS  /tmp/ccUTqzHm.s 			page 53


 2965 00fb 3B       		.uleb128 0x3b
 2966 00fc 0B       		.uleb128 0xb
 2967 00fd 01       		.uleb128 0x1
 2968 00fe 13       		.uleb128 0x13
 2969 00ff 00       		.byte	0
 2970 0100 00       		.byte	0
 2971 0101 16       		.uleb128 0x16
 2972 0102 0D       		.uleb128 0xd
 2973 0103 00       		.byte	0
 2974 0104 03       		.uleb128 0x3
 2975 0105 0E       		.uleb128 0xe
 2976 0106 3A       		.uleb128 0x3a
 2977 0107 0B       		.uleb128 0xb
 2978 0108 3B       		.uleb128 0x3b
 2979 0109 05       		.uleb128 0x5
 2980 010a 49       		.uleb128 0x49
 2981 010b 13       		.uleb128 0x13
 2982 010c 00       		.byte	0
 2983 010d 00       		.byte	0
 2984 010e 17       		.uleb128 0x17
 2985 010f 01       		.uleb128 0x1
 2986 0110 01       		.byte	0x1
 2987 0111 49       		.uleb128 0x49
 2988 0112 13       		.uleb128 0x13
 2989 0113 01       		.uleb128 0x1
 2990 0114 13       		.uleb128 0x13
 2991 0115 00       		.byte	0
 2992 0116 00       		.byte	0
 2993 0117 18       		.uleb128 0x18
 2994 0118 21       		.uleb128 0x21
 2995 0119 00       		.byte	0
 2996 011a 49       		.uleb128 0x49
 2997 011b 13       		.uleb128 0x13
 2998 011c 2F       		.uleb128 0x2f
 2999 011d 0B       		.uleb128 0xb
 3000 011e 00       		.byte	0
 3001 011f 00       		.byte	0
 3002 0120 19       		.uleb128 0x19
 3003 0121 2E       		.uleb128 0x2e
 3004 0122 00       		.byte	0
 3005 0123 03       		.uleb128 0x3
 3006 0124 0E       		.uleb128 0xe
 3007 0125 3A       		.uleb128 0x3a
 3008 0126 0B       		.uleb128 0xb
 3009 0127 3B       		.uleb128 0x3b
 3010 0128 0B       		.uleb128 0xb
 3011 0129 27       		.uleb128 0x27
 3012 012a 19       		.uleb128 0x19
 3013 012b 49       		.uleb128 0x49
 3014 012c 13       		.uleb128 0x13
 3015 012d 20       		.uleb128 0x20
 3016 012e 0B       		.uleb128 0xb
 3017 012f 00       		.byte	0
 3018 0130 00       		.byte	0
 3019 0131 1A       		.uleb128 0x1a
 3020 0132 2E       		.uleb128 0x2e
 3021 0133 00       		.byte	0
ARM GAS  /tmp/ccUTqzHm.s 			page 54


 3022 0134 03       		.uleb128 0x3
 3023 0135 0E       		.uleb128 0xe
 3024 0136 3A       		.uleb128 0x3a
 3025 0137 0B       		.uleb128 0xb
 3026 0138 3B       		.uleb128 0x3b
 3027 0139 0B       		.uleb128 0xb
 3028 013a 27       		.uleb128 0x27
 3029 013b 19       		.uleb128 0x19
 3030 013c 20       		.uleb128 0x20
 3031 013d 0B       		.uleb128 0xb
 3032 013e 00       		.byte	0
 3033 013f 00       		.byte	0
 3034 0140 1B       		.uleb128 0x1b
 3035 0141 2E       		.uleb128 0x2e
 3036 0142 01       		.byte	0x1
 3037 0143 3F       		.uleb128 0x3f
 3038 0144 19       		.uleb128 0x19
 3039 0145 03       		.uleb128 0x3
 3040 0146 0E       		.uleb128 0xe
 3041 0147 3A       		.uleb128 0x3a
 3042 0148 0B       		.uleb128 0xb
 3043 0149 3B       		.uleb128 0x3b
 3044 014a 0B       		.uleb128 0xb
 3045 014b 27       		.uleb128 0x27
 3046 014c 19       		.uleb128 0x19
 3047 014d 49       		.uleb128 0x49
 3048 014e 13       		.uleb128 0x13
 3049 014f 20       		.uleb128 0x20
 3050 0150 0B       		.uleb128 0xb
 3051 0151 01       		.uleb128 0x1
 3052 0152 13       		.uleb128 0x13
 3053 0153 00       		.byte	0
 3054 0154 00       		.byte	0
 3055 0155 1C       		.uleb128 0x1c
 3056 0156 05       		.uleb128 0x5
 3057 0157 00       		.byte	0
 3058 0158 03       		.uleb128 0x3
 3059 0159 0E       		.uleb128 0xe
 3060 015a 3A       		.uleb128 0x3a
 3061 015b 0B       		.uleb128 0xb
 3062 015c 3B       		.uleb128 0x3b
 3063 015d 0B       		.uleb128 0xb
 3064 015e 49       		.uleb128 0x49
 3065 015f 13       		.uleb128 0x13
 3066 0160 00       		.byte	0
 3067 0161 00       		.byte	0
 3068 0162 1D       		.uleb128 0x1d
 3069 0163 34       		.uleb128 0x34
 3070 0164 00       		.byte	0
 3071 0165 03       		.uleb128 0x3
 3072 0166 0E       		.uleb128 0xe
 3073 0167 3A       		.uleb128 0x3a
 3074 0168 0B       		.uleb128 0xb
 3075 0169 3B       		.uleb128 0x3b
 3076 016a 0B       		.uleb128 0xb
 3077 016b 49       		.uleb128 0x49
 3078 016c 13       		.uleb128 0x13
ARM GAS  /tmp/ccUTqzHm.s 			page 55


 3079 016d 00       		.byte	0
 3080 016e 00       		.byte	0
 3081 016f 1E       		.uleb128 0x1e
 3082 0170 2E       		.uleb128 0x2e
 3083 0171 01       		.byte	0x1
 3084 0172 03       		.uleb128 0x3
 3085 0173 0E       		.uleb128 0xe
 3086 0174 3A       		.uleb128 0x3a
 3087 0175 0B       		.uleb128 0xb
 3088 0176 3B       		.uleb128 0x3b
 3089 0177 0B       		.uleb128 0xb
 3090 0178 27       		.uleb128 0x27
 3091 0179 19       		.uleb128 0x19
 3092 017a 20       		.uleb128 0x20
 3093 017b 0B       		.uleb128 0xb
 3094 017c 01       		.uleb128 0x1
 3095 017d 13       		.uleb128 0x13
 3096 017e 00       		.byte	0
 3097 017f 00       		.byte	0
 3098 0180 1F       		.uleb128 0x1f
 3099 0181 2E       		.uleb128 0x2e
 3100 0182 00       		.byte	0
 3101 0183 31       		.uleb128 0x31
 3102 0184 13       		.uleb128 0x13
 3103 0185 11       		.uleb128 0x11
 3104 0186 01       		.uleb128 0x1
 3105 0187 12       		.uleb128 0x12
 3106 0188 06       		.uleb128 0x6
 3107 0189 40       		.uleb128 0x40
 3108 018a 18       		.uleb128 0x18
 3109 018b 9742     		.uleb128 0x2117
 3110 018d 19       		.uleb128 0x19
 3111 018e 00       		.byte	0
 3112 018f 00       		.byte	0
 3113 0190 20       		.uleb128 0x20
 3114 0191 2E       		.uleb128 0x2e
 3115 0192 01       		.byte	0x1
 3116 0193 31       		.uleb128 0x31
 3117 0194 13       		.uleb128 0x13
 3118 0195 11       		.uleb128 0x11
 3119 0196 01       		.uleb128 0x1
 3120 0197 12       		.uleb128 0x12
 3121 0198 06       		.uleb128 0x6
 3122 0199 40       		.uleb128 0x40
 3123 019a 18       		.uleb128 0x18
 3124 019b 9742     		.uleb128 0x2117
 3125 019d 19       		.uleb128 0x19
 3126 019e 01       		.uleb128 0x1
 3127 019f 13       		.uleb128 0x13
 3128 01a0 00       		.byte	0
 3129 01a1 00       		.byte	0
 3130 01a2 21       		.uleb128 0x21
 3131 01a3 05       		.uleb128 0x5
 3132 01a4 00       		.byte	0
 3133 01a5 31       		.uleb128 0x31
 3134 01a6 13       		.uleb128 0x13
 3135 01a7 02       		.uleb128 0x2
ARM GAS  /tmp/ccUTqzHm.s 			page 56


 3136 01a8 17       		.uleb128 0x17
 3137 01a9 00       		.byte	0
 3138 01aa 00       		.byte	0
 3139 01ab 22       		.uleb128 0x22
 3140 01ac 1D       		.uleb128 0x1d
 3141 01ad 01       		.byte	0x1
 3142 01ae 31       		.uleb128 0x31
 3143 01af 13       		.uleb128 0x13
 3144 01b0 52       		.uleb128 0x52
 3145 01b1 01       		.uleb128 0x1
 3146 01b2 55       		.uleb128 0x55
 3147 01b3 17       		.uleb128 0x17
 3148 01b4 58       		.uleb128 0x58
 3149 01b5 0B       		.uleb128 0xb
 3150 01b6 59       		.uleb128 0x59
 3151 01b7 0B       		.uleb128 0xb
 3152 01b8 01       		.uleb128 0x1
 3153 01b9 13       		.uleb128 0x13
 3154 01ba 00       		.byte	0
 3155 01bb 00       		.byte	0
 3156 01bc 23       		.uleb128 0x23
 3157 01bd 898201   		.uleb128 0x4109
 3158 01c0 00       		.byte	0
 3159 01c1 11       		.uleb128 0x11
 3160 01c2 01       		.uleb128 0x1
 3161 01c3 31       		.uleb128 0x31
 3162 01c4 13       		.uleb128 0x13
 3163 01c5 00       		.byte	0
 3164 01c6 00       		.byte	0
 3165 01c7 24       		.uleb128 0x24
 3166 01c8 0B       		.uleb128 0xb
 3167 01c9 01       		.byte	0x1
 3168 01ca 11       		.uleb128 0x11
 3169 01cb 01       		.uleb128 0x1
 3170 01cc 12       		.uleb128 0x12
 3171 01cd 06       		.uleb128 0x6
 3172 01ce 00       		.byte	0
 3173 01cf 00       		.byte	0
 3174 01d0 25       		.uleb128 0x25
 3175 01d1 05       		.uleb128 0x5
 3176 01d2 00       		.byte	0
 3177 01d3 31       		.uleb128 0x31
 3178 01d4 13       		.uleb128 0x13
 3179 01d5 00       		.byte	0
 3180 01d6 00       		.byte	0
 3181 01d7 26       		.uleb128 0x26
 3182 01d8 1D       		.uleb128 0x1d
 3183 01d9 00       		.byte	0
 3184 01da 31       		.uleb128 0x31
 3185 01db 13       		.uleb128 0x13
 3186 01dc 52       		.uleb128 0x52
 3187 01dd 01       		.uleb128 0x1
 3188 01de 55       		.uleb128 0x55
 3189 01df 17       		.uleb128 0x17
 3190 01e0 58       		.uleb128 0x58
 3191 01e1 0B       		.uleb128 0xb
 3192 01e2 59       		.uleb128 0x59
ARM GAS  /tmp/ccUTqzHm.s 			page 57


 3193 01e3 0B       		.uleb128 0xb
 3194 01e4 00       		.byte	0
 3195 01e5 00       		.byte	0
 3196 01e6 27       		.uleb128 0x27
 3197 01e7 1D       		.uleb128 0x1d
 3198 01e8 01       		.byte	0x1
 3199 01e9 31       		.uleb128 0x31
 3200 01ea 13       		.uleb128 0x13
 3201 01eb 52       		.uleb128 0x52
 3202 01ec 01       		.uleb128 0x1
 3203 01ed 55       		.uleb128 0x55
 3204 01ee 17       		.uleb128 0x17
 3205 01ef 58       		.uleb128 0x58
 3206 01f0 0B       		.uleb128 0xb
 3207 01f1 59       		.uleb128 0x59
 3208 01f2 0B       		.uleb128 0xb
 3209 01f3 00       		.byte	0
 3210 01f4 00       		.byte	0
 3211 01f5 28       		.uleb128 0x28
 3212 01f6 0B       		.uleb128 0xb
 3213 01f7 01       		.byte	0x1
 3214 01f8 55       		.uleb128 0x55
 3215 01f9 17       		.uleb128 0x17
 3216 01fa 00       		.byte	0
 3217 01fb 00       		.byte	0
 3218 01fc 29       		.uleb128 0x29
 3219 01fd 34       		.uleb128 0x34
 3220 01fe 00       		.byte	0
 3221 01ff 31       		.uleb128 0x31
 3222 0200 13       		.uleb128 0x13
 3223 0201 02       		.uleb128 0x2
 3224 0202 17       		.uleb128 0x17
 3225 0203 00       		.byte	0
 3226 0204 00       		.byte	0
 3227 0205 2A       		.uleb128 0x2a
 3228 0206 2E       		.uleb128 0x2e
 3229 0207 01       		.byte	0x1
 3230 0208 3F       		.uleb128 0x3f
 3231 0209 19       		.uleb128 0x19
 3232 020a 03       		.uleb128 0x3
 3233 020b 0E       		.uleb128 0xe
 3234 020c 3A       		.uleb128 0x3a
 3235 020d 0B       		.uleb128 0xb
 3236 020e 3B       		.uleb128 0x3b
 3237 020f 0B       		.uleb128 0xb
 3238 0210 27       		.uleb128 0x27
 3239 0211 19       		.uleb128 0x19
 3240 0212 49       		.uleb128 0x49
 3241 0213 13       		.uleb128 0x13
 3242 0214 11       		.uleb128 0x11
 3243 0215 01       		.uleb128 0x1
 3244 0216 12       		.uleb128 0x12
 3245 0217 06       		.uleb128 0x6
 3246 0218 40       		.uleb128 0x40
 3247 0219 18       		.uleb128 0x18
 3248 021a 9742     		.uleb128 0x2117
 3249 021c 19       		.uleb128 0x19
ARM GAS  /tmp/ccUTqzHm.s 			page 58


 3250 021d 01       		.uleb128 0x1
 3251 021e 13       		.uleb128 0x13
 3252 021f 00       		.byte	0
 3253 0220 00       		.byte	0
 3254 0221 2B       		.uleb128 0x2b
 3255 0222 05       		.uleb128 0x5
 3256 0223 00       		.byte	0
 3257 0224 03       		.uleb128 0x3
 3258 0225 0E       		.uleb128 0xe
 3259 0226 3A       		.uleb128 0x3a
 3260 0227 0B       		.uleb128 0xb
 3261 0228 3B       		.uleb128 0x3b
 3262 0229 0B       		.uleb128 0xb
 3263 022a 49       		.uleb128 0x49
 3264 022b 13       		.uleb128 0x13
 3265 022c 02       		.uleb128 0x2
 3266 022d 17       		.uleb128 0x17
 3267 022e 00       		.byte	0
 3268 022f 00       		.byte	0
 3269 0230 2C       		.uleb128 0x2c
 3270 0231 898201   		.uleb128 0x4109
 3271 0234 01       		.byte	0x1
 3272 0235 11       		.uleb128 0x11
 3273 0236 01       		.uleb128 0x1
 3274 0237 31       		.uleb128 0x31
 3275 0238 13       		.uleb128 0x13
 3276 0239 00       		.byte	0
 3277 023a 00       		.byte	0
 3278 023b 2D       		.uleb128 0x2d
 3279 023c 8A8201   		.uleb128 0x410a
 3280 023f 00       		.byte	0
 3281 0240 02       		.uleb128 0x2
 3282 0241 18       		.uleb128 0x18
 3283 0242 9142     		.uleb128 0x2111
 3284 0244 18       		.uleb128 0x18
 3285 0245 00       		.byte	0
 3286 0246 00       		.byte	0
 3287 0247 2E       		.uleb128 0x2e
 3288 0248 34       		.uleb128 0x34
 3289 0249 00       		.byte	0
 3290 024a 03       		.uleb128 0x3
 3291 024b 0E       		.uleb128 0xe
 3292 024c 3A       		.uleb128 0x3a
 3293 024d 0B       		.uleb128 0xb
 3294 024e 3B       		.uleb128 0x3b
 3295 024f 0B       		.uleb128 0xb
 3296 0250 49       		.uleb128 0x49
 3297 0251 13       		.uleb128 0x13
 3298 0252 02       		.uleb128 0x2
 3299 0253 17       		.uleb128 0x17
 3300 0254 00       		.byte	0
 3301 0255 00       		.byte	0
 3302 0256 2F       		.uleb128 0x2f
 3303 0257 34       		.uleb128 0x34
 3304 0258 00       		.byte	0
 3305 0259 03       		.uleb128 0x3
 3306 025a 08       		.uleb128 0x8
ARM GAS  /tmp/ccUTqzHm.s 			page 59


 3307 025b 3A       		.uleb128 0x3a
 3308 025c 0B       		.uleb128 0xb
 3309 025d 3B       		.uleb128 0x3b
 3310 025e 0B       		.uleb128 0xb
 3311 025f 49       		.uleb128 0x49
 3312 0260 13       		.uleb128 0x13
 3313 0261 02       		.uleb128 0x2
 3314 0262 17       		.uleb128 0x17
 3315 0263 00       		.byte	0
 3316 0264 00       		.byte	0
 3317 0265 30       		.uleb128 0x30
 3318 0266 34       		.uleb128 0x34
 3319 0267 00       		.byte	0
 3320 0268 03       		.uleb128 0x3
 3321 0269 08       		.uleb128 0x8
 3322 026a 3A       		.uleb128 0x3a
 3323 026b 0B       		.uleb128 0xb
 3324 026c 3B       		.uleb128 0x3b
 3325 026d 0B       		.uleb128 0xb
 3326 026e 49       		.uleb128 0x49
 3327 026f 13       		.uleb128 0x13
 3328 0270 00       		.byte	0
 3329 0271 00       		.byte	0
 3330 0272 31       		.uleb128 0x31
 3331 0273 898201   		.uleb128 0x4109
 3332 0276 01       		.byte	0x1
 3333 0277 11       		.uleb128 0x11
 3334 0278 01       		.uleb128 0x1
 3335 0279 31       		.uleb128 0x31
 3336 027a 13       		.uleb128 0x13
 3337 027b 01       		.uleb128 0x1
 3338 027c 13       		.uleb128 0x13
 3339 027d 00       		.byte	0
 3340 027e 00       		.byte	0
 3341 027f 32       		.uleb128 0x32
 3342 0280 898201   		.uleb128 0x4109
 3343 0283 01       		.byte	0x1
 3344 0284 11       		.uleb128 0x11
 3345 0285 01       		.uleb128 0x1
 3346 0286 9542     		.uleb128 0x2115
 3347 0288 19       		.uleb128 0x19
 3348 0289 31       		.uleb128 0x31
 3349 028a 13       		.uleb128 0x13
 3350 028b 01       		.uleb128 0x1
 3351 028c 13       		.uleb128 0x13
 3352 028d 00       		.byte	0
 3353 028e 00       		.byte	0
 3354 028f 33       		.uleb128 0x33
 3355 0290 2E       		.uleb128 0x2e
 3356 0291 01       		.byte	0x1
 3357 0292 3F       		.uleb128 0x3f
 3358 0293 19       		.uleb128 0x19
 3359 0294 03       		.uleb128 0x3
 3360 0295 0E       		.uleb128 0xe
 3361 0296 3A       		.uleb128 0x3a
 3362 0297 0B       		.uleb128 0xb
 3363 0298 3B       		.uleb128 0x3b
ARM GAS  /tmp/ccUTqzHm.s 			page 60


 3364 0299 05       		.uleb128 0x5
 3365 029a 27       		.uleb128 0x27
 3366 029b 19       		.uleb128 0x19
 3367 029c 49       		.uleb128 0x49
 3368 029d 13       		.uleb128 0x13
 3369 029e 11       		.uleb128 0x11
 3370 029f 01       		.uleb128 0x1
 3371 02a0 12       		.uleb128 0x12
 3372 02a1 06       		.uleb128 0x6
 3373 02a2 40       		.uleb128 0x40
 3374 02a3 18       		.uleb128 0x18
 3375 02a4 9742     		.uleb128 0x2117
 3376 02a6 19       		.uleb128 0x19
 3377 02a7 01       		.uleb128 0x1
 3378 02a8 13       		.uleb128 0x13
 3379 02a9 00       		.byte	0
 3380 02aa 00       		.byte	0
 3381 02ab 34       		.uleb128 0x34
 3382 02ac 05       		.uleb128 0x5
 3383 02ad 00       		.byte	0
 3384 02ae 03       		.uleb128 0x3
 3385 02af 0E       		.uleb128 0xe
 3386 02b0 3A       		.uleb128 0x3a
 3387 02b1 0B       		.uleb128 0xb
 3388 02b2 3B       		.uleb128 0x3b
 3389 02b3 05       		.uleb128 0x5
 3390 02b4 49       		.uleb128 0x49
 3391 02b5 13       		.uleb128 0x13
 3392 02b6 02       		.uleb128 0x2
 3393 02b7 17       		.uleb128 0x17
 3394 02b8 00       		.byte	0
 3395 02b9 00       		.byte	0
 3396 02ba 35       		.uleb128 0x35
 3397 02bb 34       		.uleb128 0x34
 3398 02bc 00       		.byte	0
 3399 02bd 03       		.uleb128 0x3
 3400 02be 0E       		.uleb128 0xe
 3401 02bf 3A       		.uleb128 0x3a
 3402 02c0 0B       		.uleb128 0xb
 3403 02c1 3B       		.uleb128 0x3b
 3404 02c2 05       		.uleb128 0x5
 3405 02c3 49       		.uleb128 0x49
 3406 02c4 13       		.uleb128 0x13
 3407 02c5 02       		.uleb128 0x2
 3408 02c6 17       		.uleb128 0x17
 3409 02c7 00       		.byte	0
 3410 02c8 00       		.byte	0
 3411 02c9 36       		.uleb128 0x36
 3412 02ca 1D       		.uleb128 0x1d
 3413 02cb 01       		.byte	0x1
 3414 02cc 31       		.uleb128 0x31
 3415 02cd 13       		.uleb128 0x13
 3416 02ce 52       		.uleb128 0x52
 3417 02cf 01       		.uleb128 0x1
 3418 02d0 55       		.uleb128 0x55
 3419 02d1 17       		.uleb128 0x17
 3420 02d2 58       		.uleb128 0x58
ARM GAS  /tmp/ccUTqzHm.s 			page 61


 3421 02d3 0B       		.uleb128 0xb
 3422 02d4 59       		.uleb128 0x59
 3423 02d5 05       		.uleb128 0x5
 3424 02d6 01       		.uleb128 0x1
 3425 02d7 13       		.uleb128 0x13
 3426 02d8 00       		.byte	0
 3427 02d9 00       		.byte	0
 3428 02da 37       		.uleb128 0x37
 3429 02db 1D       		.uleb128 0x1d
 3430 02dc 00       		.byte	0
 3431 02dd 31       		.uleb128 0x31
 3432 02de 13       		.uleb128 0x13
 3433 02df 52       		.uleb128 0x52
 3434 02e0 01       		.uleb128 0x1
 3435 02e1 55       		.uleb128 0x55
 3436 02e2 17       		.uleb128 0x17
 3437 02e3 58       		.uleb128 0x58
 3438 02e4 0B       		.uleb128 0xb
 3439 02e5 59       		.uleb128 0x59
 3440 02e6 05       		.uleb128 0x5
 3441 02e7 00       		.byte	0
 3442 02e8 00       		.byte	0
 3443 02e9 38       		.uleb128 0x38
 3444 02ea 0B       		.uleb128 0xb
 3445 02eb 01       		.byte	0x1
 3446 02ec 11       		.uleb128 0x11
 3447 02ed 01       		.uleb128 0x1
 3448 02ee 12       		.uleb128 0x12
 3449 02ef 06       		.uleb128 0x6
 3450 02f0 01       		.uleb128 0x1
 3451 02f1 13       		.uleb128 0x13
 3452 02f2 00       		.byte	0
 3453 02f3 00       		.byte	0
 3454 02f4 39       		.uleb128 0x39
 3455 02f5 34       		.uleb128 0x34
 3456 02f6 00       		.byte	0
 3457 02f7 03       		.uleb128 0x3
 3458 02f8 08       		.uleb128 0x8
 3459 02f9 3A       		.uleb128 0x3a
 3460 02fa 0B       		.uleb128 0xb
 3461 02fb 3B       		.uleb128 0x3b
 3462 02fc 05       		.uleb128 0x5
 3463 02fd 49       		.uleb128 0x49
 3464 02fe 13       		.uleb128 0x13
 3465 02ff 02       		.uleb128 0x2
 3466 0300 18       		.uleb128 0x18
 3467 0301 00       		.byte	0
 3468 0302 00       		.byte	0
 3469 0303 3A       		.uleb128 0x3a
 3470 0304 1D       		.uleb128 0x1d
 3471 0305 01       		.byte	0x1
 3472 0306 31       		.uleb128 0x31
 3473 0307 13       		.uleb128 0x13
 3474 0308 52       		.uleb128 0x52
 3475 0309 01       		.uleb128 0x1
 3476 030a 55       		.uleb128 0x55
 3477 030b 17       		.uleb128 0x17
ARM GAS  /tmp/ccUTqzHm.s 			page 62


 3478 030c 58       		.uleb128 0x58
 3479 030d 0B       		.uleb128 0xb
 3480 030e 59       		.uleb128 0x59
 3481 030f 05       		.uleb128 0x5
 3482 0310 00       		.byte	0
 3483 0311 00       		.byte	0
 3484 0312 3B       		.uleb128 0x3b
 3485 0313 05       		.uleb128 0x5
 3486 0314 00       		.byte	0
 3487 0315 31       		.uleb128 0x31
 3488 0316 13       		.uleb128 0x13
 3489 0317 02       		.uleb128 0x2
 3490 0318 18       		.uleb128 0x18
 3491 0319 00       		.byte	0
 3492 031a 00       		.byte	0
 3493 031b 3C       		.uleb128 0x3c
 3494 031c 34       		.uleb128 0x34
 3495 031d 00       		.byte	0
 3496 031e 03       		.uleb128 0x3
 3497 031f 08       		.uleb128 0x8
 3498 0320 3A       		.uleb128 0x3a
 3499 0321 0B       		.uleb128 0xb
 3500 0322 3B       		.uleb128 0x3b
 3501 0323 05       		.uleb128 0x5
 3502 0324 49       		.uleb128 0x49
 3503 0325 13       		.uleb128 0x13
 3504 0326 02       		.uleb128 0x2
 3505 0327 17       		.uleb128 0x17
 3506 0328 00       		.byte	0
 3507 0329 00       		.byte	0
 3508 032a 3D       		.uleb128 0x3d
 3509 032b 34       		.uleb128 0x34
 3510 032c 00       		.byte	0
 3511 032d 03       		.uleb128 0x3
 3512 032e 0E       		.uleb128 0xe
 3513 032f 3A       		.uleb128 0x3a
 3514 0330 0B       		.uleb128 0xb
 3515 0331 3B       		.uleb128 0x3b
 3516 0332 05       		.uleb128 0x5
 3517 0333 49       		.uleb128 0x49
 3518 0334 13       		.uleb128 0x13
 3519 0335 3F       		.uleb128 0x3f
 3520 0336 19       		.uleb128 0x19
 3521 0337 3C       		.uleb128 0x3c
 3522 0338 19       		.uleb128 0x19
 3523 0339 00       		.byte	0
 3524 033a 00       		.byte	0
 3525 033b 3E       		.uleb128 0x3e
 3526 033c 34       		.uleb128 0x34
 3527 033d 00       		.byte	0
 3528 033e 03       		.uleb128 0x3
 3529 033f 08       		.uleb128 0x8
 3530 0340 3A       		.uleb128 0x3a
 3531 0341 0B       		.uleb128 0xb
 3532 0342 3B       		.uleb128 0x3b
 3533 0343 05       		.uleb128 0x5
 3534 0344 49       		.uleb128 0x49
ARM GAS  /tmp/ccUTqzHm.s 			page 63


 3535 0345 13       		.uleb128 0x13
 3536 0346 3F       		.uleb128 0x3f
 3537 0347 19       		.uleb128 0x19
 3538 0348 3C       		.uleb128 0x3c
 3539 0349 19       		.uleb128 0x19
 3540 034a 00       		.byte	0
 3541 034b 00       		.byte	0
 3542 034c 3F       		.uleb128 0x3f
 3543 034d 2E       		.uleb128 0x2e
 3544 034e 01       		.byte	0x1
 3545 034f 3F       		.uleb128 0x3f
 3546 0350 19       		.uleb128 0x19
 3547 0351 03       		.uleb128 0x3
 3548 0352 0E       		.uleb128 0xe
 3549 0353 27       		.uleb128 0x27
 3550 0354 19       		.uleb128 0x19
 3551 0355 49       		.uleb128 0x49
 3552 0356 13       		.uleb128 0x13
 3553 0357 34       		.uleb128 0x34
 3554 0358 19       		.uleb128 0x19
 3555 0359 3C       		.uleb128 0x3c
 3556 035a 19       		.uleb128 0x19
 3557 035b 01       		.uleb128 0x1
 3558 035c 13       		.uleb128 0x13
 3559 035d 00       		.byte	0
 3560 035e 00       		.byte	0
 3561 035f 40       		.uleb128 0x40
 3562 0360 26       		.uleb128 0x26
 3563 0361 00       		.byte	0
 3564 0362 00       		.byte	0
 3565 0363 00       		.byte	0
 3566 0364 00       		.byte	0
 3567              		.section	.debug_loc,"",%progbits
 3568              	.Ldebug_loc0:
 3569              	.LLST0:
 3570 0000 00000000 		.4byte	.LVL0
 3571 0004 18000000 		.4byte	.LVL1
 3572 0008 0100     		.2byte	0x1
 3573 000a 50       		.byte	0x50
 3574 000b 18000000 		.4byte	.LVL1
 3575 000f 7E000000 		.4byte	.LVL10
 3576 0013 0100     		.2byte	0x1
 3577 0015 54       		.byte	0x54
 3578 0016 7E000000 		.4byte	.LVL10
 3579 001a 81000000 		.4byte	.LVL11-1
 3580 001e 0100     		.2byte	0x1
 3581 0020 50       		.byte	0x50
 3582 0021 81000000 		.4byte	.LVL11-1
 3583 0025 86000000 		.4byte	.LVL12
 3584 0029 0100     		.2byte	0x1
 3585 002b 54       		.byte	0x54
 3586 002c 86000000 		.4byte	.LVL12
 3587 0030 98000000 		.4byte	.LFE209
 3588 0034 0400     		.2byte	0x4
 3589 0036 F3       		.byte	0xf3
 3590 0037 01       		.uleb128 0x1
 3591 0038 50       		.byte	0x50
ARM GAS  /tmp/ccUTqzHm.s 			page 64


 3592 0039 9F       		.byte	0x9f
 3593 003a 00000000 		.4byte	0
 3594 003e 00000000 		.4byte	0
 3595              	.LLST1:
 3596 0042 5A000000 		.4byte	.LVL2
 3597 0046 7E000000 		.4byte	.LVL10
 3598 004a 0100     		.2byte	0x1
 3599 004c 54       		.byte	0x54
 3600 004d 00000000 		.4byte	0
 3601 0051 00000000 		.4byte	0
 3602              	.LLST2:
 3603 0055 5A000000 		.4byte	.LVL2
 3604 0059 7E000000 		.4byte	.LVL10
 3605 005d 0100     		.2byte	0x1
 3606 005f 55       		.byte	0x55
 3607 0060 00000000 		.4byte	0
 3608 0064 00000000 		.4byte	0
 3609              	.LLST3:
 3610 0068 5A000000 		.4byte	.LVL2
 3611 006c 76000000 		.4byte	.LVL7
 3612 0070 0100     		.2byte	0x1
 3613 0072 50       		.byte	0x50
 3614 0073 76000000 		.4byte	.LVL7
 3615 0077 78000000 		.4byte	.LVL8
 3616 007b 0700     		.2byte	0x7
 3617 007d 74       		.byte	0x74
 3618 007e 809080C0 		.sleb128 134219776
 3618      00
 3619 0083 9F       		.byte	0x9f
 3620 0084 78000000 		.4byte	.LVL8
 3621 0088 7C000000 		.4byte	.LVL9
 3622 008c 0100     		.2byte	0x1
 3623 008e 50       		.byte	0x50
 3624 008f 7C000000 		.4byte	.LVL9
 3625 0093 7E000000 		.4byte	.LVL10
 3626 0097 0700     		.2byte	0x7
 3627 0099 74       		.byte	0x74
 3628 009a 809080C0 		.sleb128 134219776
 3628      00
 3629 009f 9F       		.byte	0x9f
 3630 00a0 00000000 		.4byte	0
 3631 00a4 00000000 		.4byte	0
 3632              	.LLST4:
 3633 00a8 5A000000 		.4byte	.LVL2
 3634 00ac 68000000 		.4byte	.LVL3
 3635 00b0 0100     		.2byte	0x1
 3636 00b2 55       		.byte	0x55
 3637 00b3 68000000 		.4byte	.LVL3
 3638 00b7 6C000000 		.4byte	.LVL4
 3639 00bb 0100     		.2byte	0x1
 3640 00bd 53       		.byte	0x53
 3641 00be 6C000000 		.4byte	.LVL4
 3642 00c2 70000000 		.4byte	.LVL5
 3643 00c6 0300     		.2byte	0x3
 3644 00c8 73       		.byte	0x73
 3645 00c9 7C       		.sleb128 -4
 3646 00ca 9F       		.byte	0x9f
ARM GAS  /tmp/ccUTqzHm.s 			page 65


 3647 00cb 70000000 		.4byte	.LVL5
 3648 00cf 74000000 		.4byte	.LVL6
 3649 00d3 0100     		.2byte	0x1
 3650 00d5 53       		.byte	0x53
 3651 00d6 00000000 		.4byte	0
 3652 00da 00000000 		.4byte	0
 3653              	.LLST5:
 3654 00de 00000000 		.4byte	.LVL13
 3655 00e2 0A000000 		.4byte	.LVL15
 3656 00e6 0100     		.2byte	0x1
 3657 00e8 50       		.byte	0x50
 3658 00e9 0A000000 		.4byte	.LVL15
 3659 00ed 26000000 		.4byte	.LVL21
 3660 00f1 0700     		.2byte	0x7
 3661 00f3 70       		.byte	0x70
 3662 00f4 80F0FFBF 		.sleb128 -134219776
 3662      7F
 3663 00f9 9F       		.byte	0x9f
 3664 00fa 26000000 		.4byte	.LVL21
 3665 00fe 2C000000 		.4byte	.LFE210
 3666 0102 0400     		.2byte	0x4
 3667 0104 F3       		.byte	0xf3
 3668 0105 01       		.uleb128 0x1
 3669 0106 50       		.byte	0x50
 3670 0107 9F       		.byte	0x9f
 3671 0108 00000000 		.4byte	0
 3672 010c 00000000 		.4byte	0
 3673              	.LLST6:
 3674 0110 06000000 		.4byte	.LVL14
 3675 0114 16000000 		.4byte	.LVL16
 3676 0118 0100     		.2byte	0x1
 3677 011a 53       		.byte	0x53
 3678 011b 16000000 		.4byte	.LVL16
 3679 011f 18000000 		.4byte	.LVL17
 3680 0123 0300     		.2byte	0x3
 3681 0125 73       		.byte	0x73
 3682 0126 7C       		.sleb128 -4
 3683 0127 9F       		.byte	0x9f
 3684 0128 18000000 		.4byte	.LVL17
 3685 012c 26000000 		.4byte	.LVL21
 3686 0130 0800     		.2byte	0x8
 3687 0132 70       		.byte	0x70
 3688 0133 80F08340 		.sleb128 -134154240
 3689 0137 3B       		.byte	0x3b
 3690 0138 24       		.byte	0x24
 3691 0139 9F       		.byte	0x9f
 3692 013a 26000000 		.4byte	.LVL21
 3693 013e 2C000000 		.4byte	.LFE210
 3694 0142 0A00     		.2byte	0xa
 3695 0144 F3       		.byte	0xf3
 3696 0145 01       		.uleb128 0x1
 3697 0146 50       		.byte	0x50
 3698 0147 23       		.byte	0x23
 3699 0148 808004   		.uleb128 0x10000
 3700 014b 3B       		.byte	0x3b
 3701 014c 24       		.byte	0x24
 3702 014d 9F       		.byte	0x9f
ARM GAS  /tmp/ccUTqzHm.s 			page 66


 3703 014e 00000000 		.4byte	0
 3704 0152 00000000 		.4byte	0
 3705              	.LLST7:
 3706 0156 0A000000 		.4byte	.LVL15
 3707 015a 26000000 		.4byte	.LVL21
 3708 015e 0100     		.2byte	0x1
 3709 0160 50       		.byte	0x50
 3710 0161 26000000 		.4byte	.LVL21
 3711 0165 28000000 		.4byte	.LVL22
 3712 0169 0900     		.2byte	0x9
 3713 016b F3       		.byte	0xf3
 3714 016c 01       		.uleb128 0x1
 3715 016d 50       		.byte	0x50
 3716 016e 23       		.byte	0x23
 3717 016f 80908040 		.uleb128 0x8000800
 3718 0173 9F       		.byte	0x9f
 3719 0174 28000000 		.4byte	.LVL22
 3720 0178 2A000000 		.4byte	.LVL23
 3721 017c 0100     		.2byte	0x1
 3722 017e 50       		.byte	0x50
 3723 017f 2A000000 		.4byte	.LVL23
 3724 0183 2C000000 		.4byte	.LFE210
 3725 0187 0900     		.2byte	0x9
 3726 0189 F3       		.byte	0xf3
 3727 018a 01       		.uleb128 0x1
 3728 018b 50       		.byte	0x50
 3729 018c 23       		.byte	0x23
 3730 018d 80908040 		.uleb128 0x8000800
 3731 0191 9F       		.byte	0x9f
 3732 0192 00000000 		.4byte	0
 3733 0196 00000000 		.4byte	0
 3734              	.LLST8:
 3735 019a 0A000000 		.4byte	.LVL15
 3736 019e 16000000 		.4byte	.LVL16
 3737 01a2 0100     		.2byte	0x1
 3738 01a4 53       		.byte	0x53
 3739 01a5 16000000 		.4byte	.LVL16
 3740 01a9 18000000 		.4byte	.LVL17
 3741 01ad 0300     		.2byte	0x3
 3742 01af 73       		.byte	0x73
 3743 01b0 7C       		.sleb128 -4
 3744 01b1 9F       		.byte	0x9f
 3745 01b2 18000000 		.4byte	.LVL17
 3746 01b6 1C000000 		.4byte	.LVL18
 3747 01ba 0100     		.2byte	0x1
 3748 01bc 53       		.byte	0x53
 3749 01bd 1C000000 		.4byte	.LVL18
 3750 01c1 20000000 		.4byte	.LVL19
 3751 01c5 0300     		.2byte	0x3
 3752 01c7 73       		.byte	0x73
 3753 01c8 7C       		.sleb128 -4
 3754 01c9 9F       		.byte	0x9f
 3755 01ca 20000000 		.4byte	.LVL19
 3756 01ce 24000000 		.4byte	.LVL20
 3757 01d2 0100     		.2byte	0x1
 3758 01d4 53       		.byte	0x53
 3759 01d5 00000000 		.4byte	0
ARM GAS  /tmp/ccUTqzHm.s 			page 67


 3760 01d9 00000000 		.4byte	0
 3761              	.LLST9:
 3762 01dd 00000000 		.4byte	.LVL24
 3763 01e1 0C000000 		.4byte	.LVL25
 3764 01e5 0100     		.2byte	0x1
 3765 01e7 50       		.byte	0x50
 3766 01e8 0C000000 		.4byte	.LVL25
 3767 01ec 11000000 		.4byte	.LVL27-1
 3768 01f0 0500     		.2byte	0x5
 3769 01f2 73       		.byte	0x73
 3770 01f3 80807C   		.sleb128 -65536
 3771 01f6 9F       		.byte	0x9f
 3772 01f7 11000000 		.4byte	.LVL27-1
 3773 01fb 16000000 		.4byte	.LFE211
 3774 01ff 0400     		.2byte	0x4
 3775 0201 F3       		.byte	0xf3
 3776 0202 01       		.uleb128 0x1
 3777 0203 50       		.byte	0x50
 3778 0204 9F       		.byte	0x9f
 3779 0205 00000000 		.4byte	0
 3780 0209 00000000 		.4byte	0
 3781              	.LLST10:
 3782 020d 00000000 		.4byte	.LVL24
 3783 0211 0E000000 		.4byte	.LVL26
 3784 0215 0100     		.2byte	0x1
 3785 0217 51       		.byte	0x51
 3786 0218 0E000000 		.4byte	.LVL26
 3787 021c 11000000 		.4byte	.LVL27-1
 3788 0220 0100     		.2byte	0x1
 3789 0222 50       		.byte	0x50
 3790 0223 11000000 		.4byte	.LVL27-1
 3791 0227 16000000 		.4byte	.LFE211
 3792 022b 0400     		.2byte	0x4
 3793 022d F3       		.byte	0xf3
 3794 022e 01       		.uleb128 0x1
 3795 022f 51       		.byte	0x51
 3796 0230 9F       		.byte	0x9f
 3797 0231 00000000 		.4byte	0
 3798 0235 00000000 		.4byte	0
 3799              	.LLST11:
 3800 0239 00000000 		.4byte	.LVL28
 3801 023d 12000000 		.4byte	.LVL30
 3802 0241 0100     		.2byte	0x1
 3803 0243 50       		.byte	0x50
 3804 0244 12000000 		.4byte	.LVL30
 3805 0248 14000000 		.4byte	.LVL31
 3806 024c 0300     		.2byte	0x3
 3807 024e 70       		.byte	0x70
 3808 024f 02       		.sleb128 2
 3809 0250 9F       		.byte	0x9f
 3810 0251 14000000 		.4byte	.LVL31
 3811 0255 3C000000 		.4byte	.LVL37
 3812 0259 0100     		.2byte	0x1
 3813 025b 50       		.byte	0x50
 3814 025c 40000000 		.4byte	.LVL38
 3815 0260 52000000 		.4byte	.LVL41
 3816 0264 0100     		.2byte	0x1
ARM GAS  /tmp/ccUTqzHm.s 			page 68


 3817 0266 50       		.byte	0x50
 3818 0267 58000000 		.4byte	.LVL43
 3819 026b 5C000000 		.4byte	.LVL44
 3820 026f 0100     		.2byte	0x1
 3821 0271 50       		.byte	0x50
 3822 0272 00000000 		.4byte	0
 3823 0276 00000000 		.4byte	0
 3824              	.LLST12:
 3825 027a 00000000 		.4byte	.LVL28
 3826 027e 0A000000 		.4byte	.LVL29
 3827 0282 0100     		.2byte	0x1
 3828 0284 51       		.byte	0x51
 3829 0285 0A000000 		.4byte	.LVL29
 3830 0289 14000000 		.4byte	.LVL31
 3831 028d 0300     		.2byte	0x3
 3832 028f 71       		.byte	0x71
 3833 0290 7E       		.sleb128 -2
 3834 0291 9F       		.byte	0x9f
 3835 0292 14000000 		.4byte	.LVL31
 3836 0296 28000000 		.4byte	.LVL34
 3837 029a 0100     		.2byte	0x1
 3838 029c 51       		.byte	0x51
 3839 029d 28000000 		.4byte	.LVL34
 3840 02a1 40000000 		.4byte	.LVL38
 3841 02a5 0300     		.2byte	0x3
 3842 02a7 71       		.byte	0x71
 3843 02a8 7E       		.sleb128 -2
 3844 02a9 9F       		.byte	0x9f
 3845 02aa 40000000 		.4byte	.LVL38
 3846 02ae 5E000000 		.4byte	.LFE212
 3847 02b2 0100     		.2byte	0x1
 3848 02b4 51       		.byte	0x51
 3849 02b5 00000000 		.4byte	0
 3850 02b9 00000000 		.4byte	0
 3851              	.LLST13:
 3852 02bd 00000000 		.4byte	.LVL28
 3853 02c1 12000000 		.4byte	.LVL30
 3854 02c5 0100     		.2byte	0x1
 3855 02c7 52       		.byte	0x52
 3856 02c8 16000000 		.4byte	.LVL32
 3857 02cc 2A000000 		.4byte	.LVL35
 3858 02d0 0100     		.2byte	0x1
 3859 02d2 52       		.byte	0x52
 3860 02d3 40000000 		.4byte	.LVL38
 3861 02d7 44000000 		.4byte	.LVL39
 3862 02db 0100     		.2byte	0x1
 3863 02dd 52       		.byte	0x52
 3864 02de 58000000 		.4byte	.LVL43
 3865 02e2 5E000000 		.4byte	.LFE212
 3866 02e6 0100     		.2byte	0x1
 3867 02e8 52       		.byte	0x52
 3868 02e9 00000000 		.4byte	0
 3869 02ed 00000000 		.4byte	0
 3870              	.LLST14:
 3871 02f1 00000000 		.4byte	.LVL28
 3872 02f5 0A000000 		.4byte	.LVL29
 3873 02f9 0200     		.2byte	0x2
ARM GAS  /tmp/ccUTqzHm.s 			page 69


 3874 02fb 31       		.byte	0x31
 3875 02fc 9F       		.byte	0x9f
 3876 02fd 0A000000 		.4byte	.LVL29
 3877 0301 18000000 		.4byte	.LVL33
 3878 0305 0200     		.2byte	0x2
 3879 0307 30       		.byte	0x30
 3880 0308 9F       		.byte	0x9f
 3881 0309 32000000 		.4byte	.LVL36
 3882 030d 40000000 		.4byte	.LVL38
 3883 0311 0200     		.2byte	0x2
 3884 0313 30       		.byte	0x30
 3885 0314 9F       		.byte	0x9f
 3886 0315 4A000000 		.4byte	.LVL40
 3887 0319 54000000 		.4byte	.LVL42
 3888 031d 0200     		.2byte	0x2
 3889 031f 30       		.byte	0x30
 3890 0320 9F       		.byte	0x9f
 3891 0321 00000000 		.4byte	0
 3892 0325 00000000 		.4byte	0
 3893              	.LLST15:
 3894 0329 00000000 		.4byte	.LVL45
 3895 032d 04000000 		.4byte	.LVL46
 3896 0331 0100     		.2byte	0x1
 3897 0333 50       		.byte	0x50
 3898 0334 04000000 		.4byte	.LVL46
 3899 0338 14000000 		.4byte	.LVL50
 3900 033c 0500     		.2byte	0x5
 3901 033e 70       		.byte	0x70
 3902 033f 80807C   		.sleb128 -65536
 3903 0342 9F       		.byte	0x9f
 3904 0343 14000000 		.4byte	.LVL50
 3905 0347 38000000 		.4byte	.LFE213
 3906 034b 0400     		.2byte	0x4
 3907 034d F3       		.byte	0xf3
 3908 034e 01       		.uleb128 0x1
 3909 034f 50       		.byte	0x50
 3910 0350 9F       		.byte	0x9f
 3911 0351 00000000 		.4byte	0
 3912 0355 00000000 		.4byte	0
 3913              	.LLST16:
 3914 0359 00000000 		.4byte	.LVL45
 3915 035d 0C000000 		.4byte	.LVL48
 3916 0361 0100     		.2byte	0x1
 3917 0363 51       		.byte	0x51
 3918 0364 0C000000 		.4byte	.LVL48
 3919 0368 14000000 		.4byte	.LVL50
 3920 036c 0300     		.2byte	0x3
 3921 036e 71       		.byte	0x71
 3922 036f 04       		.sleb128 4
 3923 0370 9F       		.byte	0x9f
 3924 0371 14000000 		.4byte	.LVL50
 3925 0375 38000000 		.4byte	.LFE213
 3926 0379 0400     		.2byte	0x4
 3927 037b F3       		.byte	0xf3
 3928 037c 01       		.uleb128 0x1
 3929 037d 51       		.byte	0x51
 3930 037e 9F       		.byte	0x9f
ARM GAS  /tmp/ccUTqzHm.s 			page 70


 3931 037f 00000000 		.4byte	0
 3932 0383 00000000 		.4byte	0
 3933              	.LLST17:
 3934 0387 08000000 		.4byte	.LVL47
 3935 038b 10000000 		.4byte	.LVL49
 3936 038f 0100     		.2byte	0x1
 3937 0391 54       		.byte	0x54
 3938 0392 10000000 		.4byte	.LVL49
 3939 0396 2E000000 		.4byte	.LVL51
 3940 039a 0400     		.2byte	0x4
 3941 039c 74       		.byte	0x74
 3942 039d 8470     		.sleb128 -2044
 3943 039f 9F       		.byte	0x9f
 3944 03a0 2E000000 		.4byte	.LVL51
 3945 03a4 38000000 		.4byte	.LFE213
 3946 03a8 0A00     		.2byte	0xa
 3947 03aa F3       		.byte	0xf3
 3948 03ab 01       		.uleb128 0x1
 3949 03ac 50       		.byte	0x50
 3950 03ad 23       		.byte	0x23
 3951 03ae 808004   		.uleb128 0x10000
 3952 03b1 3B       		.byte	0x3b
 3953 03b2 24       		.byte	0x24
 3954 03b3 9F       		.byte	0x9f
 3955 03b4 00000000 		.4byte	0
 3956 03b8 00000000 		.4byte	0
 3957              	.LLST18:
 3958 03bc 08000000 		.4byte	.LVL47
 3959 03c0 0C000000 		.4byte	.LVL48
 3960 03c4 0100     		.2byte	0x1
 3961 03c6 51       		.byte	0x51
 3962 03c7 0C000000 		.4byte	.LVL48
 3963 03cb 14000000 		.4byte	.LVL50
 3964 03cf 0300     		.2byte	0x3
 3965 03d1 71       		.byte	0x71
 3966 03d2 04       		.sleb128 4
 3967 03d3 9F       		.byte	0x9f
 3968 03d4 14000000 		.4byte	.LVL50
 3969 03d8 38000000 		.4byte	.LFE213
 3970 03dc 0400     		.2byte	0x4
 3971 03de F3       		.byte	0xf3
 3972 03df 01       		.uleb128 0x1
 3973 03e0 51       		.byte	0x51
 3974 03e1 9F       		.byte	0x9f
 3975 03e2 00000000 		.4byte	0
 3976 03e6 00000000 		.4byte	0
 3977              	.LLST19:
 3978 03ea 08000000 		.4byte	.LVL47
 3979 03ee 14000000 		.4byte	.LVL50
 3980 03f2 0200     		.2byte	0x2
 3981 03f4 30       		.byte	0x30
 3982 03f5 9F       		.byte	0x9f
 3983 03f6 00000000 		.4byte	0
 3984 03fa 00000000 		.4byte	0
 3985              	.LLST20:
 3986 03fe 08000000 		.4byte	.LVL47
 3987 0402 14000000 		.4byte	.LVL50
ARM GAS  /tmp/ccUTqzHm.s 			page 71


 3988 0406 0200     		.2byte	0x2
 3989 0408 31       		.byte	0x31
 3990 0409 9F       		.byte	0x9f
 3991 040a 00000000 		.4byte	0
 3992 040e 00000000 		.4byte	0
 3993              	.LLST21:
 3994 0412 00000000 		.4byte	.LVL52
 3995 0416 04000000 		.4byte	.LVL53
 3996 041a 0100     		.2byte	0x1
 3997 041c 50       		.byte	0x50
 3998 041d 04000000 		.4byte	.LVL53
 3999 0421 20000000 		.4byte	.LVL55
 4000 0425 0500     		.2byte	0x5
 4001 0427 70       		.byte	0x70
 4002 0428 80807C   		.sleb128 -65536
 4003 042b 9F       		.byte	0x9f
 4004 042c 20000000 		.4byte	.LVL55
 4005 0430 90000000 		.4byte	.LFE214
 4006 0434 0400     		.2byte	0x4
 4007 0436 F3       		.byte	0xf3
 4008 0437 01       		.uleb128 0x1
 4009 0438 50       		.byte	0x50
 4010 0439 9F       		.byte	0x9f
 4011 043a 00000000 		.4byte	0
 4012 043e 00000000 		.4byte	0
 4013              	.LLST22:
 4014 0442 00000000 		.4byte	.LVL52
 4015 0446 20000000 		.4byte	.LVL55
 4016 044a 0100     		.2byte	0x1
 4017 044c 51       		.byte	0x51
 4018 044d 20000000 		.4byte	.LVL55
 4019 0451 34000000 		.4byte	.LVL57
 4020 0455 0100     		.2byte	0x1
 4021 0457 57       		.byte	0x57
 4022 0458 34000000 		.4byte	.LVL57
 4023 045c 78000000 		.4byte	.LVL59
 4024 0460 0400     		.2byte	0x4
 4025 0462 77       		.byte	0x77
 4026 0463 8070     		.sleb128 -2048
 4027 0465 9F       		.byte	0x9f
 4028 0466 78000000 		.4byte	.LVL59
 4029 046a 7E000000 		.4byte	.LVL60
 4030 046e 0400     		.2byte	0x4
 4031 0470 F3       		.byte	0xf3
 4032 0471 01       		.uleb128 0x1
 4033 0472 51       		.byte	0x51
 4034 0473 9F       		.byte	0x9f
 4035 0474 7E000000 		.4byte	.LVL60
 4036 0478 81000000 		.4byte	.LVL61-1
 4037 047c 0100     		.2byte	0x1
 4038 047e 51       		.byte	0x51
 4039 047f 81000000 		.4byte	.LVL61-1
 4040 0483 86000000 		.4byte	.LVL62
 4041 0487 0100     		.2byte	0x1
 4042 0489 57       		.byte	0x57
 4043 048a 86000000 		.4byte	.LVL62
 4044 048e 90000000 		.4byte	.LFE214
ARM GAS  /tmp/ccUTqzHm.s 			page 72


 4045 0492 0400     		.2byte	0x4
 4046 0494 F3       		.byte	0xf3
 4047 0495 01       		.uleb128 0x1
 4048 0496 51       		.byte	0x51
 4049 0497 9F       		.byte	0x9f
 4050 0498 00000000 		.4byte	0
 4051 049c 00000000 		.4byte	0
 4052              	.LLST23:
 4053 04a0 08000000 		.4byte	.LVL54
 4054 04a4 30000000 		.4byte	.LVL56
 4055 04a8 0100     		.2byte	0x1
 4056 04aa 55       		.byte	0x55
 4057 04ab 30000000 		.4byte	.LVL56
 4058 04af 7E000000 		.4byte	.LVL60
 4059 04b3 0A00     		.2byte	0xa
 4060 04b5 F3       		.byte	0xf3
 4061 04b6 01       		.uleb128 0x1
 4062 04b7 50       		.byte	0x50
 4063 04b8 23       		.byte	0x23
 4064 04b9 808004   		.uleb128 0x10000
 4065 04bc 3B       		.byte	0x3b
 4066 04bd 24       		.byte	0x24
 4067 04be 9F       		.byte	0x9f
 4068 04bf 7E000000 		.4byte	.LVL60
 4069 04c3 8C000000 		.4byte	.LVL63
 4070 04c7 0100     		.2byte	0x1
 4071 04c9 55       		.byte	0x55
 4072 04ca 8C000000 		.4byte	.LVL63
 4073 04ce 90000000 		.4byte	.LFE214
 4074 04d2 0A00     		.2byte	0xa
 4075 04d4 F3       		.byte	0xf3
 4076 04d5 01       		.uleb128 0x1
 4077 04d6 50       		.byte	0x50
 4078 04d7 23       		.byte	0x23
 4079 04d8 808004   		.uleb128 0x10000
 4080 04db 3B       		.byte	0x3b
 4081 04dc 24       		.byte	0x24
 4082 04dd 9F       		.byte	0x9f
 4083 04de 00000000 		.4byte	0
 4084 04e2 00000000 		.4byte	0
 4085              	.LLST24:
 4086 04e6 00000000 		.4byte	.LVL64
 4087 04ea 15000000 		.4byte	.LVL65-1
 4088 04ee 0100     		.2byte	0x1
 4089 04f0 50       		.byte	0x50
 4090 04f1 15000000 		.4byte	.LVL65-1
 4091 04f5 26000000 		.4byte	.LVL67
 4092 04f9 0100     		.2byte	0x1
 4093 04fb 54       		.byte	0x54
 4094 04fc 26000000 		.4byte	.LVL67
 4095 0500 29000000 		.4byte	.LVL68-1
 4096 0504 0100     		.2byte	0x1
 4097 0506 50       		.byte	0x50
 4098 0507 29000000 		.4byte	.LVL68-1
 4099 050b 2A000000 		.4byte	.LVL68
 4100 050f 0400     		.2byte	0x4
 4101 0511 F3       		.byte	0xf3
ARM GAS  /tmp/ccUTqzHm.s 			page 73


 4102 0512 01       		.uleb128 0x1
 4103 0513 50       		.byte	0x50
 4104 0514 9F       		.byte	0x9f
 4105 0515 2A000000 		.4byte	.LVL68
 4106 0519 2E000000 		.4byte	.LVL69
 4107 051d 0100     		.2byte	0x1
 4108 051f 50       		.byte	0x50
 4109 0520 2E000000 		.4byte	.LVL69
 4110 0524 30000000 		.4byte	.LVL70
 4111 0528 0400     		.2byte	0x4
 4112 052a F3       		.byte	0xf3
 4113 052b 01       		.uleb128 0x1
 4114 052c 50       		.byte	0x50
 4115 052d 9F       		.byte	0x9f
 4116 052e 30000000 		.4byte	.LVL70
 4117 0532 3C000000 		.4byte	.LVL73
 4118 0536 0100     		.2byte	0x1
 4119 0538 54       		.byte	0x54
 4120 0539 3C000000 		.4byte	.LVL73
 4121 053d 40000000 		.4byte	.LFE215
 4122 0541 0400     		.2byte	0x4
 4123 0543 F3       		.byte	0xf3
 4124 0544 01       		.uleb128 0x1
 4125 0545 50       		.byte	0x50
 4126 0546 9F       		.byte	0x9f
 4127 0547 00000000 		.4byte	0
 4128 054b 00000000 		.4byte	0
 4129              	.LLST25:
 4130 054f 00000000 		.4byte	.LVL64
 4131 0553 15000000 		.4byte	.LVL65-1
 4132 0557 0100     		.2byte	0x1
 4133 0559 51       		.byte	0x51
 4134 055a 15000000 		.4byte	.LVL65-1
 4135 055e 26000000 		.4byte	.LVL67
 4136 0562 0100     		.2byte	0x1
 4137 0564 55       		.byte	0x55
 4138 0565 26000000 		.4byte	.LVL67
 4139 0569 29000000 		.4byte	.LVL68-1
 4140 056d 0100     		.2byte	0x1
 4141 056f 51       		.byte	0x51
 4142 0570 29000000 		.4byte	.LVL68-1
 4143 0574 2A000000 		.4byte	.LVL68
 4144 0578 0400     		.2byte	0x4
 4145 057a F3       		.byte	0xf3
 4146 057b 01       		.uleb128 0x1
 4147 057c 51       		.byte	0x51
 4148 057d 9F       		.byte	0x9f
 4149 057e 2A000000 		.4byte	.LVL68
 4150 0582 2E000000 		.4byte	.LVL69
 4151 0586 0100     		.2byte	0x1
 4152 0588 51       		.byte	0x51
 4153 0589 2E000000 		.4byte	.LVL69
 4154 058d 30000000 		.4byte	.LVL70
 4155 0591 0400     		.2byte	0x4
 4156 0593 F3       		.byte	0xf3
 4157 0594 01       		.uleb128 0x1
 4158 0595 51       		.byte	0x51
ARM GAS  /tmp/ccUTqzHm.s 			page 74


 4159 0596 9F       		.byte	0x9f
 4160 0597 30000000 		.4byte	.LVL70
 4161 059b 3C000000 		.4byte	.LVL73
 4162 059f 0100     		.2byte	0x1
 4163 05a1 55       		.byte	0x55
 4164 05a2 3C000000 		.4byte	.LVL73
 4165 05a6 40000000 		.4byte	.LFE215
 4166 05aa 0400     		.2byte	0x4
 4167 05ac F3       		.byte	0xf3
 4168 05ad 01       		.uleb128 0x1
 4169 05ae 51       		.byte	0x51
 4170 05af 9F       		.byte	0x9f
 4171 05b0 00000000 		.4byte	0
 4172 05b4 00000000 		.4byte	0
 4173              	.LLST26:
 4174 05b8 16000000 		.4byte	.LVL65
 4175 05bc 20000000 		.4byte	.LVL66
 4176 05c0 0100     		.2byte	0x1
 4177 05c2 50       		.byte	0x50
 4178 05c3 30000000 		.4byte	.LVL70
 4179 05c7 32000000 		.4byte	.LVL71
 4180 05cb 0100     		.2byte	0x1
 4181 05cd 50       		.byte	0x50
 4182 05ce 36000000 		.4byte	.LVL72
 4183 05d2 40000000 		.4byte	.LFE215
 4184 05d6 0100     		.2byte	0x1
 4185 05d8 50       		.byte	0x50
 4186 05d9 00000000 		.4byte	0
 4187 05dd 00000000 		.4byte	0
 4188              	.LLST27:
 4189 05e1 00000000 		.4byte	.LVL74
 4190 05e5 16000000 		.4byte	.LVL77
 4191 05e9 0100     		.2byte	0x1
 4192 05eb 50       		.byte	0x50
 4193 05ec 16000000 		.4byte	.LVL77
 4194 05f0 26000000 		.4byte	.LVL79
 4195 05f4 0100     		.2byte	0x1
 4196 05f6 56       		.byte	0x56
 4197 05f7 26000000 		.4byte	.LVL79
 4198 05fb 8A000000 		.4byte	.LVL86
 4199 05ff 0100     		.2byte	0x1
 4200 0601 58       		.byte	0x58
 4201 0602 8A000000 		.4byte	.LVL86
 4202 0606 C8000000 		.4byte	.LVL91
 4203 060a 0100     		.2byte	0x1
 4204 060c 56       		.byte	0x56
 4205 060d C8000000 		.4byte	.LVL91
 4206 0611 D6000000 		.4byte	.LVL95
 4207 0615 0100     		.2byte	0x1
 4208 0617 58       		.byte	0x58
 4209 0618 D6000000 		.4byte	.LVL95
 4210 061c D9000000 		.4byte	.LVL96-1
 4211 0620 0100     		.2byte	0x1
 4212 0622 50       		.byte	0x50
 4213 0623 D9000000 		.4byte	.LVL96-1
 4214 0627 E4000000 		.4byte	.LVL97
 4215 062b 0100     		.2byte	0x1
ARM GAS  /tmp/ccUTqzHm.s 			page 75


 4216 062d 56       		.byte	0x56
 4217 062e E4000000 		.4byte	.LVL97
 4218 0632 18010000 		.4byte	.LFE218
 4219 0636 0100     		.2byte	0x1
 4220 0638 58       		.byte	0x58
 4221 0639 00000000 		.4byte	0
 4222 063d 00000000 		.4byte	0
 4223              	.LLST28:
 4224 0641 00000000 		.4byte	.LVL74
 4225 0645 16000000 		.4byte	.LVL77
 4226 0649 0100     		.2byte	0x1
 4227 064b 51       		.byte	0x51
 4228 064c 16000000 		.4byte	.LVL77
 4229 0650 34000000 		.4byte	.LVL80
 4230 0654 0100     		.2byte	0x1
 4231 0656 55       		.byte	0x55
 4232 0657 34000000 		.4byte	.LVL80
 4233 065b 3A000000 		.4byte	.LVL81
 4234 065f 0300     		.2byte	0x3
 4235 0661 77       		.byte	0x77
 4236 0662 02       		.sleb128 2
 4237 0663 9F       		.byte	0x9f
 4238 0664 3A000000 		.4byte	.LVL81
 4239 0668 5A000000 		.4byte	.LVL83
 4240 066c 0100     		.2byte	0x1
 4241 066e 57       		.byte	0x57
 4242 066f 5A000000 		.4byte	.LVL83
 4243 0673 74000000 		.4byte	.LVL84
 4244 0677 0300     		.2byte	0x3
 4245 0679 77       		.byte	0x77
 4246 067a 02       		.sleb128 2
 4247 067b 9F       		.byte	0x9f
 4248 067c 8A000000 		.4byte	.LVL86
 4249 0680 D6000000 		.4byte	.LVL95
 4250 0684 0100     		.2byte	0x1
 4251 0686 55       		.byte	0x55
 4252 0687 D6000000 		.4byte	.LVL95
 4253 068b D9000000 		.4byte	.LVL96-1
 4254 068f 0100     		.2byte	0x1
 4255 0691 51       		.byte	0x51
 4256 0692 D9000000 		.4byte	.LVL96-1
 4257 0696 E4000000 		.4byte	.LVL97
 4258 069a 0100     		.2byte	0x1
 4259 069c 55       		.byte	0x55
 4260 069d 00000000 		.4byte	0
 4261 06a1 00000000 		.4byte	0
 4262              	.LLST29:
 4263 06a5 00000000 		.4byte	.LVL74
 4264 06a9 0E000000 		.4byte	.LVL75
 4265 06ad 0100     		.2byte	0x1
 4266 06af 52       		.byte	0x52
 4267 06b0 0E000000 		.4byte	.LVL75
 4268 06b4 34000000 		.4byte	.LVL80
 4269 06b8 0100     		.2byte	0x1
 4270 06ba 54       		.byte	0x54
 4271 06bb 34000000 		.4byte	.LVL80
 4272 06bf 50000000 		.4byte	.LVL82
ARM GAS  /tmp/ccUTqzHm.s 			page 76


 4273 06c3 0100     		.2byte	0x1
 4274 06c5 51       		.byte	0x51
 4275 06c6 50000000 		.4byte	.LVL82
 4276 06ca 5A000000 		.4byte	.LVL83
 4277 06ce 0300     		.2byte	0x3
 4278 06d0 71       		.byte	0x71
 4279 06d1 02       		.sleb128 2
 4280 06d2 9F       		.byte	0x9f
 4281 06d3 5A000000 		.4byte	.LVL83
 4282 06d7 74000000 		.4byte	.LVL84
 4283 06db 0100     		.2byte	0x1
 4284 06dd 51       		.byte	0x51
 4285 06de 8A000000 		.4byte	.LVL86
 4286 06e2 E4000000 		.4byte	.LVL97
 4287 06e6 0100     		.2byte	0x1
 4288 06e8 54       		.byte	0x54
 4289 06e9 00000000 		.4byte	0
 4290 06ed 00000000 		.4byte	0
 4291              	.LLST30:
 4292 06f1 14000000 		.4byte	.LVL76
 4293 06f5 16000000 		.4byte	.LVL77
 4294 06f9 0100     		.2byte	0x1
 4295 06fb 50       		.byte	0x50
 4296 06fc 16000000 		.4byte	.LVL77
 4297 0700 34000000 		.4byte	.LVL80
 4298 0704 0100     		.2byte	0x1
 4299 0706 56       		.byte	0x56
 4300 0707 34000000 		.4byte	.LVL80
 4301 070b 74000000 		.4byte	.LVL84
 4302 070f 0100     		.2byte	0x1
 4303 0711 50       		.byte	0x50
 4304 0712 8A000000 		.4byte	.LVL86
 4305 0716 D6000000 		.4byte	.LVL95
 4306 071a 0100     		.2byte	0x1
 4307 071c 56       		.byte	0x56
 4308 071d D6000000 		.4byte	.LVL95
 4309 0721 D9000000 		.4byte	.LVL96-1
 4310 0725 0100     		.2byte	0x1
 4311 0727 50       		.byte	0x50
 4312 0728 D9000000 		.4byte	.LVL96-1
 4313 072c E4000000 		.4byte	.LVL97
 4314 0730 0100     		.2byte	0x1
 4315 0732 56       		.byte	0x56
 4316 0733 00000000 		.4byte	0
 4317 0737 00000000 		.4byte	0
 4318              	.LLST31:
 4319 073b 20000000 		.4byte	.LVL78
 4320 073f 26000000 		.4byte	.LVL79
 4321 0743 0500     		.2byte	0x5
 4322 0745 76       		.byte	0x76
 4323 0746 00       		.sleb128 0
 4324 0747 31       		.byte	0x31
 4325 0748 1A       		.byte	0x1a
 4326 0749 9F       		.byte	0x9f
 4327 074a 26000000 		.4byte	.LVL79
 4328 074e 84000000 		.4byte	.LVL85
 4329 0752 0500     		.2byte	0x5
ARM GAS  /tmp/ccUTqzHm.s 			page 77


 4330 0754 78       		.byte	0x78
 4331 0755 00       		.sleb128 0
 4332 0756 31       		.byte	0x31
 4333 0757 1A       		.byte	0x1a
 4334 0758 9F       		.byte	0x9f
 4335 0759 8A000000 		.4byte	.LVL86
 4336 075d C8000000 		.4byte	.LVL91
 4337 0761 0500     		.2byte	0x5
 4338 0763 76       		.byte	0x76
 4339 0764 00       		.sleb128 0
 4340 0765 31       		.byte	0x31
 4341 0766 1A       		.byte	0x1a
 4342 0767 9F       		.byte	0x9f
 4343 0768 C8000000 		.4byte	.LVL91
 4344 076c D6000000 		.4byte	.LVL95
 4345 0770 0500     		.2byte	0x5
 4346 0772 78       		.byte	0x78
 4347 0773 00       		.sleb128 0
 4348 0774 31       		.byte	0x31
 4349 0775 1A       		.byte	0x1a
 4350 0776 9F       		.byte	0x9f
 4351 0777 E4000000 		.4byte	.LVL97
 4352 077b 18010000 		.4byte	.LFE218
 4353 077f 0500     		.2byte	0x5
 4354 0781 78       		.byte	0x78
 4355 0782 00       		.sleb128 0
 4356 0783 31       		.byte	0x31
 4357 0784 1A       		.byte	0x1a
 4358 0785 9F       		.byte	0x9f
 4359 0786 00000000 		.4byte	0
 4360 078a 00000000 		.4byte	0
 4361              	.LLST32:
 4362 078e 3A000000 		.4byte	.LVL81
 4363 0792 74000000 		.4byte	.LVL84
 4364 0796 0100     		.2byte	0x1
 4365 0798 5C       		.byte	0x5c
 4366 0799 00000000 		.4byte	0
 4367 079d 00000000 		.4byte	0
 4368              	.LLST33:
 4369 07a1 3A000000 		.4byte	.LVL81
 4370 07a5 5A000000 		.4byte	.LVL83
 4371 07a9 0100     		.2byte	0x1
 4372 07ab 50       		.byte	0x50
 4373 07ac 5A000000 		.4byte	.LVL83
 4374 07b0 74000000 		.4byte	.LVL84
 4375 07b4 0300     		.2byte	0x3
 4376 07b6 70       		.byte	0x70
 4377 07b7 7E       		.sleb128 -2
 4378 07b8 9F       		.byte	0x9f
 4379 07b9 00000000 		.4byte	0
 4380 07bd 00000000 		.4byte	0
 4381              	.LLST34:
 4382 07c1 8A000000 		.4byte	.LVL86
 4383 07c5 C8000000 		.4byte	.LVL91
 4384 07c9 0300     		.2byte	0x3
 4385 07cb 76       		.byte	0x76
 4386 07cc 7E       		.sleb128 -2
ARM GAS  /tmp/ccUTqzHm.s 			page 78


 4387 07cd 9F       		.byte	0x9f
 4388 07ce C8000000 		.4byte	.LVL91
 4389 07d2 D6000000 		.4byte	.LVL95
 4390 07d6 0300     		.2byte	0x3
 4391 07d8 78       		.byte	0x78
 4392 07d9 7E       		.sleb128 -2
 4393 07da 9F       		.byte	0x9f
 4394 07db 00000000 		.4byte	0
 4395 07df 00000000 		.4byte	0
 4396              	.LLST35:
 4397 07e3 A4000000 		.4byte	.LVL87
 4398 07e7 A7000000 		.4byte	.LVL88-1
 4399 07eb 0100     		.2byte	0x1
 4400 07ed 52       		.byte	0x52
 4401 07ee A7000000 		.4byte	.LVL88-1
 4402 07f2 D6000000 		.4byte	.LVL95
 4403 07f6 0100     		.2byte	0x1
 4404 07f8 59       		.byte	0x59
 4405 07f9 00000000 		.4byte	0
 4406 07fd 00000000 		.4byte	0
 4407              	.LLST36:
 4408 0801 B0000000 		.4byte	.LVL89
 4409 0805 BA000000 		.4byte	.LVL90
 4410 0809 0100     		.2byte	0x1
 4411 080b 52       		.byte	0x52
 4412 080c BA000000 		.4byte	.LVL90
 4413 0810 C8000000 		.4byte	.LVL91
 4414 0814 0200     		.2byte	0x2
 4415 0816 76       		.byte	0x76
 4416 0817 7E       		.sleb128 -2
 4417 0818 C8000000 		.4byte	.LVL91
 4418 081c D4000000 		.4byte	.LVL94
 4419 0820 0200     		.2byte	0x2
 4420 0822 78       		.byte	0x78
 4421 0823 7E       		.sleb128 -2
 4422 0824 D4000000 		.4byte	.LVL94
 4423 0828 D6000000 		.4byte	.LVL95
 4424 082c 0200     		.2byte	0x2
 4425 082e 91       		.byte	0x91
 4426 082f 5E       		.sleb128 -34
 4427 0830 00000000 		.4byte	0
 4428 0834 00000000 		.4byte	0
 4429              	.LLST37:
 4430 0838 B0000000 		.4byte	.LVL89
 4431 083c C8000000 		.4byte	.LVL91
 4432 0840 0300     		.2byte	0x3
 4433 0842 76       		.byte	0x76
 4434 0843 7E       		.sleb128 -2
 4435 0844 9F       		.byte	0x9f
 4436 0845 C8000000 		.4byte	.LVL91
 4437 0849 D6000000 		.4byte	.LVL95
 4438 084d 0300     		.2byte	0x3
 4439 084f 78       		.byte	0x78
 4440 0850 7E       		.sleb128 -2
 4441 0851 9F       		.byte	0x9f
 4442 0852 00000000 		.4byte	0
 4443 0856 00000000 		.4byte	0
ARM GAS  /tmp/ccUTqzHm.s 			page 79


 4444              	.LLST38:
 4445 085a 00000000 		.4byte	.LVL99
 4446 085e 19000000 		.4byte	.LVL100-1
 4447 0862 0100     		.2byte	0x1
 4448 0864 50       		.byte	0x50
 4449 0865 19000000 		.4byte	.LVL100-1
 4450 0869 2C000000 		.4byte	.LVL102
 4451 086d 0100     		.2byte	0x1
 4452 086f 54       		.byte	0x54
 4453 0870 2C000000 		.4byte	.LVL102
 4454 0874 2F000000 		.4byte	.LVL103-1
 4455 0878 0100     		.2byte	0x1
 4456 087a 50       		.byte	0x50
 4457 087b 2F000000 		.4byte	.LVL103-1
 4458 087f 30000000 		.4byte	.LVL103
 4459 0883 0400     		.2byte	0x4
 4460 0885 F3       		.byte	0xf3
 4461 0886 01       		.uleb128 0x1
 4462 0887 50       		.byte	0x50
 4463 0888 9F       		.byte	0x9f
 4464 0889 30000000 		.4byte	.LVL103
 4465 088d 34000000 		.4byte	.LVL104
 4466 0891 0100     		.2byte	0x1
 4467 0893 50       		.byte	0x50
 4468 0894 34000000 		.4byte	.LVL104
 4469 0898 36000000 		.4byte	.LVL105
 4470 089c 0700     		.2byte	0x7
 4471 089e 77       		.byte	0x77
 4472 089f 808080C0 		.sleb128 134217728
 4472      00
 4473 08a4 9F       		.byte	0x9f
 4474 08a5 36000000 		.4byte	.LVL105
 4475 08a9 42000000 		.4byte	.LFE217
 4476 08ad 0100     		.2byte	0x1
 4477 08af 54       		.byte	0x54
 4478 08b0 00000000 		.4byte	0
 4479 08b4 00000000 		.4byte	0
 4480              	.LLST39:
 4481 08b8 00000000 		.4byte	.LVL99
 4482 08bc 19000000 		.4byte	.LVL100-1
 4483 08c0 0100     		.2byte	0x1
 4484 08c2 51       		.byte	0x51
 4485 08c3 19000000 		.4byte	.LVL100-1
 4486 08c7 2C000000 		.4byte	.LVL102
 4487 08cb 0100     		.2byte	0x1
 4488 08cd 55       		.byte	0x55
 4489 08ce 2C000000 		.4byte	.LVL102
 4490 08d2 2F000000 		.4byte	.LVL103-1
 4491 08d6 0100     		.2byte	0x1
 4492 08d8 51       		.byte	0x51
 4493 08d9 2F000000 		.4byte	.LVL103-1
 4494 08dd 30000000 		.4byte	.LVL103
 4495 08e1 0400     		.2byte	0x4
 4496 08e3 F3       		.byte	0xf3
 4497 08e4 01       		.uleb128 0x1
 4498 08e5 51       		.byte	0x51
 4499 08e6 9F       		.byte	0x9f
ARM GAS  /tmp/ccUTqzHm.s 			page 80


 4500 08e7 30000000 		.4byte	.LVL103
 4501 08eb 34000000 		.4byte	.LVL104
 4502 08ef 0100     		.2byte	0x1
 4503 08f1 51       		.byte	0x51
 4504 08f2 34000000 		.4byte	.LVL104
 4505 08f6 36000000 		.4byte	.LVL105
 4506 08fa 0400     		.2byte	0x4
 4507 08fc F3       		.byte	0xf3
 4508 08fd 01       		.uleb128 0x1
 4509 08fe 51       		.byte	0x51
 4510 08ff 9F       		.byte	0x9f
 4511 0900 36000000 		.4byte	.LVL105
 4512 0904 42000000 		.4byte	.LFE217
 4513 0908 0100     		.2byte	0x1
 4514 090a 55       		.byte	0x55
 4515 090b 00000000 		.4byte	0
 4516 090f 00000000 		.4byte	0
 4517              	.LLST40:
 4518 0913 00000000 		.4byte	.LVL99
 4519 0917 19000000 		.4byte	.LVL100-1
 4520 091b 0100     		.2byte	0x1
 4521 091d 52       		.byte	0x52
 4522 091e 19000000 		.4byte	.LVL100-1
 4523 0922 2C000000 		.4byte	.LVL102
 4524 0926 0100     		.2byte	0x1
 4525 0928 56       		.byte	0x56
 4526 0929 2C000000 		.4byte	.LVL102
 4527 092d 2F000000 		.4byte	.LVL103-1
 4528 0931 0100     		.2byte	0x1
 4529 0933 52       		.byte	0x52
 4530 0934 2F000000 		.4byte	.LVL103-1
 4531 0938 30000000 		.4byte	.LVL103
 4532 093c 0400     		.2byte	0x4
 4533 093e F3       		.byte	0xf3
 4534 093f 01       		.uleb128 0x1
 4535 0940 52       		.byte	0x52
 4536 0941 9F       		.byte	0x9f
 4537 0942 30000000 		.4byte	.LVL103
 4538 0946 34000000 		.4byte	.LVL104
 4539 094a 0100     		.2byte	0x1
 4540 094c 52       		.byte	0x52
 4541 094d 34000000 		.4byte	.LVL104
 4542 0951 36000000 		.4byte	.LVL105
 4543 0955 0400     		.2byte	0x4
 4544 0957 F3       		.byte	0xf3
 4545 0958 01       		.uleb128 0x1
 4546 0959 52       		.byte	0x52
 4547 095a 9F       		.byte	0x9f
 4548 095b 36000000 		.4byte	.LVL105
 4549 095f 42000000 		.4byte	.LFE217
 4550 0963 0100     		.2byte	0x1
 4551 0965 56       		.byte	0x56
 4552 0966 00000000 		.4byte	0
 4553 096a 00000000 		.4byte	0
 4554              	.LLST41:
 4555 096e 1A000000 		.4byte	.LVL100
 4556 0972 24000000 		.4byte	.LVL101
ARM GAS  /tmp/ccUTqzHm.s 			page 81


 4557 0976 0100     		.2byte	0x1
 4558 0978 50       		.byte	0x50
 4559 0979 36000000 		.4byte	.LVL105
 4560 097d 38000000 		.4byte	.LVL106
 4561 0981 0100     		.2byte	0x1
 4562 0983 50       		.byte	0x50
 4563 0984 3C000000 		.4byte	.LVL107
 4564 0988 42000000 		.4byte	.LFE217
 4565 098c 0100     		.2byte	0x1
 4566 098e 50       		.byte	0x50
 4567 098f 00000000 		.4byte	0
 4568 0993 00000000 		.4byte	0
 4569              		.section	.debug_aranges,"",%progbits
 4570 0000 64000000 		.4byte	0x64
 4571 0004 0200     		.2byte	0x2
 4572 0006 00000000 		.4byte	.Ldebug_info0
 4573 000a 04       		.byte	0x4
 4574 000b 00       		.byte	0
 4575 000c 0000     		.2byte	0
 4576 000e 0000     		.2byte	0
 4577 0010 00000000 		.4byte	.LFB219
 4578 0014 24000000 		.4byte	.LFE219-.LFB219
 4579 0018 00000000 		.4byte	.LFB209
 4580 001c 98000000 		.4byte	.LFE209-.LFB209
 4581 0020 00000000 		.4byte	.LFB210
 4582 0024 2C000000 		.4byte	.LFE210-.LFB210
 4583 0028 00000000 		.4byte	.LFB211
 4584 002c 16000000 		.4byte	.LFE211-.LFB211
 4585 0030 00000000 		.4byte	.LFB212
 4586 0034 5E000000 		.4byte	.LFE212-.LFB212
 4587 0038 00000000 		.4byte	.LFB213
 4588 003c 38000000 		.4byte	.LFE213-.LFB213
 4589 0040 00000000 		.4byte	.LFB214
 4590 0044 90000000 		.4byte	.LFE214-.LFB214
 4591 0048 00000000 		.4byte	.LFB215
 4592 004c 40000000 		.4byte	.LFE215-.LFB215
 4593 0050 00000000 		.4byte	.LFB218
 4594 0054 18010000 		.4byte	.LFE218-.LFB218
 4595 0058 00000000 		.4byte	.LFB217
 4596 005c 42000000 		.4byte	.LFE217-.LFB217
 4597 0060 00000000 		.4byte	0
 4598 0064 00000000 		.4byte	0
 4599              		.section	.debug_ranges,"",%progbits
 4600              	.Ldebug_ranges0:
 4601 0000 0E000000 		.4byte	.LBB40
 4602 0004 18000000 		.4byte	.LBE40
 4603 0008 7E000000 		.4byte	.LBB57
 4604 000c 82000000 		.4byte	.LBE57
 4605 0010 00000000 		.4byte	0
 4606 0014 00000000 		.4byte	0
 4607 0018 4C000000 		.4byte	.LBB45
 4608 001c 4E000000 		.4byte	.LBE45
 4609 0020 52000000 		.4byte	.LBB53
 4610 0024 56000000 		.4byte	.LBE53
 4611 0028 58000000 		.4byte	.LBB55
 4612 002c 5A000000 		.4byte	.LBE55
 4613 0030 00000000 		.4byte	0
ARM GAS  /tmp/ccUTqzHm.s 			page 82


 4614 0034 00000000 		.4byte	0
 4615 0038 4E000000 		.4byte	.LBB49
 4616 003c 52000000 		.4byte	.LBE49
 4617 0040 56000000 		.4byte	.LBB54
 4618 0044 58000000 		.4byte	.LBE54
 4619 0048 5A000000 		.4byte	.LBB56
 4620 004c 74000000 		.4byte	.LBE56
 4621 0050 00000000 		.4byte	0
 4622 0054 00000000 		.4byte	0
 4623 0058 16000000 		.4byte	.LBB58
 4624 005c 20000000 		.4byte	.LBE58
 4625 0060 7E000000 		.4byte	.LBB65
 4626 0064 82000000 		.4byte	.LBE65
 4627 0068 00000000 		.4byte	0
 4628 006c 00000000 		.4byte	0
 4629 0070 6C000000 		.4byte	.LBB61
 4630 0074 6E000000 		.4byte	.LBE61
 4631 0078 70000000 		.4byte	.LBB64
 4632 007c 76000000 		.4byte	.LBE64
 4633 0080 00000000 		.4byte	0
 4634 0084 00000000 		.4byte	0
 4635 0088 04000000 		.4byte	.LBB66
 4636 008c 06000000 		.4byte	.LBE66
 4637 0090 08000000 		.4byte	.LBB72
 4638 0094 0A000000 		.4byte	.LBE72
 4639 0098 0C000000 		.4byte	.LBB73
 4640 009c 0E000000 		.4byte	.LBE73
 4641 00a0 14000000 		.4byte	.LBB74
 4642 00a4 16000000 		.4byte	.LBE74
 4643 00a8 D6000000 		.4byte	.LBB100
 4644 00ac DA000000 		.4byte	.LBE100
 4645 00b0 00000000 		.4byte	0
 4646 00b4 00000000 		.4byte	0
 4647 00b8 2A000000 		.4byte	.LBB75
 4648 00bc 2C000000 		.4byte	.LBE75
 4649 00c0 2E000000 		.4byte	.LBB82
 4650 00c4 30000000 		.4byte	.LBE82
 4651 00c8 34000000 		.4byte	.LBB83
 4652 00cc 36000000 		.4byte	.LBE83
 4653 00d0 3A000000 		.4byte	.LBB84
 4654 00d4 4E000000 		.4byte	.LBE84
 4655 00d8 50000000 		.4byte	.LBB85
 4656 00dc 54000000 		.4byte	.LBE85
 4657 00e0 5A000000 		.4byte	.LBB86
 4658 00e4 5E000000 		.4byte	.LBE86
 4659 00e8 00000000 		.4byte	0
 4660 00ec 00000000 		.4byte	0
 4661 00f0 78000000 		.4byte	.LBB87
 4662 00f4 7A000000 		.4byte	.LBE87
 4663 00f8 7C000000 		.4byte	.LBB90
 4664 00fc 84000000 		.4byte	.LBE90
 4665 0100 00000000 		.4byte	0
 4666 0104 00000000 		.4byte	0
 4667 0108 A8000000 		.4byte	.LBB92
 4668 010c AC000000 		.4byte	.LBE92
 4669 0110 B0000000 		.4byte	.LBB97
 4670 0114 C4000000 		.4byte	.LBE97
ARM GAS  /tmp/ccUTqzHm.s 			page 83


 4671 0118 C8000000 		.4byte	.LBB98
 4672 011c CC000000 		.4byte	.LBE98
 4673 0120 D2000000 		.4byte	.LBB99
 4674 0124 D6000000 		.4byte	.LBE99
 4675 0128 00000000 		.4byte	0
 4676 012c 00000000 		.4byte	0
 4677 0130 E4000000 		.4byte	.LBB102
 4678 0134 E6000000 		.4byte	.LBE102
 4679 0138 E8000000 		.4byte	.LBB107
 4680 013c EA000000 		.4byte	.LBE107
 4681 0140 F4000000 		.4byte	.LBB108
 4682 0144 F6000000 		.4byte	.LBE108
 4683 0148 FA000000 		.4byte	.LBB109
 4684 014c 18010000 		.4byte	.LBE109
 4685 0150 00000000 		.4byte	0
 4686 0154 00000000 		.4byte	0
 4687 0158 00000000 		.4byte	.LFB219
 4688 015c 24000000 		.4byte	.LFE219
 4689 0160 00000000 		.4byte	.LFB209
 4690 0164 98000000 		.4byte	.LFE209
 4691 0168 00000000 		.4byte	.LFB210
 4692 016c 2C000000 		.4byte	.LFE210
 4693 0170 00000000 		.4byte	.LFB211
 4694 0174 16000000 		.4byte	.LFE211
 4695 0178 00000000 		.4byte	.LFB212
 4696 017c 5E000000 		.4byte	.LFE212
 4697 0180 00000000 		.4byte	.LFB213
 4698 0184 38000000 		.4byte	.LFE213
 4699 0188 00000000 		.4byte	.LFB214
 4700 018c 90000000 		.4byte	.LFE214
 4701 0190 00000000 		.4byte	.LFB215
 4702 0194 40000000 		.4byte	.LFE215
 4703 0198 00000000 		.4byte	.LFB218
 4704 019c 18010000 		.4byte	.LFE218
 4705 01a0 00000000 		.4byte	.LFB217
 4706 01a4 42000000 		.4byte	.LFE217
 4707 01a8 00000000 		.4byte	0
 4708 01ac 00000000 		.4byte	0
 4709              		.section	.debug_line,"",%progbits
 4710              	.Ldebug_line0:
 4711 0000 03050000 		.section	.debug_str,"MS",%progbits,1
 4711      0200C502 
 4711      00000201 
 4711      FB0E0D00 
 4711      01010101 
 4712              	.LASF54:
 4713 0000 72656164 		.ascii	"ready_list_t\000"
 4713      795F6C69 
 4713      73745F74 
 4713      00
 4714              	.LASF1:
 4715 000d 73697A65 		.ascii	"size_t\000"
 4715      5F7400
 4716              	.LASF91:
 4717 0014 7264796D 		.ascii	"rdymsg\000"
 4717      736700
 4718              	.LASF23:
ARM GAS  /tmp/ccUTqzHm.s 			page 84


 4719 001b 75696E74 		.ascii	"uint64_t\000"
 4719      36345F74 
 4719      00
 4720              	.LASF4:
 4721 0024 5F5F7569 		.ascii	"__uint8_t\000"
 4721      6E74385F 
 4721      7400
 4722              	.LASF88:
 4723 002e 706F7274 		.ascii	"port_intctx\000"
 4723      5F696E74 
 4723      63747800 
 4724              	.LASF71:
 4725 003a 73797374 		.ascii	"system_debug_t\000"
 4725      656D5F64 
 4725      65627567 
 4725      5F7400
 4726              	.LASF15:
 4727 0049 6C6F6E67 		.ascii	"long long unsigned int\000"
 4727      206C6F6E 
 4727      6720756E 
 4727      7369676E 
 4727      65642069 
 4728              	.LASF113:
 4729 0060 61646472 		.ascii	"addr\000"
 4729      00
 4730              	.LASF99:
 4731 0065 735F7175 		.ascii	"s_queue\000"
 4731      65756500 
 4732              	.LASF92:
 4733 006d 65786974 		.ascii	"exitcode\000"
 4733      636F6465 
 4733      00
 4734              	.LASF78:
 4735 0076 6D61696E 		.ascii	"mainthread\000"
 4735      74687265 
 4735      616400
 4736              	.LASF68:
 4737 0081 76697274 		.ascii	"virtual_timers_list_t\000"
 4737      75616C5F 
 4737      74696D65 
 4737      72735F6C 
 4737      6973745F 
 4738              	.LASF2:
 4739 0097 5F5F696E 		.ascii	"__int8_t\000"
 4739      74385F74 
 4739      00
 4740              	.LASF135:
 4741 00a0 49544D5F 		.ascii	"ITM_RxBuffer\000"
 4741      52784275 
 4741      66666572 
 4741      00
 4742              	.LASF53:
 4743 00ad 63685F74 		.ascii	"ch_threads_queue\000"
 4743      68726561 
 4743      64735F71 
 4743      75657565 
 4743      00
ARM GAS  /tmp/ccUTqzHm.s 			page 85


 4744              	.LASF36:
 4745 00be 705F7072 		.ascii	"p_prio\000"
 4745      696F00
 4746              	.LASF129:
 4747 00c5 666C6173 		.ascii	"flashWrite\000"
 4747      68577269 
 4747      746500
 4748              	.LASF13:
 4749 00d0 6C6F6E67 		.ascii	"long long int\000"
 4749      206C6F6E 
 4749      6720696E 
 4749      7400
 4750              	.LASF3:
 4751 00de 7369676E 		.ascii	"signed char\000"
 4751      65642063 
 4751      68617200 
 4752              	.LASF84:
 4753 00ea 464C4153 		.ascii	"FLASH_TypeDef\000"
 4753      485F5479 
 4753      70654465 
 4753      6600
 4754              	.LASF47:
 4755 00f8 705F6D70 		.ascii	"p_mpool\000"
 4755      6F6F6C00 
 4756              	.LASF107:
 4757 0100 626F6F6C 		.ascii	"bool_t\000"
 4757      5F7400
 4758              	.LASF102:
 4759 0107 6D5F7175 		.ascii	"m_queue\000"
 4759      65756500 
 4760              	.LASF124:
 4761 010f 6964656E 		.ascii	"identical\000"
 4761      74696361 
 4761      6C00
 4762              	.LASF136:
 4763 0119 474E5520 		.ascii	"GNU C 4.9.3 20150529 (release) [ARM/embedded-4_9-br"
 4763      4320342E 
 4763      392E3320 
 4763      32303135 
 4763      30353239 
 4764 014c 616E6368 		.ascii	"anch revision 224288] -mcpu=cortex-m3 -mno-thumb-in"
 4764      20726576 
 4764      6973696F 
 4764      6E203232 
 4764      34323838 
 4765 017f 74657277 		.ascii	"terwork -mthumb -ggdb -O2 -fomit-frame-pointer -fal"
 4765      6F726B20 
 4765      2D6D7468 
 4765      756D6220 
 4765      2D676764 
 4766 01b2 69676E2D 		.ascii	"ign-functions=16 -ffunction-sections -fdata-section"
 4766      66756E63 
 4766      74696F6E 
 4766      733D3136 
 4766      202D6666 
 4767 01e5 73202D66 		.ascii	"s -fno-common\000"
 4767      6E6F2D63 
ARM GAS  /tmp/ccUTqzHm.s 			page 86


 4767      6F6D6D6F 
 4767      6E00
 4768              	.LASF94:
 4769 01f3 77747472 		.ascii	"wttrp\000"
 4769      7000
 4770              	.LASF75:
 4771 01f9 63685F73 		.ascii	"ch_system\000"
 4771      79737465 
 4771      6D00
 4772              	.LASF10:
 4773 0203 6C6F6E67 		.ascii	"long int\000"
 4773      20696E74 
 4773      00
 4774              	.LASF26:
 4775 020c 74737461 		.ascii	"tstate_t\000"
 4775      74655F74 
 4775      00
 4776              	.LASF142:
 4777 0215 6D656D63 		.ascii	"memcpy\000"
 4777      707900
 4778              	.LASF81:
 4779 021c 4F50544B 		.ascii	"OPTKEYR\000"
 4779      45595200 
 4780              	.LASF20:
 4781 0224 75696E74 		.ascii	"uint16_t\000"
 4781      31365F74 
 4781      00
 4782              	.LASF120:
 4783 022d 666C6173 		.ascii	"flashPageRead\000"
 4783      68506167 
 4783      65526561 
 4783      6400
 4784              	.LASF119:
 4785 023b 62756666 		.ascii	"buffer\000"
 4785      657200
 4786              	.LASF139:
 4787 0242 666C6173 		.ascii	"flashUnlock\000"
 4787      68556E6C 
 4787      6F636B00 
 4788              	.LASF8:
 4789 024e 73686F72 		.ascii	"short unsigned int\000"
 4789      7420756E 
 4789      7369676E 
 4789      65642069 
 4789      6E7400
 4790              	.LASF11:
 4791 0261 5F5F7569 		.ascii	"__uint32_t\000"
 4791      6E743332 
 4791      5F7400
 4792              	.LASF85:
 4793 026c 72656761 		.ascii	"regarm_t\000"
 4793      726D5F74 
 4793      00
 4794              	.LASF64:
 4795 0275 76745F70 		.ascii	"vt_prev\000"
 4795      72657600 
 4796              	.LASF77:
ARM GAS  /tmp/ccUTqzHm.s 			page 87


 4797 027d 76746C69 		.ascii	"vtlist\000"
 4797      737400
 4798              	.LASF105:
 4799 0284 6D757465 		.ascii	"mutex_t\000"
 4799      785F7400 
 4800              	.LASF79:
 4801 028c 69646C65 		.ascii	"idle_thread_wa\000"
 4801      5F746872 
 4801      6561645F 
 4801      776100
 4802              	.LASF31:
 4803 029b 636E745F 		.ascii	"cnt_t\000"
 4803      7400
 4804              	.LASF0:
 4805 02a1 756E7369 		.ascii	"unsigned int\000"
 4805      676E6564 
 4805      20696E74 
 4805      00
 4806              	.LASF63:
 4807 02ae 76745F6E 		.ascii	"vt_next\000"
 4807      65787400 
 4808              	.LASF95:
 4809 02b6 77747365 		.ascii	"wtsemp\000"
 4809      6D7000
 4810              	.LASF42:
 4811 02bd 705F6D73 		.ascii	"p_msgqueue\000"
 4811      67717565 
 4811      756500
 4812              	.LASF116:
 4813 02c8 70616765 		.ascii	"page\000"
 4813      00
 4814              	.LASF100:
 4815 02cd 735F636E 		.ascii	"s_cnt\000"
 4815      7400
 4816              	.LASF118:
 4817 02d3 64617461 		.ascii	"data\000"
 4817      00
 4818              	.LASF128:
 4819 02d8 666C6173 		.ascii	"flashPageWriteIfNeeded\000"
 4819      68506167 
 4819      65577269 
 4819      74654966 
 4819      4E656564 
 4820              	.LASF50:
 4821 02ef 63685F74 		.ascii	"ch_thread\000"
 4821      68726561 
 4821      6400
 4822              	.LASF29:
 4823 02f9 6D73675F 		.ascii	"msg_t\000"
 4823      7400
 4824              	.LASF74:
 4825 02ff 63685F73 		.ascii	"ch_system_t\000"
 4825      79737465 
 4825      6D5F7400 
 4826              	.LASF138:
 4827 030b 2F686F6D 		.ascii	"/home/maciek/d/Gimbale/evvgcplusStorm32_highvoltage"
 4827      652F6D61 
ARM GAS  /tmp/ccUTqzHm.s 			page 88


 4827      6369656B 
 4827      2F642F47 
 4827      696D6261 
 4828 033e 2F457676 		.ascii	"/EvvGC-PLUS/Firmware/evvgc-plus\000"
 4828      47432D50 
 4828      4C55532F 
 4828      4669726D 
 4828      77617265 
 4829              	.LASF55:
 4830 035e 63685F72 		.ascii	"ch_ready_list\000"
 4830      65616479 
 4830      5F6C6973 
 4830      7400
 4831              	.LASF30:
 4832 036c 6576656E 		.ascii	"eventmask_t\000"
 4832      746D6173 
 4832      6B5F7400 
 4833              	.LASF9:
 4834 0378 5F5F696E 		.ascii	"__int32_t\000"
 4834      7433325F 
 4834      7400
 4835              	.LASF86:
 4836 0382 73746B61 		.ascii	"stkalign_t\000"
 4836      6C69676E 
 4836      5F7400
 4837              	.LASF110:
 4838 038d 666C6173 		.ascii	"flashaddr_t\000"
 4838      68616464 
 4838      725F7400 
 4839              	.LASF130:
 4840 0399 7372635F 		.ascii	"src_address\000"
 4840      61646472 
 4840      65737300 
 4841              	.LASF49:
 4842 03a5 74687265 		.ascii	"threads_list_t\000"
 4842      6164735F 
 4842      6C697374 
 4842      5F7400
 4843              	.LASF41:
 4844 03b4 705F7761 		.ascii	"p_waiting\000"
 4844      6974696E 
 4844      6700
 4845              	.LASF140:
 4846 03be 666C6173 		.ascii	"flashLock\000"
 4846      684C6F63 
 4846      6B00
 4847              	.LASF16:
 4848 03c8 73697A65 		.ascii	"sizetype\000"
 4848      74797065 
 4848      00
 4849              	.LASF48:
 4850 03d1 74687265 		.ascii	"thread_reference_t\000"
 4850      61645F72 
 4850      65666572 
 4850      656E6365 
 4850      5F7400
 4851              	.LASF69:
ARM GAS  /tmp/ccUTqzHm.s 			page 89


 4852 03e4 63685F76 		.ascii	"ch_virtual_timers_list\000"
 4852      69727475 
 4852      616C5F74 
 4852      696D6572 
 4852      735F6C69 
 4853              	.LASF117:
 4854 03fb 61646472 		.ascii	"address\000"
 4854      65737300 
 4855              	.LASF115:
 4856 0403 666C6173 		.ascii	"flashPageErase\000"
 4856      68506167 
 4856      65457261 
 4856      736500
 4857              	.LASF127:
 4858 0412 666C6173 		.ascii	"flashPageWrite\000"
 4858      68506167 
 4858      65577269 
 4858      746500
 4859              	.LASF114:
 4860 0421 666C6173 		.ascii	"flashPageCheckErased\000"
 4860      68506167 
 4860      65436865 
 4860      636B4572 
 4860      61736564 
 4861              	.LASF58:
 4862 0436 725F6374 		.ascii	"r_ctx\000"
 4862      7800
 4863              	.LASF90:
 4864 043c 746D5F63 		.ascii	"tm_calibration_t\000"
 4864      616C6962 
 4864      72617469 
 4864      6F6E5F74 
 4864      00
 4865              	.LASF109:
 4866 044d 666C6173 		.ascii	"flashdata_t\000"
 4866      68646174 
 4866      615F7400 
 4867              	.LASF108:
 4868 0459 666C6173 		.ascii	"flashpage_t\000"
 4868      68706167 
 4868      655F7400 
 4869              	.LASF59:
 4870 0465 725F6375 		.ascii	"r_current\000"
 4870      7272656E 
 4870      7400
 4871              	.LASF14:
 4872 046f 5F5F7569 		.ascii	"__uint64_t\000"
 4872      6E743634 
 4872      5F7400
 4873              	.LASF137:
 4874 047a 666C6173 		.ascii	"flash/flash.c\000"
 4874      682F666C 
 4874      6173682E 
 4874      6300
 4875              	.LASF111:
 4876 0488 73746172 		.ascii	"startAddress\000"
 4876      74416464 
ARM GAS  /tmp/ccUTqzHm.s 			page 90


 4876      72657373 
 4876      00
 4877              	.LASF27:
 4878 0495 74726566 		.ascii	"trefs_t\000"
 4878      735F7400 
 4879              	.LASF80:
 4880 049d 4B455952 		.ascii	"KEYR\000"
 4880      00
 4881              	.LASF61:
 4882 04a2 76697274 		.ascii	"virtual_timer_t\000"
 4882      75616C5F 
 4882      74696D65 
 4882      725F7400 
 4883              	.LASF35:
 4884 04b2 705F7072 		.ascii	"p_prev\000"
 4884      657600
 4885              	.LASF28:
 4886 04b9 74707269 		.ascii	"tprio_t\000"
 4886      6F5F7400 
 4887              	.LASF121:
 4888 04c1 666C6173 		.ascii	"flashCompare\000"
 4888      68436F6D 
 4888      70617265 
 4888      00
 4889              	.LASF72:
 4890 04ce 63685F73 		.ascii	"ch_system_debug\000"
 4890      79737465 
 4890      6D5F6465 
 4890      62756700 
 4891              	.LASF106:
 4892 04de 5F426F6F 		.ascii	"_Bool\000"
 4892      6C00
 4893              	.LASF21:
 4894 04e4 696E7433 		.ascii	"int32_t\000"
 4894      325F7400 
 4895              	.LASF5:
 4896 04ec 756E7369 		.ascii	"unsigned char\000"
 4896      676E6564 
 4896      20636861 
 4896      7200
 4897              	.LASF112:
 4898 04fa 73746F70 		.ascii	"stopAddress\000"
 4898      41646472 
 4898      65737300 
 4899              	.LASF45:
 4900 0506 705F6D74 		.ascii	"p_mtxlist\000"
 4900      786C6973 
 4900      7400
 4901              	.LASF6:
 4902 0510 73686F72 		.ascii	"short int\000"
 4902      7420696E 
 4902      7400
 4903              	.LASF38:
 4904 051a 705F7374 		.ascii	"p_state\000"
 4904      61746500 
 4905              	.LASF123:
 4906 0522 666C6173 		.ascii	"flashPageCompare\000"
ARM GAS  /tmp/ccUTqzHm.s 			page 91


 4906      68506167 
 4906      65436F6D 
 4906      70617265 
 4906      00
 4907              	.LASF57:
 4908 0533 725F7072 		.ascii	"r_prio\000"
 4908      696F00
 4909              	.LASF82:
 4910 053a 52455345 		.ascii	"RESERVED\000"
 4910      52564544 
 4910      00
 4911              	.LASF97:
 4912 0543 65776D61 		.ascii	"ewmask\000"
 4912      736B00
 4913              	.LASF34:
 4914 054a 705F6E65 		.ascii	"p_next\000"
 4914      787400
 4915              	.LASF39:
 4916 0551 705F666C 		.ascii	"p_flags\000"
 4916      61677300 
 4917              	.LASF141:
 4918 0559 666C6173 		.ascii	"flashWriteData\000"
 4918      68577269 
 4918      74654461 
 4918      746100
 4919              	.LASF125:
 4920 0568 70616765 		.ascii	"pageAddr\000"
 4920      41646472 
 4920      00
 4921              	.LASF98:
 4922 0571 63685F73 		.ascii	"ch_semaphore\000"
 4922      656D6170 
 4922      686F7265 
 4922      00
 4923              	.LASF44:
 4924 057e 705F6570 		.ascii	"p_epending\000"
 4924      656E6469 
 4924      6E6700
 4925              	.LASF22:
 4926 0589 75696E74 		.ascii	"uint32_t\000"
 4926      33325F74 
 4926      00
 4927              	.LASF96:
 4928 0592 77746D74 		.ascii	"wtmtxp\000"
 4928      787000
 4929              	.LASF56:
 4930 0599 725F7175 		.ascii	"r_queue\000"
 4930      65756500 
 4931              	.LASF65:
 4932 05a1 76745F64 		.ascii	"vt_delta\000"
 4932      656C7461 
 4932      00
 4933              	.LASF51:
 4934 05aa 63685F74 		.ascii	"ch_threads_list\000"
 4934      68726561 
 4934      64735F6C 
 4934      69737400 
ARM GAS  /tmp/ccUTqzHm.s 			page 92


 4935              	.LASF12:
 4936 05ba 6C6F6E67 		.ascii	"long unsigned int\000"
 4936      20756E73 
 4936      69676E65 
 4936      6420696E 
 4936      7400
 4937              	.LASF83:
 4938 05cc 57525052 		.ascii	"WRPR\000"
 4938      00
 4939              	.LASF17:
 4940 05d1 63686172 		.ascii	"char\000"
 4940      00
 4941              	.LASF7:
 4942 05d6 5F5F7569 		.ascii	"__uint16_t\000"
 4942      6E743136 
 4942      5F7400
 4943              	.LASF126:
 4944 05e1 62756666 		.ascii	"bufferAddr\000"
 4944      65724164 
 4944      647200
 4945              	.LASF33:
 4946 05ec 74687265 		.ascii	"thread_t\000"
 4946      61645F74 
 4946      00
 4947              	.LASF104:
 4948 05f5 6D5F6E65 		.ascii	"m_next\000"
 4948      787400
 4949              	.LASF32:
 4950 05fc 73797374 		.ascii	"systime_t\000"
 4950      696D655F 
 4950      7400
 4951              	.LASF46:
 4952 0606 705F7265 		.ascii	"p_realprio\000"
 4952      616C7072 
 4952      696F00
 4953              	.LASF60:
 4954 0611 76746675 		.ascii	"vtfunc_t\000"
 4954      6E635F74 
 4954      00
 4955              	.LASF73:
 4956 061a 70616E69 		.ascii	"panic_msg\000"
 4956      635F6D73 
 4956      6700
 4957              	.LASF89:
 4958 0624 6F666673 		.ascii	"offset\000"
 4958      657400
 4959              	.LASF87:
 4960 062b 636F6E74 		.ascii	"context\000"
 4960      65787400 
 4961              	.LASF62:
 4962 0633 63685F76 		.ascii	"ch_virtual_timer\000"
 4962      69727475 
 4962      616C5F74 
 4962      696D6572 
 4962      00
 4963              	.LASF24:
 4964 0644 7274636E 		.ascii	"rtcnt_t\000"
ARM GAS  /tmp/ccUTqzHm.s 			page 93


 4964      745F7400 
 4965              	.LASF18:
 4966 064c 696E7438 		.ascii	"int8_t\000"
 4966      5F7400
 4967              	.LASF131:
 4968 0653 616C6967 		.ascii	"alignOffset\000"
 4968      6E4F6666 
 4968      73657400 
 4969              	.LASF67:
 4970 065f 76745F70 		.ascii	"vt_par\000"
 4970      617200
 4971              	.LASF133:
 4972 0666 6368756E 		.ascii	"chunkSize\000"
 4972      6B53697A 
 4972      6500
 4973              	.LASF52:
 4974 0670 74687265 		.ascii	"threads_queue_t\000"
 4974      6164735F 
 4974      71756575 
 4974      655F7400 
 4975              	.LASF101:
 4976 0680 63685F6D 		.ascii	"ch_mutex\000"
 4976      75746578 
 4976      00
 4977              	.LASF40:
 4978 0689 705F7265 		.ascii	"p_refs\000"
 4978      667300
 4979              	.LASF132:
 4980 0690 616C6967 		.ascii	"alignedFlashAddress\000"
 4980      6E656446 
 4980      6C617368 
 4980      41646472 
 4980      65737300 
 4981              	.LASF76:
 4982 06a4 726C6973 		.ascii	"rlist\000"
 4982      7400
 4983              	.LASF19:
 4984 06aa 75696E74 		.ascii	"uint8_t\000"
 4984      385F7400 
 4985              	.LASF93:
 4986 06b2 77746F62 		.ascii	"wtobjp\000"
 4986      6A7000
 4987              	.LASF122:
 4988 06b9 73697A65 		.ascii	"size\000"
 4988      00
 4989              	.LASF70:
 4990 06be 76745F73 		.ascii	"vt_systime\000"
 4990      79737469 
 4990      6D6500
 4991              	.LASF25:
 4992 06c9 746D6F64 		.ascii	"tmode_t\000"
 4992      655F7400 
 4993              	.LASF43:
 4994 06d1 705F6D73 		.ascii	"p_msg\000"
 4994      6700
 4995              	.LASF103:
 4996 06d7 6D5F6F77 		.ascii	"m_owner\000"
ARM GAS  /tmp/ccUTqzHm.s 			page 94


 4996      6E657200 
 4997              	.LASF37:
 4998 06df 705F6374 		.ascii	"p_ctx\000"
 4998      7800
 4999              	.LASF66:
 5000 06e5 76745F66 		.ascii	"vt_func\000"
 5000      756E6300 
 5001              	.LASF134:
 5002 06ed 666C6173 		.ascii	"flashWriteIfNeeded\000"
 5002      68577269 
 5002      74654966 
 5002      4E656564 
 5002      656400
 5003              		.ident	"GCC: (GNU Tools for ARM Embedded Processors) 4.9.3 20150529 (release) [ARM/embedded-4_9-br
ARM GAS  /tmp/ccUTqzHm.s 			page 95


DEFINED SYMBOLS
                            *ABS*:00000000 flash.c
     /tmp/ccUTqzHm.s:19     .text.flashUnlock.part.0:00000000 $t
     /tmp/ccUTqzHm.s:24     .text.flashUnlock.part.0:00000000 flashUnlock.part.0
     /tmp/ccUTqzHm.s:50     .text.flashUnlock.part.0:00000018 $d
     /tmp/ccUTqzHm.s:57     .text.flashPageErase:00000000 $t
     /tmp/ccUTqzHm.s:63     .text.flashPageErase:00000000 flashPageErase
     /tmp/ccUTqzHm.s:221    .text.flashPageErase:0000008c $d
     /tmp/ccUTqzHm.s:228    .text.flashPageCheckErased:00000000 $t
     /tmp/ccUTqzHm.s:234    .text.flashPageCheckErased:00000000 flashPageCheckErased
     /tmp/ccUTqzHm.s:287    .text.flashPageRead:00000000 $t
     /tmp/ccUTqzHm.s:293    .text.flashPageRead:00000000 flashPageRead
     /tmp/ccUTqzHm.s:320    .text.flashCompare:00000000 $t
     /tmp/ccUTqzHm.s:326    .text.flashCompare:00000000 flashCompare
     /tmp/ccUTqzHm.s:435    .text.flashPageCompare:00000000 $t
     /tmp/ccUTqzHm.s:441    .text.flashPageCompare:00000000 flashPageCompare
     /tmp/ccUTqzHm.s:508    .text.flashPageWrite:00000000 $t
     /tmp/ccUTqzHm.s:514    .text.flashPageWrite:00000000 flashPageWrite
     /tmp/ccUTqzHm.s:647    .text.flashPageWrite:0000008c $d
     /tmp/ccUTqzHm.s:652    .text.flashPageWriteIfNeeded:00000000 $t
     /tmp/ccUTqzHm.s:658    .text.flashPageWriteIfNeeded:00000000 flashPageWriteIfNeeded
     /tmp/ccUTqzHm.s:728    .text.flashPageWriteIfNeeded:0000003c $d
     /tmp/ccUTqzHm.s:733    .text.flashWrite:00000000 $t
     /tmp/ccUTqzHm.s:739    .text.flashWrite:00000000 flashWrite
     /tmp/ccUTqzHm.s:1052   .text.flashWrite:00000114 $d
     /tmp/ccUTqzHm.s:1060   .text.flashWriteIfNeeded:00000000 $t
     /tmp/ccUTqzHm.s:1066   .text.flashWriteIfNeeded:00000000 flashWriteIfNeeded
                     .debug_frame:00000010 $d

UNDEFINED SYMBOLS
memcpy
