ARM GAS  /tmp/ccUTqzHm.s 			page 1


   1              		.syntax unified
   2              		.cpu cortex-m3
   3              		.fpu softvfp
   4              		.eabi_attribute 20, 1
   5              		.eabi_attribute 21, 1
   6              		.eabi_attribute 23, 3
   7              		.eabi_attribute 24, 1
   8              		.eabi_attribute 25, 1
   9              		.eabi_attribute 26, 1
  10              		.eabi_attribute 30, 2
  11              		.eabi_attribute 34, 1
  12              		.eabi_attribute 18, 4
  13              		.thumb
  14              		.file	"flash.c"
  15              		.text
  16              	.Ltext0:
  17              		.cfi_sections	.debug_frame
  18              		.section	.text.flashUnlock.part.0,"ax",%progbits
  19              		.align	2
  20              		.p2align 4,,15
  21              		.thumb
  22              		.thumb_func
  23              		.type	flashUnlock.part.0, %function
  24              	flashUnlock.part.0:
  25              	.LFB219:
  26              		.file 1 "flash/flash.c"
  27              		.loc 1 15 0
  28              		.cfi_startproc
  29              		@ args = 0, pretend = 0, frame = 0
  30              		@ frame_needed = 0, uses_anonymous_args = 0
  31              		@ link register save eliminated.
  32              		.loc 1 21 0
  33 0000 054B     		ldr	r3, .L2
  34 0002 0649     		ldr	r1, .L2+4
  35              		.loc 1 22 0
  36 0004 064A     		ldr	r2, .L2+8
  37              		.loc 1 21 0
  38 0006 5960     		str	r1, [r3, #4]
  39              		.loc 1 22 0
  40 0008 5A60     		str	r2, [r3, #4]
  41              		.loc 1 24 0
  42 000a 1869     		ldr	r0, [r3, #16]
  43 000c 80F08000 		eor	r0, r0, #128
  44              		.loc 1 28 0
  45 0010 C0F3C010 		ubfx	r0, r0, #7, #1
  46 0014 7047     		bx	lr
  47              	.L3:
  48 0016 00BF     		.align	2
  49              	.L2:
  50 0018 00200240 		.word	1073881088
  51 001c 23016745 		.word	1164378403
  52 0020 AB89EFCD 		.word	-839939669
  53              		.cfi_endproc
  54              	.LFE219:
  55              		.size	flashUnlock.part.0, .-flashUnlock.part.0
  56              		.section	.text.flashPageErase,"ax",%progbits
  57              		.align	2
ARM GAS  /tmp/ccUTqzHm.s 			page 2


  58              		.p2align 4,,15
  59              		.global	flashPageErase
  60              		.thumb
  61              		.thumb_func
  62              		.type	flashPageErase, %function
  63              	flashPageErase:
  64              	.LFB209:
  65              		.loc 1 38 0
  66              		.cfi_startproc
  67              		@ args = 0, pretend = 0, frame = 0
  68              		@ frame_needed = 0, uses_anonymous_args = 0
  69              	.LVL0:
  70              		.loc 1 41 0
  71 0000 224B     		ldr	r3, .L27
  72              		.loc 1 38 0
  73 0002 70B5     		push	{r4, r5, r6, lr}
  74              		.cfi_def_cfa_offset 16
  75              		.cfi_offset 4, -16
  76              		.cfi_offset 5, -12
  77              		.cfi_offset 6, -8
  78              		.cfi_offset 14, -4
  79              		.loc 1 41 0
  80 0004 0344     		add	r3, r3, r0
  81 0006 DE02     		lsls	r6, r3, #11
  82 0008 B6F5C05F 		cmp	r6, #6144
  83 000c 3BD2     		bcs	.L8
  84              	.LBB40:
  85              	.LBB41:
  86              		.loc 1 17 0
  87 000e 204B     		ldr	r3, .L27+4
  88 0010 0446     		mov	r4, r0
  89 0012 1B69     		ldr	r3, [r3, #16]
  90 0014 1A06     		lsls	r2, r3, #24
  91 0016 32D4     		bmi	.L26
  92              	.LVL1:
  93              	.L9:
  94              	.LBE41:
  95              	.LBE40:
  96              	.LBB43:
  97              	.LBB44:
  98              		.loc 1 49 0
  99 0018 1D49     		ldr	r1, .L27+4
 100              	.L19:
 101 001a CB68     		ldr	r3, [r1, #12]
 102 001c 1C4A     		ldr	r2, .L27+4
 103 001e DB07     		lsls	r3, r3, #31
 104 0020 FBD4     		bmi	.L19
 105              		.loc 1 57 0
 106 0022 1146     		mov	r1, r2
 107              		.loc 1 52 0
 108 0024 1369     		ldr	r3, [r2, #16]
 109              		.loc 1 53 0
 110 0026 06F10065 		add	r5, r6, #134217728
 111              		.loc 1 52 0
 112 002a 43F00203 		orr	r3, r3, #2
 113              		.loc 1 53 0
 114 002e 05F57A35 		add	r5, r5, #256000
ARM GAS  /tmp/ccUTqzHm.s 			page 3


 115              		.loc 1 52 0
 116 0032 1361     		str	r3, [r2, #16]
 117              		.loc 1 53 0
 118 0034 5561     		str	r5, [r2, #20]
 119              		.loc 1 54 0
 120 0036 1369     		ldr	r3, [r2, #16]
 121 0038 43F04003 		orr	r3, r3, #64
 122 003c 1361     		str	r3, [r2, #16]
 123              	.L10:
 124              		.loc 1 57 0
 125 003e CB68     		ldr	r3, [r1, #12]
 126 0040 134A     		ldr	r2, .L27+4
 127 0042 13F00103 		ands	r3, r3, #1
 128 0046 FAD1     		bne	.L10
 129              		.loc 1 60 0
 130 0048 1169     		ldr	r1, [r2, #16]
 131 004a 1361     		str	r3, [r2, #16]
 132              	.LBB45:
 133              	.LBB46:
 134              		.loc 1 34 0
 135 004c 1369     		ldr	r3, [r2, #16]
 136              	.LBE46:
 137              	.LBE45:
 138              	.LBB49:
 139              	.LBB50:
 140              		.loc 1 75 0
 141 004e 04F10820 		add	r0, r4, #134219776
 142              	.LBE50:
 143              	.LBE49:
 144              	.LBB53:
 145              	.LBB47:
 146              		.loc 1 34 0
 147 0052 43F08003 		orr	r3, r3, #128
 148              	.LBE47:
 149              	.LBE53:
 150              	.LBB54:
 151              	.LBB51:
 152              		.loc 1 80 0
 153 0056 8542     		cmp	r5, r0
 154              	.LBE51:
 155              	.LBE54:
 156              	.LBB55:
 157              	.LBB48:
 158              		.loc 1 34 0
 159 0058 1361     		str	r3, [r2, #16]
 160              	.LVL2:
 161              	.LBE48:
 162              	.LBE55:
 163              	.LBB56:
 164              	.LBB52:
 165              		.loc 1 80 0
 166 005a 0BD2     		bcs	.L14
 167              		.loc 1 81 0
 168 005c 2B68     		ldr	r3, [r5]
 169 005e 0133     		adds	r3, r3, #1
 170 0060 0AD1     		bne	.L16
 171 0062 0C4B     		ldr	r3, .L27+8
ARM GAS  /tmp/ccUTqzHm.s 			page 4


 172 0064 3344     		add	r3, r3, r6
 173 0066 03E0     		b	.L11
 174              	.LVL3:
 175              	.L12:
 176 0068 53F8042B 		ldr	r2, [r3], #4
 177              	.LVL4:
 178 006c 0132     		adds	r2, r2, #1
 179 006e 03D1     		bne	.L16
 180              	.LVL5:
 181              	.L11:
 182              		.loc 1 80 0
 183 0070 9842     		cmp	r0, r3
 184 0072 F9D8     		bhi	.L12
 185              	.LVL6:
 186              	.L14:
 187              	.LBE52:
 188              	.LBE56:
 189              		.loc 1 70 0
 190 0074 0120     		movs	r0, #1
 191              	.LVL7:
 192 0076 70BD     		pop	{r4, r5, r6, pc}
 193              	.LVL8:
 194              	.L16:
 195              		.loc 1 67 0
 196 0078 6FF00A00 		mvn	r0, #10
 197              	.LVL9:
 198              	.LBE44:
 199              	.LBE43:
 200              		.loc 1 71 0
 201 007c 70BD     		pop	{r4, r5, r6, pc}
 202              	.LVL10:
 203              	.L26:
 204              	.LBB57:
 205              	.LBB42:
 206 007e FFF7FEFF 		bl	flashUnlock.part.0
 207              	.LVL11:
 208              	.LBE42:
 209              	.LBE57:
 210              		.loc 1 45 0
 211 0082 0028     		cmp	r0, #0
 212 0084 C8D1     		bne	.L9
 213              	.LVL12:
 214              	.L8:
 215              		.loc 1 42 0
 216 0086 4FF0FF30 		mov	r0, #-1
 217 008a 70BD     		pop	{r4, r5, r6, pc}
 218              	.L28:
 219              		.align	2
 220              	.L27:
 221 008c 83FF1F00 		.word	2097027
 222 0090 00200240 		.word	1073881088
 223 0094 04E80308 		.word	134473732
 224              		.cfi_endproc
 225              	.LFE209:
 226              		.size	flashPageErase, .-flashPageErase
 227              		.section	.text.flashPageCheckErased,"ax",%progbits
 228              		.align	2
ARM GAS  /tmp/ccUTqzHm.s 			page 5


 229              		.p2align 4,,15
 230              		.global	flashPageCheckErased
 231              		.thumb
 232              		.thumb_func
 233              		.type	flashPageCheckErased, %function
 234              	flashPageCheckErased:
 235              	.LFB210:
 236              		.loc 1 73 0
 237              		.cfi_startproc
 238              		@ args = 0, pretend = 0, frame = 0
 239              		@ frame_needed = 0, uses_anonymous_args = 0
 240              		@ link register save eliminated.
 241              	.LVL13:
 242              		.loc 1 74 0
 243 0000 00F58033 		add	r3, r0, #65536
 244 0004 DB02     		lsls	r3, r3, #11
 245              	.LVL14:
 246              		.loc 1 75 0
 247 0006 00F10820 		add	r0, r0, #134219776
 248              	.LVL15:
 249              		.loc 1 80 0
 250 000a 8342     		cmp	r3, r0
 251 000c 0AD2     		bcs	.L33
 252              		.loc 1 81 0
 253 000e 1A68     		ldr	r2, [r3]
 254 0010 0132     		adds	r2, r2, #1
 255 0012 09D1     		bne	.L35
 256 0014 0433     		adds	r3, r3, #4
 257              	.LVL16:
 258 0016 03E0     		b	.L31
 259              	.LVL17:
 260              	.L32:
 261 0018 53F8042B 		ldr	r2, [r3], #4
 262              	.LVL18:
 263 001c 0132     		adds	r2, r2, #1
 264 001e 03D1     		bne	.L35
 265              	.LVL19:
 266              	.L31:
 267              		.loc 1 80 0 discriminator 2
 268 0020 9842     		cmp	r0, r3
 269 0022 F9D8     		bhi	.L32
 270              	.LVL20:
 271              	.L33:
 272              		.loc 1 86 0
 273 0024 0120     		movs	r0, #1
 274              	.LVL21:
 275 0026 7047     		bx	lr
 276              	.LVL22:
 277              	.L35:
 278              		.loc 1 82 0
 279 0028 0020     		movs	r0, #0
 280              	.LVL23:
 281              		.loc 1 87 0
 282 002a 7047     		bx	lr
 283              		.cfi_endproc
 284              	.LFE210:
 285              		.size	flashPageCheckErased, .-flashPageCheckErased
ARM GAS  /tmp/ccUTqzHm.s 			page 6


 286              		.section	.text.flashPageRead,"ax",%progbits
 287              		.align	2
 288              		.p2align 4,,15
 289              		.global	flashPageRead
 290              		.thumb
 291              		.thumb_func
 292              		.type	flashPageRead, %function
 293              	flashPageRead:
 294              	.LFB211:
 295              		.loc 1 90 0
 296              		.cfi_startproc
 297              		@ args = 0, pretend = 0, frame = 0
 298              		@ frame_needed = 0, uses_anonymous_args = 0
 299              	.LVL24:
 300 0000 08B5     		push	{r3, lr}
 301              		.cfi_def_cfa_offset 8
 302              		.cfi_offset 3, -8
 303              		.cfi_offset 14, -4
 304              		.loc 1 91 0
 305 0002 00F58033 		add	r3, r0, #65536
 306 0006 4FF40062 		mov	r2, #2048
 307 000a 0846     		mov	r0, r1
 308              	.LVL25:
 309 000c D902     		lsls	r1, r3, #11
 310              	.LVL26:
 311 000e FFF7FEFF 		bl	memcpy
 312              	.LVL27:
 313              		.loc 1 93 0
 314 0012 0120     		movs	r0, #1
 315 0014 08BD     		pop	{r3, pc}
 316              		.cfi_endproc
 317              	.LFE211:
 318              		.size	flashPageRead, .-flashPageRead
 319 0016 00BF     		.section	.text.flashCompare,"ax",%progbits
 320              		.align	2
 321              		.p2align 4,,15
 322              		.global	flashCompare
 323              		.thumb
 324              		.thumb_func
 325              		.type	flashCompare, %function
 326              	flashCompare:
 327              	.LFB212:
 328              		.loc 1 97 0
 329              		.cfi_startproc
 330              		@ args = 0, pretend = 0, frame = 0
 331              		@ frame_needed = 0, uses_anonymous_args = 0
 332              		@ link register save eliminated.
 333              	.LVL28:
 334 0000 30B4     		push	{r4, r5}
 335              		.cfi_def_cfa_offset 8
 336              		.cfi_offset 4, -8
 337              		.cfi_offset 5, -4
 338              		.loc 1 99 0
 339 0002 0123     		movs	r3, #1
 340              		.loc 1 109 0
 341 0004 4FF6FF75 		movw	r5, #65535
 342              		.loc 1 100 0
ARM GAS  /tmp/ccUTqzHm.s 			page 7


 343 0008 06E0     		b	.L39
 344              	.LVL29:
 345              	.L43:
 346              		.loc 1 109 0
 347 000a 0388     		ldrh	r3, [r0]
 348 000c 9BB2     		uxth	r3, r3
 349 000e AB42     		cmp	r3, r5
 350 0010 13D1     		bne	.L48
 351              	.LVL30:
 352              	.L57:
 353              		.loc 1 112 0
 354 0012 0230     		adds	r0, r0, #2
 355              	.LVL31:
 356              		.loc 1 114 0
 357 0014 023A     		subs	r2, r2, #2
 358              	.LVL32:
 359 0016 0023     		movs	r3, #0
 360              	.LVL33:
 361              	.L39:
 362              		.loc 1 100 0
 363 0018 012A     		cmp	r2, #1
 364 001a 11D9     		bls	.L42
 365              		.loc 1 102 0
 366 001c 0388     		ldrh	r3, [r0]
 367 001e 0C88     		ldrh	r4, [r1]
 368 0020 9BB2     		uxth	r3, r3
 369 0022 9C42     		cmp	r4, r3
 370 0024 01F10201 		add	r1, r1, #2
 371              	.LVL34:
 372 0028 EFD1     		bne	.L43
 373              	.LVL35:
 374              	.L51:
 375 002a 0488     		ldrh	r4, [r0]
 376 002c A4B2     		uxth	r4, r4
 377 002e 9C42     		cmp	r4, r3
 378 0030 FBD0     		beq	.L51
 379              	.LVL36:
 380              		.loc 1 109 0
 381 0032 0388     		ldrh	r3, [r0]
 382 0034 9BB2     		uxth	r3, r3
 383 0036 AB42     		cmp	r3, r5
 384 0038 EBD0     		beq	.L57
 385              	.L48:
 386              		.loc 1 110 0
 387 003a 0220     		movs	r0, #2
 388              	.LVL37:
 389              		.loc 1 140 0
 390 003c 30BC     		pop	{r4, r5}
 391              		.cfi_remember_state
 392              		.cfi_restore 4
 393              		.cfi_restore 5
 394              		.cfi_def_cfa_offset 0
 395 003e 7047     		bx	lr
 396              	.LVL38:
 397              	.L42:
 398              		.cfi_restore_state
 399              		.loc 1 117 0
ARM GAS  /tmp/ccUTqzHm.s 			page 8


 400 0040 52B1     		cbz	r2, .L58
 401              		.loc 1 120 0
 402 0042 0A78     		ldrb	r2, [r1]	@ zero_extendqisi2
 403              	.LVL39:
 404              	.L55:
 405 0044 0378     		ldrb	r3, [r0]	@ zero_extendqisi2
 406 0046 9342     		cmp	r3, r2
 407 0048 FCD1     		bne	.L55
 408              	.LVL40:
 409              		.loc 1 127 0
 410 004a 0378     		ldrb	r3, [r0]	@ zero_extendqisi2
 411 004c FF2B     		cmp	r3, #255
 412 004e 14BF     		ite	ne
 413 0050 0220     		movne	r0, #2
 414              	.LVL41:
 415 0052 0120     		moveq	r0, #1
 416              	.LVL42:
 417              	.L41:
 418              		.loc 1 140 0
 419 0054 30BC     		pop	{r4, r5}
 420              		.cfi_remember_state
 421              		.cfi_restore 5
 422              		.cfi_restore 4
 423              		.cfi_def_cfa_offset 0
 424 0056 7047     		bx	lr
 425              	.LVL43:
 426              	.L58:
 427              		.cfi_restore_state
 428 0058 83F00100 		eor	r0, r3, #1
 429              	.LVL44:
 430 005c FAE7     		b	.L41
 431              		.cfi_endproc
 432              	.LFE212:
 433              		.size	flashCompare, .-flashCompare
 434 005e 00BF     		.section	.text.flashPageCompare,"ax",%progbits
 435              		.align	2
 436              		.p2align 4,,15
 437              		.global	flashPageCompare
 438              		.thumb
 439              		.thumb_func
 440              		.type	flashPageCompare, %function
 441              	flashPageCompare:
 442              	.LFB213:
 443              		.loc 1 142 0
 444              		.cfi_startproc
 445              		@ args = 0, pretend = 0, frame = 0
 446              		@ frame_needed = 0, uses_anonymous_args = 0
 447              		@ link register save eliminated.
 448              	.LVL45:
 449              		.loc 1 143 0
 450 0000 00F58030 		add	r0, r0, #65536
 451              	.LVL46:
 452              		.loc 1 142 0
 453 0004 30B4     		push	{r4, r5}
 454              		.cfi_def_cfa_offset 8
 455              		.cfi_offset 4, -8
 456              		.cfi_offset 5, -4
ARM GAS  /tmp/ccUTqzHm.s 			page 9


 457              		.loc 1 143 0
 458 0006 C402     		lsls	r4, r0, #11
 459              	.LVL47:
 460 0008 231F     		subs	r3, r4, #4
 461 000a 0439     		subs	r1, r1, #4
 462              	.LVL48:
 463 000c 04F2FC74 		addw	r4, r4, #2044
 464              	.LVL49:
 465              		.loc 1 147 0
 466 0010 0125     		movs	r5, #1
 467 0012 02E0     		b	.L62
 468              	.LVL50:
 469              	.L67:
 470 0014 0025     		movs	r5, #0
 471              	.L60:
 472              		.loc 1 149 0 discriminator 2
 473 0016 A342     		cmp	r3, r4
 474 0018 0AD0     		beq	.L66
 475              	.L62:
 476              		.loc 1 151 0
 477 001a 53F8042F 		ldr	r2, [r3, #4]!
 478 001e 51F8040F 		ldr	r0, [r1, #4]!
 479 0022 8242     		cmp	r2, r0
 480 0024 F7D0     		beq	.L60
 481              		.loc 1 161 0
 482 0026 0132     		adds	r2, r2, #1
 483 0028 F4D0     		beq	.L67
 484              		.loc 1 162 0
 485 002a 0220     		movs	r0, #2
 486              		.loc 1 171 0
 487 002c 30BC     		pop	{r4, r5}
 488              		.cfi_remember_state
 489              		.cfi_restore 5
 490              		.cfi_restore 4
 491              		.cfi_def_cfa_offset 0
 492              	.LVL51:
 493 002e 7047     		bx	lr
 494              	.L66:
 495              		.cfi_restore_state
 496              		.loc 1 162 0
 497 0030 85F00100 		eor	r0, r5, #1
 498              		.loc 1 171 0
 499 0034 30BC     		pop	{r4, r5}
 500              		.cfi_restore 4
 501              		.cfi_restore 5
 502              		.cfi_def_cfa_offset 0
 503 0036 7047     		bx	lr
 504              		.cfi_endproc
 505              	.LFE213:
 506              		.size	flashPageCompare, .-flashPageCompare
 507              		.section	.text.flashPageWrite,"ax",%progbits
 508              		.align	2
 509              		.p2align 4,,15
 510              		.global	flashPageWrite
 511              		.thumb
 512              		.thumb_func
 513              		.type	flashPageWrite, %function
ARM GAS  /tmp/ccUTqzHm.s 			page 10


 514              	flashPageWrite:
 515              	.LFB214:
 516              		.loc 1 174 0
 517              		.cfi_startproc
 518              		@ args = 0, pretend = 0, frame = 0
 519              		@ frame_needed = 0, uses_anonymous_args = 0
 520              	.LVL52:
 521              		.loc 1 176 0
 522 0000 00F58030 		add	r0, r0, #65536
 523              	.LVL53:
 524              		.loc 1 174 0
 525 0004 F8B5     		push	{r3, r4, r5, r6, r7, lr}
 526              		.cfi_def_cfa_offset 24
 527              		.cfi_offset 3, -24
 528              		.cfi_offset 4, -20
 529              		.cfi_offset 5, -16
 530              		.cfi_offset 6, -12
 531              		.cfi_offset 7, -8
 532              		.cfi_offset 14, -4
 533              		.loc 1 176 0
 534 0006 C502     		lsls	r5, r0, #11
 535              	.LVL54:
 536              		.loc 1 179 0
 537 0008 05F17843 		add	r3, r5, #-134217728
 538 000c A3F57A33 		sub	r3, r3, #256000
 539 0010 B3F5C05F 		cmp	r3, #6144
 540 0014 37D2     		bcs	.L72
 541              	.LBB58:
 542              	.LBB59:
 543              		.loc 1 17 0
 544 0016 1D4B     		ldr	r3, .L88
 545 0018 0F46     		mov	r7, r1
 546 001a 1B69     		ldr	r3, [r3, #16]
 547 001c 1A06     		lsls	r2, r3, #24
 548 001e 2ED4     		bmi	.L87
 549              	.LVL55:
 550              	.L73:
 551              	.LBE59:
 552              	.LBE58:
 553              		.loc 1 188 0 discriminator 1
 554 0020 1A4A     		ldr	r2, .L88
 555              	.L80:
 556 0022 D368     		ldr	r3, [r2, #12]
 557 0024 DB07     		lsls	r3, r3, #31
 558 0026 FCD4     		bmi	.L80
 559              		.loc 1 193 0
 560 0028 184A     		ldr	r2, .L88
 561              		.loc 1 188 0
 562 002a 3846     		mov	r0, r7
 563              		.loc 1 199 0
 564 002c 1646     		mov	r6, r2
 565 002e ED1B     		subs	r5, r5, r7
 566              	.LVL56:
 567 0030 07F50067 		add	r7, r7, #2048
 568              	.LVL57:
 569              	.L75:
 570 0034 8646     		mov	lr, r0
ARM GAS  /tmp/ccUTqzHm.s 			page 11


 571              		.loc 1 193 0
 572 0036 1369     		ldr	r3, [r2, #16]
 573              		.loc 1 196 0
 574 0038 0188     		ldrh	r1, [r0]
 575              		.loc 1 193 0
 576 003a 43F00103 		orr	r3, r3, #1
 577 003e 1361     		str	r3, [r2, #16]
 578 0040 05EB000C 		add	ip, r5, r0
 579              		.loc 1 196 0
 580 0044 2952     		strh	r1, [r5, r0]	@ movhi
 581              	.L74:
 582              		.loc 1 199 0 discriminator 1
 583 0046 D368     		ldr	r3, [r2, #12]
 584 0048 1049     		ldr	r1, .L88
 585 004a 13F00103 		ands	r3, r3, #1
 586 004e FAD1     		bne	.L74
 587              		.loc 1 202 0
 588 0050 3469     		ldr	r4, [r6, #16]
 589              		.loc 1 206 0
 590 0052 BEF800E0 		ldrh	lr, [lr]
 591              		.loc 1 202 0
 592 0056 24F00104 		bic	r4, r4, #1
 593 005a 3461     		str	r4, [r6, #16]
 594              		.loc 1 206 0
 595 005c BCF80040 		ldrh	r4, [ip]
 596 0060 0230     		adds	r0, r0, #2
 597 0062 A4B2     		uxth	r4, r4
 598 0064 A645     		cmp	lr, r4
 599 0066 07D1     		bne	.L77
 600              	.LVL58:
 601              		.loc 1 190 0 discriminator 2
 602 0068 B842     		cmp	r0, r7
 603 006a E3D1     		bne	.L75
 604              	.LBB61:
 605              	.LBB62:
 606              		.loc 1 34 0
 607 006c 0A69     		ldr	r2, [r1, #16]
 608              	.LBE62:
 609              	.LBE61:
 610              		.loc 1 212 0
 611 006e 1846     		mov	r0, r3
 612              	.LBB64:
 613              	.LBB63:
 614              		.loc 1 34 0
 615 0070 42F08003 		orr	r3, r2, #128
 616 0074 0B61     		str	r3, [r1, #16]
 617              	.LBE63:
 618              	.LBE64:
 619              		.loc 1 212 0
 620 0076 F8BD     		pop	{r3, r4, r5, r6, r7, pc}
 621              	.LVL59:
 622              	.L77:
 623              		.loc 1 207 0
 624 0078 6FF00A00 		mvn	r0, #10
 625              		.loc 1 213 0
 626 007c F8BD     		pop	{r3, r4, r5, r6, r7, pc}
 627              	.LVL60:
ARM GAS  /tmp/ccUTqzHm.s 			page 12


 628              	.L87:
 629              	.LBB65:
 630              	.LBB60:
 631 007e FFF7FEFF 		bl	flashUnlock.part.0
 632              	.LVL61:
 633              	.LBE60:
 634              	.LBE65:
 635              		.loc 1 185 0
 636 0082 0028     		cmp	r0, #0
 637 0084 CCD1     		bne	.L73
 638              	.LVL62:
 639              	.L72:
 640              		.loc 1 180 0
 641 0086 4FF0FF30 		mov	r0, #-1
 642 008a F8BD     		pop	{r3, r4, r5, r6, r7, pc}
 643              	.LVL63:
 644              	.L89:
 645              		.align	2
 646              	.L88:
 647 008c 00200240 		.word	1073881088
 648              		.cfi_endproc
 649              	.LFE214:
 650              		.size	flashPageWrite, .-flashPageWrite
 651              		.section	.text.flashPageWriteIfNeeded,"ax",%progbits
 652              		.align	2
 653              		.p2align 4,,15
 654              		.global	flashPageWriteIfNeeded
 655              		.thumb
 656              		.thumb_func
 657              		.type	flashPageWriteIfNeeded, %function
 658              	flashPageWriteIfNeeded:
 659              	.LFB215:
 660              		.loc 1 216 0
 661              		.cfi_startproc
 662              		@ args = 0, pretend = 0, frame = 0
 663              		@ frame_needed = 0, uses_anonymous_args = 0
 664              	.LVL64:
 665 0000 38B5     		push	{r3, r4, r5, lr}
 666              		.cfi_def_cfa_offset 16
 667              		.cfi_offset 3, -16
 668              		.cfi_offset 4, -12
 669              		.cfi_offset 5, -8
 670              		.cfi_offset 14, -4
 671              		.loc 1 220 0
 672 0002 0E4B     		ldr	r3, .L100
 673 0004 0344     		add	r3, r3, r0
 674 0006 DB02     		lsls	r3, r3, #11
 675 0008 B3F5C05F 		cmp	r3, #6144
 676 000c 0DD2     		bcs	.L94
 677 000e 0D46     		mov	r5, r1
 678 0010 0446     		mov	r4, r0
 679              		.loc 1 223 0
 680 0012 FFF7FEFF 		bl	flashPageCompare
 681              	.LVL65:
 682              		.loc 1 226 0
 683 0016 0028     		cmp	r0, #0
 684 0018 09DD     		ble	.L91
ARM GAS  /tmp/ccUTqzHm.s 			page 13


 685              		.loc 1 230 0
 686 001a 0228     		cmp	r0, #2
 687 001c 08D0     		beq	.L92
 688              	.L93:
 689              		.loc 1 238 0
 690 001e 2046     		mov	r0, r4
 691              	.LVL66:
 692 0020 2946     		mov	r1, r5
 693              		.loc 1 241 0
 694 0022 BDE83840 		pop	{r3, r4, r5, lr}
 695              		.cfi_remember_state
 696              		.cfi_restore 14
 697              		.cfi_restore 5
 698              		.cfi_restore 4
 699              		.cfi_restore 3
 700              		.cfi_def_cfa_offset 0
 701              	.LVL67:
 702              		.loc 1 238 0
 703 0026 FFF7FEBF 		b	flashPageWrite
 704              	.LVL68:
 705              	.L94:
 706              		.cfi_restore_state
 707              		.loc 1 221 0
 708 002a 4FF0FF30 		mov	r0, #-1
 709              	.LVL69:
 710              	.L91:
 711              		.loc 1 241 0
 712 002e 38BD     		pop	{r3, r4, r5, pc}
 713              	.LVL70:
 714              	.L92:
 715              		.loc 1 231 0
 716 0030 2046     		mov	r0, r4
 717              	.LVL71:
 718 0032 FFF7FEFF 		bl	flashPageErase
 719              	.LVL72:
 720              		.loc 1 234 0
 721 0036 0128     		cmp	r0, #1
 722 0038 F1D0     		beq	.L93
 723 003a 38BD     		pop	{r3, r4, r5, pc}
 724              	.LVL73:
 725              	.L101:
 726              		.align	2
 727              	.L100:
 728 003c 83FF1F00 		.word	2097027
 729              		.cfi_endproc
 730              	.LFE215:
 731              		.size	flashPageWriteIfNeeded, .-flashPageWriteIfNeeded
 732              		.section	.text.flashWrite,"ax",%progbits
 733              		.align	2
 734              		.p2align 4,,15
 735              		.global	flashWrite
 736              		.thumb
 737              		.thumb_func
 738              		.type	flashWrite, %function
 739              	flashWrite:
 740              	.LFB218:
 741              		.loc 1 286 0
ARM GAS  /tmp/ccUTqzHm.s 			page 14


 742              		.cfi_startproc
 743              		@ args = 0, pretend = 0, frame = 8
 744              		@ frame_needed = 0, uses_anonymous_args = 0
 745              	.LVL74:
 746 0000 2DE9F043 		push	{r4, r5, r6, r7, r8, r9, lr}
 747              		.cfi_def_cfa_offset 28
 748              		.cfi_offset 4, -28
 749              		.cfi_offset 5, -24
 750              		.cfi_offset 6, -20
 751              		.cfi_offset 7, -16
 752              		.cfi_offset 8, -12
 753              		.cfi_offset 9, -8
 754              		.cfi_offset 14, -4
 755              	.LBB66:
 756              	.LBB67:
 757              		.loc 1 17 0
 758 0004 434B     		ldr	r3, .L132
 759              	.LBE67:
 760              	.LBE66:
 761              		.loc 1 286 0
 762 0006 1446     		mov	r4, r2
 763              	.LBB72:
 764              	.LBB68:
 765              		.loc 1 17 0
 766 0008 1B69     		ldr	r3, [r3, #16]
 767              	.LBE68:
 768              	.LBE72:
 769              		.loc 1 286 0
 770 000a 83B0     		sub	sp, sp, #12
 771              		.cfi_def_cfa_offset 40
 772              	.LBB73:
 773              	.LBB69:
 774              		.loc 1 17 0
 775 000c 1A06     		lsls	r2, r3, #24
 776              	.LVL75:
 777              	.LBE69:
 778              	.LBE73:
 779              		.loc 1 286 0
 780 000e 8046     		mov	r8, r0
 781 0010 0D46     		mov	r5, r1
 782              		.loc 1 287 0
 783 0012 0646     		mov	r6, r0
 784              	.LVL76:
 785              	.LBB74:
 786              	.LBB70:
 787              		.loc 1 17 0
 788 0014 5FD4     		bmi	.L129
 789              	.LVL77:
 790              	.L105:
 791              	.LBE70:
 792              	.LBE74:
 793              		.loc 1 294 0 discriminator 1
 794 0016 3F4A     		ldr	r2, .L132
 795              	.L119:
 796 0018 D368     		ldr	r3, [r2, #12]
 797 001a 3E4F     		ldr	r7, .L132
 798 001c DB07     		lsls	r3, r3, #31
ARM GAS  /tmp/ccUTqzHm.s 			page 15


 799 001e FBD4     		bmi	.L119
 800              	.LVL78:
 801              		.loc 1 298 0
 802 0020 18F0010F 		tst	r8, #1
 803 0024 31D1     		bne	.L130
 804              	.LVL79:
 805              	.L106:
 806              		.loc 1 331 0
 807 0026 012C     		cmp	r4, #1
 808 0028 24D9     		bls	.L108
 809              	.LBB75:
 810              	.LBB76:
 811              		.loc 1 246 0
 812 002a 3A4A     		ldr	r2, .L132
 813              	.LBE76:
 814              	.LBE75:
 815              		.loc 1 331 0
 816 002c 3046     		mov	r0, r6
 817              	.LBB82:
 818              	.LBB77:
 819              		.loc 1 252 0
 820 002e 9646     		mov	lr, r2
 821              	.LBE77:
 822              	.LBE82:
 823              		.loc 1 331 0
 824 0030 2146     		mov	r1, r4
 825 0032 AF1E     		subs	r7, r5, #2
 826              	.LVL80:
 827              	.L110:
 828              	.LBB83:
 829              	.LBB78:
 830              		.loc 1 246 0
 831 0034 1369     		ldr	r3, [r2, #16]
 832              	.LBE78:
 833              	.LBE83:
 834              		.loc 1 333 0
 835 0036 37F802CF 		ldrh	ip, [r7, #2]!
 836              	.LVL81:
 837              	.LBB84:
 838              	.LBB79:
 839              		.loc 1 246 0
 840 003a 43F00103 		orr	r3, r3, #1
 841 003e 1361     		str	r3, [r2, #16]
 842              		.loc 1 249 0
 843 0040 A0F800C0 		strh	ip, [r0]	@ movhi
 844              	.L109:
 845              		.loc 1 252 0
 846 0044 D368     		ldr	r3, [r2, #12]
 847 0046 DB07     		lsls	r3, r3, #31
 848 0048 FCD4     		bmi	.L109
 849              		.loc 1 255 0
 850 004a DEF81030 		ldr	r3, [lr, #16]
 851              	.LBE79:
 852              	.LBE84:
 853              		.loc 1 336 0
 854 004e 0239     		subs	r1, r1, #2
 855              	.LVL82:
ARM GAS  /tmp/ccUTqzHm.s 			page 16


 856              	.LBB85:
 857              	.LBB80:
 858              		.loc 1 255 0
 859 0050 23F00103 		bic	r3, r3, #1
 860              	.LBE80:
 861              	.LBE85:
 862              		.loc 1 331 0
 863 0054 0129     		cmp	r1, #1
 864 0056 00F10200 		add	r0, r0, #2
 865              	.LVL83:
 866              	.LBB86:
 867              	.LBB81:
 868              		.loc 1 255 0
 869 005a CEF81030 		str	r3, [lr, #16]
 870              	.LBE81:
 871              	.LBE86:
 872              		.loc 1 331 0
 873 005e E9D8     		bhi	.L110
 874 0060 A31E     		subs	r3, r4, #2
 875 0062 5B08     		lsrs	r3, r3, #1
 876 0064 0236     		adds	r6, r6, #2
 877 0066 5A1C     		adds	r2, r3, #1
 878 0068 06EB4306 		add	r6, r6, r3, lsl #1
 879 006c 05EB4205 		add	r5, r5, r2, lsl #1
 880 0070 04F00104 		and	r4, r4, #1
 881              	.LVL84:
 882              	.L108:
 883              		.loc 1 344 0
 884 0074 002C     		cmp	r4, #0
 885 0076 35D1     		bne	.L131
 886              	.L111:
 887              	.LBB87:
 888              	.LBB88:
 889              		.loc 1 34 0
 890 0078 264A     		ldr	r2, .L132
 891              	.LBE88:
 892              	.LBE87:
 893              		.loc 1 354 0
 894 007a 0120     		movs	r0, #1
 895              	.LBB90:
 896              	.LBB89:
 897              		.loc 1 34 0
 898 007c 1369     		ldr	r3, [r2, #16]
 899 007e 43F08003 		orr	r3, r3, #128
 900 0082 1361     		str	r3, [r2, #16]
 901              	.LVL85:
 902              	.L104:
 903              	.LBE89:
 904              	.LBE90:
 905              		.loc 1 356 0
 906 0084 03B0     		add	sp, sp, #12
 907              		.cfi_remember_state
 908              		.cfi_def_cfa_offset 28
 909              		@ sp needed
 910 0086 BDE8F083 		pop	{r4, r5, r6, r7, r8, r9, pc}
 911              	.LVL86:
 912              	.L130:
ARM GAS  /tmp/ccUTqzHm.s 			page 17


 913              		.cfi_restore_state
 914              	.LBB91:
 915              		.loc 1 312 0
 916 008a 14F10009 		adds	r9, r4, #0
 917              		.loc 1 308 0
 918 008e 38F8023C 		ldrh	r3, [r8, #-2]
 919              		.loc 1 312 0
 920 0092 18BF     		it	ne
 921 0094 4FF00109 		movne	r9, #1
 922              		.loc 1 316 0
 923 0098 4A46     		mov	r2, r9
 924 009a 2946     		mov	r1, r5
 925 009c 0DF10700 		add	r0, sp, #7
 926              		.loc 1 308 0
 927 00a0 ADF80630 		strh	r3, [sp, #6]	@ movhi
 928              	.LVL87:
 929              		.loc 1 316 0
 930 00a4 FFF7FEFF 		bl	memcpy
 931              	.LVL88:
 932              	.LBB92:
 933              	.LBB93:
 934              		.loc 1 252 0
 935 00a8 3946     		mov	r1, r7
 936              		.loc 1 246 0
 937 00aa 3B69     		ldr	r3, [r7, #16]
 938              	.LBE93:
 939              	.LBE92:
 940              		.loc 1 319 0
 941 00ac BDF80620 		ldrh	r2, [sp, #6]
 942              	.LVL89:
 943              	.LBB97:
 944              	.LBB94:
 945              		.loc 1 246 0
 946 00b0 43F00103 		orr	r3, r3, #1
 947 00b4 3B61     		str	r3, [r7, #16]
 948              		.loc 1 249 0
 949 00b6 28F8022C 		strh	r2, [r8, #-2]	@ movhi
 950              	.LVL90:
 951              	.L107:
 952              		.loc 1 252 0
 953 00ba CB68     		ldr	r3, [r1, #12]
 954 00bc 154A     		ldr	r2, .L132
 955 00be D807     		lsls	r0, r3, #31
 956 00c0 FBD4     		bmi	.L107
 957              		.loc 1 255 0
 958 00c2 1369     		ldr	r3, [r2, #16]
 959              	.LBE94:
 960              	.LBE97:
 961              		.loc 1 322 0
 962 00c4 08EB4906 		add	r6, r8, r9, lsl #1
 963              	.LVL91:
 964              	.LBB98:
 965              	.LBB95:
 966              		.loc 1 255 0
 967 00c8 23F00103 		bic	r3, r3, #1
 968              	.LBE95:
 969              	.LBE98:
ARM GAS  /tmp/ccUTqzHm.s 			page 18


 970              		.loc 1 323 0
 971 00cc 4D44     		add	r5, r5, r9
 972              	.LVL92:
 973              		.loc 1 324 0
 974 00ce C9EB0404 		rsb	r4, r9, r4
 975              	.LVL93:
 976              	.LBB99:
 977              	.LBB96:
 978              		.loc 1 255 0
 979 00d2 1361     		str	r3, [r2, #16]
 980              	.LVL94:
 981 00d4 A7E7     		b	.L106
 982              	.LVL95:
 983              	.L129:
 984              	.LBE96:
 985              	.LBE99:
 986              	.LBE91:
 987              	.LBB100:
 988              	.LBB71:
 989 00d6 FFF7FEFF 		bl	flashUnlock.part.0
 990              	.LVL96:
 991              	.LBE71:
 992              	.LBE100:
 993              		.loc 1 290 0
 994 00da 0028     		cmp	r0, #0
 995 00dc 9BD1     		bne	.L105
 996              		.loc 1 291 0
 997 00de 4FF0FF30 		mov	r0, #-1
 998 00e2 CFE7     		b	.L104
 999              	.LVL97:
 1000              	.L131:
 1001              	.LBB101:
 1002              	.LBB102:
 1003              	.LBB103:
 1004              		.loc 1 246 0
 1005 00e4 0B4B     		ldr	r3, .L132
 1006              	.LBE103:
 1007              	.LBE102:
 1008              		.loc 1 346 0
 1009 00e6 3088     		ldrh	r0, [r6]
 1010              	.LBB107:
 1011              	.LBB104:
 1012              		.loc 1 252 0
 1013 00e8 1946     		mov	r1, r3
 1014              	.LBE104:
 1015              	.LBE107:
 1016              		.loc 1 347 0
 1017 00ea 2A78     		ldrb	r2, [r5]	@ zero_extendqisi2
 1018              		.loc 1 346 0
 1019 00ec ADF80600 		strh	r0, [sp, #6]	@ movhi
 1020              		.loc 1 347 0
 1021 00f0 8DF80620 		strb	r2, [sp, #6]
 1022              	.LBB108:
 1023              	.LBB105:
 1024              		.loc 1 246 0
 1025 00f4 1A69     		ldr	r2, [r3, #16]
 1026              	.LBE105:
ARM GAS  /tmp/ccUTqzHm.s 			page 19


 1027              	.LBE108:
 1028              		.loc 1 348 0
 1029 00f6 BDF80600 		ldrh	r0, [sp, #6]
 1030              	.LVL98:
 1031              	.LBB109:
 1032              	.LBB106:
 1033              		.loc 1 246 0
 1034 00fa 42F00102 		orr	r2, r2, #1
 1035 00fe 1A61     		str	r2, [r3, #16]
 1036              		.loc 1 249 0
 1037 0100 3080     		strh	r0, [r6]	@ movhi
 1038              	.L112:
 1039              		.loc 1 252 0
 1040 0102 CB68     		ldr	r3, [r1, #12]
 1041 0104 034A     		ldr	r2, .L132
 1042 0106 DB07     		lsls	r3, r3, #31
 1043 0108 FBD4     		bmi	.L112
 1044              		.loc 1 255 0
 1045 010a 1369     		ldr	r3, [r2, #16]
 1046 010c 23F00103 		bic	r3, r3, #1
 1047 0110 1361     		str	r3, [r2, #16]
 1048 0112 B1E7     		b	.L111
 1049              	.L133:
 1050              		.align	2
 1051              	.L132:
 1052 0114 00200240 		.word	1073881088
 1053              	.LBE106:
 1054              	.LBE109:
 1055              	.LBE101:
 1056              		.cfi_endproc
 1057              	.LFE218:
 1058              		.size	flashWrite, .-flashWrite
 1059              		.section	.text.flashWriteIfNeeded,"ax",%progbits
 1060              		.align	2
 1061              		.p2align 4,,15
 1062              		.global	flashWriteIfNeeded
 1063              		.thumb
 1064              		.thumb_func
 1065              		.type	flashWriteIfNeeded, %function
 1066              	flashWriteIfNeeded:
 1067              	.LFB217:
 1068              		.loc 1 259 0
 1069              		.cfi_startproc
 1070              		@ args = 0, pretend = 0, frame = 0
 1071              		@ frame_needed = 0, uses_anonymous_args = 0
 1072              	.LVL99:
 1073 0000 F8B5     		push	{r3, r4, r5, r6, r7, lr}
 1074              		.cfi_def_cfa_offset 24
 1075              		.cfi_offset 3, -24
 1076              		.cfi_offset 4, -20
 1077              		.cfi_offset 5, -16
 1078              		.cfi_offset 6, -12
 1079              		.cfi_offset 7, -8
 1080              		.cfi_offset 14, -4
 1081              		.loc 1 262 0
 1082 0002 00F17847 		add	r7, r0, #-134217728
 1083 0006 A7F57A36 		sub	r6, r7, #256000
ARM GAS  /tmp/ccUTqzHm.s 			page 20


 1084 000a B6F5C05F 		cmp	r6, #6144
 1085 000e 0FD2     		bcs	.L138
 1086 0010 1646     		mov	r6, r2
 1087 0012 0D46     		mov	r5, r1
 1088 0014 0446     		mov	r4, r0
 1089              		.loc 1 265 0
 1090 0016 FFF7FEFF 		bl	flashCompare
 1091              	.LVL100:
 1092              		.loc 1 268 0
 1093 001a 0028     		cmp	r0, #0
 1094 001c 0ADD     		ble	.L135
 1095              		.loc 1 272 0
 1096 001e 0228     		cmp	r0, #2
 1097 0020 09D0     		beq	.L136
 1098              	.L137:
 1099              		.loc 1 280 0
 1100 0022 2046     		mov	r0, r4
 1101              	.LVL101:
 1102 0024 2946     		mov	r1, r5
 1103 0026 3246     		mov	r2, r6
 1104              		.loc 1 284 0
 1105 0028 BDE8F840 		pop	{r3, r4, r5, r6, r7, lr}
 1106              		.cfi_remember_state
 1107              		.cfi_restore 14
 1108              		.cfi_restore 7
 1109              		.cfi_restore 6
 1110              		.cfi_restore 5
 1111              		.cfi_restore 4
 1112              		.cfi_restore 3
 1113              		.cfi_def_cfa_offset 0
 1114              	.LVL102:
 1115              		.loc 1 280 0
 1116 002c FFF7FEBF 		b	flashWrite
 1117              	.LVL103:
 1118              	.L138:
 1119              		.cfi_restore_state
 1120              		.loc 1 263 0
 1121 0030 4FF0FF30 		mov	r0, #-1
 1122              	.LVL104:
 1123              	.L135:
 1124              		.loc 1 284 0
 1125 0034 F8BD     		pop	{r3, r4, r5, r6, r7, pc}
 1126              	.LVL105:
 1127              	.L136:
 1128              		.loc 1 273 0
 1129 0036 F80A     		lsrs	r0, r7, #11
 1130              	.LVL106:
 1131 0038 FFF7FEFF 		bl	flashPageErase
 1132              	.LVL107:
 1133              		.loc 1 276 0
 1134 003c 0128     		cmp	r0, #1
 1135 003e F0D0     		beq	.L137
 1136 0040 F8BD     		pop	{r3, r4, r5, r6, r7, pc}
 1137              		.cfi_endproc
 1138              	.LFE217:
 1139              		.size	flashWriteIfNeeded, .-flashWriteIfNeeded
 1140 0042 00BF     		.text
ARM GAS  /tmp/ccUTqzHm.s 			page 21


 1141              	.Letext0:
 1142              		.file 2 "/opt/stm32/gcc/gcc-arm-none-eabi-4_9-2015q2/lib/gcc/arm-none-eabi/4.9.3/include/stddef.h"
 1143              		.file 3 "/opt/stm32/gcc/gcc-arm-none-eabi-4_9-2015q2/arm-none-eabi/include/machine/_default_types.
 1144              		.file 4 "/opt/stm32/gcc/gcc-arm-none-eabi-4_9-2015q2/arm-none-eabi/include/sys/_stdint.h"
 1145              		.file 5 "/home/maciek/ChibiOS_16.1.5/os/rt/ports/ARMCMx/compilers/GCC/chtypes.h"
 1146              		.file 6 "/home/maciek/ChibiOS_16.1.5/os/rt/include/chsystypes.h"
 1147              		.file 7 "/home/maciek/ChibiOS_16.1.5/os/rt/include/chschd.h"
 1148              		.file 8 "/home/maciek/ChibiOS_16.1.5/os/ext/CMSIS/ST/STM32F1xx/stm32f103xe.h"
 1149              		.file 9 "/home/maciek/ChibiOS_16.1.5/os/rt/ports/ARMCMx/chcore.h"
 1150              		.file 10 "/home/maciek/ChibiOS_16.1.5/os/rt/ports/ARMCMx/chcore_v7m.h"
 1151              		.file 11 "/home/maciek/ChibiOS_16.1.5/os/rt/include/chtm.h"
 1152              		.file 12 "/home/maciek/ChibiOS_16.1.5/os/rt/include/chsem.h"
 1153              		.file 13 "/home/maciek/ChibiOS_16.1.5/os/rt/include/chmtx.h"
 1154              		.file 14 "./flash/flash.h"
 1155              		.file 15 "/home/maciek/ChibiOS_16.1.5/os/ext/CMSIS/include/core_cm3.h"