ARM GAS  /tmp/ccaWlqxS.s 			page 1


   1              		.syntax unified
   2              		.cpu cortex-m3
   3              		.fpu softvfp
   4              		.eabi_attribute 20, 1
   5              		.eabi_attribute 21, 1
   6              		.eabi_attribute 23, 3
   7              		.eabi_attribute 24, 1
   8              		.eabi_attribute 25, 1
   9              		.eabi_attribute 26, 1
  10              		.eabi_attribute 30, 2
  11              		.eabi_attribute 34, 1
  12              		.eabi_attribute 18, 4
  13              		.thumb
  14              		.file	"hal.c"
  15              		.text
  16              	.Ltext0:
  17              		.cfi_sections	.debug_frame
  18              		.section	.text.halInit,"ax",%progbits
  19              		.align	2
  20              		.p2align 4,,15
  21              		.global	halInit
  22              		.thumb
  23              		.thumb_func
  24              		.type	halInit, %function
  25              	halInit:
  26              	.LFB207:
  27              		.file 1 "/home/maciek/ChibiOS_16.1.5/os/hal/src/hal.c"
  28              		.loc 1 56 0
  29              		.cfi_startproc
  30              		@ args = 0, pretend = 0, frame = 0
  31              		@ frame_needed = 0, uses_anonymous_args = 0
  32 0000 08B5     		push	{r3, lr}
  33              		.cfi_def_cfa_offset 8
  34              		.cfi_offset 3, -8
  35              		.cfi_offset 14, -4
  36              		.loc 1 62 0
  37 0002 FFF7FEFF 		bl	hal_lld_init
  38              	.LVL0:
  39              		.loc 1 65 0
  40 0006 0A48     		ldr	r0, .L3
  41 0008 FFF7FEFF 		bl	_pal_lld_init
  42              	.LVL1:
  43              		.loc 1 68 0
  44 000c FFF7FEFF 		bl	adcInit
  45              	.LVL2:
  46              		.loc 1 83 0
  47 0010 FFF7FEFF 		bl	i2cInit
  48              	.LVL3:
  49              		.loc 1 95 0
  50 0014 FFF7FEFF 		bl	pwmInit
  51              	.LVL4:
  52              		.loc 1 98 0
  53 0018 FFF7FEFF 		bl	sdInit
  54              	.LVL5:
  55              		.loc 1 110 0
  56 001c FFF7FEFF 		bl	usbInit
  57              	.LVL6:
ARM GAS  /tmp/ccaWlqxS.s 			page 2


  58              		.loc 1 116 0
  59 0020 FFF7FEFF 		bl	sduInit
  60              	.LVL7:
  61              		.loc 1 133 0
  62 0024 FFF7FEFF 		bl	boardInit
  63              	.LVL8:
  64              		.loc 1 142 0
  65 0028 BDE80840 		pop	{r3, lr}
  66              		.cfi_restore 14
  67              		.cfi_restore 3
  68              		.cfi_def_cfa_offset 0
  69              		.loc 1 140 0
  70 002c FFF7FEBF 		b	stInit
  71              	.LVL9:
  72              	.L4:
  73              		.align	2
  74              	.L3:
  75 0030 00000000 		.word	pal_default_config
  76              		.cfi_endproc
  77              	.LFE207:
  78              		.size	halInit, .-halInit
  79              		.text
  80              	.Letext0:
  81              		.file 2 "/opt/stm32/gcc/gcc-arm-none-eabi-4_9-2015q2/arm-none-eabi/include/machine/_default_types.
  82              		.file 3 "/opt/stm32/gcc/gcc-arm-none-eabi-4_9-2015q2/arm-none-eabi/include/sys/_stdint.h"
  83              		.file 4 "/home/maciek/ChibiOS_16.1.5/os/rt/ports/ARMCMx/compilers/GCC/chtypes.h"
  84              		.file 5 "/home/maciek/ChibiOS_16.1.5/os/rt/include/chsystypes.h"
  85              		.file 6 "/home/maciek/ChibiOS_16.1.5/os/rt/include/chschd.h"
  86              		.file 7 "/home/maciek/ChibiOS_16.1.5/os/rt/ports/ARMCMx/chcore.h"
  87              		.file 8 "/home/maciek/ChibiOS_16.1.5/os/rt/ports/ARMCMx/chcore_v7m.h"
  88              		.file 9 "/home/maciek/ChibiOS_16.1.5/os/rt/include/chtm.h"
  89              		.file 10 "/home/maciek/ChibiOS_16.1.5/os/rt/include/chsem.h"
  90              		.file 11 "/home/maciek/ChibiOS_16.1.5/os/rt/include/chmtx.h"
  91              		.file 12 "/home/maciek/ChibiOS_16.1.5/os/hal/ports/STM32/LLD/GPIOv1/pal_lld.h"
  92              		.file 13 "/home/maciek/ChibiOS_16.1.5/os/ext/CMSIS/include/core_cm3.h"
  93              		.file 14 "/home/maciek/ChibiOS_16.1.5/os/hal/ports/STM32/STM32F1xx/hal_lld.h"
  94              		.file 15 "/home/maciek/ChibiOS_16.1.5/os/hal/include/adc.h"
  95              		.file 16 "/home/maciek/ChibiOS_16.1.5/os/hal/include/i2c.h"
  96              		.file 17 "/home/maciek/ChibiOS_16.1.5/os/hal/include/pwm.h"
  97              		.file 18 "/home/maciek/ChibiOS_16.1.5/os/hal/include/serial.h"
  98              		.file 19 "/home/maciek/ChibiOS_16.1.5/os/hal/include/usb.h"
  99              		.file 20 "/home/maciek/ChibiOS_16.1.5/os/hal/include/serial_usb.h"
 100              		.file 21 "drivers/STORM32_V1_X/board.h"
 101              		.file 22 "/home/maciek/ChibiOS_16.1.5/os/hal/include/st.h"
 102              		.file 23 "/home/maciek/ChibiOS_16.1.5/os/hal/osal/rt/osal.h"