ARM GAS  /tmp/cc9wI74q.s 			page 1


   1              		.syntax unified
   2              		.cpu cortex-m3
   3              		.fpu softvfp
   4              		.eabi_attribute 20, 1
   5              		.eabi_attribute 21, 1
   6              		.eabi_attribute 23, 3
   7              		.eabi_attribute 24, 1
   8              		.eabi_attribute 25, 1
   9              		.eabi_attribute 26, 1
  10              		.eabi_attribute 30, 2
  11              		.eabi_attribute 34, 1
  12              		.eabi_attribute 18, 4
  13              		.thumb
  14              		.file	"hal_lld.c"
  15              		.text
  16              	.Ltext0:
  17              		.cfi_sections	.debug_frame
  18              		.section	.text.Vector12C,"ax",%progbits
  19              		.align	2
  20              		.p2align 4,,15
  21              		.global	Vector12C
  22              		.thumb
  23              		.thumb_func
  24              		.type	Vector12C, %function
  25              	Vector12C:
  26              	.LFB208:
  27              		.file 1 "/home/maciek/ChibiOS_16.1.5/os/hal/ports/STM32/STM32F1xx/hal_lld.c"
  28              		.loc 1 102 0
  29              		.cfi_startproc
  30              		@ args = 0, pretend = 0, frame = 0
  31              		@ frame_needed = 0, uses_anonymous_args = 0
  32 0000 70B5     		push	{r4, r5, r6, lr}
  33              		.cfi_def_cfa_offset 16
  34              		.cfi_offset 4, -16
  35              		.cfi_offset 5, -12
  36              		.cfi_offset 6, -8
  37              		.cfi_offset 14, -4
  38              	.LBB4:
  39              		.loc 1 107 0
  40 0002 184C     		ldr	r4, .L16
  41 0004 D4F8C830 		ldr	r3, [r4, #200]
  42 0008 94F8D820 		ldrb	r2, [r4, #216]	@ zero_extendqisi2
  43 000c 1968     		ldr	r1, [r3]
  44 000e 94F8D950 		ldrb	r5, [r4, #217]	@ zero_extendqisi2
  45              	.LVL0:
  46 0012 D140     		lsrs	r1, r1, r2
  47              	.LVL1:
  48 0014 11F00F01 		ands	r1, r1, #15
  49              	.LVL2:
  50 0018 0AD0     		beq	.L3
  51              		.loc 1 107 0 is_stmt 0 discriminator 1
  52 001a 1348     		ldr	r0, .L16+4
  53 001c 01FA02F6 		lsl	r6, r1, r2
  54 0020 50F83520 		ldr	r2, [r0, r5, lsl #3]
  55 0024 5E60     		str	r6, [r3, #4]
  56 0026 1AB1     		cbz	r2, .L3
  57              		.loc 1 107 0 discriminator 2
ARM GAS  /tmp/cc9wI74q.s 			page 2


  58 0028 00EBC500 		add	r0, r0, r5, lsl #3
  59 002c 4068     		ldr	r0, [r0, #4]
  60 002e 9047     		blx	r2
  61              	.LVL3:
  62              	.L3:
  63              	.LBE4:
  64              	.LBB5:
  65              		.loc 1 110 0 is_stmt 1
  66 0030 D4F8DC20 		ldr	r2, [r4, #220]
  67 0034 94F8EC00 		ldrb	r0, [r4, #236]	@ zero_extendqisi2
  68 0038 1168     		ldr	r1, [r2]
  69 003a 94F8ED40 		ldrb	r4, [r4, #237]	@ zero_extendqisi2
  70              	.LVL4:
  71 003e C140     		lsrs	r1, r1, r0
  72              	.LVL5:
  73 0040 11F00F01 		ands	r1, r1, #15
  74              	.LVL6:
  75 0044 0AD0     		beq	.L6
  76              		.loc 1 110 0 is_stmt 0 discriminator 1
  77 0046 084B     		ldr	r3, .L16+4
  78 0048 01FA00F0 		lsl	r0, r1, r0
  79 004c 53F83450 		ldr	r5, [r3, r4, lsl #3]
  80              	.LVL7:
  81 0050 5060     		str	r0, [r2, #4]
  82 0052 1DB1     		cbz	r5, .L6
  83              		.loc 1 110 0 discriminator 2
  84 0054 03EBC403 		add	r3, r3, r4, lsl #3
  85 0058 5868     		ldr	r0, [r3, #4]
  86 005a A847     		blx	r5
  87              	.LVL8:
  88              	.L6:
  89              	.LBE5:
  90              		.loc 1 113 0 is_stmt 1
  91 005c BDE87040 		pop	{r4, r5, r6, lr}
  92              		.cfi_restore 14
  93              		.cfi_restore 6
  94              		.cfi_restore 5
  95              		.cfi_restore 4
  96              		.cfi_def_cfa_offset 0
  97              	.LVL9:
  98              		.loc 1 112 0
  99 0060 FFF7FEBF 		b	_port_irq_epilogue
 100              	.LVL10:
 101              	.L17:
 102              		.align	2
 103              	.L16:
 104 0064 00000000 		.word	_stm32_dma_streams
 105 0068 00000000 		.word	_stm32_dma_isr_redir
 106              		.cfi_endproc
 107              	.LFE208:
 108              		.size	Vector12C, .-Vector12C
 109              		.section	.text.hal_lld_init,"ax",%progbits
 110              		.align	2
 111              		.p2align 4,,15
 112              		.global	hal_lld_init
 113              		.thumb
 114              		.thumb_func
ARM GAS  /tmp/cc9wI74q.s 			page 3


 115              		.type	hal_lld_init, %function
 116              	hal_lld_init:
 117              	.LFB209:
 118              		.loc 1 126 0
 119              		.cfi_startproc
 120              		@ args = 0, pretend = 0, frame = 0
 121              		@ frame_needed = 0, uses_anonymous_args = 0
 122              		@ link register save eliminated.
 123              		.loc 1 129 0
 124 0000 0C4B     		ldr	r3, .L19
 125 0002 4FF0FF31 		mov	r1, #-1
 126 0006 0022     		movs	r2, #0
 127 0008 1869     		ldr	r0, [r3, #16]
 128 000a 1961     		str	r1, [r3, #16]
 129 000c 1A61     		str	r2, [r3, #16]
 130              		.loc 1 130 0
 131 000e D868     		ldr	r0, [r3, #12]
 132 0010 D960     		str	r1, [r3, #12]
 133 0012 DA60     		str	r2, [r3, #12]
 134              		.loc 1 133 0
 135 0014 DA69     		ldr	r2, [r3, #28]
 136              	.LBB6:
 137              	.LBB7:
 138              		.loc 1 57 0
 139 0016 0849     		ldr	r1, .L19+4
 140              	.LBE7:
 141              	.LBE6:
 142              		.loc 1 133 0
 143 0018 42F08052 		orr	r2, r2, #268435456
 144 001c DA61     		str	r2, [r3, #28]
 145              		.loc 1 134 0
 146 001e DA69     		ldr	r2, [r3, #28]
 147 0020 42F00062 		orr	r2, r2, #134217728
 148 0024 DA61     		str	r2, [r3, #28]
 149              	.LBB9:
 150              	.LBB8:
 151              		.loc 1 57 0
 152 0026 0B68     		ldr	r3, [r1]
 153 0028 43F48073 		orr	r3, r3, #256
 154 002c 0B60     		str	r3, [r1]
 155              	.LBE8:
 156              	.LBE9:
 157              		.loc 1 140 0
 158 002e FFF7FEBF 		b	dmaInit
 159              	.LVL11:
 160              	.L20:
 161 0032 00BF     		.align	2
 162              	.L19:
 163 0034 00100240 		.word	1073876992
 164 0038 00700040 		.word	1073770496
 165              		.cfi_endproc
 166              	.LFE209:
 167              		.size	hal_lld_init, .-hal_lld_init
 168              		.section	.text.stm32_clock_init,"ax",%progbits
 169              		.align	2
 170              		.p2align 4,,15
 171              		.global	stm32_clock_init
ARM GAS  /tmp/cc9wI74q.s 			page 4


 172              		.thumb
 173              		.thumb_func
 174              		.type	stm32_clock_init, %function
 175              	stm32_clock_init:
 176              	.LFB210:
 177              		.loc 1 163 0
 178              		.cfi_startproc
 179              		@ args = 0, pretend = 0, frame = 0
 180              		@ frame_needed = 0, uses_anonymous_args = 0
 181              		@ link register save eliminated.
 182              		.loc 1 168 0
 183 0000 1F4B     		ldr	r3, .L36
 184              		.loc 1 169 0
 185 0002 1946     		mov	r1, r3
 186              		.loc 1 168 0
 187 0004 1A68     		ldr	r2, [r3]
 188 0006 42F00102 		orr	r2, r2, #1
 189 000a 1A60     		str	r2, [r3]
 190              	.L22:
 191              		.loc 1 169 0 discriminator 1
 192 000c 0B68     		ldr	r3, [r1]
 193 000e 1C4A     		ldr	r2, .L36
 194 0010 9B07     		lsls	r3, r3, #30
 195 0012 FBD5     		bpl	.L22
 196              		.loc 1 173 0
 197 0014 1146     		mov	r1, r2
 198              		.loc 1 171 0
 199 0016 1368     		ldr	r3, [r2]
 200              		.loc 1 172 0
 201 0018 0020     		movs	r0, #0
 202              		.loc 1 171 0
 203 001a 03F0F903 		and	r3, r3, #249
 204 001e 1360     		str	r3, [r2]
 205              		.loc 1 172 0
 206 0020 5060     		str	r0, [r2, #4]
 207              	.L23:
 208              		.loc 1 173 0 discriminator 1
 209 0022 4B68     		ldr	r3, [r1, #4]
 210 0024 164A     		ldr	r2, .L36
 211 0026 13F00C0F 		tst	r3, #12
 212 002a FAD1     		bne	.L23
 213              		.loc 1 183 0
 214 002c 1146     		mov	r1, r2
 215              		.loc 1 182 0
 216 002e 1368     		ldr	r3, [r2]
 217 0030 43F48033 		orr	r3, r3, #65536
 218 0034 1360     		str	r3, [r2]
 219              	.L24:
 220              		.loc 1 183 0 discriminator 1
 221 0036 0B68     		ldr	r3, [r1]
 222 0038 114A     		ldr	r2, .L36
 223 003a 9803     		lsls	r0, r3, #14
 224 003c FBD5     		bpl	.L24
 225              		.loc 1 198 0
 226 003e 1146     		mov	r1, r2
 227              		.loc 1 196 0
 228 0040 5368     		ldr	r3, [r2, #4]
ARM GAS  /tmp/cc9wI74q.s 			page 5


 229 0042 43F4E813 		orr	r3, r3, #1900544
 230 0046 5360     		str	r3, [r2, #4]
 231              		.loc 1 197 0
 232 0048 1368     		ldr	r3, [r2]
 233 004a 43F08073 		orr	r3, r3, #16777216
 234 004e 1360     		str	r3, [r2]
 235              	.L25:
 236              		.loc 1 198 0 discriminator 1
 237 0050 0B68     		ldr	r3, [r1]
 238 0052 0B4A     		ldr	r2, .L36
 239 0054 9B01     		lsls	r3, r3, #6
 240 0056 FBD5     		bpl	.L25
 241              		.loc 1 220 0
 242 0058 1146     		mov	r1, r2
 243              		.loc 1 163 0
 244 005a 10B4     		push	{r4}
 245              		.cfi_def_cfa_offset 4
 246              		.cfi_offset 4, -4
 247              		.loc 1 214 0
 248 005c 094B     		ldr	r3, .L36+4
 249              		.loc 1 204 0
 250 005e 0A4C     		ldr	r4, .L36+8
 251              		.loc 1 214 0
 252 0060 1220     		movs	r0, #18
 253              		.loc 1 204 0
 254 0062 5460     		str	r4, [r2, #4]
 255              		.loc 1 214 0
 256 0064 1860     		str	r0, [r3]
 257              		.loc 1 219 0
 258 0066 5368     		ldr	r3, [r2, #4]
 259 0068 43F00203 		orr	r3, r3, #2
 260 006c 5360     		str	r3, [r2, #4]
 261              	.L26:
 262              		.loc 1 220 0 discriminator 1
 263 006e 4B68     		ldr	r3, [r1, #4]
 264 0070 03F00C03 		and	r3, r3, #12
 265 0074 082B     		cmp	r3, #8
 266 0076 FAD1     		bne	.L26
 267              		.loc 1 228 0
 268 0078 5DF8044B 		ldr	r4, [sp], #4
 269              		.cfi_restore 4
 270              		.cfi_def_cfa_offset 0
 271 007c 7047     		bx	lr
 272              	.L37:
 273 007e 00BF     		.align	2
 274              	.L36:
 275 0080 00100240 		.word	1073876992
 276 0084 00200240 		.word	1073881088
 277 0088 00E41D00 		.word	1958912
 278              		.cfi_endproc
 279              	.LFE210:
 280              		.size	stm32_clock_init, .-stm32_clock_init
 281              		.global	SystemCoreClock
 282              		.section	.data.SystemCoreClock,"aw",%progbits
 283              		.align	2
 284              		.type	SystemCoreClock, %object
 285              		.size	SystemCoreClock, 4
ARM GAS  /tmp/cc9wI74q.s 			page 6


 286              	SystemCoreClock:
 287 0000 00A24A04 		.word	72000000
 288              		.text
 289              	.Letext0:
 290              		.file 2 "/opt/stm32/gcc/gcc-arm-none-eabi-4_9-2015q2/lib/gcc/arm-none-eabi/4.9.3/include/stddef.h"
 291              		.file 3 "/opt/stm32/gcc/gcc-arm-none-eabi-4_9-2015q2/arm-none-eabi/include/machine/_default_types.
 292              		.file 4 "/opt/stm32/gcc/gcc-arm-none-eabi-4_9-2015q2/arm-none-eabi/include/sys/_stdint.h"
 293              		.file 5 "/home/maciek/ChibiOS_16.1.5/os/rt/ports/ARMCMx/compilers/GCC/chtypes.h"
 294              		.file 6 "/home/maciek/ChibiOS_16.1.5/os/rt/include/chsystypes.h"
 295              		.file 7 "/home/maciek/ChibiOS_16.1.5/os/rt/include/chschd.h"
 296              		.file 8 "/home/maciek/ChibiOS_16.1.5/os/ext/CMSIS/ST/STM32F1xx/stm32f103xe.h"
 297              		.file 9 "/home/maciek/ChibiOS_16.1.5/os/rt/ports/ARMCMx/chcore.h"
 298              		.file 10 "/home/maciek/ChibiOS_16.1.5/os/rt/ports/ARMCMx/chcore_v7m.h"
 299              		.file 11 "/home/maciek/ChibiOS_16.1.5/os/rt/include/chtm.h"
 300              		.file 12 "/home/maciek/ChibiOS_16.1.5/os/rt/include/chsem.h"
 301              		.file 13 "/home/maciek/ChibiOS_16.1.5/os/rt/include/chmtx.h"
 302              		.file 14 "/home/maciek/ChibiOS_16.1.5/os/hal/ports/STM32/LLD/DMAv1/stm32_dma.h"
 303              		.file 15 "/home/maciek/ChibiOS_16.1.5/os/ext/CMSIS/include/core_cm3.h"