ARM GAS  /tmp/ccnDxhvs.s 			page 1


   1              		.syntax unified
   2              		.cpu cortex-m3
   3              		.fpu softvfp
   4              		.eabi_attribute 20, 1
   5              		.eabi_attribute 21, 1
   6              		.eabi_attribute 23, 3
   7              		.eabi_attribute 24, 1
   8              		.eabi_attribute 25, 1
   9              		.eabi_attribute 26, 1
  10              		.eabi_attribute 30, 2
  11              		.eabi_attribute 34, 1
  12              		.eabi_attribute 18, 4
  13              		.thumb
  14              		.file	"i2c.c"
  15              		.text
  16              	.Ltext0:
  17              		.cfi_sections	.debug_frame
  18              		.section	.text.i2cInit,"ax",%progbits
  19              		.align	2
  20              		.p2align 4,,15
  21              		.global	i2cInit
  22              		.thumb
  23              		.thumb_func
  24              		.type	i2cInit, %function
  25              	i2cInit:
  26              	.LFB207:
  27              		.file 1 "/home/maciek/ChibiOS_16.1.5/os/hal/src/i2c.c"
  28              		.loc 1 59 0
  29              		.cfi_startproc
  30              		@ args = 0, pretend = 0, frame = 0
  31              		@ frame_needed = 0, uses_anonymous_args = 0
  32              		@ link register save eliminated.
  33              		.loc 1 61 0
  34 0000 FFF7FEBF 		b	i2c_lld_init
  35              	.LVL0:
  36              		.cfi_endproc
  37              	.LFE207:
  38              		.size	i2cInit, .-i2cInit
  39              		.section	.text.i2cObjectInit,"ax",%progbits
  40              		.align	2
  41              		.p2align 4,,15
  42              		.global	i2cObjectInit
  43              		.thumb
  44              		.thumb_func
  45              		.type	i2cObjectInit, %function
  46              	i2cObjectInit:
  47              	.LFB208:
  48              		.loc 1 71 0
  49              		.cfi_startproc
  50              		@ args = 0, pretend = 0, frame = 0
  51              		@ frame_needed = 0, uses_anonymous_args = 0
  52              		@ link register save eliminated.
  53              	.LVL1:
  54              		.loc 1 73 0
  55 0000 0122     		movs	r2, #1
  56              		.loc 1 74 0
  57 0002 0023     		movs	r3, #0
ARM GAS  /tmp/ccnDxhvs.s 			page 2


  58              		.loc 1 73 0
  59 0004 0270     		strb	r2, [r0]
  60              		.loc 1 74 0
  61 0006 4360     		str	r3, [r0, #4]
  62              	.LVL2:
  63              	.LBB82:
  64              	.LBB83:
  65              		.file 2 "/home/maciek/ChibiOS_16.1.5/os/hal/osal/rt/osal.h"
  66              		.loc 2 887 0
  67 0008 0C30     		adds	r0, r0, #12
  68              	.LVL3:
  69 000a FFF7FEBF 		b	chMtxObjectInit
  70              	.LVL4:
  71              	.LBE83:
  72              	.LBE82:
  73              		.cfi_endproc
  74              	.LFE208:
  75              		.size	i2cObjectInit, .-i2cObjectInit
  76 000e 00BF     		.section	.text.i2cStart,"ax",%progbits
  77              		.align	2
  78              		.p2align 4,,15
  79              		.global	i2cStart
  80              		.thumb
  81              		.thumb_func
  82              		.type	i2cStart, %function
  83              	i2cStart:
  84              	.LFB209:
  85              		.loc 1 93 0
  86              		.cfi_startproc
  87              		@ args = 0, pretend = 0, frame = 0
  88              		@ frame_needed = 0, uses_anonymous_args = 0
  89              	.LVL5:
  90 0000 10B5     		push	{r4, lr}
  91              		.cfi_def_cfa_offset 8
  92              		.cfi_offset 4, -8
  93              		.cfi_offset 14, -4
  94              	.LBB84:
  95              	.LBB85:
  96              	.LBB86:
  97              	.LBB87:
  98              	.LBB88:
  99              		.file 3 "/home/maciek/ChibiOS_16.1.5/os/ext/CMSIS/include/core_cmFunc.h"
 100              		.loc 3 548 0
 101 0002 2023     		movs	r3, #32
 102              	.LBE88:
 103              	.LBE87:
 104              	.LBE86:
 105              	.LBE85:
 106              	.LBE84:
 107              		.loc 1 93 0
 108 0004 0446     		mov	r4, r0
 109              	.LBB93:
 110              	.LBB92:
 111              	.LBB91:
 112              	.LBB90:
 113              	.LBB89:
 114              		.loc 3 548 0
ARM GAS  /tmp/ccnDxhvs.s 			page 3


 115              	@ 548 "/home/maciek/ChibiOS_16.1.5/os/ext/CMSIS/include/core_cmFunc.h" 1
 116 0006 83F31188 		MSR basepri, r3
 117              	@ 0 "" 2
 118              		.thumb
 119              	.LBE89:
 120              	.LBE90:
 121              	.LBE91:
 122              	.LBE92:
 123              	.LBE93:
 124              		.loc 1 100 0
 125 000a 4160     		str	r1, [r0, #4]
 126              		.loc 1 101 0
 127 000c FFF7FEFF 		bl	i2c_lld_start
 128              	.LVL6:
 129              		.loc 1 102 0
 130 0010 0223     		movs	r3, #2
 131 0012 2370     		strb	r3, [r4]
 132              	.LVL7:
 133              	.LBB94:
 134              	.LBB95:
 135              	.LBB96:
 136              	.LBB97:
 137              	.LBB98:
 138              	.LBB99:
 139              		.loc 3 548 0
 140 0014 0023     		movs	r3, #0
 141              	@ 548 "/home/maciek/ChibiOS_16.1.5/os/ext/CMSIS/include/core_cmFunc.h" 1
 142 0016 83F31188 		MSR basepri, r3
 143              	@ 0 "" 2
 144              		.thumb
 145 001a 10BD     		pop	{r4, pc}
 146              	.LBE99:
 147              	.LBE98:
 148              	.LBE97:
 149              	.LBE96:
 150              	.LBE95:
 151              	.LBE94:
 152              		.cfi_endproc
 153              	.LFE209:
 154              		.size	i2cStart, .-i2cStart
 155              		.section	.text.i2cStop,"ax",%progbits
 156              		.align	2
 157              		.p2align 4,,15
 158              		.global	i2cStop
 159              		.thumb
 160              		.thumb_func
 161              		.type	i2cStop, %function
 162              	i2cStop:
 163              	.LFB210:
 164              		.loc 1 113 0
 165              		.cfi_startproc
 166              		@ args = 0, pretend = 0, frame = 0
 167              		@ frame_needed = 0, uses_anonymous_args = 0
 168              	.LVL8:
 169 0000 10B5     		push	{r4, lr}
 170              		.cfi_def_cfa_offset 8
 171              		.cfi_offset 4, -8
ARM GAS  /tmp/ccnDxhvs.s 			page 4


 172              		.cfi_offset 14, -4
 173              	.LBB100:
 174              	.LBB101:
 175              	.LBB102:
 176              	.LBB103:
 177              	.LBB104:
 178              		.loc 3 548 0
 179 0002 2023     		movs	r3, #32
 180              	.LBE104:
 181              	.LBE103:
 182              	.LBE102:
 183              	.LBE101:
 184              	.LBE100:
 185              		.loc 1 113 0
 186 0004 0446     		mov	r4, r0
 187              	.LBB109:
 188              	.LBB108:
 189              	.LBB107:
 190              	.LBB106:
 191              	.LBB105:
 192              		.loc 3 548 0
 193              	@ 548 "/home/maciek/ChibiOS_16.1.5/os/ext/CMSIS/include/core_cmFunc.h" 1
 194 0006 83F31188 		MSR basepri, r3
 195              	@ 0 "" 2
 196              		.thumb
 197              	.LBE105:
 198              	.LBE106:
 199              	.LBE107:
 200              	.LBE108:
 201              	.LBE109:
 202              		.loc 1 120 0
 203 000a FFF7FEFF 		bl	i2c_lld_stop
 204              	.LVL9:
 205              		.loc 1 121 0
 206 000e 0123     		movs	r3, #1
 207 0010 2370     		strb	r3, [r4]
 208              	.LVL10:
 209              	.LBB110:
 210              	.LBB111:
 211              	.LBB112:
 212              	.LBB113:
 213              	.LBB114:
 214              	.LBB115:
 215              		.loc 3 548 0
 216 0012 0023     		movs	r3, #0
 217              	@ 548 "/home/maciek/ChibiOS_16.1.5/os/ext/CMSIS/include/core_cmFunc.h" 1
 218 0014 83F31188 		MSR basepri, r3
 219              	@ 0 "" 2
 220              		.thumb
 221 0018 10BD     		pop	{r4, pc}
 222              	.LBE115:
 223              	.LBE114:
 224              	.LBE113:
 225              	.LBE112:
 226              	.LBE111:
 227              	.LBE110:
 228              		.cfi_endproc
ARM GAS  /tmp/ccnDxhvs.s 			page 5


 229              	.LFE210:
 230              		.size	i2cStop, .-i2cStop
 231 001a 00BF     		.section	.text.i2cGetErrors,"ax",%progbits
 232              		.align	2
 233              		.p2align 4,,15
 234              		.global	i2cGetErrors
 235              		.thumb
 236              		.thumb_func
 237              		.type	i2cGetErrors, %function
 238              	i2cGetErrors:
 239              	.LFB211:
 240              		.loc 1 133 0
 241              		.cfi_startproc
 242              		@ args = 0, pretend = 0, frame = 0
 243              		@ frame_needed = 0, uses_anonymous_args = 0
 244              		@ link register save eliminated.
 245              	.LVL11:
 246              		.loc 1 138 0
 247 0000 8068     		ldr	r0, [r0, #8]
 248              	.LVL12:
 249 0002 7047     		bx	lr
 250              		.cfi_endproc
 251              	.LFE211:
 252              		.size	i2cGetErrors, .-i2cGetErrors
 253              		.section	.text.i2cMasterTransmitTimeout,"ax",%progbits
 254              		.align	2
 255              		.p2align 4,,15
 256              		.global	i2cMasterTransmitTimeout
 257              		.thumb
 258              		.thumb_func
 259              		.type	i2cMasterTransmitTimeout, %function
 260              	i2cMasterTransmitTimeout:
 261              	.LFB212:
 262              		.loc 1 172 0
 263              		.cfi_startproc
 264              		@ args = 12, pretend = 0, frame = 0
 265              		@ frame_needed = 0, uses_anonymous_args = 0
 266              	.LVL13:
 267 0000 F0B5     		push	{r4, r5, r6, r7, lr}
 268              		.cfi_def_cfa_offset 20
 269              		.cfi_offset 4, -20
 270              		.cfi_offset 5, -16
 271              		.cfi_offset 6, -12
 272              		.cfi_offset 7, -8
 273              		.cfi_offset 14, -4
 274 0002 85B0     		sub	sp, sp, #20
 275              		.cfi_def_cfa_offset 40
 276              		.loc 1 172 0
 277 0004 0446     		mov	r4, r0
 278 0006 BDF83070 		ldrh	r7, [sp, #48]
 279              	.LBB116:
 280              	.LBB117:
 281              	.LBB118:
 282              	.LBB119:
 283              	.LBB120:
 284              		.loc 3 548 0
 285 000a 2025     		movs	r5, #32
ARM GAS  /tmp/ccnDxhvs.s 			page 6


 286              	@ 548 "/home/maciek/ChibiOS_16.1.5/os/ext/CMSIS/include/core_cmFunc.h" 1
 287 000c 85F31188 		MSR basepri, r5
 288              	@ 0 "" 2
 289              		.thumb
 290              	.LBE120:
 291              	.LBE119:
 292              	.LBE118:
 293              	.LBE117:
 294              	.LBE116:
 295              		.loc 1 185 0
 296 0010 0A9D     		ldr	r5, [sp, #40]
 297              		.loc 1 184 0
 298 0012 4FF0030E 		mov	lr, #3
 299              		.loc 1 185 0
 300 0016 0095     		str	r5, [sp]
 301 0018 0B9D     		ldr	r5, [sp, #44]
 302              		.loc 1 183 0
 303 001a 0026     		movs	r6, #0
 304              		.loc 1 185 0
 305 001c 0195     		str	r5, [sp, #4]
 306 001e 0297     		str	r7, [sp, #8]
 307              		.loc 1 183 0
 308 0020 8660     		str	r6, [r0, #8]
 309              		.loc 1 184 0
 310 0022 80F800E0 		strb	lr, [r0]
 311              		.loc 1 185 0
 312 0026 FFF7FEFF 		bl	i2c_lld_master_transmit_timeout
 313              	.LVL14:
 314              		.loc 1 187 0
 315 002a 431C     		adds	r3, r0, #1
 316              		.loc 1 188 0
 317 002c 0CBF     		ite	eq
 318 002e 0523     		moveq	r3, #5
 319              		.loc 1 191 0
 320 0030 0223     		movne	r3, #2
 321 0032 2370     		strb	r3, [r4]
 322              	.LVL15:
 323              	.LBB121:
 324              	.LBB122:
 325              	.LBB123:
 326              	.LBB124:
 327              	.LBB125:
 328              	.LBB126:
 329              		.loc 3 548 0
 330 0034 0023     		movs	r3, #0
 331              	@ 548 "/home/maciek/ChibiOS_16.1.5/os/ext/CMSIS/include/core_cmFunc.h" 1
 332 0036 83F31188 		MSR basepri, r3
 333              	@ 0 "" 2
 334              		.thumb
 335              	.LBE126:
 336              	.LBE125:
 337              	.LBE124:
 338              	.LBE123:
 339              	.LBE122:
 340              	.LBE121:
 341              		.loc 1 195 0
 342 003a 05B0     		add	sp, sp, #20
ARM GAS  /tmp/ccnDxhvs.s 			page 7


 343              		.cfi_def_cfa_offset 20
 344              		@ sp needed
 345 003c F0BD     		pop	{r4, r5, r6, r7, pc}
 346              		.cfi_endproc
 347              	.LFE212:
 348              		.size	i2cMasterTransmitTimeout, .-i2cMasterTransmitTimeout
 349 003e 00BF     		.section	.text.i2cMasterReceiveTimeout,"ax",%progbits
 350              		.align	2
 351              		.p2align 4,,15
 352              		.global	i2cMasterReceiveTimeout
 353              		.thumb
 354              		.thumb_func
 355              		.type	i2cMasterReceiveTimeout, %function
 356              	i2cMasterReceiveTimeout:
 357              	.LFB213:
 358              		.loc 1 221 0
 359              		.cfi_startproc
 360              		@ args = 4, pretend = 0, frame = 0
 361              		@ frame_needed = 0, uses_anonymous_args = 0
 362              	.LVL16:
 363 0000 F0B5     		push	{r4, r5, r6, r7, lr}
 364              		.cfi_def_cfa_offset 20
 365              		.cfi_offset 4, -20
 366              		.cfi_offset 5, -16
 367              		.cfi_offset 6, -12
 368              		.cfi_offset 7, -8
 369              		.cfi_offset 14, -4
 370 0002 83B0     		sub	sp, sp, #12
 371              		.cfi_def_cfa_offset 32
 372              		.loc 1 221 0
 373 0004 0446     		mov	r4, r0
 374 0006 BDF82070 		ldrh	r7, [sp, #32]
 375              	.LBB127:
 376              	.LBB128:
 377              	.LBB129:
 378              	.LBB130:
 379              	.LBB131:
 380              		.loc 3 548 0
 381 000a 2025     		movs	r5, #32
 382              	@ 548 "/home/maciek/ChibiOS_16.1.5/os/ext/CMSIS/include/core_cmFunc.h" 1
 383 000c 85F31188 		MSR basepri, r5
 384              	@ 0 "" 2
 385              		.thumb
 386              	.LBE131:
 387              	.LBE130:
 388              	.LBE129:
 389              	.LBE128:
 390              	.LBE127:
 391              		.loc 1 232 0
 392 0010 0026     		movs	r6, #0
 393              		.loc 1 233 0
 394 0012 0425     		movs	r5, #4
 395              		.loc 1 234 0
 396 0014 0097     		str	r7, [sp]
 397              		.loc 1 232 0
 398 0016 8660     		str	r6, [r0, #8]
 399              		.loc 1 233 0
ARM GAS  /tmp/ccnDxhvs.s 			page 8


 400 0018 0570     		strb	r5, [r0]
 401              		.loc 1 234 0
 402 001a FFF7FEFF 		bl	i2c_lld_master_receive_timeout
 403              	.LVL17:
 404              		.loc 1 235 0
 405 001e 431C     		adds	r3, r0, #1
 406              		.loc 1 236 0
 407 0020 0CBF     		ite	eq
 408 0022 0523     		moveq	r3, #5
 409              		.loc 1 239 0
 410 0024 0223     		movne	r3, #2
 411 0026 2370     		strb	r3, [r4]
 412              	.LVL18:
 413              	.LBB132:
 414              	.LBB133:
 415              	.LBB134:
 416              	.LBB135:
 417              	.LBB136:
 418              	.LBB137:
 419              		.loc 3 548 0
 420 0028 0023     		movs	r3, #0
 421              	@ 548 "/home/maciek/ChibiOS_16.1.5/os/ext/CMSIS/include/core_cmFunc.h" 1
 422 002a 83F31188 		MSR basepri, r3
 423              	@ 0 "" 2
 424              		.thumb
 425              	.LBE137:
 426              	.LBE136:
 427              	.LBE135:
 428              	.LBE134:
 429              	.LBE133:
 430              	.LBE132:
 431              		.loc 1 243 0
 432 002e 03B0     		add	sp, sp, #12
 433              		.cfi_def_cfa_offset 20
 434              		@ sp needed
 435 0030 F0BD     		pop	{r4, r5, r6, r7, pc}
 436              		.cfi_endproc
 437              	.LFE213:
 438              		.size	i2cMasterReceiveTimeout, .-i2cMasterReceiveTimeout
 439 0032 00BF     		.section	.text.i2cAcquireBus,"ax",%progbits
 440              		.align	2
 441              		.p2align 4,,15
 442              		.global	i2cAcquireBus
 443              		.thumb
 444              		.thumb_func
 445              		.type	i2cAcquireBus, %function
 446              	i2cAcquireBus:
 447              	.LFB214:
 448              		.loc 1 257 0
 449              		.cfi_startproc
 450              		@ args = 0, pretend = 0, frame = 0
 451              		@ frame_needed = 0, uses_anonymous_args = 0
 452              		@ link register save eliminated.
 453              	.LVL19:
 454              	.LBB138:
 455              	.LBB139:
 456              		.loc 2 907 0
ARM GAS  /tmp/ccnDxhvs.s 			page 9


 457 0000 0C30     		adds	r0, r0, #12
 458              	.LVL20:
 459 0002 FFF7FEBF 		b	chMtxLock
 460              	.LVL21:
 461              	.LBE139:
 462              	.LBE138:
 463              		.cfi_endproc
 464              	.LFE214:
 465              		.size	i2cAcquireBus, .-i2cAcquireBus
 466 0006 00BF     		.section	.text.i2cReleaseBus,"ax",%progbits
 467              		.align	2
 468              		.p2align 4,,15
 469              		.global	i2cReleaseBus
 470              		.thumb
 471              		.thumb_func
 472              		.type	i2cReleaseBus, %function
 473              	i2cReleaseBus:
 474              	.LFB215:
 475              		.loc 1 273 0
 476              		.cfi_startproc
 477              		@ args = 0, pretend = 0, frame = 0
 478              		@ frame_needed = 0, uses_anonymous_args = 0
 479              		@ link register save eliminated.
 480              	.LVL22:
 481              	.LBB140:
 482              	.LBB141:
 483              		.loc 2 931 0
 484 0000 0C30     		adds	r0, r0, #12
 485              	.LVL23:
 486 0002 FFF7FEBF 		b	chMtxUnlock
 487              	.LVL24:
 488              	.LBE141:
 489              	.LBE140:
 490              		.cfi_endproc
 491              	.LFE215:
 492              		.size	i2cReleaseBus, .-i2cReleaseBus
 493 0006 00BF     		.text
 494              	.Letext0:
 495              		.file 4 "/opt/stm32/gcc/gcc-arm-none-eabi-4_9-2015q2/lib/gcc/arm-none-eabi/4.9.3/include/stddef.h"
 496              		.file 5 "/opt/stm32/gcc/gcc-arm-none-eabi-4_9-2015q2/arm-none-eabi/include/machine/_default_types.
 497              		.file 6 "/opt/stm32/gcc/gcc-arm-none-eabi-4_9-2015q2/arm-none-eabi/include/sys/_stdint.h"
 498              		.file 7 "/home/maciek/ChibiOS_16.1.5/os/rt/ports/ARMCMx/compilers/GCC/chtypes.h"
 499              		.file 8 "/home/maciek/ChibiOS_16.1.5/os/rt/include/chsystypes.h"
 500              		.file 9 "/home/maciek/ChibiOS_16.1.5/os/rt/include/chschd.h"
 501              		.file 10 "/home/maciek/ChibiOS_16.1.5/os/ext/CMSIS/ST/STM32F1xx/stm32f103xe.h"
 502              		.file 11 "/home/maciek/ChibiOS_16.1.5/os/rt/ports/ARMCMx/chcore.h"
 503              		.file 12 "/home/maciek/ChibiOS_16.1.5/os/rt/ports/ARMCMx/chcore_v7m.h"
 504              		.file 13 "/home/maciek/ChibiOS_16.1.5/os/rt/include/chtm.h"
 505              		.file 14 "/home/maciek/ChibiOS_16.1.5/os/rt/include/chsem.h"
 506              		.file 15 "/home/maciek/ChibiOS_16.1.5/os/rt/include/chmtx.h"
 507              		.file 16 "/home/maciek/ChibiOS_16.1.5/os/hal/ports/STM32/LLD/DMAv1/stm32_dma.h"
 508              		.file 17 "/home/maciek/ChibiOS_16.1.5/os/hal/include/i2c.h"
 509              		.file 18 "/home/maciek/ChibiOS_16.1.5/os/hal/ports/STM32/LLD/I2Cv1/i2c_lld.h"
 510              		.file 19 "/home/maciek/ChibiOS_16.1.5/os/rt/include/chsys.h"
 511              		.file 20 "/home/maciek/ChibiOS_16.1.5/os/ext/CMSIS/include/core_cm3.h"
 512              		.section	.debug_info,"",%progbits
 513              	.Ldebug_info0:
ARM GAS  /tmp/ccnDxhvs.s 			page 10


 514 0000 2B110000 		.4byte	0x112b
 515 0004 0400     		.2byte	0x4
 516 0006 00000000 		.4byte	.Ldebug_abbrev0
 517 000a 04       		.byte	0x4
 518 000b 01       		.uleb128 0x1
 519 000c B2010000 		.4byte	.LASF183
 520 0010 01       		.byte	0x1
 521 0011 05070000 		.4byte	.LASF184
 522 0015 30000000 		.4byte	.Ldebug_ranges0+0x30
 523 0019 00000000 		.4byte	0
 524 001d 00000000 		.4byte	.Ldebug_line0
 525 0021 02       		.uleb128 0x2
 526 0022 04       		.byte	0x4
 527 0023 05       		.byte	0x5
 528 0024 696E7400 		.ascii	"int\000"
 529 0028 03       		.uleb128 0x3
 530 0029 22000000 		.4byte	.LASF2
 531 002d 04       		.byte	0x4
 532 002e D4       		.byte	0xd4
 533 002f 33000000 		.4byte	0x33
 534 0033 04       		.uleb128 0x4
 535 0034 04       		.byte	0x4
 536 0035 07       		.byte	0x7
 537 0036 79030000 		.4byte	.LASF0
 538 003a 04       		.uleb128 0x4
 539 003b 01       		.byte	0x1
 540 003c 06       		.byte	0x6
 541 003d 58010000 		.4byte	.LASF1
 542 0041 03       		.uleb128 0x3
 543 0042 39000000 		.4byte	.LASF3
 544 0046 05       		.byte	0x5
 545 0047 1D       		.byte	0x1d
 546 0048 4C000000 		.4byte	0x4c
 547 004c 04       		.uleb128 0x4
 548 004d 01       		.byte	0x1
 549 004e 08       		.byte	0x8
 550 004f 26060000 		.4byte	.LASF4
 551 0053 04       		.uleb128 0x4
 552 0054 02       		.byte	0x2
 553 0055 05       		.byte	0x5
 554 0056 6A040000 		.4byte	.LASF5
 555 005a 03       		.uleb128 0x3
 556 005b 61070000 		.4byte	.LASF6
 557 005f 05       		.byte	0x5
 558 0060 2B       		.byte	0x2b
 559 0061 65000000 		.4byte	0x65
 560 0065 04       		.uleb128 0x4
 561 0066 02       		.byte	0x2
 562 0067 07       		.byte	0x7
 563 0068 E1030000 		.4byte	.LASF7
 564 006c 03       		.uleb128 0x3
 565 006d 74040000 		.4byte	.LASF8
 566 0071 05       		.byte	0x5
 567 0072 3F       		.byte	0x3f
 568 0073 77000000 		.4byte	0x77
 569 0077 04       		.uleb128 0x4
 570 0078 04       		.byte	0x4
ARM GAS  /tmp/ccnDxhvs.s 			page 11


 571 0079 05       		.byte	0x5
 572 007a B2020000 		.4byte	.LASF9
 573 007e 03       		.uleb128 0x3
 574 007f 13030000 		.4byte	.LASF10
 575 0083 05       		.byte	0x5
 576 0084 41       		.byte	0x41
 577 0085 89000000 		.4byte	0x89
 578 0089 04       		.uleb128 0x4
 579 008a 04       		.byte	0x4
 580 008b 07       		.byte	0x7
 581 008c 70010000 		.4byte	.LASF11
 582 0090 04       		.uleb128 0x4
 583 0091 08       		.byte	0x8
 584 0092 05       		.byte	0x5
 585 0093 CB020000 		.4byte	.LASF12
 586 0097 03       		.uleb128 0x3
 587 0098 66050000 		.4byte	.LASF13
 588 009c 05       		.byte	0x5
 589 009d 5B       		.byte	0x5b
 590 009e A2000000 		.4byte	0xa2
 591 00a2 04       		.uleb128 0x4
 592 00a3 08       		.byte	0x8
 593 00a4 07       		.byte	0x7
 594 00a5 9C000000 		.4byte	.LASF14
 595 00a9 03       		.uleb128 0x3
 596 00aa 41080000 		.4byte	.LASF15
 597 00ae 06       		.byte	0x6
 598 00af 14       		.byte	0x14
 599 00b0 41000000 		.4byte	0x41
 600 00b4 03       		.uleb128 0x3
 601 00b5 38040000 		.4byte	.LASF16
 602 00b9 06       		.byte	0x6
 603 00ba 1A       		.byte	0x1a
 604 00bb 5A000000 		.4byte	0x5a
 605 00bf 03       		.uleb128 0x3
 606 00c0 1E060000 		.4byte	.LASF17
 607 00c4 06       		.byte	0x6
 608 00c5 1F       		.byte	0x1f
 609 00c6 6C000000 		.4byte	0x6c
 610 00ca 03       		.uleb128 0x3
 611 00cb E4060000 		.4byte	.LASF18
 612 00cf 06       		.byte	0x6
 613 00d0 20       		.byte	0x20
 614 00d1 7E000000 		.4byte	0x7e
 615 00d5 03       		.uleb128 0x3
 616 00d6 30000000 		.4byte	.LASF19
 617 00da 06       		.byte	0x6
 618 00db 26       		.byte	0x26
 619 00dc 97000000 		.4byte	0x97
 620 00e0 03       		.uleb128 0x3
 621 00e1 F3070000 		.4byte	.LASF20
 622 00e5 07       		.byte	0x7
 623 00e6 39       		.byte	0x39
 624 00e7 CA000000 		.4byte	0xca
 625 00eb 03       		.uleb128 0x3
 626 00ec 30040000 		.4byte	.LASF21
 627 00f0 07       		.byte	0x7
ARM GAS  /tmp/ccnDxhvs.s 			page 12


 628 00f1 3C       		.byte	0x3c
 629 00f2 A9000000 		.4byte	0xa9
 630 00f6 03       		.uleb128 0x3
 631 00f7 BB020000 		.4byte	.LASF22
 632 00fb 07       		.byte	0x7
 633 00fc 3D       		.byte	0x3d
 634 00fd A9000000 		.4byte	0xa9
 635 0101 03       		.uleb128 0x3
 636 0102 71050000 		.4byte	.LASF23
 637 0106 07       		.byte	0x7
 638 0107 3E       		.byte	0x3e
 639 0108 A9000000 		.4byte	0xa9
 640 010c 03       		.uleb128 0x3
 641 010d D1050000 		.4byte	.LASF24
 642 0111 07       		.byte	0x7
 643 0112 40       		.byte	0x40
 644 0113 CA000000 		.4byte	0xca
 645 0117 03       		.uleb128 0x3
 646 0118 0E040000 		.4byte	.LASF25
 647 011c 07       		.byte	0x7
 648 011d 41       		.byte	0x41
 649 011e BF000000 		.4byte	0xbf
 650 0122 03       		.uleb128 0x3
 651 0123 5E040000 		.4byte	.LASF26
 652 0127 07       		.byte	0x7
 653 0128 43       		.byte	0x43
 654 0129 CA000000 		.4byte	0xca
 655 012d 03       		.uleb128 0x3
 656 012e 73030000 		.4byte	.LASF27
 657 0132 07       		.byte	0x7
 658 0133 45       		.byte	0x45
 659 0134 BF000000 		.4byte	0xbf
 660 0138 03       		.uleb128 0x3
 661 0139 7C070000 		.4byte	.LASF28
 662 013d 08       		.byte	0x8
 663 013e 35       		.byte	0x35
 664 013f B4000000 		.4byte	0xb4
 665 0143 03       		.uleb128 0x3
 666 0144 6C070000 		.4byte	.LASF29
 667 0148 08       		.byte	0x8
 668 0149 3F       		.byte	0x3f
 669 014a 4E010000 		.4byte	0x14e
 670 014e 05       		.uleb128 0x5
 671 014f FE030000 		.4byte	.LASF46
 672 0153 38       		.byte	0x38
 673 0154 09       		.byte	0x9
 674 0155 C2       		.byte	0xc2
 675 0156 17020000 		.4byte	0x217
 676 015a 06       		.uleb128 0x6
 677 015b 6C060000 		.4byte	.LASF30
 678 015f 09       		.byte	0x9
 679 0160 C3       		.byte	0xc3
 680 0161 22020000 		.4byte	0x222
 681 0165 00       		.byte	0
 682 0166 06       		.uleb128 0x6
 683 0167 A9050000 		.4byte	.LASF31
 684 016b 09       		.byte	0x9
ARM GAS  /tmp/ccnDxhvs.s 			page 13


 685 016c C5       		.byte	0xc5
 686 016d 22020000 		.4byte	0x222
 687 0171 04       		.byte	0x4
 688 0172 06       		.uleb128 0x6
 689 0173 18010000 		.4byte	.LASF32
 690 0177 09       		.byte	0x9
 691 0178 C7       		.byte	0xc7
 692 0179 0C010000 		.4byte	0x10c
 693 017d 08       		.byte	0x8
 694 017e 06       		.uleb128 0x6
 695 017f C5080000 		.4byte	.LASF33
 696 0183 09       		.byte	0x9
 697 0184 C8       		.byte	0xc8
 698 0185 41050000 		.4byte	0x541
 699 0189 0C       		.byte	0xc
 700 018a 06       		.uleb128 0x6
 701 018b 49060000 		.4byte	.LASF34
 702 018f 09       		.byte	0x9
 703 0190 DD       		.byte	0xdd
 704 0191 F6000000 		.4byte	0xf6
 705 0195 10       		.byte	0x10
 706 0196 06       		.uleb128 0x6
 707 0197 73060000 		.4byte	.LASF35
 708 019b 09       		.byte	0x9
 709 019c E1       		.byte	0xe1
 710 019d EB000000 		.4byte	0xeb
 711 01a1 11       		.byte	0x11
 712 01a2 06       		.uleb128 0x6
 713 01a3 29080000 		.4byte	.LASF36
 714 01a7 09       		.byte	0x9
 715 01a8 E6       		.byte	0xe6
 716 01a9 01010000 		.4byte	0x101
 717 01ad 12       		.byte	0x12
 718 01ae 07       		.uleb128 0x7
 719 01af 705F7500 		.ascii	"p_u\000"
 720 01b3 09       		.byte	0x9
 721 01b4 3101     		.2byte	0x131
 722 01b6 FB050000 		.4byte	0x5fb
 723 01ba 14       		.byte	0x14
 724 01bb 08       		.uleb128 0x8
 725 01bc AB040000 		.4byte	.LASF37
 726 01c0 09       		.byte	0x9
 727 01c1 3601     		.2byte	0x136
 728 01c3 28020000 		.4byte	0x228
 729 01c7 18       		.byte	0x18
 730 01c8 08       		.uleb128 0x8
 731 01c9 A0030000 		.4byte	.LASF38
 732 01cd 09       		.byte	0x9
 733 01ce 3C01     		.2byte	0x13c
 734 01d0 4C020000 		.4byte	0x24c
 735 01d4 1C       		.byte	0x1c
 736 01d5 08       		.uleb128 0x8
 737 01d6 91080000 		.4byte	.LASF39
 738 01da 09       		.byte	0x9
 739 01db 4001     		.2byte	0x140
 740 01dd 17010000 		.4byte	0x117
 741 01e1 24       		.byte	0x24
ARM GAS  /tmp/ccnDxhvs.s 			page 14


 742 01e2 08       		.uleb128 0x8
 743 01e3 D9060000 		.4byte	.LASF40
 744 01e7 09       		.byte	0x9
 745 01e8 4601     		.2byte	0x146
 746 01ea 22010000 		.4byte	0x122
 747 01ee 28       		.byte	0x28
 748 01ef 08       		.uleb128 0x8
 749 01f0 34060000 		.4byte	.LASF41
 750 01f4 09       		.byte	0x9
 751 01f5 4D01     		.2byte	0x14d
 752 01f7 BA060000 		.4byte	0x6ba
 753 01fb 2C       		.byte	0x2c
 754 01fc 08       		.uleb128 0x8
 755 01fd 86070000 		.4byte	.LASF42
 756 0201 09       		.byte	0x9
 757 0202 5101     		.2byte	0x151
 758 0204 0C010000 		.4byte	0x10c
 759 0208 30       		.byte	0x30
 760 0209 08       		.uleb128 0x8
 761 020a 82010000 		.4byte	.LASF43
 762 020e 09       		.byte	0x9
 763 020f 5801     		.2byte	0x158
 764 0211 E5020000 		.4byte	0x2e5
 765 0215 34       		.byte	0x34
 766 0216 00       		.byte	0
 767 0217 03       		.uleb128 0x3
 768 0218 CC040000 		.4byte	.LASF44
 769 021c 08       		.byte	0x8
 770 021d 44       		.byte	0x44
 771 021e 22020000 		.4byte	0x222
 772 0222 09       		.uleb128 0x9
 773 0223 04       		.byte	0x4
 774 0224 43010000 		.4byte	0x143
 775 0228 03       		.uleb128 0x3
 776 0229 96040000 		.4byte	.LASF45
 777 022d 08       		.byte	0x8
 778 022e 49       		.byte	0x49
 779 022f 33020000 		.4byte	0x233
 780 0233 05       		.uleb128 0x5
 781 0234 14040000 		.4byte	.LASF47
 782 0238 04       		.byte	0x4
 783 0239 09       		.byte	0x9
 784 023a B0       		.byte	0xb0
 785 023b 4C020000 		.4byte	0x24c
 786 023f 06       		.uleb128 0x6
 787 0240 6C060000 		.4byte	.LASF30
 788 0244 09       		.byte	0x9
 789 0245 B1       		.byte	0xb1
 790 0246 22020000 		.4byte	0x222
 791 024a 00       		.byte	0
 792 024b 00       		.byte	0
 793 024c 03       		.uleb128 0x3
 794 024d 0C080000 		.4byte	.LASF48
 795 0251 08       		.byte	0x8
 796 0252 50       		.byte	0x50
 797 0253 57020000 		.4byte	0x257
 798 0257 05       		.uleb128 0x5
ARM GAS  /tmp/ccnDxhvs.s 			page 15


 799 0258 07010000 		.4byte	.LASF49
 800 025c 08       		.byte	0x8
 801 025d 09       		.byte	0x9
 802 025e B7       		.byte	0xb7
 803 025f 7C020000 		.4byte	0x27c
 804 0263 06       		.uleb128 0x6
 805 0264 6C060000 		.4byte	.LASF30
 806 0268 09       		.byte	0x9
 807 0269 B8       		.byte	0xb8
 808 026a 22020000 		.4byte	0x222
 809 026e 00       		.byte	0
 810 026f 06       		.uleb128 0x6
 811 0270 A9050000 		.4byte	.LASF31
 812 0274 09       		.byte	0x9
 813 0275 B9       		.byte	0xb9
 814 0276 22020000 		.4byte	0x222
 815 027a 04       		.byte	0x4
 816 027b 00       		.byte	0
 817 027c 03       		.uleb128 0x3
 818 027d 15000000 		.4byte	.LASF50
 819 0281 08       		.byte	0x8
 820 0282 57       		.byte	0x57
 821 0283 87020000 		.4byte	0x287
 822 0287 0A       		.uleb128 0xa
 823 0288 50040000 		.4byte	.LASF51
 824 028c 14       		.byte	0x14
 825 028d 09       		.byte	0x9
 826 028e 9001     		.2byte	0x190
 827 0290 C9020000 		.4byte	0x2c9
 828 0294 08       		.uleb128 0x8
 829 0295 F4060000 		.4byte	.LASF52
 830 0299 09       		.byte	0x9
 831 029a 9101     		.2byte	0x191
 832 029c 4C020000 		.4byte	0x24c
 833 02a0 00       		.byte	0
 834 02a1 08       		.uleb128 0x8
 835 02a2 51060000 		.4byte	.LASF53
 836 02a6 09       		.byte	0x9
 837 02a7 9201     		.2byte	0x192
 838 02a9 0C010000 		.4byte	0x10c
 839 02ad 08       		.byte	0x8
 840 02ae 08       		.uleb128 0x8
 841 02af 28050000 		.4byte	.LASF54
 842 02b3 09       		.byte	0x9
 843 02b4 9401     		.2byte	0x194
 844 02b6 41050000 		.4byte	0x541
 845 02ba 0C       		.byte	0xc
 846 02bb 08       		.uleb128 0x8
 847 02bc 54050000 		.4byte	.LASF55
 848 02c0 09       		.byte	0x9
 849 02c1 9B01     		.2byte	0x19b
 850 02c3 22020000 		.4byte	0x222
 851 02c7 10       		.byte	0x10
 852 02c8 00       		.byte	0
 853 02c9 03       		.uleb128 0x3
 854 02ca 91070000 		.4byte	.LASF56
 855 02ce 08       		.byte	0x8
ARM GAS  /tmp/ccnDxhvs.s 			page 16


 856 02cf 5C       		.byte	0x5c
 857 02d0 D4020000 		.4byte	0x2d4
 858 02d4 09       		.uleb128 0x9
 859 02d5 04       		.byte	0x4
 860 02d6 DA020000 		.4byte	0x2da
 861 02da 0B       		.uleb128 0xb
 862 02db E5020000 		.4byte	0x2e5
 863 02df 0C       		.uleb128 0xc
 864 02e0 E5020000 		.4byte	0x2e5
 865 02e4 00       		.byte	0
 866 02e5 0D       		.uleb128 0xd
 867 02e6 04       		.byte	0x4
 868 02e7 03       		.uleb128 0x3
 869 02e8 99050000 		.4byte	.LASF57
 870 02ec 08       		.byte	0x8
 871 02ed 61       		.byte	0x61
 872 02ee F2020000 		.4byte	0x2f2
 873 02f2 0A       		.uleb128 0xa
 874 02f3 E2070000 		.4byte	.LASF58
 875 02f7 14       		.byte	0x14
 876 02f8 09       		.byte	0x9
 877 02f9 6B01     		.2byte	0x16b
 878 02fb 41030000 		.4byte	0x341
 879 02ff 08       		.uleb128 0x8
 880 0300 86030000 		.4byte	.LASF59
 881 0304 09       		.byte	0x9
 882 0305 6C01     		.2byte	0x16c
 883 0307 C0060000 		.4byte	0x6c0
 884 030b 00       		.byte	0
 885 030c 08       		.uleb128 0x8
 886 030d 27030000 		.4byte	.LASF60
 887 0311 09       		.byte	0x9
 888 0312 6D01     		.2byte	0x16d
 889 0314 C0060000 		.4byte	0x6c0
 890 0318 04       		.byte	0x4
 891 0319 08       		.uleb128 0x8
 892 031a FC060000 		.4byte	.LASF61
 893 031e 09       		.byte	0x9
 894 031f 6E01     		.2byte	0x16e
 895 0321 38010000 		.4byte	0x138
 896 0325 08       		.byte	0x8
 897 0326 08       		.uleb128 0x8
 898 0327 CB080000 		.4byte	.LASF62
 899 032b 09       		.byte	0x9
 900 032c 6F01     		.2byte	0x16f
 901 032e C9020000 		.4byte	0x2c9
 902 0332 0C       		.byte	0xc
 903 0333 08       		.uleb128 0x8
 904 0334 05080000 		.4byte	.LASF63
 905 0338 09       		.byte	0x9
 906 0339 7101     		.2byte	0x171
 907 033b E5020000 		.4byte	0x2e5
 908 033f 10       		.byte	0x10
 909 0340 00       		.byte	0
 910 0341 03       		.uleb128 0x3
 911 0342 DF000000 		.4byte	.LASF64
 912 0346 08       		.byte	0x8
ARM GAS  /tmp/ccnDxhvs.s 			page 17


 913 0347 66       		.byte	0x66
 914 0348 4C030000 		.4byte	0x34c
 915 034c 0A       		.uleb128 0xa
 916 034d DF040000 		.4byte	.LASF65
 917 0351 0C       		.byte	0xc
 918 0352 09       		.byte	0x9
 919 0353 7B01     		.2byte	0x17b
 920 0355 8E030000 		.4byte	0x38e
 921 0359 08       		.uleb128 0x8
 922 035a 86030000 		.4byte	.LASF59
 923 035e 09       		.byte	0x9
 924 035f 7C01     		.2byte	0x17c
 925 0361 C0060000 		.4byte	0x6c0
 926 0365 00       		.byte	0
 927 0366 08       		.uleb128 0x8
 928 0367 27030000 		.4byte	.LASF60
 929 036b 09       		.byte	0x9
 930 036c 7E01     		.2byte	0x17e
 931 036e C0060000 		.4byte	0x6c0
 932 0372 04       		.byte	0x4
 933 0373 08       		.uleb128 0x8
 934 0374 FC060000 		.4byte	.LASF61
 935 0378 09       		.byte	0x9
 936 0379 8001     		.2byte	0x180
 937 037b 38010000 		.4byte	0x138
 938 037f 08       		.byte	0x8
 939 0380 08       		.uleb128 0x8
 940 0381 72080000 		.4byte	.LASF66
 941 0385 09       		.byte	0x9
 942 0386 8201     		.2byte	0x182
 943 0388 C6060000 		.4byte	0x6c6
 944 038c 0A       		.byte	0xa
 945 038d 00       		.byte	0
 946 038e 03       		.uleb128 0x3
 947 038f 58000000 		.4byte	.LASF67
 948 0393 08       		.byte	0x8
 949 0394 6B       		.byte	0x6b
 950 0395 99030000 		.4byte	0x399
 951 0399 0A       		.uleb128 0xa
 952 039a 08060000 		.4byte	.LASF68
 953 039e 04       		.byte	0x4
 954 039f 09       		.byte	0x9
 955 03a0 A201     		.2byte	0x1a2
 956 03a2 B4030000 		.4byte	0x3b4
 957 03a6 08       		.uleb128 0x8
 958 03a7 B6070000 		.4byte	.LASF69
 959 03ab 09       		.byte	0x9
 960 03ac AA01     		.2byte	0x1aa
 961 03ae CB060000 		.4byte	0x6cb
 962 03b2 00       		.byte	0
 963 03b3 00       		.byte	0
 964 03b4 03       		.uleb128 0x3
 965 03b5 24040000 		.4byte	.LASF70
 966 03b9 08       		.byte	0x8
 967 03ba 70       		.byte	0x70
 968 03bb BF030000 		.4byte	0x3bf
 969 03bf 0E       		.uleb128 0xe
ARM GAS  /tmp/ccnDxhvs.s 			page 18


 970 03c0 A8020000 		.4byte	.LASF71
 971 03c4 3001     		.2byte	0x130
 972 03c6 09       		.byte	0x9
 973 03c7 C201     		.2byte	0x1c2
 974 03c9 1B040000 		.4byte	0x41b
 975 03cd 08       		.uleb128 0x8
 976 03ce 3B080000 		.4byte	.LASF72
 977 03d2 09       		.byte	0x9
 978 03d3 C601     		.2byte	0x1c6
 979 03d5 7C020000 		.4byte	0x27c
 980 03d9 00       		.byte	0
 981 03da 08       		.uleb128 0x8
 982 03db 2F030000 		.4byte	.LASF73
 983 03df 09       		.byte	0x9
 984 03e0 CA01     		.2byte	0x1ca
 985 03e2 41030000 		.4byte	0x341
 986 03e6 14       		.byte	0x14
 987 03e7 07       		.uleb128 0x7
 988 03e8 64626700 		.ascii	"dbg\000"
 989 03ec 09       		.byte	0x9
 990 03ed CE01     		.2byte	0x1ce
 991 03ef 8E030000 		.4byte	0x38e
 992 03f3 20       		.byte	0x20
 993 03f4 08       		.uleb128 0x8
 994 03f5 8E060000 		.4byte	.LASF74
 995 03f9 09       		.byte	0x9
 996 03fa D201     		.2byte	0x1d2
 997 03fc 43010000 		.4byte	0x143
 998 0400 24       		.byte	0x24
 999 0401 07       		.uleb128 0x7
 1000 0402 746D00   		.ascii	"tm\000"
 1001 0405 09       		.byte	0x9
 1002 0406 D701     		.2byte	0x1d7
 1003 0408 F0050000 		.4byte	0x5f0
 1004 040c 5C       		.byte	0x5c
 1005 040d 08       		.uleb128 0x8
 1006 040e 58030000 		.4byte	.LASF75
 1007 0412 09       		.byte	0x9
 1008 0413 E301     		.2byte	0x1e3
 1009 0415 E2060000 		.4byte	0x6e2
 1010 0419 60       		.byte	0x60
 1011 041a 00       		.byte	0
 1012 041b 04       		.uleb128 0x4
 1013 041c 04       		.byte	0x4
 1014 041d 07       		.byte	0x7
 1015 041e C3040000 		.4byte	.LASF76
 1016 0422 0F       		.uleb128 0xf
 1017 0423 CA000000 		.4byte	0xca
 1018 0427 10       		.uleb128 0x10
 1019 0428 10       		.byte	0x10
 1020 0429 0A       		.byte	0xa
 1021 042a 7201     		.2byte	0x172
 1022 042c 65040000 		.4byte	0x465
 1023 0430 07       		.uleb128 0x7
 1024 0431 43435200 		.ascii	"CCR\000"
 1025 0435 0A       		.byte	0xa
 1026 0436 7401     		.2byte	0x174
ARM GAS  /tmp/ccnDxhvs.s 			page 19


 1027 0438 22040000 		.4byte	0x422
 1028 043c 00       		.byte	0
 1029 043d 08       		.uleb128 0x8
 1030 043e 30080000 		.4byte	.LASF77
 1031 0442 0A       		.byte	0xa
 1032 0443 7501     		.2byte	0x175
 1033 0445 22040000 		.4byte	0x422
 1034 0449 04       		.byte	0x4
 1035 044a 08       		.uleb128 0x8
 1036 044b 9B030000 		.4byte	.LASF78
 1037 044f 0A       		.byte	0xa
 1038 0450 7601     		.2byte	0x176
 1039 0452 22040000 		.4byte	0x422
 1040 0456 08       		.byte	0x8
 1041 0457 08       		.uleb128 0x8
 1042 0458 36080000 		.4byte	.LASF79
 1043 045c 0A       		.byte	0xa
 1044 045d 7701     		.2byte	0x177
 1045 045f 22040000 		.4byte	0x422
 1046 0463 0C       		.byte	0xc
 1047 0464 00       		.byte	0
 1048 0465 11       		.uleb128 0x11
 1049 0466 B3030000 		.4byte	.LASF80
 1050 046a 0A       		.byte	0xa
 1051 046b 7801     		.2byte	0x178
 1052 046d 27040000 		.4byte	0x427
 1053 0471 10       		.uleb128 0x10
 1054 0472 08       		.byte	0x8
 1055 0473 0A       		.byte	0xa
 1056 0474 7A01     		.2byte	0x17a
 1057 0476 95040000 		.4byte	0x495
 1058 047a 07       		.uleb128 0x7
 1059 047b 49535200 		.ascii	"ISR\000"
 1060 047f 0A       		.byte	0xa
 1061 0480 7C01     		.2byte	0x17c
 1062 0482 22040000 		.4byte	0x422
 1063 0486 00       		.byte	0
 1064 0487 08       		.uleb128 0x8
 1065 0488 40070000 		.4byte	.LASF81
 1066 048c 0A       		.byte	0xa
 1067 048d 7D01     		.2byte	0x17d
 1068 048f 22040000 		.4byte	0x422
 1069 0493 04       		.byte	0x4
 1070 0494 00       		.byte	0
 1071 0495 11       		.uleb128 0x11
 1072 0496 67030000 		.4byte	.LASF82
 1073 049a 0A       		.byte	0xa
 1074 049b 7E01     		.2byte	0x17e
 1075 049d 71040000 		.4byte	0x471
 1076 04a1 10       		.uleb128 0x10
 1077 04a2 24       		.byte	0x24
 1078 04a3 0A       		.byte	0xa
 1079 04a4 0502     		.2byte	0x205
 1080 04a6 1F050000 		.4byte	0x51f
 1081 04aa 07       		.uleb128 0x7
 1082 04ab 43523100 		.ascii	"CR1\000"
 1083 04af 0A       		.byte	0xa
ARM GAS  /tmp/ccnDxhvs.s 			page 20


 1084 04b0 0702     		.2byte	0x207
 1085 04b2 22040000 		.4byte	0x422
 1086 04b6 00       		.byte	0
 1087 04b7 07       		.uleb128 0x7
 1088 04b8 43523200 		.ascii	"CR2\000"
 1089 04bc 0A       		.byte	0xa
 1090 04bd 0802     		.2byte	0x208
 1091 04bf 22040000 		.4byte	0x422
 1092 04c3 04       		.byte	0x4
 1093 04c4 08       		.uleb128 0x8
 1094 04c5 49080000 		.4byte	.LASF83
 1095 04c9 0A       		.byte	0xa
 1096 04ca 0902     		.2byte	0x209
 1097 04cc 22040000 		.4byte	0x422
 1098 04d0 08       		.byte	0x8
 1099 04d1 08       		.uleb128 0x8
 1100 04d2 4E080000 		.4byte	.LASF84
 1101 04d6 0A       		.byte	0xa
 1102 04d7 0A02     		.2byte	0x20a
 1103 04d9 22040000 		.4byte	0x422
 1104 04dd 0C       		.byte	0xc
 1105 04de 07       		.uleb128 0x7
 1106 04df 445200   		.ascii	"DR\000"
 1107 04e2 0A       		.byte	0xa
 1108 04e3 0B02     		.2byte	0x20b
 1109 04e5 22040000 		.4byte	0x422
 1110 04e9 10       		.byte	0x10
 1111 04ea 07       		.uleb128 0x7
 1112 04eb 53523100 		.ascii	"SR1\000"
 1113 04ef 0A       		.byte	0xa
 1114 04f0 0C02     		.2byte	0x20c
 1115 04f2 22040000 		.4byte	0x422
 1116 04f6 14       		.byte	0x14
 1117 04f7 07       		.uleb128 0x7
 1118 04f8 53523200 		.ascii	"SR2\000"
 1119 04fc 0A       		.byte	0xa
 1120 04fd 0D02     		.2byte	0x20d
 1121 04ff 22040000 		.4byte	0x422
 1122 0503 18       		.byte	0x18
 1123 0504 07       		.uleb128 0x7
 1124 0505 43435200 		.ascii	"CCR\000"
 1125 0509 0A       		.byte	0xa
 1126 050a 0E02     		.2byte	0x20e
 1127 050c 22040000 		.4byte	0x422
 1128 0510 1C       		.byte	0x1c
 1129 0511 08       		.uleb128 0x8
 1130 0512 86000000 		.4byte	.LASF85
 1131 0516 0A       		.byte	0xa
 1132 0517 0F02     		.2byte	0x20f
 1133 0519 22040000 		.4byte	0x422
 1134 051d 20       		.byte	0x20
 1135 051e 00       		.byte	0
 1136 051f 11       		.uleb128 0x11
 1137 0520 97080000 		.4byte	.LASF86
 1138 0524 0A       		.byte	0xa
 1139 0525 1002     		.2byte	0x210
 1140 0527 A1040000 		.4byte	0x4a1
ARM GAS  /tmp/ccnDxhvs.s 			page 21


 1141 052b 03       		.uleb128 0x3
 1142 052c 1E030000 		.4byte	.LASF87
 1143 0530 0B       		.byte	0xb
 1144 0531 65       		.byte	0x65
 1145 0532 E5020000 		.4byte	0x2e5
 1146 0536 03       		.uleb128 0x3
 1147 0537 7E040000 		.4byte	.LASF88
 1148 053b 0B       		.byte	0xb
 1149 053c 6D       		.byte	0x6d
 1150 053d D5000000 		.4byte	0xd5
 1151 0541 05       		.uleb128 0x5
 1152 0542 DA070000 		.4byte	.LASF89
 1153 0546 04       		.byte	0x4
 1154 0547 0B       		.byte	0xb
 1155 0548 89       		.byte	0x89
 1156 0549 5A050000 		.4byte	0x55a
 1157 054d 12       		.uleb128 0x12
 1158 054e 72313300 		.ascii	"r13\000"
 1159 0552 0B       		.byte	0xb
 1160 0553 8A       		.byte	0x8a
 1161 0554 D5050000 		.4byte	0x5d5
 1162 0558 00       		.byte	0
 1163 0559 00       		.byte	0
 1164 055a 05       		.uleb128 0x5
 1165 055b 4C000000 		.4byte	.LASF90
 1166 055f 24       		.byte	0x24
 1167 0560 0C       		.byte	0xc
 1168 0561 FD       		.byte	0xfd
 1169 0562 D5050000 		.4byte	0x5d5
 1170 0566 07       		.uleb128 0x7
 1171 0567 723400   		.ascii	"r4\000"
 1172 056a 0C       		.byte	0xc
 1173 056b 1001     		.2byte	0x110
 1174 056d 2B050000 		.4byte	0x52b
 1175 0571 00       		.byte	0
 1176 0572 07       		.uleb128 0x7
 1177 0573 723500   		.ascii	"r5\000"
 1178 0576 0C       		.byte	0xc
 1179 0577 1101     		.2byte	0x111
 1180 0579 2B050000 		.4byte	0x52b
 1181 057d 04       		.byte	0x4
 1182 057e 07       		.uleb128 0x7
 1183 057f 723600   		.ascii	"r6\000"
 1184 0582 0C       		.byte	0xc
 1185 0583 1201     		.2byte	0x112
 1186 0585 2B050000 		.4byte	0x52b
 1187 0589 08       		.byte	0x8
 1188 058a 07       		.uleb128 0x7
 1189 058b 723700   		.ascii	"r7\000"
 1190 058e 0C       		.byte	0xc
 1191 058f 1301     		.2byte	0x113
 1192 0591 2B050000 		.4byte	0x52b
 1193 0595 0C       		.byte	0xc
 1194 0596 07       		.uleb128 0x7
 1195 0597 723800   		.ascii	"r8\000"
 1196 059a 0C       		.byte	0xc
 1197 059b 1401     		.2byte	0x114
ARM GAS  /tmp/ccnDxhvs.s 			page 22


 1198 059d 2B050000 		.4byte	0x52b
 1199 05a1 10       		.byte	0x10
 1200 05a2 07       		.uleb128 0x7
 1201 05a3 723900   		.ascii	"r9\000"
 1202 05a6 0C       		.byte	0xc
 1203 05a7 1501     		.2byte	0x115
 1204 05a9 2B050000 		.4byte	0x52b
 1205 05ad 14       		.byte	0x14
 1206 05ae 07       		.uleb128 0x7
 1207 05af 72313000 		.ascii	"r10\000"
 1208 05b3 0C       		.byte	0xc
 1209 05b4 1601     		.2byte	0x116
 1210 05b6 2B050000 		.4byte	0x52b
 1211 05ba 18       		.byte	0x18
 1212 05bb 07       		.uleb128 0x7
 1213 05bc 72313100 		.ascii	"r11\000"
 1214 05c0 0C       		.byte	0xc
 1215 05c1 1701     		.2byte	0x117
 1216 05c3 2B050000 		.4byte	0x52b
 1217 05c7 1C       		.byte	0x1c
 1218 05c8 07       		.uleb128 0x7
 1219 05c9 6C7200   		.ascii	"lr\000"
 1220 05cc 0C       		.byte	0xc
 1221 05cd 1801     		.2byte	0x118
 1222 05cf 2B050000 		.4byte	0x52b
 1223 05d3 20       		.byte	0x20
 1224 05d4 00       		.byte	0
 1225 05d5 09       		.uleb128 0x9
 1226 05d6 04       		.byte	0x4
 1227 05d7 5A050000 		.4byte	0x55a
 1228 05db 13       		.uleb128 0x13
 1229 05dc 04       		.byte	0x4
 1230 05dd 0D       		.byte	0xd
 1231 05de 38       		.byte	0x38
 1232 05df F0050000 		.4byte	0x5f0
 1233 05e3 06       		.uleb128 0x6
 1234 05e4 CA070000 		.4byte	.LASF91
 1235 05e8 0D       		.byte	0xd
 1236 05e9 3C       		.byte	0x3c
 1237 05ea E0000000 		.4byte	0xe0
 1238 05ee 00       		.byte	0
 1239 05ef 00       		.byte	0
 1240 05f0 03       		.uleb128 0x3
 1241 05f1 38050000 		.4byte	.LASF92
 1242 05f5 0D       		.byte	0xd
 1243 05f6 3D       		.byte	0x3d
 1244 05f7 DB050000 		.4byte	0x5db
 1245 05fb 14       		.uleb128 0x14
 1246 05fc 04       		.byte	0x4
 1247 05fd 09       		.byte	0x9
 1248 05fe FA       		.byte	0xfa
 1249 05ff 58060000 		.4byte	0x658
 1250 0603 15       		.uleb128 0x15
 1251 0604 29000000 		.4byte	.LASF93
 1252 0608 09       		.byte	0x9
 1253 0609 0101     		.2byte	0x101
 1254 060b 17010000 		.4byte	0x117
ARM GAS  /tmp/ccnDxhvs.s 			page 23


 1255 060f 15       		.uleb128 0x15
 1256 0610 C1000000 		.4byte	.LASF94
 1257 0614 09       		.byte	0x9
 1258 0615 0801     		.2byte	0x108
 1259 0617 17010000 		.4byte	0x117
 1260 061b 15       		.uleb128 0x15
 1261 061c 6B080000 		.4byte	.LASF95
 1262 0620 09       		.byte	0x9
 1263 0621 0F01     		.2byte	0x10f
 1264 0623 E5020000 		.4byte	0x2e5
 1265 0627 15       		.uleb128 0x15
 1266 0628 F6040000 		.4byte	.LASF96
 1267 062c 09       		.byte	0x9
 1268 062d 1601     		.2byte	0x116
 1269 062f 58060000 		.4byte	0x658
 1270 0633 15       		.uleb128 0x15
 1271 0634 94030000 		.4byte	.LASF97
 1272 0638 09       		.byte	0x9
 1273 0639 1E01     		.2byte	0x11e
 1274 063b 83060000 		.4byte	0x683
 1275 063f 15       		.uleb128 0x15
 1276 0640 ED060000 		.4byte	.LASF98
 1277 0644 09       		.byte	0x9
 1278 0645 2701     		.2byte	0x127
 1279 0647 BA060000 		.4byte	0x6ba
 1280 064b 15       		.uleb128 0x15
 1281 064c 65060000 		.4byte	.LASF99
 1282 0650 09       		.byte	0x9
 1283 0651 2F01     		.2byte	0x12f
 1284 0653 22010000 		.4byte	0x122
 1285 0657 00       		.byte	0
 1286 0658 09       		.uleb128 0x9
 1287 0659 04       		.byte	0x4
 1288 065a 17020000 		.4byte	0x217
 1289 065e 05       		.uleb128 0x5
 1290 065f CC060000 		.4byte	.LASF100
 1291 0663 0C       		.byte	0xc
 1292 0664 0E       		.byte	0xe
 1293 0665 34       		.byte	0x34
 1294 0666 83060000 		.4byte	0x683
 1295 066a 06       		.uleb128 0x6
 1296 066b E9020000 		.4byte	.LASF101
 1297 066f 0E       		.byte	0xe
 1298 0670 35       		.byte	0x35
 1299 0671 4C020000 		.4byte	0x24c
 1300 0675 00       		.byte	0
 1301 0676 06       		.uleb128 0x6
 1302 0677 C7030000 		.4byte	.LASF102
 1303 067b 0E       		.byte	0xe
 1304 067c 37       		.byte	0x37
 1305 067d 2D010000 		.4byte	0x12d
 1306 0681 08       		.byte	0x8
 1307 0682 00       		.byte	0
 1308 0683 09       		.uleb128 0x9
 1309 0684 04       		.byte	0x4
 1310 0685 5E060000 		.4byte	0x65e
 1311 0689 05       		.uleb128 0x5
ARM GAS  /tmp/ccnDxhvs.s 			page 24


 1312 068a D1070000 		.4byte	.LASF103
 1313 068e 10       		.byte	0x10
 1314 068f 0F       		.byte	0xf
 1315 0690 39       		.byte	0x39
 1316 0691 BA060000 		.4byte	0x6ba
 1317 0695 06       		.uleb128 0x6
 1318 0696 8A010000 		.4byte	.LASF104
 1319 069a 0F       		.byte	0xf
 1320 069b 3A       		.byte	0x3a
 1321 069c 4C020000 		.4byte	0x24c
 1322 06a0 00       		.byte	0
 1323 06a1 06       		.uleb128 0x6
 1324 06a2 BD080000 		.4byte	.LASF105
 1325 06a6 0F       		.byte	0xf
 1326 06a7 3C       		.byte	0x3c
 1327 06a8 22020000 		.4byte	0x222
 1328 06ac 08       		.byte	0x8
 1329 06ad 06       		.uleb128 0x6
 1330 06ae 75070000 		.4byte	.LASF106
 1331 06b2 0F       		.byte	0xf
 1332 06b3 3E       		.byte	0x3e
 1333 06b4 FD060000 		.4byte	0x6fd
 1334 06b8 0C       		.byte	0xc
 1335 06b9 00       		.byte	0
 1336 06ba 09       		.uleb128 0x9
 1337 06bb 04       		.byte	0x4
 1338 06bc 89060000 		.4byte	0x689
 1339 06c0 09       		.uleb128 0x9
 1340 06c1 04       		.byte	0x4
 1341 06c2 E7020000 		.4byte	0x2e7
 1342 06c6 0F       		.uleb128 0xf
 1343 06c7 38010000 		.4byte	0x138
 1344 06cb 0F       		.uleb128 0xf
 1345 06cc D0060000 		.4byte	0x6d0
 1346 06d0 09       		.uleb128 0x9
 1347 06d1 04       		.byte	0x4
 1348 06d2 D6060000 		.4byte	0x6d6
 1349 06d6 16       		.uleb128 0x16
 1350 06d7 DB060000 		.4byte	0x6db
 1351 06db 04       		.uleb128 0x4
 1352 06dc 01       		.byte	0x1
 1353 06dd 08       		.byte	0x8
 1354 06de 45070000 		.4byte	.LASF107
 1355 06e2 17       		.uleb128 0x17
 1356 06e3 36050000 		.4byte	0x536
 1357 06e7 F2060000 		.4byte	0x6f2
 1358 06eb 18       		.uleb128 0x18
 1359 06ec 1B040000 		.4byte	0x41b
 1360 06f0 19       		.byte	0x19
 1361 06f1 00       		.byte	0
 1362 06f2 03       		.uleb128 0x3
 1363 06f3 4A030000 		.4byte	.LASF108
 1364 06f7 0F       		.byte	0xf
 1365 06f8 34       		.byte	0x34
 1366 06f9 89060000 		.4byte	0x689
 1367 06fd 09       		.uleb128 0x9
 1368 06fe 04       		.byte	0x4
ARM GAS  /tmp/ccnDxhvs.s 			page 25


 1369 06ff F2060000 		.4byte	0x6f2
 1370 0703 09       		.uleb128 0x9
 1371 0704 04       		.byte	0x4
 1372 0705 A9000000 		.4byte	0xa9
 1373 0709 09       		.uleb128 0x9
 1374 070a 04       		.byte	0x4
 1375 070b 0F070000 		.4byte	0x70f
 1376 070f 16       		.uleb128 0x16
 1377 0710 A9000000 		.4byte	0xa9
 1378 0714 13       		.uleb128 0x13
 1379 0715 14       		.byte	0x14
 1380 0716 10       		.byte	0x10
 1381 0717 E4       		.byte	0xe4
 1382 0718 71070000 		.4byte	0x771
 1383 071c 12       		.uleb128 0x12
 1384 071d 646D6100 		.ascii	"dma\000"
 1385 0721 10       		.byte	0x10
 1386 0722 E5       		.byte	0xe5
 1387 0723 71070000 		.4byte	0x771
 1388 0727 00       		.byte	0
 1389 0728 06       		.uleb128 0x6
 1390 0729 B9060000 		.4byte	.LASF109
 1391 072d 10       		.byte	0x10
 1392 072e E6       		.byte	0xe6
 1393 072f 77070000 		.4byte	0x777
 1394 0733 04       		.byte	0x4
 1395 0734 06       		.uleb128 0x6
 1396 0735 A5040000 		.4byte	.LASF110
 1397 0739 10       		.byte	0x10
 1398 073a E7       		.byte	0xe7
 1399 073b CA000000 		.4byte	0xca
 1400 073f 08       		.byte	0x8
 1401 0740 06       		.uleb128 0x6
 1402 0741 08040000 		.4byte	.LASF111
 1403 0745 10       		.byte	0x10
 1404 0746 E9       		.byte	0xe9
 1405 0747 7D070000 		.4byte	0x77d
 1406 074b 0C       		.byte	0xc
 1407 074c 06       		.uleb128 0x6
 1408 074d E3020000 		.4byte	.LASF112
 1409 0751 10       		.byte	0x10
 1410 0752 EA       		.byte	0xea
 1411 0753 A9000000 		.4byte	0xa9
 1412 0757 10       		.byte	0x10
 1413 0758 06       		.uleb128 0x6
 1414 0759 FB070000 		.4byte	.LASF113
 1415 075d 10       		.byte	0x10
 1416 075e EC       		.byte	0xec
 1417 075f A9000000 		.4byte	0xa9
 1418 0763 11       		.byte	0x11
 1419 0764 06       		.uleb128 0x6
 1420 0765 CA000000 		.4byte	.LASF114
 1421 0769 10       		.byte	0x10
 1422 076a ED       		.byte	0xed
 1423 076b A9000000 		.4byte	0xa9
 1424 076f 12       		.byte	0x12
 1425 0770 00       		.byte	0
ARM GAS  /tmp/ccnDxhvs.s 			page 26


 1426 0771 09       		.uleb128 0x9
 1427 0772 04       		.byte	0x4
 1428 0773 95040000 		.4byte	0x495
 1429 0777 09       		.uleb128 0x9
 1430 0778 04       		.byte	0x4
 1431 0779 65040000 		.4byte	0x465
 1432 077d 09       		.uleb128 0x9
 1433 077e 04       		.byte	0x4
 1434 077f 22040000 		.4byte	0x422
 1435 0783 03       		.uleb128 0x3
 1436 0784 B0050000 		.4byte	.LASF115
 1437 0788 10       		.byte	0x10
 1438 0789 EE       		.byte	0xee
 1439 078a 14070000 		.4byte	0x714
 1440 078e 04       		.uleb128 0x4
 1441 078f 01       		.byte	0x1
 1442 0790 02       		.byte	0x2
 1443 0791 18060000 		.4byte	.LASF116
 1444 0795 09       		.uleb128 0x9
 1445 0796 04       		.byte	0x4
 1446 0797 9B070000 		.4byte	0x79b
 1447 079b 16       		.uleb128 0x16
 1448 079c 83070000 		.4byte	0x783
 1449 07a0 19       		.uleb128 0x19
 1450 07a1 01       		.byte	0x1
 1451 07a2 11       		.byte	0x11
 1452 07a3 4C       		.byte	0x4c
 1453 07a4 CD070000 		.4byte	0x7cd
 1454 07a8 1A       		.uleb128 0x1a
 1455 07a9 3E060000 		.4byte	.LASF117
 1456 07ad 00       		.sleb128 0
 1457 07ae 1A       		.uleb128 0x1a
 1458 07af 43000000 		.4byte	.LASF118
 1459 07b3 01       		.sleb128 1
 1460 07b4 1A       		.uleb128 0x1a
 1461 07b5 C0070000 		.4byte	.LASF119
 1462 07b9 02       		.sleb128 2
 1463 07ba 1A       		.uleb128 0x1a
 1464 07bb D9050000 		.4byte	.LASF120
 1465 07bf 03       		.sleb128 3
 1466 07c0 1A       		.uleb128 0x1a
 1467 07c1 32070000 		.4byte	.LASF121
 1468 07c5 04       		.sleb128 4
 1469 07c6 1A       		.uleb128 0x1a
 1470 07c7 C1060000 		.4byte	.LASF122
 1471 07cb 05       		.sleb128 5
 1472 07cc 00       		.byte	0
 1473 07cd 03       		.uleb128 0x3
 1474 07ce 79050000 		.4byte	.LASF123
 1475 07d2 11       		.byte	0x11
 1476 07d3 53       		.byte	0x53
 1477 07d4 A0070000 		.4byte	0x7a0
 1478 07d8 11       		.uleb128 0x11
 1479 07d9 98020000 		.4byte	.LASF124
 1480 07dd 12       		.byte	0x12
 1481 07de 6A01     		.2byte	0x16a
 1482 07e0 B4000000 		.4byte	0xb4
ARM GAS  /tmp/ccnDxhvs.s 			page 27


 1483 07e4 11       		.uleb128 0x11
 1484 07e5 E7050000 		.4byte	.LASF125
 1485 07e9 12       		.byte	0x12
 1486 07ea 6F01     		.2byte	0x16f
 1487 07ec CA000000 		.4byte	0xca
 1488 07f0 1B       		.uleb128 0x1b
 1489 07f1 01       		.byte	0x1
 1490 07f2 12       		.byte	0x12
 1491 07f3 7401     		.2byte	0x174
 1492 07f5 0C080000 		.4byte	0x80c
 1493 07f9 1A       		.uleb128 0x1a
 1494 07fa 49050000 		.4byte	.LASF126
 1495 07fe 01       		.sleb128 1
 1496 07ff 1A       		.uleb128 0x1a
 1497 0800 CD030000 		.4byte	.LASF127
 1498 0804 02       		.sleb128 2
 1499 0805 1A       		.uleb128 0x1a
 1500 0806 01030000 		.4byte	.LASF128
 1501 080a 03       		.sleb128 3
 1502 080b 00       		.byte	0
 1503 080c 11       		.uleb128 0x11
 1504 080d A3080000 		.4byte	.LASF129
 1505 0811 12       		.byte	0x12
 1506 0812 7801     		.2byte	0x178
 1507 0814 F0070000 		.4byte	0x7f0
 1508 0818 1B       		.uleb128 0x1b
 1509 0819 01       		.byte	0x1
 1510 081a 12       		.byte	0x12
 1511 081b 7D01     		.2byte	0x17d
 1512 081d 34080000 		.4byte	0x834
 1513 0821 1A       		.uleb128 0x1a
 1514 0822 41040000 		.4byte	.LASF130
 1515 0826 01       		.sleb128 1
 1516 0827 1A       		.uleb128 0x1a
 1517 0828 A7060000 		.4byte	.LASF131
 1518 082c 02       		.sleb128 2
 1519 082d 1A       		.uleb128 0x1a
 1520 082e 84050000 		.4byte	.LASF132
 1521 0832 03       		.sleb128 3
 1522 0833 00       		.byte	0
 1523 0834 11       		.uleb128 0x11
 1524 0835 06000000 		.4byte	.LASF133
 1525 0839 12       		.byte	0x12
 1526 083a 8101     		.2byte	0x181
 1527 083c 18080000 		.4byte	0x818
 1528 0840 10       		.uleb128 0x10
 1529 0841 0C       		.byte	0xc
 1530 0842 12       		.byte	0x12
 1531 0843 8601     		.2byte	0x186
 1532 0845 71080000 		.4byte	0x871
 1533 0849 08       		.uleb128 0x8
 1534 084a 36030000 		.4byte	.LASF134
 1535 084e 12       		.byte	0x12
 1536 084f 8801     		.2byte	0x188
 1537 0851 0C080000 		.4byte	0x80c
 1538 0855 00       		.byte	0
 1539 0856 08       		.uleb128 0x8
ARM GAS  /tmp/ccnDxhvs.s 			page 28


 1540 0857 64010000 		.4byte	.LASF135
 1541 085b 12       		.byte	0x12
 1542 085c 8901     		.2byte	0x189
 1543 085e CA000000 		.4byte	0xca
 1544 0862 04       		.byte	0x4
 1545 0863 08       		.uleb128 0x8
 1546 0864 03050000 		.4byte	.LASF136
 1547 0868 12       		.byte	0x12
 1548 0869 8C01     		.2byte	0x18c
 1549 086b 34080000 		.4byte	0x834
 1550 086f 08       		.byte	0x8
 1551 0870 00       		.byte	0
 1552 0871 11       		.uleb128 0x11
 1553 0872 D9020000 		.4byte	.LASF137
 1554 0876 12       		.byte	0x12
 1555 0877 8E01     		.2byte	0x18e
 1556 0879 40080000 		.4byte	0x840
 1557 087d 11       		.uleb128 0x11
 1558 087e F4030000 		.4byte	.LASF138
 1559 0882 12       		.byte	0x12
 1560 0883 9301     		.2byte	0x193
 1561 0885 89080000 		.4byte	0x889
 1562 0889 0A       		.uleb128 0xa
 1563 088a F4030000 		.4byte	.LASF138
 1564 088e 38       		.byte	0x38
 1565 088f 12       		.byte	0x12
 1566 0890 9801     		.2byte	0x198
 1567 0892 26090000 		.4byte	0x926
 1568 0896 08       		.uleb128 0x8
 1569 0897 A2020000 		.4byte	.LASF139
 1570 089b 12       		.byte	0x12
 1571 089c 9C01     		.2byte	0x19c
 1572 089e CD070000 		.4byte	0x7cd
 1573 08a2 00       		.byte	0
 1574 08a3 08       		.uleb128 0x8
 1575 08a4 4A070000 		.4byte	.LASF140
 1576 08a8 12       		.byte	0x12
 1577 08a9 A001     		.2byte	0x1a0
 1578 08ab 26090000 		.4byte	0x926
 1579 08af 04       		.byte	0x4
 1580 08b0 08       		.uleb128 0x8
 1581 08b1 FC040000 		.4byte	.LASF141
 1582 08b5 12       		.byte	0x12
 1583 08b6 A401     		.2byte	0x1a4
 1584 08b8 E4070000 		.4byte	0x7e4
 1585 08bc 08       		.byte	0x8
 1586 08bd 08       		.uleb128 0x8
 1587 08be F2050000 		.4byte	.LASF142
 1588 08c2 12       		.byte	0x12
 1589 08c3 A901     		.2byte	0x1a9
 1590 08c5 F2060000 		.4byte	0x6f2
 1591 08c9 0C       		.byte	0xc
 1592 08ca 08       		.uleb128 0x8
 1593 08cb C4020000 		.4byte	.LASF143
 1594 08cf 12       		.byte	0x12
 1595 08d0 B201     		.2byte	0x1b2
 1596 08d2 17020000 		.4byte	0x217
ARM GAS  /tmp/ccnDxhvs.s 			page 29


 1597 08d6 1C       		.byte	0x1c
 1598 08d7 08       		.uleb128 0x8
 1599 08d8 B3000000 		.4byte	.LASF144
 1600 08dc 12       		.byte	0x12
 1601 08dd B601     		.2byte	0x1b6
 1602 08df D8070000 		.4byte	0x7d8
 1603 08e3 20       		.byte	0x20
 1604 08e4 08       		.uleb128 0x8
 1605 08e5 F1020000 		.4byte	.LASF145
 1606 08e9 12       		.byte	0x12
 1607 08ea BA01     		.2byte	0x1ba
 1608 08ec CA000000 		.4byte	0xca
 1609 08f0 24       		.byte	0x24
 1610 08f1 08       		.uleb128 0x8
 1611 08f2 2E050000 		.4byte	.LASF146
 1612 08f6 12       		.byte	0x12
 1613 08f7 BE01     		.2byte	0x1be
 1614 08f9 CA000000 		.4byte	0xca
 1615 08fd 28       		.byte	0x28
 1616 08fe 08       		.uleb128 0x8
 1617 08ff 00000000 		.4byte	.LASF147
 1618 0903 12       		.byte	0x12
 1619 0904 C201     		.2byte	0x1c2
 1620 0906 95070000 		.4byte	0x795
 1621 090a 2C       		.byte	0x2c
 1622 090b 08       		.uleb128 0x8
 1623 090c FB020000 		.4byte	.LASF148
 1624 0910 12       		.byte	0x12
 1625 0911 C601     		.2byte	0x1c6
 1626 0913 95070000 		.4byte	0x795
 1627 0917 30       		.byte	0x30
 1628 0918 07       		.uleb128 0x7
 1629 0919 69326300 		.ascii	"i2c\000"
 1630 091d 12       		.byte	0x12
 1631 091e CA01     		.2byte	0x1ca
 1632 0920 31090000 		.4byte	0x931
 1633 0924 34       		.byte	0x34
 1634 0925 00       		.byte	0
 1635 0926 09       		.uleb128 0x9
 1636 0927 04       		.byte	0x4
 1637 0928 2C090000 		.4byte	0x92c
 1638 092c 16       		.uleb128 0x16
 1639 092d 71080000 		.4byte	0x871
 1640 0931 09       		.uleb128 0x9
 1641 0932 04       		.byte	0x4
 1642 0933 1F050000 		.4byte	0x51f
 1643 0937 1C       		.uleb128 0x1c
 1644 0938 9A070000 		.4byte	.LASF152
 1645 093c 03       		.byte	0x3
 1646 093d 2202     		.2byte	0x222
 1647 093f 03       		.byte	0x3
 1648 0940 51090000 		.4byte	0x951
 1649 0944 1D       		.uleb128 0x1d
 1650 0945 52030000 		.4byte	.LASF155
 1651 0949 03       		.byte	0x3
 1652 094a 2202     		.2byte	0x222
 1653 094c CA000000 		.4byte	0xca
ARM GAS  /tmp/ccnDxhvs.s 			page 30


 1654 0950 00       		.byte	0
 1655 0951 1E       		.uleb128 0x1e
 1656 0952 92000000 		.4byte	.LASF149
 1657 0956 0C       		.byte	0xc
 1658 0957 C801     		.2byte	0x1c8
 1659 0959 03       		.byte	0x3
 1660 095a 1E       		.uleb128 0x1e
 1661 095b 8C020000 		.4byte	.LASF150
 1662 095f 0C       		.byte	0xc
 1663 0960 E001     		.2byte	0x1e0
 1664 0962 03       		.byte	0x3
 1665 0963 1E       		.uleb128 0x1e
 1666 0964 84060000 		.4byte	.LASF151
 1667 0968 13       		.byte	0x13
 1668 0969 5A01     		.2byte	0x15a
 1669 096b 03       		.byte	0x3
 1670 096c 1C       		.uleb128 0x1c
 1671 096d 85080000 		.4byte	.LASF153
 1672 0971 13       		.byte	0x13
 1673 0972 6601     		.2byte	0x166
 1674 0974 03       		.byte	0x3
 1675 0975 87090000 		.4byte	0x987
 1676 0979 1F       		.uleb128 0x1f
 1677 097a 7B060000 		.4byte	.LASF165
 1678 097e 97090000 		.4byte	0x997
 1679 0982 85080000 		.4byte	.LASF153
 1680 0986 00       		.byte	0
 1681 0987 17       		.uleb128 0x17
 1682 0988 DB060000 		.4byte	0x6db
 1683 098c 97090000 		.4byte	0x997
 1684 0990 18       		.uleb128 0x18
 1685 0991 1B040000 		.4byte	0x41b
 1686 0995 0B       		.byte	0xb
 1687 0996 00       		.byte	0
 1688 0997 16       		.uleb128 0x16
 1689 0998 87090000 		.4byte	0x987
 1690 099c 1C       		.uleb128 0x1c
 1691 099d 38010000 		.4byte	.LASF154
 1692 09a1 02       		.byte	0x2
 1693 09a2 7403     		.2byte	0x374
 1694 09a4 03       		.byte	0x3
 1695 09a5 B5090000 		.4byte	0x9b5
 1696 09a9 20       		.uleb128 0x20
 1697 09aa 6D7000   		.ascii	"mp\000"
 1698 09ad 02       		.byte	0x2
 1699 09ae 7403     		.2byte	0x374
 1700 09b0 FD060000 		.4byte	0x6fd
 1701 09b4 00       		.byte	0
 1702 09b5 1E       		.uleb128 0x1e
 1703 09b6 3E030000 		.4byte	.LASF156
 1704 09ba 02       		.byte	0x2
 1705 09bb EB01     		.2byte	0x1eb
 1706 09bd 03       		.byte	0x3
 1707 09be 1E       		.uleb128 0x1e
 1708 09bf 99060000 		.4byte	.LASF157
 1709 09c3 02       		.byte	0x2
 1710 09c4 F601     		.2byte	0x1f6
ARM GAS  /tmp/ccnDxhvs.s 			page 31


 1711 09c6 03       		.byte	0x3
 1712 09c7 1C       		.uleb128 0x1c
 1713 09c8 A8070000 		.4byte	.LASF158
 1714 09cc 02       		.byte	0x2
 1715 09cd 8803     		.2byte	0x388
 1716 09cf 03       		.byte	0x3
 1717 09d0 E0090000 		.4byte	0x9e0
 1718 09d4 20       		.uleb128 0x20
 1719 09d5 6D7000   		.ascii	"mp\000"
 1720 09d8 02       		.byte	0x2
 1721 09d9 8803     		.2byte	0x388
 1722 09db FD060000 		.4byte	0x6fd
 1723 09df 00       		.byte	0
 1724 09e0 1C       		.uleb128 0x1c
 1725 09e1 51070000 		.4byte	.LASF159
 1726 09e5 02       		.byte	0x2
 1727 09e6 A003     		.2byte	0x3a0
 1728 09e8 03       		.byte	0x3
 1729 09e9 F9090000 		.4byte	0x9f9
 1730 09ed 20       		.uleb128 0x20
 1731 09ee 6D7000   		.ascii	"mp\000"
 1732 09f1 02       		.byte	0x2
 1733 09f2 A003     		.2byte	0x3a0
 1734 09f4 FD060000 		.4byte	0x6fd
 1735 09f8 00       		.byte	0
 1736 09f9 21       		.uleb128 0x21
 1737 09fa 7D080000 		.4byte	.LASF160
 1738 09fe 01       		.byte	0x1
 1739 09ff 3B       		.byte	0x3b
 1740 0a00 00000000 		.4byte	.LFB207
 1741 0a04 04000000 		.4byte	.LFE207-.LFB207
 1742 0a08 01       		.uleb128 0x1
 1743 0a09 9C       		.byte	0x9c
 1744 0a0a 180A0000 		.4byte	0xa18
 1745 0a0e 22       		.uleb128 0x22
 1746 0a0f 04000000 		.4byte	.LVL0
 1747 0a13 75100000 		.4byte	0x1075
 1748 0a17 00       		.byte	0
 1749 0a18 21       		.uleb128 0x21
 1750 0a19 AF080000 		.4byte	.LASF161
 1751 0a1d 01       		.byte	0x1
 1752 0a1e 47       		.byte	0x47
 1753 0a1f 00000000 		.4byte	.LFB208
 1754 0a23 0E000000 		.4byte	.LFE208-.LFB208
 1755 0a27 01       		.uleb128 0x1
 1756 0a28 9C       		.byte	0x9c
 1757 0a29 690A0000 		.4byte	0xa69
 1758 0a2d 23       		.uleb128 0x23
 1759 0a2e 02010000 		.4byte	.LASF163
 1760 0a32 01       		.byte	0x1
 1761 0a33 47       		.byte	0x47
 1762 0a34 690A0000 		.4byte	0xa69
 1763 0a38 00000000 		.4byte	.LLST0
 1764 0a3c 24       		.uleb128 0x24
 1765 0a3d 9C090000 		.4byte	0x99c
 1766 0a41 08000000 		.4byte	.LBB82
 1767 0a45 06000000 		.4byte	.LBE82-.LBB82
ARM GAS  /tmp/ccnDxhvs.s 			page 32


 1768 0a49 01       		.byte	0x1
 1769 0a4a 4D       		.byte	0x4d
 1770 0a4b 25       		.uleb128 0x25
 1771 0a4c A9090000 		.4byte	0x9a9
 1772 0a50 2E000000 		.4byte	.LLST1
 1773 0a54 26       		.uleb128 0x26
 1774 0a55 0E000000 		.4byte	.LVL4
 1775 0a59 7D100000 		.4byte	0x107d
 1776 0a5d 27       		.uleb128 0x27
 1777 0a5e 01       		.uleb128 0x1
 1778 0a5f 50       		.byte	0x50
 1779 0a60 05       		.uleb128 0x5
 1780 0a61 F3       		.byte	0xf3
 1781 0a62 01       		.uleb128 0x1
 1782 0a63 50       		.byte	0x50
 1783 0a64 23       		.byte	0x23
 1784 0a65 0C       		.uleb128 0xc
 1785 0a66 00       		.byte	0
 1786 0a67 00       		.byte	0
 1787 0a68 00       		.byte	0
 1788 0a69 09       		.uleb128 0x9
 1789 0a6a 04       		.byte	0x4
 1790 0a6b 7D080000 		.4byte	0x87d
 1791 0a6f 21       		.uleb128 0x21
 1792 0a70 B8000000 		.4byte	.LASF162
 1793 0a74 01       		.byte	0x1
 1794 0a75 5D       		.byte	0x5d
 1795 0a76 00000000 		.4byte	.LFB209
 1796 0a7a 1C000000 		.4byte	.LFE209-.LFB209
 1797 0a7e 01       		.uleb128 0x1
 1798 0a7f 9C       		.byte	0x9c
 1799 0a80 650B0000 		.4byte	0xb65
 1800 0a84 23       		.uleb128 0x23
 1801 0a85 02010000 		.4byte	.LASF163
 1802 0a89 01       		.byte	0x1
 1803 0a8a 5D       		.byte	0x5d
 1804 0a8b 690A0000 		.4byte	0xa69
 1805 0a8f 5E000000 		.4byte	.LLST2
 1806 0a93 23       		.uleb128 0x23
 1807 0a94 4A070000 		.4byte	.LASF140
 1808 0a98 01       		.byte	0x1
 1809 0a99 5D       		.byte	0x5d
 1810 0a9a 26090000 		.4byte	0x926
 1811 0a9e 7C000000 		.4byte	.LLST3
 1812 0aa2 28       		.uleb128 0x28
 1813 0aa3 7B060000 		.4byte	.LASF165
 1814 0aa7 750B0000 		.4byte	0xb75
 1815 0aab 29       		.uleb128 0x29
 1816 0aac B5090000 		.4byte	0x9b5
 1817 0ab0 02000000 		.4byte	.LBB84
 1818 0ab4 00000000 		.4byte	.Ldebug_ranges0+0
 1819 0ab8 01       		.byte	0x1
 1820 0ab9 63       		.byte	0x63
 1821 0aba F80A0000 		.4byte	0xaf8
 1822 0abe 2A       		.uleb128 0x2a
 1823 0abf 63090000 		.4byte	0x963
 1824 0ac3 02000000 		.4byte	.LBB85
ARM GAS  /tmp/ccnDxhvs.s 			page 33


 1825 0ac7 00000000 		.4byte	.Ldebug_ranges0+0
 1826 0acb 02       		.byte	0x2
 1827 0acc ED01     		.2byte	0x1ed
 1828 0ace 2A       		.uleb128 0x2a
 1829 0acf 51090000 		.4byte	0x951
 1830 0ad3 02000000 		.4byte	.LBB86
 1831 0ad7 00000000 		.4byte	.Ldebug_ranges0+0
 1832 0adb 13       		.byte	0x13
 1833 0adc 5C01     		.2byte	0x15c
 1834 0ade 2A       		.uleb128 0x2a
 1835 0adf 37090000 		.4byte	0x937
 1836 0ae3 02000000 		.4byte	.LBB87
 1837 0ae7 00000000 		.4byte	.Ldebug_ranges0+0
 1838 0aeb 0C       		.byte	0xc
 1839 0aec D001     		.2byte	0x1d0
 1840 0aee 2B       		.uleb128 0x2b
 1841 0aef 44090000 		.4byte	0x944
 1842 0af3 20       		.byte	0x20
 1843 0af4 00       		.byte	0
 1844 0af5 00       		.byte	0
 1845 0af6 00       		.byte	0
 1846 0af7 00       		.byte	0
 1847 0af8 2C       		.uleb128 0x2c
 1848 0af9 BE090000 		.4byte	0x9be
 1849 0afd 14000000 		.4byte	.LBB94
 1850 0b01 08000000 		.4byte	.LBE94-.LBB94
 1851 0b05 01       		.byte	0x1
 1852 0b06 67       		.byte	0x67
 1853 0b07 540B0000 		.4byte	0xb54
 1854 0b0b 2D       		.uleb128 0x2d
 1855 0b0c 6C090000 		.4byte	0x96c
 1856 0b10 14000000 		.4byte	.LBB95
 1857 0b14 08000000 		.4byte	.LBE95-.LBB95
 1858 0b18 02       		.byte	0x2
 1859 0b19 F801     		.2byte	0x1f8
 1860 0b1b 2E       		.uleb128 0x2e
 1861 0b1c 14000000 		.4byte	.LBB96
 1862 0b20 08000000 		.4byte	.LBE96-.LBB96
 1863 0b24 2F       		.uleb128 0x2f
 1864 0b25 79090000 		.4byte	0x979
 1865 0b29 2D       		.uleb128 0x2d
 1866 0b2a 5A090000 		.4byte	0x95a
 1867 0b2e 14000000 		.4byte	.LBB97
 1868 0b32 08000000 		.4byte	.LBE97-.LBB97
 1869 0b36 13       		.byte	0x13
 1870 0b37 7301     		.2byte	0x173
 1871 0b39 2D       		.uleb128 0x2d
 1872 0b3a 37090000 		.4byte	0x937
 1873 0b3e 14000000 		.4byte	.LBB98
 1874 0b42 08000000 		.4byte	.LBE98-.LBB98
 1875 0b46 0C       		.byte	0xc
 1876 0b47 E301     		.2byte	0x1e3
 1877 0b49 2B       		.uleb128 0x2b
 1878 0b4a 44090000 		.4byte	0x944
 1879 0b4e 00       		.byte	0
 1880 0b4f 00       		.byte	0
 1881 0b50 00       		.byte	0
ARM GAS  /tmp/ccnDxhvs.s 			page 34


 1882 0b51 00       		.byte	0
 1883 0b52 00       		.byte	0
 1884 0b53 00       		.byte	0
 1885 0b54 30       		.uleb128 0x30
 1886 0b55 10000000 		.4byte	.LVL6
 1887 0b59 8E100000 		.4byte	0x108e
 1888 0b5d 27       		.uleb128 0x27
 1889 0b5e 01       		.uleb128 0x1
 1890 0b5f 50       		.byte	0x50
 1891 0b60 02       		.uleb128 0x2
 1892 0b61 74       		.byte	0x74
 1893 0b62 00       		.sleb128 0
 1894 0b63 00       		.byte	0
 1895 0b64 00       		.byte	0
 1896 0b65 17       		.uleb128 0x17
 1897 0b66 DB060000 		.4byte	0x6db
 1898 0b6a 750B0000 		.4byte	0xb75
 1899 0b6e 18       		.uleb128 0x18
 1900 0b6f 1B040000 		.4byte	0x41b
 1901 0b73 08       		.byte	0x8
 1902 0b74 00       		.byte	0
 1903 0b75 16       		.uleb128 0x16
 1904 0b76 650B0000 		.4byte	0xb65
 1905 0b7a 21       		.uleb128 0x21
 1906 0b7b 20050000 		.4byte	.LASF164
 1907 0b7f 01       		.byte	0x1
 1908 0b80 71       		.byte	0x71
 1909 0b81 00000000 		.4byte	.LFB210
 1910 0b85 1A000000 		.4byte	.LFE210-.LFB210
 1911 0b89 01       		.uleb128 0x1
 1912 0b8a 9C       		.byte	0x9c
 1913 0b8b 610C0000 		.4byte	0xc61
 1914 0b8f 23       		.uleb128 0x23
 1915 0b90 02010000 		.4byte	.LASF163
 1916 0b94 01       		.byte	0x1
 1917 0b95 71       		.byte	0x71
 1918 0b96 690A0000 		.4byte	0xa69
 1919 0b9a 9D000000 		.4byte	.LLST4
 1920 0b9e 28       		.uleb128 0x28
 1921 0b9f 7B060000 		.4byte	.LASF165
 1922 0ba3 710C0000 		.4byte	0xc71
 1923 0ba7 29       		.uleb128 0x29
 1924 0ba8 B5090000 		.4byte	0x9b5
 1925 0bac 02000000 		.4byte	.LBB100
 1926 0bb0 18000000 		.4byte	.Ldebug_ranges0+0x18
 1927 0bb4 01       		.byte	0x1
 1928 0bb5 77       		.byte	0x77
 1929 0bb6 F40B0000 		.4byte	0xbf4
 1930 0bba 2A       		.uleb128 0x2a
 1931 0bbb 63090000 		.4byte	0x963
 1932 0bbf 02000000 		.4byte	.LBB101
 1933 0bc3 18000000 		.4byte	.Ldebug_ranges0+0x18
 1934 0bc7 02       		.byte	0x2
 1935 0bc8 ED01     		.2byte	0x1ed
 1936 0bca 2A       		.uleb128 0x2a
 1937 0bcb 51090000 		.4byte	0x951
 1938 0bcf 02000000 		.4byte	.LBB102
ARM GAS  /tmp/ccnDxhvs.s 			page 35


 1939 0bd3 18000000 		.4byte	.Ldebug_ranges0+0x18
 1940 0bd7 13       		.byte	0x13
 1941 0bd8 5C01     		.2byte	0x15c
 1942 0bda 2A       		.uleb128 0x2a
 1943 0bdb 37090000 		.4byte	0x937
 1944 0bdf 02000000 		.4byte	.LBB103
 1945 0be3 18000000 		.4byte	.Ldebug_ranges0+0x18
 1946 0be7 0C       		.byte	0xc
 1947 0be8 D001     		.2byte	0x1d0
 1948 0bea 2B       		.uleb128 0x2b
 1949 0beb 44090000 		.4byte	0x944
 1950 0bef 20       		.byte	0x20
 1951 0bf0 00       		.byte	0
 1952 0bf1 00       		.byte	0
 1953 0bf2 00       		.byte	0
 1954 0bf3 00       		.byte	0
 1955 0bf4 2C       		.uleb128 0x2c
 1956 0bf5 BE090000 		.4byte	0x9be
 1957 0bf9 12000000 		.4byte	.LBB110
 1958 0bfd 08000000 		.4byte	.LBE110-.LBB110
 1959 0c01 01       		.byte	0x1
 1960 0c02 7A       		.byte	0x7a
 1961 0c03 500C0000 		.4byte	0xc50
 1962 0c07 2D       		.uleb128 0x2d
 1963 0c08 6C090000 		.4byte	0x96c
 1964 0c0c 12000000 		.4byte	.LBB111
 1965 0c10 08000000 		.4byte	.LBE111-.LBB111
 1966 0c14 02       		.byte	0x2
 1967 0c15 F801     		.2byte	0x1f8
 1968 0c17 2E       		.uleb128 0x2e
 1969 0c18 12000000 		.4byte	.LBB112
 1970 0c1c 08000000 		.4byte	.LBE112-.LBB112
 1971 0c20 2F       		.uleb128 0x2f
 1972 0c21 79090000 		.4byte	0x979
 1973 0c25 2D       		.uleb128 0x2d
 1974 0c26 5A090000 		.4byte	0x95a
 1975 0c2a 12000000 		.4byte	.LBB113
 1976 0c2e 08000000 		.4byte	.LBE113-.LBB113
 1977 0c32 13       		.byte	0x13
 1978 0c33 7301     		.2byte	0x173
 1979 0c35 2D       		.uleb128 0x2d
 1980 0c36 37090000 		.4byte	0x937
 1981 0c3a 12000000 		.4byte	.LBB114
 1982 0c3e 08000000 		.4byte	.LBE114-.LBB114
 1983 0c42 0C       		.byte	0xc
 1984 0c43 E301     		.2byte	0x1e3
 1985 0c45 2B       		.uleb128 0x2b
 1986 0c46 44090000 		.4byte	0x944
 1987 0c4a 00       		.byte	0
 1988 0c4b 00       		.byte	0
 1989 0c4c 00       		.byte	0
 1990 0c4d 00       		.byte	0
 1991 0c4e 00       		.byte	0
 1992 0c4f 00       		.byte	0
 1993 0c50 30       		.uleb128 0x30
 1994 0c51 0E000000 		.4byte	.LVL9
 1995 0c55 A0100000 		.4byte	0x10a0
ARM GAS  /tmp/ccnDxhvs.s 			page 36


 1996 0c59 27       		.uleb128 0x27
 1997 0c5a 01       		.uleb128 0x1
 1998 0c5b 50       		.byte	0x50
 1999 0c5c 02       		.uleb128 0x2
 2000 0c5d 74       		.byte	0x74
 2001 0c5e 00       		.sleb128 0
 2002 0c5f 00       		.byte	0
 2003 0c60 00       		.byte	0
 2004 0c61 17       		.uleb128 0x17
 2005 0c62 DB060000 		.4byte	0x6db
 2006 0c66 710C0000 		.4byte	0xc71
 2007 0c6a 18       		.uleb128 0x18
 2008 0c6b 1B040000 		.4byte	0x41b
 2009 0c6f 07       		.byte	0x7
 2010 0c70 00       		.byte	0
 2011 0c71 16       		.uleb128 0x16
 2012 0c72 610C0000 		.4byte	0xc61
 2013 0c76 31       		.uleb128 0x31
 2014 0c77 58060000 		.4byte	.LASF166
 2015 0c7b 01       		.byte	0x1
 2016 0c7c 85       		.byte	0x85
 2017 0c7d E4070000 		.4byte	0x7e4
 2018 0c81 00000000 		.4byte	.LFB211
 2019 0c85 04000000 		.4byte	.LFE211-.LFB211
 2020 0c89 01       		.uleb128 0x1
 2021 0c8a 9C       		.byte	0x9c
 2022 0c8b A80C0000 		.4byte	0xca8
 2023 0c8f 23       		.uleb128 0x23
 2024 0c90 02010000 		.4byte	.LASF163
 2025 0c94 01       		.byte	0x1
 2026 0c95 85       		.byte	0x85
 2027 0c96 690A0000 		.4byte	0xa69
 2028 0c9a BB000000 		.4byte	.LLST5
 2029 0c9e 28       		.uleb128 0x28
 2030 0c9f 7B060000 		.4byte	.LASF165
 2031 0ca3 B80C0000 		.4byte	0xcb8
 2032 0ca7 00       		.byte	0
 2033 0ca8 17       		.uleb128 0x17
 2034 0ca9 DB060000 		.4byte	0x6db
 2035 0cad B80C0000 		.4byte	0xcb8
 2036 0cb1 18       		.uleb128 0x18
 2037 0cb2 1B040000 		.4byte	0x41b
 2038 0cb6 0C       		.byte	0xc
 2039 0cb7 00       		.byte	0
 2040 0cb8 16       		.uleb128 0x16
 2041 0cb9 A80C0000 		.4byte	0xca8
 2042 0cbd 31       		.uleb128 0x31
 2043 0cbe 1F010000 		.4byte	.LASF167
 2044 0cc2 01       		.byte	0x1
 2045 0cc3 A6       		.byte	0xa6
 2046 0cc4 17010000 		.4byte	0x117
 2047 0cc8 00000000 		.4byte	.LFB212
 2048 0ccc 3E000000 		.4byte	.LFE212-.LFB212
 2049 0cd0 01       		.uleb128 0x1
 2050 0cd1 9C       		.byte	0x9c
 2051 0cd2 1A0E0000 		.4byte	0xe1a
 2052 0cd6 23       		.uleb128 0x23
ARM GAS  /tmp/ccnDxhvs.s 			page 37


 2053 0cd7 02010000 		.4byte	.LASF163
 2054 0cdb 01       		.byte	0x1
 2055 0cdc A6       		.byte	0xa6
 2056 0cdd 690A0000 		.4byte	0xa69
 2057 0ce1 DC000000 		.4byte	.LLST6
 2058 0ce5 23       		.uleb128 0x23
 2059 0ce6 B3000000 		.4byte	.LASF144
 2060 0cea 01       		.byte	0x1
 2061 0ceb A7       		.byte	0xa7
 2062 0cec D8070000 		.4byte	0x7d8
 2063 0cf0 FA000000 		.4byte	.LLST7
 2064 0cf4 23       		.uleb128 0x23
 2065 0cf5 8E030000 		.4byte	.LASF168
 2066 0cf9 01       		.byte	0x1
 2067 0cfa A8       		.byte	0xa8
 2068 0cfb 09070000 		.4byte	0x709
 2069 0cff 1B010000 		.4byte	.LLST8
 2070 0d03 23       		.uleb128 0x23
 2071 0d04 5E050000 		.4byte	.LASF169
 2072 0d08 01       		.byte	0x1
 2073 0d09 A9       		.byte	0xa9
 2074 0d0a 28000000 		.4byte	0x28
 2075 0d0e 3C010000 		.4byte	.LLST9
 2076 0d12 32       		.uleb128 0x32
 2077 0d13 8C000000 		.4byte	.LASF170
 2078 0d17 01       		.byte	0x1
 2079 0d18 AA       		.byte	0xaa
 2080 0d19 03070000 		.4byte	0x703
 2081 0d1d 02       		.uleb128 0x2
 2082 0d1e 91       		.byte	0x91
 2083 0d1f 00       		.sleb128 0
 2084 0d20 32       		.uleb128 0x32
 2085 0d21 18050000 		.4byte	.LASF171
 2086 0d25 01       		.byte	0x1
 2087 0d26 AB       		.byte	0xab
 2088 0d27 28000000 		.4byte	0x28
 2089 0d2b 02       		.uleb128 0x2
 2090 0d2c 91       		.byte	0x91
 2091 0d2d 04       		.sleb128 4
 2092 0d2e 32       		.uleb128 0x32
 2093 0d2f AB030000 		.4byte	.LASF172
 2094 0d33 01       		.byte	0x1
 2095 0d34 AC       		.byte	0xac
 2096 0d35 38010000 		.4byte	0x138
 2097 0d39 02       		.uleb128 0x2
 2098 0d3a 91       		.byte	0x91
 2099 0d3b 08       		.sleb128 8
 2100 0d3c 33       		.uleb128 0x33
 2101 0d3d 29000000 		.4byte	.LASF93
 2102 0d41 01       		.byte	0x1
 2103 0d42 AD       		.byte	0xad
 2104 0d43 17010000 		.4byte	0x117
 2105 0d47 01       		.uleb128 0x1
 2106 0d48 50       		.byte	0x50
 2107 0d49 28       		.uleb128 0x28
 2108 0d4a 7B060000 		.4byte	.LASF165
 2109 0d4e 2A0E0000 		.4byte	0xe2a
ARM GAS  /tmp/ccnDxhvs.s 			page 38


 2110 0d52 2C       		.uleb128 0x2c
 2111 0d53 B5090000 		.4byte	0x9b5
 2112 0d57 0A000000 		.4byte	.LBB116
 2113 0d5b 06000000 		.4byte	.LBE116-.LBB116
 2114 0d5f 01       		.byte	0x1
 2115 0d60 B6       		.byte	0xb6
 2116 0d61 9F0D0000 		.4byte	0xd9f
 2117 0d65 2D       		.uleb128 0x2d
 2118 0d66 63090000 		.4byte	0x963
 2119 0d6a 0A000000 		.4byte	.LBB117
 2120 0d6e 06000000 		.4byte	.LBE117-.LBB117
 2121 0d72 02       		.byte	0x2
 2122 0d73 ED01     		.2byte	0x1ed
 2123 0d75 2D       		.uleb128 0x2d
 2124 0d76 51090000 		.4byte	0x951
 2125 0d7a 0A000000 		.4byte	.LBB118
 2126 0d7e 06000000 		.4byte	.LBE118-.LBB118
 2127 0d82 13       		.byte	0x13
 2128 0d83 5C01     		.2byte	0x15c
 2129 0d85 2D       		.uleb128 0x2d
 2130 0d86 37090000 		.4byte	0x937
 2131 0d8a 0A000000 		.4byte	.LBB119
 2132 0d8e 06000000 		.4byte	.LBE119-.LBB119
 2133 0d92 0C       		.byte	0xc
 2134 0d93 D001     		.2byte	0x1d0
 2135 0d95 2B       		.uleb128 0x2b
 2136 0d96 44090000 		.4byte	0x944
 2137 0d9a 20       		.byte	0x20
 2138 0d9b 00       		.byte	0
 2139 0d9c 00       		.byte	0
 2140 0d9d 00       		.byte	0
 2141 0d9e 00       		.byte	0
 2142 0d9f 2C       		.uleb128 0x2c
 2143 0da0 BE090000 		.4byte	0x9be
 2144 0da4 34000000 		.4byte	.LBB121
 2145 0da8 06000000 		.4byte	.LBE121-.LBB121
 2146 0dac 01       		.byte	0x1
 2147 0dad C1       		.byte	0xc1
 2148 0dae FB0D0000 		.4byte	0xdfb
 2149 0db2 2D       		.uleb128 0x2d
 2150 0db3 6C090000 		.4byte	0x96c
 2151 0db7 34000000 		.4byte	.LBB122
 2152 0dbb 06000000 		.4byte	.LBE122-.LBB122
 2153 0dbf 02       		.byte	0x2
 2154 0dc0 F801     		.2byte	0x1f8
 2155 0dc2 2E       		.uleb128 0x2e
 2156 0dc3 34000000 		.4byte	.LBB123
 2157 0dc7 06000000 		.4byte	.LBE123-.LBB123
 2158 0dcb 2F       		.uleb128 0x2f
 2159 0dcc 79090000 		.4byte	0x979
 2160 0dd0 2D       		.uleb128 0x2d
 2161 0dd1 5A090000 		.4byte	0x95a
 2162 0dd5 34000000 		.4byte	.LBB124
 2163 0dd9 06000000 		.4byte	.LBE124-.LBB124
 2164 0ddd 13       		.byte	0x13
 2165 0dde 7301     		.2byte	0x173
 2166 0de0 2D       		.uleb128 0x2d
ARM GAS  /tmp/ccnDxhvs.s 			page 39


 2167 0de1 37090000 		.4byte	0x937
 2168 0de5 34000000 		.4byte	.LBB125
 2169 0de9 06000000 		.4byte	.LBE125-.LBB125
 2170 0ded 0C       		.byte	0xc
 2171 0dee E301     		.2byte	0x1e3
 2172 0df0 2B       		.uleb128 0x2b
 2173 0df1 44090000 		.4byte	0x944
 2174 0df5 00       		.byte	0
 2175 0df6 00       		.byte	0
 2176 0df7 00       		.byte	0
 2177 0df8 00       		.byte	0
 2178 0df9 00       		.byte	0
 2179 0dfa 00       		.byte	0
 2180 0dfb 30       		.uleb128 0x30
 2181 0dfc 2A000000 		.4byte	.LVL14
 2182 0e00 B2100000 		.4byte	0x10b2
 2183 0e04 27       		.uleb128 0x27
 2184 0e05 01       		.uleb128 0x1
 2185 0e06 53       		.byte	0x53
 2186 0e07 03       		.uleb128 0x3
 2187 0e08 F3       		.byte	0xf3
 2188 0e09 01       		.uleb128 0x1
 2189 0e0a 53       		.byte	0x53
 2190 0e0b 27       		.uleb128 0x27
 2191 0e0c 01       		.uleb128 0x1
 2192 0e0d 52       		.byte	0x52
 2193 0e0e 03       		.uleb128 0x3
 2194 0e0f F3       		.byte	0xf3
 2195 0e10 01       		.uleb128 0x1
 2196 0e11 52       		.byte	0x52
 2197 0e12 27       		.uleb128 0x27
 2198 0e13 01       		.uleb128 0x1
 2199 0e14 50       		.byte	0x50
 2200 0e15 02       		.uleb128 0x2
 2201 0e16 74       		.byte	0x74
 2202 0e17 00       		.sleb128 0
 2203 0e18 00       		.byte	0
 2204 0e19 00       		.byte	0
 2205 0e1a 17       		.uleb128 0x17
 2206 0e1b DB060000 		.4byte	0x6db
 2207 0e1f 2A0E0000 		.4byte	0xe2a
 2208 0e23 18       		.uleb128 0x18
 2209 0e24 1B040000 		.4byte	0x41b
 2210 0e28 18       		.byte	0x18
 2211 0e29 00       		.byte	0
 2212 0e2a 16       		.uleb128 0x16
 2213 0e2b 1A0E0000 		.4byte	0xe1a
 2214 0e2f 31       		.uleb128 0x31
 2215 0e30 53080000 		.4byte	.LASF173
 2216 0e34 01       		.byte	0x1
 2217 0e35 D9       		.byte	0xd9
 2218 0e36 17010000 		.4byte	0x117
 2219 0e3a 00000000 		.4byte	.LFB213
 2220 0e3e 32000000 		.4byte	.LFE213-.LFB213
 2221 0e42 01       		.uleb128 0x1
 2222 0e43 9C       		.byte	0x9c
 2223 0e44 700F0000 		.4byte	0xf70
ARM GAS  /tmp/ccnDxhvs.s 			page 40


 2224 0e48 23       		.uleb128 0x23
 2225 0e49 02010000 		.4byte	.LASF163
 2226 0e4d 01       		.byte	0x1
 2227 0e4e D9       		.byte	0xd9
 2228 0e4f 690A0000 		.4byte	0xa69
 2229 0e53 5D010000 		.4byte	.LLST10
 2230 0e57 23       		.uleb128 0x23
 2231 0e58 B3000000 		.4byte	.LASF144
 2232 0e5c 01       		.byte	0x1
 2233 0e5d DA       		.byte	0xda
 2234 0e5e D8070000 		.4byte	0x7d8
 2235 0e62 7B010000 		.4byte	.LLST11
 2236 0e66 23       		.uleb128 0x23
 2237 0e67 8C000000 		.4byte	.LASF170
 2238 0e6b 01       		.byte	0x1
 2239 0e6c DB       		.byte	0xdb
 2240 0e6d 03070000 		.4byte	0x703
 2241 0e71 9C010000 		.4byte	.LLST12
 2242 0e75 23       		.uleb128 0x23
 2243 0e76 18050000 		.4byte	.LASF171
 2244 0e7a 01       		.byte	0x1
 2245 0e7b DC       		.byte	0xdc
 2246 0e7c 28000000 		.4byte	0x28
 2247 0e80 BD010000 		.4byte	.LLST13
 2248 0e84 32       		.uleb128 0x32
 2249 0e85 AB030000 		.4byte	.LASF172
 2250 0e89 01       		.byte	0x1
 2251 0e8a DD       		.byte	0xdd
 2252 0e8b 38010000 		.4byte	0x138
 2253 0e8f 02       		.uleb128 0x2
 2254 0e90 91       		.byte	0x91
 2255 0e91 00       		.sleb128 0
 2256 0e92 33       		.uleb128 0x33
 2257 0e93 29000000 		.4byte	.LASF93
 2258 0e97 01       		.byte	0x1
 2259 0e98 DF       		.byte	0xdf
 2260 0e99 17010000 		.4byte	0x117
 2261 0e9d 01       		.uleb128 0x1
 2262 0e9e 50       		.byte	0x50
 2263 0e9f 28       		.uleb128 0x28
 2264 0ea0 7B060000 		.4byte	.LASF165
 2265 0ea4 800F0000 		.4byte	0xf80
 2266 0ea8 2C       		.uleb128 0x2c
 2267 0ea9 B5090000 		.4byte	0x9b5
 2268 0ead 0A000000 		.4byte	.LBB127
 2269 0eb1 06000000 		.4byte	.LBE127-.LBB127
 2270 0eb5 01       		.byte	0x1
 2271 0eb6 E7       		.byte	0xe7
 2272 0eb7 F50E0000 		.4byte	0xef5
 2273 0ebb 2D       		.uleb128 0x2d
 2274 0ebc 63090000 		.4byte	0x963
 2275 0ec0 0A000000 		.4byte	.LBB128
 2276 0ec4 06000000 		.4byte	.LBE128-.LBB128
 2277 0ec8 02       		.byte	0x2
 2278 0ec9 ED01     		.2byte	0x1ed
 2279 0ecb 2D       		.uleb128 0x2d
 2280 0ecc 51090000 		.4byte	0x951
ARM GAS  /tmp/ccnDxhvs.s 			page 41


 2281 0ed0 0A000000 		.4byte	.LBB129
 2282 0ed4 06000000 		.4byte	.LBE129-.LBB129
 2283 0ed8 13       		.byte	0x13
 2284 0ed9 5C01     		.2byte	0x15c
 2285 0edb 2D       		.uleb128 0x2d
 2286 0edc 37090000 		.4byte	0x937
 2287 0ee0 0A000000 		.4byte	.LBB130
 2288 0ee4 06000000 		.4byte	.LBE130-.LBB130
 2289 0ee8 0C       		.byte	0xc
 2290 0ee9 D001     		.2byte	0x1d0
 2291 0eeb 2B       		.uleb128 0x2b
 2292 0eec 44090000 		.4byte	0x944
 2293 0ef0 20       		.byte	0x20
 2294 0ef1 00       		.byte	0
 2295 0ef2 00       		.byte	0
 2296 0ef3 00       		.byte	0
 2297 0ef4 00       		.byte	0
 2298 0ef5 2C       		.uleb128 0x2c
 2299 0ef6 BE090000 		.4byte	0x9be
 2300 0efa 28000000 		.4byte	.LBB132
 2301 0efe 06000000 		.4byte	.LBE132-.LBB132
 2302 0f02 01       		.byte	0x1
 2303 0f03 F1       		.byte	0xf1
 2304 0f04 510F0000 		.4byte	0xf51
 2305 0f08 2D       		.uleb128 0x2d
 2306 0f09 6C090000 		.4byte	0x96c
 2307 0f0d 28000000 		.4byte	.LBB133
 2308 0f11 06000000 		.4byte	.LBE133-.LBB133
 2309 0f15 02       		.byte	0x2
 2310 0f16 F801     		.2byte	0x1f8
 2311 0f18 2E       		.uleb128 0x2e
 2312 0f19 28000000 		.4byte	.LBB134
 2313 0f1d 06000000 		.4byte	.LBE134-.LBB134
 2314 0f21 2F       		.uleb128 0x2f
 2315 0f22 79090000 		.4byte	0x979
 2316 0f26 2D       		.uleb128 0x2d
 2317 0f27 5A090000 		.4byte	0x95a
 2318 0f2b 28000000 		.4byte	.LBB135
 2319 0f2f 06000000 		.4byte	.LBE135-.LBB135
 2320 0f33 13       		.byte	0x13
 2321 0f34 7301     		.2byte	0x173
 2322 0f36 2D       		.uleb128 0x2d
 2323 0f37 37090000 		.4byte	0x937
 2324 0f3b 28000000 		.4byte	.LBB136
 2325 0f3f 06000000 		.4byte	.LBE136-.LBB136
 2326 0f43 0C       		.byte	0xc
 2327 0f44 E301     		.2byte	0x1e3
 2328 0f46 2B       		.uleb128 0x2b
 2329 0f47 44090000 		.4byte	0x944
 2330 0f4b 00       		.byte	0
 2331 0f4c 00       		.byte	0
 2332 0f4d 00       		.byte	0
 2333 0f4e 00       		.byte	0
 2334 0f4f 00       		.byte	0
 2335 0f50 00       		.byte	0
 2336 0f51 30       		.uleb128 0x30
 2337 0f52 1E000000 		.4byte	.LVL17
ARM GAS  /tmp/ccnDxhvs.s 			page 42


 2338 0f56 E6100000 		.4byte	0x10e6
 2339 0f5a 27       		.uleb128 0x27
 2340 0f5b 01       		.uleb128 0x1
 2341 0f5c 53       		.byte	0x53
 2342 0f5d 03       		.uleb128 0x3
 2343 0f5e F3       		.byte	0xf3
 2344 0f5f 01       		.uleb128 0x1
 2345 0f60 53       		.byte	0x53
 2346 0f61 27       		.uleb128 0x27
 2347 0f62 01       		.uleb128 0x1
 2348 0f63 52       		.byte	0x52
 2349 0f64 03       		.uleb128 0x3
 2350 0f65 F3       		.byte	0xf3
 2351 0f66 01       		.uleb128 0x1
 2352 0f67 52       		.byte	0x52
 2353 0f68 27       		.uleb128 0x27
 2354 0f69 01       		.uleb128 0x1
 2355 0f6a 50       		.byte	0x50
 2356 0f6b 02       		.uleb128 0x2
 2357 0f6c 74       		.byte	0x74
 2358 0f6d 00       		.sleb128 0
 2359 0f6e 00       		.byte	0
 2360 0f6f 00       		.byte	0
 2361 0f70 17       		.uleb128 0x17
 2362 0f71 DB060000 		.4byte	0x6db
 2363 0f75 800F0000 		.4byte	0xf80
 2364 0f79 18       		.uleb128 0x18
 2365 0f7a 1B040000 		.4byte	0x41b
 2366 0f7e 17       		.byte	0x17
 2367 0f7f 00       		.byte	0
 2368 0f80 16       		.uleb128 0x16
 2369 0f81 700F0000 		.4byte	0xf70
 2370 0f85 34       		.uleb128 0x34
 2371 0f86 C3050000 		.4byte	.LASF174
 2372 0f8a 01       		.byte	0x1
 2373 0f8b 0101     		.2byte	0x101
 2374 0f8d 00000000 		.4byte	.LFB214
 2375 0f91 06000000 		.4byte	.LFE214-.LFB214
 2376 0f95 01       		.uleb128 0x1
 2377 0f96 9C       		.byte	0x9c
 2378 0f97 E20F0000 		.4byte	0xfe2
 2379 0f9b 35       		.uleb128 0x35
 2380 0f9c 02010000 		.4byte	.LASF163
 2381 0fa0 01       		.byte	0x1
 2382 0fa1 0101     		.2byte	0x101
 2383 0fa3 690A0000 		.4byte	0xa69
 2384 0fa7 DE010000 		.4byte	.LLST14
 2385 0fab 28       		.uleb128 0x28
 2386 0fac 7B060000 		.4byte	.LASF165
 2387 0fb0 F20F0000 		.4byte	0xff2
 2388 0fb4 2D       		.uleb128 0x2d
 2389 0fb5 C7090000 		.4byte	0x9c7
 2390 0fb9 00000000 		.4byte	.LBB138
 2391 0fbd 06000000 		.4byte	.LBE138-.LBB138
 2392 0fc1 01       		.byte	0x1
 2393 0fc2 0501     		.2byte	0x105
 2394 0fc4 25       		.uleb128 0x25
ARM GAS  /tmp/ccnDxhvs.s 			page 43


 2395 0fc5 D4090000 		.4byte	0x9d4
 2396 0fc9 0C020000 		.4byte	.LLST15
 2397 0fcd 26       		.uleb128 0x26
 2398 0fce 06000000 		.4byte	.LVL21
 2399 0fd2 10110000 		.4byte	0x1110
 2400 0fd6 27       		.uleb128 0x27
 2401 0fd7 01       		.uleb128 0x1
 2402 0fd8 50       		.byte	0x50
 2403 0fd9 05       		.uleb128 0x5
 2404 0fda F3       		.byte	0xf3
 2405 0fdb 01       		.uleb128 0x1
 2406 0fdc 50       		.byte	0x50
 2407 0fdd 23       		.byte	0x23
 2408 0fde 0C       		.uleb128 0xc
 2409 0fdf 00       		.byte	0
 2410 0fe0 00       		.byte	0
 2411 0fe1 00       		.byte	0
 2412 0fe2 17       		.uleb128 0x17
 2413 0fe3 DB060000 		.4byte	0x6db
 2414 0fe7 F20F0000 		.4byte	0xff2
 2415 0feb 18       		.uleb128 0x18
 2416 0fec 1B040000 		.4byte	0x41b
 2417 0ff0 0D       		.byte	0xd
 2418 0ff1 00       		.byte	0
 2419 0ff2 16       		.uleb128 0x16
 2420 0ff3 E20F0000 		.4byte	0xfe2
 2421 0ff7 34       		.uleb128 0x34
 2422 0ff8 D1000000 		.4byte	.LASF175
 2423 0ffc 01       		.byte	0x1
 2424 0ffd 1101     		.2byte	0x111
 2425 0fff 00000000 		.4byte	.LFB215
 2426 1003 06000000 		.4byte	.LFE215-.LFB215
 2427 1007 01       		.uleb128 0x1
 2428 1008 9C       		.byte	0x9c
 2429 1009 54100000 		.4byte	0x1054
 2430 100d 35       		.uleb128 0x35
 2431 100e 02010000 		.4byte	.LASF163
 2432 1012 01       		.byte	0x1
 2433 1013 1101     		.2byte	0x111
 2434 1015 690A0000 		.4byte	0xa69
 2435 1019 3C020000 		.4byte	.LLST16
 2436 101d 28       		.uleb128 0x28
 2437 101e 7B060000 		.4byte	.LASF165
 2438 1022 54100000 		.4byte	0x1054
 2439 1026 2D       		.uleb128 0x2d
 2440 1027 E0090000 		.4byte	0x9e0
 2441 102b 00000000 		.4byte	.LBB140
 2442 102f 06000000 		.4byte	.LBE140-.LBB140
 2443 1033 01       		.byte	0x1
 2444 1034 1501     		.2byte	0x115
 2445 1036 25       		.uleb128 0x25
 2446 1037 ED090000 		.4byte	0x9ed
 2447 103b 6A020000 		.4byte	.LLST17
 2448 103f 26       		.uleb128 0x26
 2449 1040 06000000 		.4byte	.LVL24
 2450 1044 21110000 		.4byte	0x1121
 2451 1048 27       		.uleb128 0x27
ARM GAS  /tmp/ccnDxhvs.s 			page 44


 2452 1049 01       		.uleb128 0x1
 2453 104a 50       		.byte	0x50
 2454 104b 05       		.uleb128 0x5
 2455 104c F3       		.byte	0xf3
 2456 104d 01       		.uleb128 0x1
 2457 104e 50       		.byte	0x50
 2458 104f 23       		.byte	0x23
 2459 1050 0C       		.uleb128 0xc
 2460 1051 00       		.byte	0
 2461 1052 00       		.byte	0
 2462 1053 00       		.byte	0
 2463 1054 16       		.uleb128 0x16
 2464 1055 E20F0000 		.4byte	0xfe2
 2465 1059 36       		.uleb128 0x36
 2466 105a F5000000 		.4byte	.LASF176
 2467 105e 14       		.byte	0x14
 2468 105f 5506     		.2byte	0x655
 2469 1061 65100000 		.4byte	0x1065
 2470 1065 0F       		.uleb128 0xf
 2471 1066 BF000000 		.4byte	0xbf
 2472 106a 37       		.uleb128 0x37
 2473 106b 636800   		.ascii	"ch\000"
 2474 106e 09       		.byte	0x9
 2475 106f 0902     		.2byte	0x209
 2476 1071 B4030000 		.4byte	0x3b4
 2477 1075 38       		.uleb128 0x38
 2478 1076 1C080000 		.4byte	.LASF185
 2479 107a 12       		.byte	0x12
 2480 107b EF01     		.2byte	0x1ef
 2481 107d 39       		.uleb128 0x39
 2482 107e F8050000 		.4byte	.LASF177
 2483 1082 0F       		.byte	0xf
 2484 1083 67       		.byte	0x67
 2485 1084 8E100000 		.4byte	0x108e
 2486 1088 0C       		.uleb128 0xc
 2487 1089 FD060000 		.4byte	0x6fd
 2488 108d 00       		.byte	0
 2489 108e 3A       		.uleb128 0x3a
 2490 108f B5040000 		.4byte	.LASF178
 2491 1093 12       		.byte	0x12
 2492 1094 F001     		.2byte	0x1f0
 2493 1096 A0100000 		.4byte	0x10a0
 2494 109a 0C       		.uleb128 0xc
 2495 109b 690A0000 		.4byte	0xa69
 2496 109f 00       		.byte	0
 2497 10a0 3A       		.uleb128 0x3a
 2498 10a1 89040000 		.4byte	.LASF179
 2499 10a5 12       		.byte	0x12
 2500 10a6 F101     		.2byte	0x1f1
 2501 10a8 B2100000 		.4byte	0x10b2
 2502 10ac 0C       		.uleb128 0xc
 2503 10ad 690A0000 		.4byte	0xa69
 2504 10b1 00       		.byte	0
 2505 10b2 3B       		.uleb128 0x3b
 2506 10b3 92010000 		.4byte	.LASF180
 2507 10b7 12       		.byte	0x12
 2508 10b8 F201     		.2byte	0x1f2
ARM GAS  /tmp/ccnDxhvs.s 			page 45


 2509 10ba 17010000 		.4byte	0x117
 2510 10be E6100000 		.4byte	0x10e6
 2511 10c2 0C       		.uleb128 0xc
 2512 10c3 690A0000 		.4byte	0xa69
 2513 10c7 0C       		.uleb128 0xc
 2514 10c8 D8070000 		.4byte	0x7d8
 2515 10cc 0C       		.uleb128 0xc
 2516 10cd 09070000 		.4byte	0x709
 2517 10d1 0C       		.uleb128 0xc
 2518 10d2 28000000 		.4byte	0x28
 2519 10d6 0C       		.uleb128 0xc
 2520 10d7 03070000 		.4byte	0x703
 2521 10db 0C       		.uleb128 0xc
 2522 10dc 28000000 		.4byte	0x28
 2523 10e0 0C       		.uleb128 0xc
 2524 10e1 38010000 		.4byte	0x138
 2525 10e5 00       		.byte	0
 2526 10e6 3B       		.uleb128 0x3b
 2527 10e7 67000000 		.4byte	.LASF181
 2528 10eb 12       		.byte	0x12
 2529 10ec F601     		.2byte	0x1f6
 2530 10ee 17010000 		.4byte	0x117
 2531 10f2 10110000 		.4byte	0x1110
 2532 10f6 0C       		.uleb128 0xc
 2533 10f7 690A0000 		.4byte	0xa69
 2534 10fb 0C       		.uleb128 0xc
 2535 10fc D8070000 		.4byte	0x7d8
 2536 1100 0C       		.uleb128 0xc
 2537 1101 03070000 		.4byte	0x703
 2538 1105 0C       		.uleb128 0xc
 2539 1106 28000000 		.4byte	0x28
 2540 110a 0C       		.uleb128 0xc
 2541 110b 38010000 		.4byte	0x138
 2542 110f 00       		.byte	0
 2543 1110 39       		.uleb128 0x39
 2544 1111 0E050000 		.4byte	.LASF182
 2545 1115 0F       		.byte	0xf
 2546 1116 68       		.byte	0x68
 2547 1117 21110000 		.4byte	0x1121
 2548 111b 0C       		.uleb128 0xc
 2549 111c FD060000 		.4byte	0x6fd
 2550 1120 00       		.byte	0
 2551 1121 3C       		.uleb128 0x3c
 2552 1122 4C010000 		.4byte	.LASF186
 2553 1126 0F       		.byte	0xf
 2554 1127 6C       		.byte	0x6c
 2555 1128 0C       		.uleb128 0xc
 2556 1129 FD060000 		.4byte	0x6fd
 2557 112d 00       		.byte	0
 2558 112e 00       		.byte	0
 2559              		.section	.debug_abbrev,"",%progbits
 2560              	.Ldebug_abbrev0:
 2561 0000 01       		.uleb128 0x1
 2562 0001 11       		.uleb128 0x11
 2563 0002 01       		.byte	0x1
 2564 0003 25       		.uleb128 0x25
 2565 0004 0E       		.uleb128 0xe
ARM GAS  /tmp/ccnDxhvs.s 			page 46


 2566 0005 13       		.uleb128 0x13
 2567 0006 0B       		.uleb128 0xb
 2568 0007 03       		.uleb128 0x3
 2569 0008 0E       		.uleb128 0xe
 2570 0009 55       		.uleb128 0x55
 2571 000a 17       		.uleb128 0x17
 2572 000b 11       		.uleb128 0x11
 2573 000c 01       		.uleb128 0x1
 2574 000d 10       		.uleb128 0x10
 2575 000e 17       		.uleb128 0x17
 2576 000f 00       		.byte	0
 2577 0010 00       		.byte	0
 2578 0011 02       		.uleb128 0x2
 2579 0012 24       		.uleb128 0x24
 2580 0013 00       		.byte	0
 2581 0014 0B       		.uleb128 0xb
 2582 0015 0B       		.uleb128 0xb
 2583 0016 3E       		.uleb128 0x3e
 2584 0017 0B       		.uleb128 0xb
 2585 0018 03       		.uleb128 0x3
 2586 0019 08       		.uleb128 0x8
 2587 001a 00       		.byte	0
 2588 001b 00       		.byte	0
 2589 001c 03       		.uleb128 0x3
 2590 001d 16       		.uleb128 0x16
 2591 001e 00       		.byte	0
 2592 001f 03       		.uleb128 0x3
 2593 0020 0E       		.uleb128 0xe
 2594 0021 3A       		.uleb128 0x3a
 2595 0022 0B       		.uleb128 0xb
 2596 0023 3B       		.uleb128 0x3b
 2597 0024 0B       		.uleb128 0xb
 2598 0025 49       		.uleb128 0x49
 2599 0026 13       		.uleb128 0x13
 2600 0027 00       		.byte	0
 2601 0028 00       		.byte	0
 2602 0029 04       		.uleb128 0x4
 2603 002a 24       		.uleb128 0x24
 2604 002b 00       		.byte	0
 2605 002c 0B       		.uleb128 0xb
 2606 002d 0B       		.uleb128 0xb
 2607 002e 3E       		.uleb128 0x3e
 2608 002f 0B       		.uleb128 0xb
 2609 0030 03       		.uleb128 0x3
 2610 0031 0E       		.uleb128 0xe
 2611 0032 00       		.byte	0
 2612 0033 00       		.byte	0
 2613 0034 05       		.uleb128 0x5
 2614 0035 13       		.uleb128 0x13
 2615 0036 01       		.byte	0x1
 2616 0037 03       		.uleb128 0x3
 2617 0038 0E       		.uleb128 0xe
 2618 0039 0B       		.uleb128 0xb
 2619 003a 0B       		.uleb128 0xb
 2620 003b 3A       		.uleb128 0x3a
 2621 003c 0B       		.uleb128 0xb
 2622 003d 3B       		.uleb128 0x3b
ARM GAS  /tmp/ccnDxhvs.s 			page 47


 2623 003e 0B       		.uleb128 0xb
 2624 003f 01       		.uleb128 0x1
 2625 0040 13       		.uleb128 0x13
 2626 0041 00       		.byte	0
 2627 0042 00       		.byte	0
 2628 0043 06       		.uleb128 0x6
 2629 0044 0D       		.uleb128 0xd
 2630 0045 00       		.byte	0
 2631 0046 03       		.uleb128 0x3
 2632 0047 0E       		.uleb128 0xe
 2633 0048 3A       		.uleb128 0x3a
 2634 0049 0B       		.uleb128 0xb
 2635 004a 3B       		.uleb128 0x3b
 2636 004b 0B       		.uleb128 0xb
 2637 004c 49       		.uleb128 0x49
 2638 004d 13       		.uleb128 0x13
 2639 004e 38       		.uleb128 0x38
 2640 004f 0B       		.uleb128 0xb
 2641 0050 00       		.byte	0
 2642 0051 00       		.byte	0
 2643 0052 07       		.uleb128 0x7
 2644 0053 0D       		.uleb128 0xd
 2645 0054 00       		.byte	0
 2646 0055 03       		.uleb128 0x3
 2647 0056 08       		.uleb128 0x8
 2648 0057 3A       		.uleb128 0x3a
 2649 0058 0B       		.uleb128 0xb
 2650 0059 3B       		.uleb128 0x3b
 2651 005a 05       		.uleb128 0x5
 2652 005b 49       		.uleb128 0x49
 2653 005c 13       		.uleb128 0x13
 2654 005d 38       		.uleb128 0x38
 2655 005e 0B       		.uleb128 0xb
 2656 005f 00       		.byte	0
 2657 0060 00       		.byte	0
 2658 0061 08       		.uleb128 0x8
 2659 0062 0D       		.uleb128 0xd
 2660 0063 00       		.byte	0
 2661 0064 03       		.uleb128 0x3
 2662 0065 0E       		.uleb128 0xe
 2663 0066 3A       		.uleb128 0x3a
 2664 0067 0B       		.uleb128 0xb
 2665 0068 3B       		.uleb128 0x3b
 2666 0069 05       		.uleb128 0x5
 2667 006a 49       		.uleb128 0x49
 2668 006b 13       		.uleb128 0x13
 2669 006c 38       		.uleb128 0x38
 2670 006d 0B       		.uleb128 0xb
 2671 006e 00       		.byte	0
 2672 006f 00       		.byte	0
 2673 0070 09       		.uleb128 0x9
 2674 0071 0F       		.uleb128 0xf
 2675 0072 00       		.byte	0
 2676 0073 0B       		.uleb128 0xb
 2677 0074 0B       		.uleb128 0xb
 2678 0075 49       		.uleb128 0x49
 2679 0076 13       		.uleb128 0x13
ARM GAS  /tmp/ccnDxhvs.s 			page 48


 2680 0077 00       		.byte	0
 2681 0078 00       		.byte	0
 2682 0079 0A       		.uleb128 0xa
 2683 007a 13       		.uleb128 0x13
 2684 007b 01       		.byte	0x1
 2685 007c 03       		.uleb128 0x3
 2686 007d 0E       		.uleb128 0xe
 2687 007e 0B       		.uleb128 0xb
 2688 007f 0B       		.uleb128 0xb
 2689 0080 3A       		.uleb128 0x3a
 2690 0081 0B       		.uleb128 0xb
 2691 0082 3B       		.uleb128 0x3b
 2692 0083 05       		.uleb128 0x5
 2693 0084 01       		.uleb128 0x1
 2694 0085 13       		.uleb128 0x13
 2695 0086 00       		.byte	0
 2696 0087 00       		.byte	0
 2697 0088 0B       		.uleb128 0xb
 2698 0089 15       		.uleb128 0x15
 2699 008a 01       		.byte	0x1
 2700 008b 27       		.uleb128 0x27
 2701 008c 19       		.uleb128 0x19
 2702 008d 01       		.uleb128 0x1
 2703 008e 13       		.uleb128 0x13
 2704 008f 00       		.byte	0
 2705 0090 00       		.byte	0
 2706 0091 0C       		.uleb128 0xc
 2707 0092 05       		.uleb128 0x5
 2708 0093 00       		.byte	0
 2709 0094 49       		.uleb128 0x49
 2710 0095 13       		.uleb128 0x13
 2711 0096 00       		.byte	0
 2712 0097 00       		.byte	0
 2713 0098 0D       		.uleb128 0xd
 2714 0099 0F       		.uleb128 0xf
 2715 009a 00       		.byte	0
 2716 009b 0B       		.uleb128 0xb
 2717 009c 0B       		.uleb128 0xb
 2718 009d 00       		.byte	0
 2719 009e 00       		.byte	0
 2720 009f 0E       		.uleb128 0xe
 2721 00a0 13       		.uleb128 0x13
 2722 00a1 01       		.byte	0x1
 2723 00a2 03       		.uleb128 0x3
 2724 00a3 0E       		.uleb128 0xe
 2725 00a4 0B       		.uleb128 0xb
 2726 00a5 05       		.uleb128 0x5
 2727 00a6 3A       		.uleb128 0x3a
 2728 00a7 0B       		.uleb128 0xb
 2729 00a8 3B       		.uleb128 0x3b
 2730 00a9 05       		.uleb128 0x5
 2731 00aa 01       		.uleb128 0x1
 2732 00ab 13       		.uleb128 0x13
 2733 00ac 00       		.byte	0
 2734 00ad 00       		.byte	0
 2735 00ae 0F       		.uleb128 0xf
 2736 00af 35       		.uleb128 0x35
ARM GAS  /tmp/ccnDxhvs.s 			page 49


 2737 00b0 00       		.byte	0
 2738 00b1 49       		.uleb128 0x49
 2739 00b2 13       		.uleb128 0x13
 2740 00b3 00       		.byte	0
 2741 00b4 00       		.byte	0
 2742 00b5 10       		.uleb128 0x10
 2743 00b6 13       		.uleb128 0x13
 2744 00b7 01       		.byte	0x1
 2745 00b8 0B       		.uleb128 0xb
 2746 00b9 0B       		.uleb128 0xb
 2747 00ba 3A       		.uleb128 0x3a
 2748 00bb 0B       		.uleb128 0xb
 2749 00bc 3B       		.uleb128 0x3b
 2750 00bd 05       		.uleb128 0x5
 2751 00be 01       		.uleb128 0x1
 2752 00bf 13       		.uleb128 0x13
 2753 00c0 00       		.byte	0
 2754 00c1 00       		.byte	0
 2755 00c2 11       		.uleb128 0x11
 2756 00c3 16       		.uleb128 0x16
 2757 00c4 00       		.byte	0
 2758 00c5 03       		.uleb128 0x3
 2759 00c6 0E       		.uleb128 0xe
 2760 00c7 3A       		.uleb128 0x3a
 2761 00c8 0B       		.uleb128 0xb
 2762 00c9 3B       		.uleb128 0x3b
 2763 00ca 05       		.uleb128 0x5
 2764 00cb 49       		.uleb128 0x49
 2765 00cc 13       		.uleb128 0x13
 2766 00cd 00       		.byte	0
 2767 00ce 00       		.byte	0
 2768 00cf 12       		.uleb128 0x12
 2769 00d0 0D       		.uleb128 0xd
 2770 00d1 00       		.byte	0
 2771 00d2 03       		.uleb128 0x3
 2772 00d3 08       		.uleb128 0x8
 2773 00d4 3A       		.uleb128 0x3a
 2774 00d5 0B       		.uleb128 0xb
 2775 00d6 3B       		.uleb128 0x3b
 2776 00d7 0B       		.uleb128 0xb
 2777 00d8 49       		.uleb128 0x49
 2778 00d9 13       		.uleb128 0x13
 2779 00da 38       		.uleb128 0x38
 2780 00db 0B       		.uleb128 0xb
 2781 00dc 00       		.byte	0
 2782 00dd 00       		.byte	0
 2783 00de 13       		.uleb128 0x13
 2784 00df 13       		.uleb128 0x13
 2785 00e0 01       		.byte	0x1
 2786 00e1 0B       		.uleb128 0xb
 2787 00e2 0B       		.uleb128 0xb
 2788 00e3 3A       		.uleb128 0x3a
 2789 00e4 0B       		.uleb128 0xb
 2790 00e5 3B       		.uleb128 0x3b
 2791 00e6 0B       		.uleb128 0xb
 2792 00e7 01       		.uleb128 0x1
 2793 00e8 13       		.uleb128 0x13
ARM GAS  /tmp/ccnDxhvs.s 			page 50


 2794 00e9 00       		.byte	0
 2795 00ea 00       		.byte	0
 2796 00eb 14       		.uleb128 0x14
 2797 00ec 17       		.uleb128 0x17
 2798 00ed 01       		.byte	0x1
 2799 00ee 0B       		.uleb128 0xb
 2800 00ef 0B       		.uleb128 0xb
 2801 00f0 3A       		.uleb128 0x3a
 2802 00f1 0B       		.uleb128 0xb
 2803 00f2 3B       		.uleb128 0x3b
 2804 00f3 0B       		.uleb128 0xb
 2805 00f4 01       		.uleb128 0x1
 2806 00f5 13       		.uleb128 0x13
 2807 00f6 00       		.byte	0
 2808 00f7 00       		.byte	0
 2809 00f8 15       		.uleb128 0x15
 2810 00f9 0D       		.uleb128 0xd
 2811 00fa 00       		.byte	0
 2812 00fb 03       		.uleb128 0x3
 2813 00fc 0E       		.uleb128 0xe
 2814 00fd 3A       		.uleb128 0x3a
 2815 00fe 0B       		.uleb128 0xb
 2816 00ff 3B       		.uleb128 0x3b
 2817 0100 05       		.uleb128 0x5
 2818 0101 49       		.uleb128 0x49
 2819 0102 13       		.uleb128 0x13
 2820 0103 00       		.byte	0
 2821 0104 00       		.byte	0
 2822 0105 16       		.uleb128 0x16
 2823 0106 26       		.uleb128 0x26
 2824 0107 00       		.byte	0
 2825 0108 49       		.uleb128 0x49
 2826 0109 13       		.uleb128 0x13
 2827 010a 00       		.byte	0
 2828 010b 00       		.byte	0
 2829 010c 17       		.uleb128 0x17
 2830 010d 01       		.uleb128 0x1
 2831 010e 01       		.byte	0x1
 2832 010f 49       		.uleb128 0x49
 2833 0110 13       		.uleb128 0x13
 2834 0111 01       		.uleb128 0x1
 2835 0112 13       		.uleb128 0x13
 2836 0113 00       		.byte	0
 2837 0114 00       		.byte	0
 2838 0115 18       		.uleb128 0x18
 2839 0116 21       		.uleb128 0x21
 2840 0117 00       		.byte	0
 2841 0118 49       		.uleb128 0x49
 2842 0119 13       		.uleb128 0x13
 2843 011a 2F       		.uleb128 0x2f
 2844 011b 0B       		.uleb128 0xb
 2845 011c 00       		.byte	0
 2846 011d 00       		.byte	0
 2847 011e 19       		.uleb128 0x19
 2848 011f 04       		.uleb128 0x4
 2849 0120 01       		.byte	0x1
 2850 0121 0B       		.uleb128 0xb
ARM GAS  /tmp/ccnDxhvs.s 			page 51


 2851 0122 0B       		.uleb128 0xb
 2852 0123 3A       		.uleb128 0x3a
 2853 0124 0B       		.uleb128 0xb
 2854 0125 3B       		.uleb128 0x3b
 2855 0126 0B       		.uleb128 0xb
 2856 0127 01       		.uleb128 0x1
 2857 0128 13       		.uleb128 0x13
 2858 0129 00       		.byte	0
 2859 012a 00       		.byte	0
 2860 012b 1A       		.uleb128 0x1a
 2861 012c 28       		.uleb128 0x28
 2862 012d 00       		.byte	0
 2863 012e 03       		.uleb128 0x3
 2864 012f 0E       		.uleb128 0xe
 2865 0130 1C       		.uleb128 0x1c
 2866 0131 0D       		.uleb128 0xd
 2867 0132 00       		.byte	0
 2868 0133 00       		.byte	0
 2869 0134 1B       		.uleb128 0x1b
 2870 0135 04       		.uleb128 0x4
 2871 0136 01       		.byte	0x1
 2872 0137 0B       		.uleb128 0xb
 2873 0138 0B       		.uleb128 0xb
 2874 0139 3A       		.uleb128 0x3a
 2875 013a 0B       		.uleb128 0xb
 2876 013b 3B       		.uleb128 0x3b
 2877 013c 05       		.uleb128 0x5
 2878 013d 01       		.uleb128 0x1
 2879 013e 13       		.uleb128 0x13
 2880 013f 00       		.byte	0
 2881 0140 00       		.byte	0
 2882 0141 1C       		.uleb128 0x1c
 2883 0142 2E       		.uleb128 0x2e
 2884 0143 01       		.byte	0x1
 2885 0144 03       		.uleb128 0x3
 2886 0145 0E       		.uleb128 0xe
 2887 0146 3A       		.uleb128 0x3a
 2888 0147 0B       		.uleb128 0xb
 2889 0148 3B       		.uleb128 0x3b
 2890 0149 05       		.uleb128 0x5
 2891 014a 27       		.uleb128 0x27
 2892 014b 19       		.uleb128 0x19
 2893 014c 20       		.uleb128 0x20
 2894 014d 0B       		.uleb128 0xb
 2895 014e 01       		.uleb128 0x1
 2896 014f 13       		.uleb128 0x13
 2897 0150 00       		.byte	0
 2898 0151 00       		.byte	0
 2899 0152 1D       		.uleb128 0x1d
 2900 0153 05       		.uleb128 0x5
 2901 0154 00       		.byte	0
 2902 0155 03       		.uleb128 0x3
 2903 0156 0E       		.uleb128 0xe
 2904 0157 3A       		.uleb128 0x3a
 2905 0158 0B       		.uleb128 0xb
 2906 0159 3B       		.uleb128 0x3b
 2907 015a 05       		.uleb128 0x5
ARM GAS  /tmp/ccnDxhvs.s 			page 52


 2908 015b 49       		.uleb128 0x49
 2909 015c 13       		.uleb128 0x13
 2910 015d 00       		.byte	0
 2911 015e 00       		.byte	0
 2912 015f 1E       		.uleb128 0x1e
 2913 0160 2E       		.uleb128 0x2e
 2914 0161 00       		.byte	0
 2915 0162 03       		.uleb128 0x3
 2916 0163 0E       		.uleb128 0xe
 2917 0164 3A       		.uleb128 0x3a
 2918 0165 0B       		.uleb128 0xb
 2919 0166 3B       		.uleb128 0x3b
 2920 0167 05       		.uleb128 0x5
 2921 0168 27       		.uleb128 0x27
 2922 0169 19       		.uleb128 0x19
 2923 016a 20       		.uleb128 0x20
 2924 016b 0B       		.uleb128 0xb
 2925 016c 00       		.byte	0
 2926 016d 00       		.byte	0
 2927 016e 1F       		.uleb128 0x1f
 2928 016f 34       		.uleb128 0x34
 2929 0170 00       		.byte	0
 2930 0171 03       		.uleb128 0x3
 2931 0172 0E       		.uleb128 0xe
 2932 0173 49       		.uleb128 0x49
 2933 0174 13       		.uleb128 0x13
 2934 0175 34       		.uleb128 0x34
 2935 0176 19       		.uleb128 0x19
 2936 0177 1C       		.uleb128 0x1c
 2937 0178 0E       		.uleb128 0xe
 2938 0179 00       		.byte	0
 2939 017a 00       		.byte	0
 2940 017b 20       		.uleb128 0x20
 2941 017c 05       		.uleb128 0x5
 2942 017d 00       		.byte	0
 2943 017e 03       		.uleb128 0x3
 2944 017f 08       		.uleb128 0x8
 2945 0180 3A       		.uleb128 0x3a
 2946 0181 0B       		.uleb128 0xb
 2947 0182 3B       		.uleb128 0x3b
 2948 0183 05       		.uleb128 0x5
 2949 0184 49       		.uleb128 0x49
 2950 0185 13       		.uleb128 0x13
 2951 0186 00       		.byte	0
 2952 0187 00       		.byte	0
 2953 0188 21       		.uleb128 0x21
 2954 0189 2E       		.uleb128 0x2e
 2955 018a 01       		.byte	0x1
 2956 018b 3F       		.uleb128 0x3f
 2957 018c 19       		.uleb128 0x19
 2958 018d 03       		.uleb128 0x3
 2959 018e 0E       		.uleb128 0xe
 2960 018f 3A       		.uleb128 0x3a
 2961 0190 0B       		.uleb128 0xb
 2962 0191 3B       		.uleb128 0x3b
 2963 0192 0B       		.uleb128 0xb
 2964 0193 27       		.uleb128 0x27
ARM GAS  /tmp/ccnDxhvs.s 			page 53


 2965 0194 19       		.uleb128 0x19
 2966 0195 11       		.uleb128 0x11
 2967 0196 01       		.uleb128 0x1
 2968 0197 12       		.uleb128 0x12
 2969 0198 06       		.uleb128 0x6
 2970 0199 40       		.uleb128 0x40
 2971 019a 18       		.uleb128 0x18
 2972 019b 9742     		.uleb128 0x2117
 2973 019d 19       		.uleb128 0x19
 2974 019e 01       		.uleb128 0x1
 2975 019f 13       		.uleb128 0x13
 2976 01a0 00       		.byte	0
 2977 01a1 00       		.byte	0
 2978 01a2 22       		.uleb128 0x22
 2979 01a3 898201   		.uleb128 0x4109
 2980 01a6 00       		.byte	0
 2981 01a7 11       		.uleb128 0x11
 2982 01a8 01       		.uleb128 0x1
 2983 01a9 9542     		.uleb128 0x2115
 2984 01ab 19       		.uleb128 0x19
 2985 01ac 31       		.uleb128 0x31
 2986 01ad 13       		.uleb128 0x13
 2987 01ae 00       		.byte	0
 2988 01af 00       		.byte	0
 2989 01b0 23       		.uleb128 0x23
 2990 01b1 05       		.uleb128 0x5
 2991 01b2 00       		.byte	0
 2992 01b3 03       		.uleb128 0x3
 2993 01b4 0E       		.uleb128 0xe
 2994 01b5 3A       		.uleb128 0x3a
 2995 01b6 0B       		.uleb128 0xb
 2996 01b7 3B       		.uleb128 0x3b
 2997 01b8 0B       		.uleb128 0xb
 2998 01b9 49       		.uleb128 0x49
 2999 01ba 13       		.uleb128 0x13
 3000 01bb 02       		.uleb128 0x2
 3001 01bc 17       		.uleb128 0x17
 3002 01bd 00       		.byte	0
 3003 01be 00       		.byte	0
 3004 01bf 24       		.uleb128 0x24
 3005 01c0 1D       		.uleb128 0x1d
 3006 01c1 01       		.byte	0x1
 3007 01c2 31       		.uleb128 0x31
 3008 01c3 13       		.uleb128 0x13
 3009 01c4 11       		.uleb128 0x11
 3010 01c5 01       		.uleb128 0x1
 3011 01c6 12       		.uleb128 0x12
 3012 01c7 06       		.uleb128 0x6
 3013 01c8 58       		.uleb128 0x58
 3014 01c9 0B       		.uleb128 0xb
 3015 01ca 59       		.uleb128 0x59
 3016 01cb 0B       		.uleb128 0xb
 3017 01cc 00       		.byte	0
 3018 01cd 00       		.byte	0
 3019 01ce 25       		.uleb128 0x25
 3020 01cf 05       		.uleb128 0x5
 3021 01d0 00       		.byte	0
ARM GAS  /tmp/ccnDxhvs.s 			page 54


 3022 01d1 31       		.uleb128 0x31
 3023 01d2 13       		.uleb128 0x13
 3024 01d3 02       		.uleb128 0x2
 3025 01d4 17       		.uleb128 0x17
 3026 01d5 00       		.byte	0
 3027 01d6 00       		.byte	0
 3028 01d7 26       		.uleb128 0x26
 3029 01d8 898201   		.uleb128 0x4109
 3030 01db 01       		.byte	0x1
 3031 01dc 11       		.uleb128 0x11
 3032 01dd 01       		.uleb128 0x1
 3033 01de 9542     		.uleb128 0x2115
 3034 01e0 19       		.uleb128 0x19
 3035 01e1 31       		.uleb128 0x31
 3036 01e2 13       		.uleb128 0x13
 3037 01e3 00       		.byte	0
 3038 01e4 00       		.byte	0
 3039 01e5 27       		.uleb128 0x27
 3040 01e6 8A8201   		.uleb128 0x410a
 3041 01e9 00       		.byte	0
 3042 01ea 02       		.uleb128 0x2
 3043 01eb 18       		.uleb128 0x18
 3044 01ec 9142     		.uleb128 0x2111
 3045 01ee 18       		.uleb128 0x18
 3046 01ef 00       		.byte	0
 3047 01f0 00       		.byte	0
 3048 01f1 28       		.uleb128 0x28
 3049 01f2 34       		.uleb128 0x34
 3050 01f3 00       		.byte	0
 3051 01f4 03       		.uleb128 0x3
 3052 01f5 0E       		.uleb128 0xe
 3053 01f6 49       		.uleb128 0x49
 3054 01f7 13       		.uleb128 0x13
 3055 01f8 34       		.uleb128 0x34
 3056 01f9 19       		.uleb128 0x19
 3057 01fa 00       		.byte	0
 3058 01fb 00       		.byte	0
 3059 01fc 29       		.uleb128 0x29
 3060 01fd 1D       		.uleb128 0x1d
 3061 01fe 01       		.byte	0x1
 3062 01ff 31       		.uleb128 0x31
 3063 0200 13       		.uleb128 0x13
 3064 0201 52       		.uleb128 0x52
 3065 0202 01       		.uleb128 0x1
 3066 0203 55       		.uleb128 0x55
 3067 0204 17       		.uleb128 0x17
 3068 0205 58       		.uleb128 0x58
 3069 0206 0B       		.uleb128 0xb
 3070 0207 59       		.uleb128 0x59
 3071 0208 0B       		.uleb128 0xb
 3072 0209 01       		.uleb128 0x1
 3073 020a 13       		.uleb128 0x13
 3074 020b 00       		.byte	0
 3075 020c 00       		.byte	0
 3076 020d 2A       		.uleb128 0x2a
 3077 020e 1D       		.uleb128 0x1d
 3078 020f 01       		.byte	0x1
ARM GAS  /tmp/ccnDxhvs.s 			page 55


 3079 0210 31       		.uleb128 0x31
 3080 0211 13       		.uleb128 0x13
 3081 0212 52       		.uleb128 0x52
 3082 0213 01       		.uleb128 0x1
 3083 0214 55       		.uleb128 0x55
 3084 0215 17       		.uleb128 0x17
 3085 0216 58       		.uleb128 0x58
 3086 0217 0B       		.uleb128 0xb
 3087 0218 59       		.uleb128 0x59
 3088 0219 05       		.uleb128 0x5
 3089 021a 00       		.byte	0
 3090 021b 00       		.byte	0
 3091 021c 2B       		.uleb128 0x2b
 3092 021d 05       		.uleb128 0x5
 3093 021e 00       		.byte	0
 3094 021f 31       		.uleb128 0x31
 3095 0220 13       		.uleb128 0x13
 3096 0221 1C       		.uleb128 0x1c
 3097 0222 0B       		.uleb128 0xb
 3098 0223 00       		.byte	0
 3099 0224 00       		.byte	0
 3100 0225 2C       		.uleb128 0x2c
 3101 0226 1D       		.uleb128 0x1d
 3102 0227 01       		.byte	0x1
 3103 0228 31       		.uleb128 0x31
 3104 0229 13       		.uleb128 0x13
 3105 022a 11       		.uleb128 0x11
 3106 022b 01       		.uleb128 0x1
 3107 022c 12       		.uleb128 0x12
 3108 022d 06       		.uleb128 0x6
 3109 022e 58       		.uleb128 0x58
 3110 022f 0B       		.uleb128 0xb
 3111 0230 59       		.uleb128 0x59
 3112 0231 0B       		.uleb128 0xb
 3113 0232 01       		.uleb128 0x1
 3114 0233 13       		.uleb128 0x13
 3115 0234 00       		.byte	0
 3116 0235 00       		.byte	0
 3117 0236 2D       		.uleb128 0x2d
 3118 0237 1D       		.uleb128 0x1d
 3119 0238 01       		.byte	0x1
 3120 0239 31       		.uleb128 0x31
 3121 023a 13       		.uleb128 0x13
 3122 023b 11       		.uleb128 0x11
 3123 023c 01       		.uleb128 0x1
 3124 023d 12       		.uleb128 0x12
 3125 023e 06       		.uleb128 0x6
 3126 023f 58       		.uleb128 0x58
 3127 0240 0B       		.uleb128 0xb
 3128 0241 59       		.uleb128 0x59
 3129 0242 05       		.uleb128 0x5
 3130 0243 00       		.byte	0
 3131 0244 00       		.byte	0
 3132 0245 2E       		.uleb128 0x2e
 3133 0246 0B       		.uleb128 0xb
 3134 0247 01       		.byte	0x1
 3135 0248 11       		.uleb128 0x11
ARM GAS  /tmp/ccnDxhvs.s 			page 56


 3136 0249 01       		.uleb128 0x1
 3137 024a 12       		.uleb128 0x12
 3138 024b 06       		.uleb128 0x6
 3139 024c 00       		.byte	0
 3140 024d 00       		.byte	0
 3141 024e 2F       		.uleb128 0x2f
 3142 024f 34       		.uleb128 0x34
 3143 0250 00       		.byte	0
 3144 0251 31       		.uleb128 0x31
 3145 0252 13       		.uleb128 0x13
 3146 0253 00       		.byte	0
 3147 0254 00       		.byte	0
 3148 0255 30       		.uleb128 0x30
 3149 0256 898201   		.uleb128 0x4109
 3150 0259 01       		.byte	0x1
 3151 025a 11       		.uleb128 0x11
 3152 025b 01       		.uleb128 0x1
 3153 025c 31       		.uleb128 0x31
 3154 025d 13       		.uleb128 0x13
 3155 025e 00       		.byte	0
 3156 025f 00       		.byte	0
 3157 0260 31       		.uleb128 0x31
 3158 0261 2E       		.uleb128 0x2e
 3159 0262 01       		.byte	0x1
 3160 0263 3F       		.uleb128 0x3f
 3161 0264 19       		.uleb128 0x19
 3162 0265 03       		.uleb128 0x3
 3163 0266 0E       		.uleb128 0xe
 3164 0267 3A       		.uleb128 0x3a
 3165 0268 0B       		.uleb128 0xb
 3166 0269 3B       		.uleb128 0x3b
 3167 026a 0B       		.uleb128 0xb
 3168 026b 27       		.uleb128 0x27
 3169 026c 19       		.uleb128 0x19
 3170 026d 49       		.uleb128 0x49
 3171 026e 13       		.uleb128 0x13
 3172 026f 11       		.uleb128 0x11
 3173 0270 01       		.uleb128 0x1
 3174 0271 12       		.uleb128 0x12
 3175 0272 06       		.uleb128 0x6
 3176 0273 40       		.uleb128 0x40
 3177 0274 18       		.uleb128 0x18
 3178 0275 9742     		.uleb128 0x2117
 3179 0277 19       		.uleb128 0x19
 3180 0278 01       		.uleb128 0x1
 3181 0279 13       		.uleb128 0x13
 3182 027a 00       		.byte	0
 3183 027b 00       		.byte	0
 3184 027c 32       		.uleb128 0x32
 3185 027d 05       		.uleb128 0x5
 3186 027e 00       		.byte	0
 3187 027f 03       		.uleb128 0x3
 3188 0280 0E       		.uleb128 0xe
 3189 0281 3A       		.uleb128 0x3a
 3190 0282 0B       		.uleb128 0xb
 3191 0283 3B       		.uleb128 0x3b
 3192 0284 0B       		.uleb128 0xb
ARM GAS  /tmp/ccnDxhvs.s 			page 57


 3193 0285 49       		.uleb128 0x49
 3194 0286 13       		.uleb128 0x13
 3195 0287 02       		.uleb128 0x2
 3196 0288 18       		.uleb128 0x18
 3197 0289 00       		.byte	0
 3198 028a 00       		.byte	0
 3199 028b 33       		.uleb128 0x33
 3200 028c 34       		.uleb128 0x34
 3201 028d 00       		.byte	0
 3202 028e 03       		.uleb128 0x3
 3203 028f 0E       		.uleb128 0xe
 3204 0290 3A       		.uleb128 0x3a
 3205 0291 0B       		.uleb128 0xb
 3206 0292 3B       		.uleb128 0x3b
 3207 0293 0B       		.uleb128 0xb
 3208 0294 49       		.uleb128 0x49
 3209 0295 13       		.uleb128 0x13
 3210 0296 02       		.uleb128 0x2
 3211 0297 18       		.uleb128 0x18
 3212 0298 00       		.byte	0
 3213 0299 00       		.byte	0
 3214 029a 34       		.uleb128 0x34
 3215 029b 2E       		.uleb128 0x2e
 3216 029c 01       		.byte	0x1
 3217 029d 3F       		.uleb128 0x3f
 3218 029e 19       		.uleb128 0x19
 3219 029f 03       		.uleb128 0x3
 3220 02a0 0E       		.uleb128 0xe
 3221 02a1 3A       		.uleb128 0x3a
 3222 02a2 0B       		.uleb128 0xb
 3223 02a3 3B       		.uleb128 0x3b
 3224 02a4 05       		.uleb128 0x5
 3225 02a5 27       		.uleb128 0x27
 3226 02a6 19       		.uleb128 0x19
 3227 02a7 11       		.uleb128 0x11
 3228 02a8 01       		.uleb128 0x1
 3229 02a9 12       		.uleb128 0x12
 3230 02aa 06       		.uleb128 0x6
 3231 02ab 40       		.uleb128 0x40
 3232 02ac 18       		.uleb128 0x18
 3233 02ad 9742     		.uleb128 0x2117
 3234 02af 19       		.uleb128 0x19
 3235 02b0 01       		.uleb128 0x1
 3236 02b1 13       		.uleb128 0x13
 3237 02b2 00       		.byte	0
 3238 02b3 00       		.byte	0
 3239 02b4 35       		.uleb128 0x35
 3240 02b5 05       		.uleb128 0x5
 3241 02b6 00       		.byte	0
 3242 02b7 03       		.uleb128 0x3
 3243 02b8 0E       		.uleb128 0xe
 3244 02b9 3A       		.uleb128 0x3a
 3245 02ba 0B       		.uleb128 0xb
 3246 02bb 3B       		.uleb128 0x3b
 3247 02bc 05       		.uleb128 0x5
 3248 02bd 49       		.uleb128 0x49
 3249 02be 13       		.uleb128 0x13
ARM GAS  /tmp/ccnDxhvs.s 			page 58


 3250 02bf 02       		.uleb128 0x2
 3251 02c0 17       		.uleb128 0x17
 3252 02c1 00       		.byte	0
 3253 02c2 00       		.byte	0
 3254 02c3 36       		.uleb128 0x36
 3255 02c4 34       		.uleb128 0x34
 3256 02c5 00       		.byte	0
 3257 02c6 03       		.uleb128 0x3
 3258 02c7 0E       		.uleb128 0xe
 3259 02c8 3A       		.uleb128 0x3a
 3260 02c9 0B       		.uleb128 0xb
 3261 02ca 3B       		.uleb128 0x3b
 3262 02cb 05       		.uleb128 0x5
 3263 02cc 49       		.uleb128 0x49
 3264 02cd 13       		.uleb128 0x13
 3265 02ce 3F       		.uleb128 0x3f
 3266 02cf 19       		.uleb128 0x19
 3267 02d0 3C       		.uleb128 0x3c
 3268 02d1 19       		.uleb128 0x19
 3269 02d2 00       		.byte	0
 3270 02d3 00       		.byte	0
 3271 02d4 37       		.uleb128 0x37
 3272 02d5 34       		.uleb128 0x34
 3273 02d6 00       		.byte	0
 3274 02d7 03       		.uleb128 0x3
 3275 02d8 08       		.uleb128 0x8
 3276 02d9 3A       		.uleb128 0x3a
 3277 02da 0B       		.uleb128 0xb
 3278 02db 3B       		.uleb128 0x3b
 3279 02dc 05       		.uleb128 0x5
 3280 02dd 49       		.uleb128 0x49
 3281 02de 13       		.uleb128 0x13
 3282 02df 3F       		.uleb128 0x3f
 3283 02e0 19       		.uleb128 0x19
 3284 02e1 3C       		.uleb128 0x3c
 3285 02e2 19       		.uleb128 0x19
 3286 02e3 00       		.byte	0
 3287 02e4 00       		.byte	0
 3288 02e5 38       		.uleb128 0x38
 3289 02e6 2E       		.uleb128 0x2e
 3290 02e7 00       		.byte	0
 3291 02e8 3F       		.uleb128 0x3f
 3292 02e9 19       		.uleb128 0x19
 3293 02ea 03       		.uleb128 0x3
 3294 02eb 0E       		.uleb128 0xe
 3295 02ec 3A       		.uleb128 0x3a
 3296 02ed 0B       		.uleb128 0xb
 3297 02ee 3B       		.uleb128 0x3b
 3298 02ef 05       		.uleb128 0x5
 3299 02f0 27       		.uleb128 0x27
 3300 02f1 19       		.uleb128 0x19
 3301 02f2 3C       		.uleb128 0x3c
 3302 02f3 19       		.uleb128 0x19
 3303 02f4 00       		.byte	0
 3304 02f5 00       		.byte	0
 3305 02f6 39       		.uleb128 0x39
 3306 02f7 2E       		.uleb128 0x2e
ARM GAS  /tmp/ccnDxhvs.s 			page 59


 3307 02f8 01       		.byte	0x1
 3308 02f9 3F       		.uleb128 0x3f
 3309 02fa 19       		.uleb128 0x19
 3310 02fb 03       		.uleb128 0x3
 3311 02fc 0E       		.uleb128 0xe
 3312 02fd 3A       		.uleb128 0x3a
 3313 02fe 0B       		.uleb128 0xb
 3314 02ff 3B       		.uleb128 0x3b
 3315 0300 0B       		.uleb128 0xb
 3316 0301 27       		.uleb128 0x27
 3317 0302 19       		.uleb128 0x19
 3318 0303 3C       		.uleb128 0x3c
 3319 0304 19       		.uleb128 0x19
 3320 0305 01       		.uleb128 0x1
 3321 0306 13       		.uleb128 0x13
 3322 0307 00       		.byte	0
 3323 0308 00       		.byte	0
 3324 0309 3A       		.uleb128 0x3a
 3325 030a 2E       		.uleb128 0x2e
 3326 030b 01       		.byte	0x1
 3327 030c 3F       		.uleb128 0x3f
 3328 030d 19       		.uleb128 0x19
 3329 030e 03       		.uleb128 0x3
 3330 030f 0E       		.uleb128 0xe
 3331 0310 3A       		.uleb128 0x3a
 3332 0311 0B       		.uleb128 0xb
 3333 0312 3B       		.uleb128 0x3b
 3334 0313 05       		.uleb128 0x5
 3335 0314 27       		.uleb128 0x27
 3336 0315 19       		.uleb128 0x19
 3337 0316 3C       		.uleb128 0x3c
 3338 0317 19       		.uleb128 0x19
 3339 0318 01       		.uleb128 0x1
 3340 0319 13       		.uleb128 0x13
 3341 031a 00       		.byte	0
 3342 031b 00       		.byte	0
 3343 031c 3B       		.uleb128 0x3b
 3344 031d 2E       		.uleb128 0x2e
 3345 031e 01       		.byte	0x1
 3346 031f 3F       		.uleb128 0x3f
 3347 0320 19       		.uleb128 0x19
 3348 0321 03       		.uleb128 0x3
 3349 0322 0E       		.uleb128 0xe
 3350 0323 3A       		.uleb128 0x3a
 3351 0324 0B       		.uleb128 0xb
 3352 0325 3B       		.uleb128 0x3b
 3353 0326 05       		.uleb128 0x5
 3354 0327 27       		.uleb128 0x27
 3355 0328 19       		.uleb128 0x19
 3356 0329 49       		.uleb128 0x49
 3357 032a 13       		.uleb128 0x13
 3358 032b 3C       		.uleb128 0x3c
 3359 032c 19       		.uleb128 0x19
 3360 032d 01       		.uleb128 0x1
 3361 032e 13       		.uleb128 0x13
 3362 032f 00       		.byte	0
 3363 0330 00       		.byte	0
ARM GAS  /tmp/ccnDxhvs.s 			page 60


 3364 0331 3C       		.uleb128 0x3c
 3365 0332 2E       		.uleb128 0x2e
 3366 0333 01       		.byte	0x1
 3367 0334 3F       		.uleb128 0x3f
 3368 0335 19       		.uleb128 0x19
 3369 0336 03       		.uleb128 0x3
 3370 0337 0E       		.uleb128 0xe
 3371 0338 3A       		.uleb128 0x3a
 3372 0339 0B       		.uleb128 0xb
 3373 033a 3B       		.uleb128 0x3b
 3374 033b 0B       		.uleb128 0xb
 3375 033c 27       		.uleb128 0x27
 3376 033d 19       		.uleb128 0x19
 3377 033e 3C       		.uleb128 0x3c
 3378 033f 19       		.uleb128 0x19
 3379 0340 00       		.byte	0
 3380 0341 00       		.byte	0
 3381 0342 00       		.byte	0
 3382              		.section	.debug_loc,"",%progbits
 3383              	.Ldebug_loc0:
 3384              	.LLST0:
 3385 0000 00000000 		.4byte	.LVL1
 3386 0004 0A000000 		.4byte	.LVL3
 3387 0008 0100     		.2byte	0x1
 3388 000a 50       		.byte	0x50
 3389 000b 0A000000 		.4byte	.LVL3
 3390 000f 0D000000 		.4byte	.LVL4-1
 3391 0013 0300     		.2byte	0x3
 3392 0015 70       		.byte	0x70
 3393 0016 74       		.sleb128 -12
 3394 0017 9F       		.byte	0x9f
 3395 0018 0D000000 		.4byte	.LVL4-1
 3396 001c 0E000000 		.4byte	.LFE208
 3397 0020 0400     		.2byte	0x4
 3398 0022 F3       		.byte	0xf3
 3399 0023 01       		.uleb128 0x1
 3400 0024 50       		.byte	0x50
 3401 0025 9F       		.byte	0x9f
 3402 0026 00000000 		.4byte	0
 3403 002a 00000000 		.4byte	0
 3404              	.LLST1:
 3405 002e 08000000 		.4byte	.LVL2
 3406 0032 0A000000 		.4byte	.LVL3
 3407 0036 0300     		.2byte	0x3
 3408 0038 70       		.byte	0x70
 3409 0039 0C       		.sleb128 12
 3410 003a 9F       		.byte	0x9f
 3411 003b 0A000000 		.4byte	.LVL3
 3412 003f 0D000000 		.4byte	.LVL4-1
 3413 0043 0100     		.2byte	0x1
 3414 0045 50       		.byte	0x50
 3415 0046 0D000000 		.4byte	.LVL4-1
 3416 004a 0E000000 		.4byte	.LFE208
 3417 004e 0600     		.2byte	0x6
 3418 0050 F3       		.byte	0xf3
 3419 0051 01       		.uleb128 0x1
 3420 0052 50       		.byte	0x50
ARM GAS  /tmp/ccnDxhvs.s 			page 61


 3421 0053 23       		.byte	0x23
 3422 0054 0C       		.uleb128 0xc
 3423 0055 9F       		.byte	0x9f
 3424 0056 00000000 		.4byte	0
 3425 005a 00000000 		.4byte	0
 3426              	.LLST2:
 3427 005e 00000000 		.4byte	.LVL5
 3428 0062 0F000000 		.4byte	.LVL6-1
 3429 0066 0100     		.2byte	0x1
 3430 0068 50       		.byte	0x50
 3431 0069 0F000000 		.4byte	.LVL6-1
 3432 006d 1C000000 		.4byte	.LFE209
 3433 0071 0100     		.2byte	0x1
 3434 0073 54       		.byte	0x54
 3435 0074 00000000 		.4byte	0
 3436 0078 00000000 		.4byte	0
 3437              	.LLST3:
 3438 007c 00000000 		.4byte	.LVL5
 3439 0080 0F000000 		.4byte	.LVL6-1
 3440 0084 0100     		.2byte	0x1
 3441 0086 51       		.byte	0x51
 3442 0087 0F000000 		.4byte	.LVL6-1
 3443 008b 1C000000 		.4byte	.LFE209
 3444 008f 0400     		.2byte	0x4
 3445 0091 F3       		.byte	0xf3
 3446 0092 01       		.uleb128 0x1
 3447 0093 51       		.byte	0x51
 3448 0094 9F       		.byte	0x9f
 3449 0095 00000000 		.4byte	0
 3450 0099 00000000 		.4byte	0
 3451              	.LLST4:
 3452 009d 00000000 		.4byte	.LVL8
 3453 00a1 0D000000 		.4byte	.LVL9-1
 3454 00a5 0100     		.2byte	0x1
 3455 00a7 50       		.byte	0x50
 3456 00a8 0D000000 		.4byte	.LVL9-1
 3457 00ac 1A000000 		.4byte	.LFE210
 3458 00b0 0100     		.2byte	0x1
 3459 00b2 54       		.byte	0x54
 3460 00b3 00000000 		.4byte	0
 3461 00b7 00000000 		.4byte	0
 3462              	.LLST5:
 3463 00bb 00000000 		.4byte	.LVL11
 3464 00bf 02000000 		.4byte	.LVL12
 3465 00c3 0100     		.2byte	0x1
 3466 00c5 50       		.byte	0x50
 3467 00c6 02000000 		.4byte	.LVL12
 3468 00ca 04000000 		.4byte	.LFE211
 3469 00ce 0400     		.2byte	0x4
 3470 00d0 F3       		.byte	0xf3
 3471 00d1 01       		.uleb128 0x1
 3472 00d2 50       		.byte	0x50
 3473 00d3 9F       		.byte	0x9f
 3474 00d4 00000000 		.4byte	0
 3475 00d8 00000000 		.4byte	0
 3476              	.LLST6:
 3477 00dc 00000000 		.4byte	.LVL13
ARM GAS  /tmp/ccnDxhvs.s 			page 62


 3478 00e0 29000000 		.4byte	.LVL14-1
 3479 00e4 0100     		.2byte	0x1
 3480 00e6 50       		.byte	0x50
 3481 00e7 29000000 		.4byte	.LVL14-1
 3482 00eb 3E000000 		.4byte	.LFE212
 3483 00ef 0100     		.2byte	0x1
 3484 00f1 54       		.byte	0x54
 3485 00f2 00000000 		.4byte	0
 3486 00f6 00000000 		.4byte	0
 3487              	.LLST7:
 3488 00fa 00000000 		.4byte	.LVL13
 3489 00fe 29000000 		.4byte	.LVL14-1
 3490 0102 0100     		.2byte	0x1
 3491 0104 51       		.byte	0x51
 3492 0105 29000000 		.4byte	.LVL14-1
 3493 0109 3E000000 		.4byte	.LFE212
 3494 010d 0400     		.2byte	0x4
 3495 010f F3       		.byte	0xf3
 3496 0110 01       		.uleb128 0x1
 3497 0111 51       		.byte	0x51
 3498 0112 9F       		.byte	0x9f
 3499 0113 00000000 		.4byte	0
 3500 0117 00000000 		.4byte	0
 3501              	.LLST8:
 3502 011b 00000000 		.4byte	.LVL13
 3503 011f 29000000 		.4byte	.LVL14-1
 3504 0123 0100     		.2byte	0x1
 3505 0125 52       		.byte	0x52
 3506 0126 29000000 		.4byte	.LVL14-1
 3507 012a 3E000000 		.4byte	.LFE212
 3508 012e 0400     		.2byte	0x4
 3509 0130 F3       		.byte	0xf3
 3510 0131 01       		.uleb128 0x1
 3511 0132 52       		.byte	0x52
 3512 0133 9F       		.byte	0x9f
 3513 0134 00000000 		.4byte	0
 3514 0138 00000000 		.4byte	0
 3515              	.LLST9:
 3516 013c 00000000 		.4byte	.LVL13
 3517 0140 29000000 		.4byte	.LVL14-1
 3518 0144 0100     		.2byte	0x1
 3519 0146 53       		.byte	0x53
 3520 0147 29000000 		.4byte	.LVL14-1
 3521 014b 3E000000 		.4byte	.LFE212
 3522 014f 0400     		.2byte	0x4
 3523 0151 F3       		.byte	0xf3
 3524 0152 01       		.uleb128 0x1
 3525 0153 53       		.byte	0x53
 3526 0154 9F       		.byte	0x9f
 3527 0155 00000000 		.4byte	0
 3528 0159 00000000 		.4byte	0
 3529              	.LLST10:
 3530 015d 00000000 		.4byte	.LVL16
 3531 0161 1D000000 		.4byte	.LVL17-1
 3532 0165 0100     		.2byte	0x1
 3533 0167 50       		.byte	0x50
 3534 0168 1D000000 		.4byte	.LVL17-1
ARM GAS  /tmp/ccnDxhvs.s 			page 63


 3535 016c 32000000 		.4byte	.LFE213
 3536 0170 0100     		.2byte	0x1
 3537 0172 54       		.byte	0x54
 3538 0173 00000000 		.4byte	0
 3539 0177 00000000 		.4byte	0
 3540              	.LLST11:
 3541 017b 00000000 		.4byte	.LVL16
 3542 017f 1D000000 		.4byte	.LVL17-1
 3543 0183 0100     		.2byte	0x1
 3544 0185 51       		.byte	0x51
 3545 0186 1D000000 		.4byte	.LVL17-1
 3546 018a 32000000 		.4byte	.LFE213
 3547 018e 0400     		.2byte	0x4
 3548 0190 F3       		.byte	0xf3
 3549 0191 01       		.uleb128 0x1
 3550 0192 51       		.byte	0x51
 3551 0193 9F       		.byte	0x9f
 3552 0194 00000000 		.4byte	0
 3553 0198 00000000 		.4byte	0
 3554              	.LLST12:
 3555 019c 00000000 		.4byte	.LVL16
 3556 01a0 1D000000 		.4byte	.LVL17-1
 3557 01a4 0100     		.2byte	0x1
 3558 01a6 52       		.byte	0x52
 3559 01a7 1D000000 		.4byte	.LVL17-1
 3560 01ab 32000000 		.4byte	.LFE213
 3561 01af 0400     		.2byte	0x4
 3562 01b1 F3       		.byte	0xf3
 3563 01b2 01       		.uleb128 0x1
 3564 01b3 52       		.byte	0x52
 3565 01b4 9F       		.byte	0x9f
 3566 01b5 00000000 		.4byte	0
 3567 01b9 00000000 		.4byte	0
 3568              	.LLST13:
 3569 01bd 00000000 		.4byte	.LVL16
 3570 01c1 1D000000 		.4byte	.LVL17-1
 3571 01c5 0100     		.2byte	0x1
 3572 01c7 53       		.byte	0x53
 3573 01c8 1D000000 		.4byte	.LVL17-1
 3574 01cc 32000000 		.4byte	.LFE213
 3575 01d0 0400     		.2byte	0x4
 3576 01d2 F3       		.byte	0xf3
 3577 01d3 01       		.uleb128 0x1
 3578 01d4 53       		.byte	0x53
 3579 01d5 9F       		.byte	0x9f
 3580 01d6 00000000 		.4byte	0
 3581 01da 00000000 		.4byte	0
 3582              	.LLST14:
 3583 01de 00000000 		.4byte	.LVL19
 3584 01e2 02000000 		.4byte	.LVL20
 3585 01e6 0100     		.2byte	0x1
 3586 01e8 50       		.byte	0x50
 3587 01e9 02000000 		.4byte	.LVL20
 3588 01ed 05000000 		.4byte	.LVL21-1
 3589 01f1 0300     		.2byte	0x3
 3590 01f3 70       		.byte	0x70
 3591 01f4 74       		.sleb128 -12
ARM GAS  /tmp/ccnDxhvs.s 			page 64


 3592 01f5 9F       		.byte	0x9f
 3593 01f6 05000000 		.4byte	.LVL21-1
 3594 01fa 06000000 		.4byte	.LFE214
 3595 01fe 0400     		.2byte	0x4
 3596 0200 F3       		.byte	0xf3
 3597 0201 01       		.uleb128 0x1
 3598 0202 50       		.byte	0x50
 3599 0203 9F       		.byte	0x9f
 3600 0204 00000000 		.4byte	0
 3601 0208 00000000 		.4byte	0
 3602              	.LLST15:
 3603 020c 00000000 		.4byte	.LVL19
 3604 0210 02000000 		.4byte	.LVL20
 3605 0214 0300     		.2byte	0x3
 3606 0216 70       		.byte	0x70
 3607 0217 0C       		.sleb128 12
 3608 0218 9F       		.byte	0x9f
 3609 0219 02000000 		.4byte	.LVL20
 3610 021d 05000000 		.4byte	.LVL21-1
 3611 0221 0100     		.2byte	0x1
 3612 0223 50       		.byte	0x50
 3613 0224 05000000 		.4byte	.LVL21-1
 3614 0228 06000000 		.4byte	.LFE214
 3615 022c 0600     		.2byte	0x6
 3616 022e F3       		.byte	0xf3
 3617 022f 01       		.uleb128 0x1
 3618 0230 50       		.byte	0x50
 3619 0231 23       		.byte	0x23
 3620 0232 0C       		.uleb128 0xc
 3621 0233 9F       		.byte	0x9f
 3622 0234 00000000 		.4byte	0
 3623 0238 00000000 		.4byte	0
 3624              	.LLST16:
 3625 023c 00000000 		.4byte	.LVL22
 3626 0240 02000000 		.4byte	.LVL23
 3627 0244 0100     		.2byte	0x1
 3628 0246 50       		.byte	0x50
 3629 0247 02000000 		.4byte	.LVL23
 3630 024b 05000000 		.4byte	.LVL24-1
 3631 024f 0300     		.2byte	0x3
 3632 0251 70       		.byte	0x70
 3633 0252 74       		.sleb128 -12
 3634 0253 9F       		.byte	0x9f
 3635 0254 05000000 		.4byte	.LVL24-1
 3636 0258 06000000 		.4byte	.LFE215
 3637 025c 0400     		.2byte	0x4
 3638 025e F3       		.byte	0xf3
 3639 025f 01       		.uleb128 0x1
 3640 0260 50       		.byte	0x50
 3641 0261 9F       		.byte	0x9f
 3642 0262 00000000 		.4byte	0
 3643 0266 00000000 		.4byte	0
 3644              	.LLST17:
 3645 026a 00000000 		.4byte	.LVL22
 3646 026e 02000000 		.4byte	.LVL23
 3647 0272 0300     		.2byte	0x3
 3648 0274 70       		.byte	0x70
ARM GAS  /tmp/ccnDxhvs.s 			page 65


 3649 0275 0C       		.sleb128 12
 3650 0276 9F       		.byte	0x9f
 3651 0277 02000000 		.4byte	.LVL23
 3652 027b 05000000 		.4byte	.LVL24-1
 3653 027f 0100     		.2byte	0x1
 3654 0281 50       		.byte	0x50
 3655 0282 05000000 		.4byte	.LVL24-1
 3656 0286 06000000 		.4byte	.LFE215
 3657 028a 0600     		.2byte	0x6
 3658 028c F3       		.byte	0xf3
 3659 028d 01       		.uleb128 0x1
 3660 028e 50       		.byte	0x50
 3661 028f 23       		.byte	0x23
 3662 0290 0C       		.uleb128 0xc
 3663 0291 9F       		.byte	0x9f
 3664 0292 00000000 		.4byte	0
 3665 0296 00000000 		.4byte	0
 3666              		.section	.debug_aranges,"",%progbits
 3667 0000 5C000000 		.4byte	0x5c
 3668 0004 0200     		.2byte	0x2
 3669 0006 00000000 		.4byte	.Ldebug_info0
 3670 000a 04       		.byte	0x4
 3671 000b 00       		.byte	0
 3672 000c 0000     		.2byte	0
 3673 000e 0000     		.2byte	0
 3674 0010 00000000 		.4byte	.LFB207
 3675 0014 04000000 		.4byte	.LFE207-.LFB207
 3676 0018 00000000 		.4byte	.LFB208
 3677 001c 0E000000 		.4byte	.LFE208-.LFB208
 3678 0020 00000000 		.4byte	.LFB209
 3679 0024 1C000000 		.4byte	.LFE209-.LFB209
 3680 0028 00000000 		.4byte	.LFB210
 3681 002c 1A000000 		.4byte	.LFE210-.LFB210
 3682 0030 00000000 		.4byte	.LFB211
 3683 0034 04000000 		.4byte	.LFE211-.LFB211
 3684 0038 00000000 		.4byte	.LFB212
 3685 003c 3E000000 		.4byte	.LFE212-.LFB212
 3686 0040 00000000 		.4byte	.LFB213
 3687 0044 32000000 		.4byte	.LFE213-.LFB213
 3688 0048 00000000 		.4byte	.LFB214
 3689 004c 06000000 		.4byte	.LFE214-.LFB214
 3690 0050 00000000 		.4byte	.LFB215
 3691 0054 06000000 		.4byte	.LFE215-.LFB215
 3692 0058 00000000 		.4byte	0
 3693 005c 00000000 		.4byte	0
 3694              		.section	.debug_ranges,"",%progbits
 3695              	.Ldebug_ranges0:
 3696 0000 02000000 		.4byte	.LBB84
 3697 0004 04000000 		.4byte	.LBE84
 3698 0008 06000000 		.4byte	.LBB93
 3699 000c 0A000000 		.4byte	.LBE93
 3700 0010 00000000 		.4byte	0
 3701 0014 00000000 		.4byte	0
 3702 0018 02000000 		.4byte	.LBB100
 3703 001c 04000000 		.4byte	.LBE100
 3704 0020 06000000 		.4byte	.LBB109
 3705 0024 0A000000 		.4byte	.LBE109
ARM GAS  /tmp/ccnDxhvs.s 			page 66


 3706 0028 00000000 		.4byte	0
 3707 002c 00000000 		.4byte	0
 3708 0030 00000000 		.4byte	.LFB207
 3709 0034 04000000 		.4byte	.LFE207
 3710 0038 00000000 		.4byte	.LFB208
 3711 003c 0E000000 		.4byte	.LFE208
 3712 0040 00000000 		.4byte	.LFB209
 3713 0044 1C000000 		.4byte	.LFE209
 3714 0048 00000000 		.4byte	.LFB210
 3715 004c 1A000000 		.4byte	.LFE210
 3716 0050 00000000 		.4byte	.LFB211
 3717 0054 04000000 		.4byte	.LFE211
 3718 0058 00000000 		.4byte	.LFB212
 3719 005c 3E000000 		.4byte	.LFE212
 3720 0060 00000000 		.4byte	.LFB213
 3721 0064 32000000 		.4byte	.LFE213
 3722 0068 00000000 		.4byte	.LFB214
 3723 006c 06000000 		.4byte	.LFE214
 3724 0070 00000000 		.4byte	.LFB215
 3725 0074 06000000 		.4byte	.LFE215
 3726 0078 00000000 		.4byte	0
 3727 007c 00000000 		.4byte	0
 3728              		.section	.debug_line,"",%progbits
 3729              	.Ldebug_line0:
 3730 0000 14050000 		.section	.debug_str,"MS",%progbits,1
 3730      0200E403 
 3730      00000201 
 3730      FB0E0D00 
 3730      01010101 
 3731              	.LASF147:
 3732 0000 646D6172 		.ascii	"dmarx\000"
 3732      7800
 3733              	.LASF133:
 3734 0006 69326364 		.ascii	"i2cdutycycle_t\000"
 3734      75747963 
 3734      79636C65 
 3734      5F7400
 3735              	.LASF50:
 3736 0015 72656164 		.ascii	"ready_list_t\000"
 3736      795F6C69 
 3736      73745F74 
 3736      00
 3737              	.LASF2:
 3738 0022 73697A65 		.ascii	"size_t\000"
 3738      5F7400
 3739              	.LASF93:
 3740 0029 7264796D 		.ascii	"rdymsg\000"
 3740      736700
 3741              	.LASF19:
 3742 0030 75696E74 		.ascii	"uint64_t\000"
 3742      36345F74 
 3742      00
 3743              	.LASF3:
 3744 0039 5F5F7569 		.ascii	"__uint8_t\000"
 3744      6E74385F 
 3744      7400
 3745              	.LASF118:
ARM GAS  /tmp/ccnDxhvs.s 			page 67


 3746 0043 4932435F 		.ascii	"I2C_STOP\000"
 3746      53544F50 
 3746      00
 3747              	.LASF90:
 3748 004c 706F7274 		.ascii	"port_intctx\000"
 3748      5F696E74 
 3748      63747800 
 3749              	.LASF67:
 3750 0058 73797374 		.ascii	"system_debug_t\000"
 3750      656D5F64 
 3750      65627567 
 3750      5F7400
 3751              	.LASF181:
 3752 0067 6932635F 		.ascii	"i2c_lld_master_receive_timeout\000"
 3752      6C6C645F 
 3752      6D617374 
 3752      65725F72 
 3752      65636569 
 3753              	.LASF85:
 3754 0086 54524953 		.ascii	"TRISE\000"
 3754      4500
 3755              	.LASF170:
 3756 008c 72786275 		.ascii	"rxbuf\000"
 3756      6600
 3757              	.LASF149:
 3758 0092 706F7274 		.ascii	"port_lock\000"
 3758      5F6C6F63 
 3758      6B00
 3759              	.LASF14:
 3760 009c 6C6F6E67 		.ascii	"long long unsigned int\000"
 3760      206C6F6E 
 3760      6720756E 
 3760      7369676E 
 3760      65642069 
 3761              	.LASF144:
 3762 00b3 61646472 		.ascii	"addr\000"
 3762      00
 3763              	.LASF162:
 3764 00b8 69326353 		.ascii	"i2cStart\000"
 3764      74617274 
 3764      00
 3765              	.LASF94:
 3766 00c1 65786974 		.ascii	"exitcode\000"
 3766      636F6465 
 3766      00
 3767              	.LASF114:
 3768 00ca 76656374 		.ascii	"vector\000"
 3768      6F7200
 3769              	.LASF175:
 3770 00d1 69326352 		.ascii	"i2cReleaseBus\000"
 3770      656C6561 
 3770      73654275 
 3770      7300
 3771              	.LASF64:
 3772 00df 76697274 		.ascii	"virtual_timers_list_t\000"
 3772      75616C5F 
 3772      74696D65 
ARM GAS  /tmp/ccnDxhvs.s 			page 68


 3772      72735F6C 
 3772      6973745F 
 3773              	.LASF176:
 3774 00f5 49544D5F 		.ascii	"ITM_RxBuffer\000"
 3774      52784275 
 3774      66666572 
 3774      00
 3775              	.LASF163:
 3776 0102 69326370 		.ascii	"i2cp\000"
 3776      00
 3777              	.LASF49:
 3778 0107 63685F74 		.ascii	"ch_threads_queue\000"
 3778      68726561 
 3778      64735F71 
 3778      75657565 
 3778      00
 3779              	.LASF32:
 3780 0118 705F7072 		.ascii	"p_prio\000"
 3780      696F00
 3781              	.LASF167:
 3782 011f 6932634D 		.ascii	"i2cMasterTransmitTimeout\000"
 3782      61737465 
 3782      72547261 
 3782      6E736D69 
 3782      7454696D 
 3783              	.LASF154:
 3784 0138 6F73616C 		.ascii	"osalMutexObjectInit\000"
 3784      4D757465 
 3784      784F626A 
 3784      65637449 
 3784      6E697400 
 3785              	.LASF186:
 3786 014c 63684D74 		.ascii	"chMtxUnlock\000"
 3786      78556E6C 
 3786      6F636B00 
 3787              	.LASF1:
 3788 0158 7369676E 		.ascii	"signed char\000"
 3788      65642063 
 3788      68617200 
 3789              	.LASF135:
 3790 0164 636C6F63 		.ascii	"clock_speed\000"
 3790      6B5F7370 
 3790      65656400 
 3791              	.LASF11:
 3792 0170 6C6F6E67 		.ascii	"long unsigned int\000"
 3792      20756E73 
 3792      69676E65 
 3792      6420696E 
 3792      7400
 3793              	.LASF43:
 3794 0182 705F6D70 		.ascii	"p_mpool\000"
 3794      6F6F6C00 
 3795              	.LASF104:
 3796 018a 6D5F7175 		.ascii	"m_queue\000"
 3796      65756500 
 3797              	.LASF180:
 3798 0192 6932635F 		.ascii	"i2c_lld_master_transmit_timeout\000"
ARM GAS  /tmp/ccnDxhvs.s 			page 69


 3798      6C6C645F 
 3798      6D617374 
 3798      65725F74 
 3798      72616E73 
 3799              	.LASF183:
 3800 01b2 474E5520 		.ascii	"GNU C 4.9.3 20150529 (release) [ARM/embedded-4_9-br"
 3800      4320342E 
 3800      392E3320 
 3800      32303135 
 3800      30353239 
 3801 01e5 616E6368 		.ascii	"anch revision 224288] -mcpu=cortex-m3 -mno-thumb-in"
 3801      20726576 
 3801      6973696F 
 3801      6E203232 
 3801      34323838 
 3802 0218 74657277 		.ascii	"terwork -mthumb -ggdb -O2 -fomit-frame-pointer -fal"
 3802      6F726B20 
 3802      2D6D7468 
 3802      756D6220 
 3802      2D676764 
 3803 024b 69676E2D 		.ascii	"ign-functions=16 -ffunction-sections -fdata-section"
 3803      66756E63 
 3803      74696F6E 
 3803      733D3136 
 3803      202D6666 
 3804 027e 73202D66 		.ascii	"s -fno-common\000"
 3804      6E6F2D63 
 3804      6F6D6D6F 
 3804      6E00
 3805              	.LASF150:
 3806 028c 706F7274 		.ascii	"port_unlock\000"
 3806      5F756E6C 
 3806      6F636B00 
 3807              	.LASF124:
 3808 0298 69326361 		.ascii	"i2caddr_t\000"
 3808      6464725F 
 3808      7400
 3809              	.LASF139:
 3810 02a2 73746174 		.ascii	"state\000"
 3810      6500
 3811              	.LASF71:
 3812 02a8 63685F73 		.ascii	"ch_system\000"
 3812      79737465 
 3812      6D00
 3813              	.LASF9:
 3814 02b2 6C6F6E67 		.ascii	"long int\000"
 3814      20696E74 
 3814      00
 3815              	.LASF22:
 3816 02bb 74737461 		.ascii	"tstate_t\000"
 3816      74655F74 
 3816      00
 3817              	.LASF143:
 3818 02c4 74687265 		.ascii	"thread\000"
 3818      616400
 3819              	.LASF12:
 3820 02cb 6C6F6E67 		.ascii	"long long int\000"
ARM GAS  /tmp/ccnDxhvs.s 			page 70


 3820      206C6F6E 
 3820      6720696E 
 3820      7400
 3821              	.LASF137:
 3822 02d9 49324343 		.ascii	"I2CConfig\000"
 3822      6F6E6669 
 3822      6700
 3823              	.LASF112:
 3824 02e3 73686966 		.ascii	"shift\000"
 3824      7400
 3825              	.LASF101:
 3826 02e9 735F7175 		.ascii	"s_queue\000"
 3826      65756500 
 3827              	.LASF145:
 3828 02f1 7278646D 		.ascii	"rxdmamode\000"
 3828      616D6F64 
 3828      6500
 3829              	.LASF148:
 3830 02fb 646D6174 		.ascii	"dmatx\000"
 3830      7800
 3831              	.LASF128:
 3832 0301 4F504D4F 		.ascii	"OPMODE_SMBUS_HOST\000"
 3832      44455F53 
 3832      4D425553 
 3832      5F484F53 
 3832      5400
 3833              	.LASF10:
 3834 0313 5F5F7569 		.ascii	"__uint32_t\000"
 3834      6E743332 
 3834      5F7400
 3835              	.LASF87:
 3836 031e 72656761 		.ascii	"regarm_t\000"
 3836      726D5F74 
 3836      00
 3837              	.LASF60:
 3838 0327 76745F70 		.ascii	"vt_prev\000"
 3838      72657600 
 3839              	.LASF73:
 3840 032f 76746C69 		.ascii	"vtlist\000"
 3840      737400
 3841              	.LASF134:
 3842 0336 6F705F6D 		.ascii	"op_mode\000"
 3842      6F646500 
 3843              	.LASF156:
 3844 033e 6F73616C 		.ascii	"osalSysLock\000"
 3844      5379734C 
 3844      6F636B00 
 3845              	.LASF108:
 3846 034a 6D757465 		.ascii	"mutex_t\000"
 3846      785F7400 
 3847              	.LASF155:
 3848 0352 76616C75 		.ascii	"value\000"
 3848      6500
 3849              	.LASF75:
 3850 0358 69646C65 		.ascii	"idle_thread_wa\000"
 3850      5F746872 
 3850      6561645F 
ARM GAS  /tmp/ccnDxhvs.s 			page 71


 3850      776100
 3851              	.LASF82:
 3852 0367 444D415F 		.ascii	"DMA_TypeDef\000"
 3852      54797065 
 3852      44656600 
 3853              	.LASF27:
 3854 0373 636E745F 		.ascii	"cnt_t\000"
 3854      7400
 3855              	.LASF0:
 3856 0379 756E7369 		.ascii	"unsigned int\000"
 3856      676E6564 
 3856      20696E74 
 3856      00
 3857              	.LASF59:
 3858 0386 76745F6E 		.ascii	"vt_next\000"
 3858      65787400 
 3859              	.LASF168:
 3860 038e 74786275 		.ascii	"txbuf\000"
 3860      6600
 3861              	.LASF97:
 3862 0394 77747365 		.ascii	"wtsemp\000"
 3862      6D7000
 3863              	.LASF78:
 3864 039b 43504152 		.ascii	"CPAR\000"
 3864      00
 3865              	.LASF38:
 3866 03a0 705F6D73 		.ascii	"p_msgqueue\000"
 3866      67717565 
 3866      756500
 3867              	.LASF172:
 3868 03ab 74696D65 		.ascii	"timeout\000"
 3868      6F757400 
 3869              	.LASF80:
 3870 03b3 444D415F 		.ascii	"DMA_Channel_TypeDef\000"
 3870      4368616E 
 3870      6E656C5F 
 3870      54797065 
 3870      44656600 
 3871              	.LASF102:
 3872 03c7 735F636E 		.ascii	"s_cnt\000"
 3872      7400
 3873              	.LASF127:
 3874 03cd 4F504D4F 		.ascii	"OPMODE_SMBUS_DEVICE\000"
 3874      44455F53 
 3874      4D425553 
 3874      5F444556 
 3874      49434500 
 3875              	.LASF7:
 3876 03e1 73686F72 		.ascii	"short unsigned int\000"
 3876      7420756E 
 3876      7369676E 
 3876      65642069 
 3876      6E7400
 3877              	.LASF138:
 3878 03f4 49324344 		.ascii	"I2CDriver\000"
 3878      72697665 
 3878      7200
ARM GAS  /tmp/ccnDxhvs.s 			page 72


 3879              	.LASF46:
 3880 03fe 63685F74 		.ascii	"ch_thread\000"
 3880      68726561 
 3880      6400
 3881              	.LASF111:
 3882 0408 6373656C 		.ascii	"cselr\000"
 3882      7200
 3883              	.LASF25:
 3884 040e 6D73675F 		.ascii	"msg_t\000"
 3884      7400
 3885              	.LASF47:
 3886 0414 63685F74 		.ascii	"ch_threads_list\000"
 3886      68726561 
 3886      64735F6C 
 3886      69737400 
 3887              	.LASF70:
 3888 0424 63685F73 		.ascii	"ch_system_t\000"
 3888      79737465 
 3888      6D5F7400 
 3889              	.LASF21:
 3890 0430 746D6F64 		.ascii	"tmode_t\000"
 3890      655F7400 
 3891              	.LASF16:
 3892 0438 75696E74 		.ascii	"uint16_t\000"
 3892      31365F74 
 3892      00
 3893              	.LASF130:
 3894 0441 5354445F 		.ascii	"STD_DUTY_CYCLE\000"
 3894      44555459 
 3894      5F435943 
 3894      4C4500
 3895              	.LASF51:
 3896 0450 63685F72 		.ascii	"ch_ready_list\000"
 3896      65616479 
 3896      5F6C6973 
 3896      7400
 3897              	.LASF26:
 3898 045e 6576656E 		.ascii	"eventmask_t\000"
 3898      746D6173 
 3898      6B5F7400 
 3899              	.LASF5:
 3900 046a 73686F72 		.ascii	"short int\000"
 3900      7420696E 
 3900      7400
 3901              	.LASF8:
 3902 0474 5F5F696E 		.ascii	"__int32_t\000"
 3902      7433325F 
 3902      7400
 3903              	.LASF88:
 3904 047e 73746B61 		.ascii	"stkalign_t\000"
 3904      6C69676E 
 3904      5F7400
 3905              	.LASF179:
 3906 0489 6932635F 		.ascii	"i2c_lld_stop\000"
 3906      6C6C645F 
 3906      73746F70 
 3906      00
ARM GAS  /tmp/ccnDxhvs.s 			page 73


 3907              	.LASF45:
 3908 0496 74687265 		.ascii	"threads_list_t\000"
 3908      6164735F 
 3908      6C697374 
 3908      5F7400
 3909              	.LASF110:
 3910 04a5 636D6173 		.ascii	"cmask\000"
 3910      6B00
 3911              	.LASF37:
 3912 04ab 705F7761 		.ascii	"p_waiting\000"
 3912      6974696E 
 3912      6700
 3913              	.LASF178:
 3914 04b5 6932635F 		.ascii	"i2c_lld_start\000"
 3914      6C6C645F 
 3914      73746172 
 3914      7400
 3915              	.LASF76:
 3916 04c3 73697A65 		.ascii	"sizetype\000"
 3916      74797065 
 3916      00
 3917              	.LASF44:
 3918 04cc 74687265 		.ascii	"thread_reference_t\000"
 3918      61645F72 
 3918      65666572 
 3918      656E6365 
 3918      5F7400
 3919              	.LASF65:
 3920 04df 63685F76 		.ascii	"ch_virtual_timers_list\000"
 3920      69727475 
 3920      616C5F74 
 3920      696D6572 
 3920      735F6C69 
 3921              	.LASF96:
 3922 04f6 77747472 		.ascii	"wttrp\000"
 3922      7000
 3923              	.LASF141:
 3924 04fc 6572726F 		.ascii	"errors\000"
 3924      727300
 3925              	.LASF136:
 3926 0503 64757479 		.ascii	"duty_cycle\000"
 3926      5F637963 
 3926      6C6500
 3927              	.LASF182:
 3928 050e 63684D74 		.ascii	"chMtxLock\000"
 3928      784C6F63 
 3928      6B00
 3929              	.LASF171:
 3930 0518 72786279 		.ascii	"rxbytes\000"
 3930      74657300 
 3931              	.LASF164:
 3932 0520 69326353 		.ascii	"i2cStop\000"
 3932      746F7000 
 3933              	.LASF54:
 3934 0528 725F6374 		.ascii	"r_ctx\000"
 3934      7800
 3935              	.LASF146:
ARM GAS  /tmp/ccnDxhvs.s 			page 74


 3936 052e 7478646D 		.ascii	"txdmamode\000"
 3936      616D6F64 
 3936      6500
 3937              	.LASF92:
 3938 0538 746D5F63 		.ascii	"tm_calibration_t\000"
 3938      616C6962 
 3938      72617469 
 3938      6F6E5F74 
 3938      00
 3939              	.LASF126:
 3940 0549 4F504D4F 		.ascii	"OPMODE_I2C\000"
 3940      44455F49 
 3940      324300
 3941              	.LASF55:
 3942 0554 725F6375 		.ascii	"r_current\000"
 3942      7272656E 
 3942      7400
 3943              	.LASF169:
 3944 055e 74786279 		.ascii	"txbytes\000"
 3944      74657300 
 3945              	.LASF13:
 3946 0566 5F5F7569 		.ascii	"__uint64_t\000"
 3946      6E743634 
 3946      5F7400
 3947              	.LASF23:
 3948 0571 74726566 		.ascii	"trefs_t\000"
 3948      735F7400 
 3949              	.LASF123:
 3950 0579 69326373 		.ascii	"i2cstate_t\000"
 3950      74617465 
 3950      5F7400
 3951              	.LASF132:
 3952 0584 46415354 		.ascii	"FAST_DUTY_CYCLE_16_9\000"
 3952      5F445554 
 3952      595F4359 
 3952      434C455F 
 3952      31365F39 
 3953              	.LASF57:
 3954 0599 76697274 		.ascii	"virtual_timer_t\000"
 3954      75616C5F 
 3954      74696D65 
 3954      725F7400 
 3955              	.LASF31:
 3956 05a9 705F7072 		.ascii	"p_prev\000"
 3956      657600
 3957              	.LASF115:
 3958 05b0 73746D33 		.ascii	"stm32_dma_stream_t\000"
 3958      325F646D 
 3958      615F7374 
 3958      7265616D 
 3958      5F7400
 3959              	.LASF174:
 3960 05c3 69326341 		.ascii	"i2cAcquireBus\000"
 3960      63717569 
 3960      72654275 
 3960      7300
 3961              	.LASF24:
ARM GAS  /tmp/ccnDxhvs.s 			page 75


 3962 05d1 74707269 		.ascii	"tprio_t\000"
 3962      6F5F7400 
 3963              	.LASF120:
 3964 05d9 4932435F 		.ascii	"I2C_ACTIVE_TX\000"
 3964      41435449 
 3964      56455F54 
 3964      5800
 3965              	.LASF125:
 3966 05e7 69326366 		.ascii	"i2cflags_t\000"
 3966      6C616773 
 3966      5F7400
 3967              	.LASF142:
 3968 05f2 6D757465 		.ascii	"mutex\000"
 3968      7800
 3969              	.LASF177:
 3970 05f8 63684D74 		.ascii	"chMtxObjectInit\000"
 3970      784F626A 
 3970      65637449 
 3970      6E697400 
 3971              	.LASF68:
 3972 0608 63685F73 		.ascii	"ch_system_debug\000"
 3972      79737465 
 3972      6D5F6465 
 3972      62756700 
 3973              	.LASF116:
 3974 0618 5F426F6F 		.ascii	"_Bool\000"
 3974      6C00
 3975              	.LASF17:
 3976 061e 696E7433 		.ascii	"int32_t\000"
 3976      325F7400 
 3977              	.LASF4:
 3978 0626 756E7369 		.ascii	"unsigned char\000"
 3978      676E6564 
 3978      20636861 
 3978      7200
 3979              	.LASF41:
 3980 0634 705F6D74 		.ascii	"p_mtxlist\000"
 3980      786C6973 
 3980      7400
 3981              	.LASF117:
 3982 063e 4932435F 		.ascii	"I2C_UNINIT\000"
 3982      554E494E 
 3982      495400
 3983              	.LASF34:
 3984 0649 705F7374 		.ascii	"p_state\000"
 3984      61746500 
 3985              	.LASF53:
 3986 0651 725F7072 		.ascii	"r_prio\000"
 3986      696F00
 3987              	.LASF166:
 3988 0658 69326347 		.ascii	"i2cGetErrors\000"
 3988      65744572 
 3988      726F7273 
 3988      00
 3989              	.LASF99:
 3990 0665 65776D61 		.ascii	"ewmask\000"
 3990      736B00
ARM GAS  /tmp/ccnDxhvs.s 			page 76


 3991              	.LASF30:
 3992 066c 705F6E65 		.ascii	"p_next\000"
 3992      787400
 3993              	.LASF35:
 3994 0673 705F666C 		.ascii	"p_flags\000"
 3994      61677300 
 3995              	.LASF165:
 3996 067b 5F5F6675 		.ascii	"__func__\000"
 3996      6E635F5F 
 3996      00
 3997              	.LASF151:
 3998 0684 63685379 		.ascii	"chSysLock\000"
 3998      734C6F63 
 3998      6B00
 3999              	.LASF74:
 4000 068e 6D61696E 		.ascii	"mainthread\000"
 4000      74687265 
 4000      616400
 4001              	.LASF157:
 4002 0699 6F73616C 		.ascii	"osalSysUnlock\000"
 4002      53797355 
 4002      6E6C6F63 
 4002      6B00
 4003              	.LASF131:
 4004 06a7 46415354 		.ascii	"FAST_DUTY_CYCLE_2\000"
 4004      5F445554 
 4004      595F4359 
 4004      434C455F 
 4004      3200
 4005              	.LASF109:
 4006 06b9 6368616E 		.ascii	"channel\000"
 4006      6E656C00 
 4007              	.LASF122:
 4008 06c1 4932435F 		.ascii	"I2C_LOCKED\000"
 4008      4C4F434B 
 4008      454400
 4009              	.LASF100:
 4010 06cc 63685F73 		.ascii	"ch_semaphore\000"
 4010      656D6170 
 4010      686F7265 
 4010      00
 4011              	.LASF40:
 4012 06d9 705F6570 		.ascii	"p_epending\000"
 4012      656E6469 
 4012      6E6700
 4013              	.LASF18:
 4014 06e4 75696E74 		.ascii	"uint32_t\000"
 4014      33325F74 
 4014      00
 4015              	.LASF98:
 4016 06ed 77746D74 		.ascii	"wtmtxp\000"
 4016      787000
 4017              	.LASF52:
 4018 06f4 725F7175 		.ascii	"r_queue\000"
 4018      65756500 
 4019              	.LASF61:
 4020 06fc 76745F64 		.ascii	"vt_delta\000"
ARM GAS  /tmp/ccnDxhvs.s 			page 77


 4020      656C7461 
 4020      00
 4021              	.LASF184:
 4022 0705 2F686F6D 		.ascii	"/home/maciek/ChibiOS_16.1.5/os/hal/src/i2c.c\000"
 4022      652F6D61 
 4022      6369656B 
 4022      2F436869 
 4022      62694F53 
 4023              	.LASF121:
 4024 0732 4932435F 		.ascii	"I2C_ACTIVE_RX\000"
 4024      41435449 
 4024      56455F52 
 4024      5800
 4025              	.LASF81:
 4026 0740 49464352 		.ascii	"IFCR\000"
 4026      00
 4027              	.LASF107:
 4028 0745 63686172 		.ascii	"char\000"
 4028      00
 4029              	.LASF140:
 4030 074a 636F6E66 		.ascii	"config\000"
 4030      696700
 4031              	.LASF159:
 4032 0751 6F73616C 		.ascii	"osalMutexUnlock\000"
 4032      4D757465 
 4032      78556E6C 
 4032      6F636B00 
 4033              	.LASF6:
 4034 0761 5F5F7569 		.ascii	"__uint16_t\000"
 4034      6E743136 
 4034      5F7400
 4035              	.LASF29:
 4036 076c 74687265 		.ascii	"thread_t\000"
 4036      61645F74 
 4036      00
 4037              	.LASF106:
 4038 0775 6D5F6E65 		.ascii	"m_next\000"
 4038      787400
 4039              	.LASF28:
 4040 077c 73797374 		.ascii	"systime_t\000"
 4040      696D655F 
 4040      7400
 4041              	.LASF42:
 4042 0786 705F7265 		.ascii	"p_realprio\000"
 4042      616C7072 
 4042      696F00
 4043              	.LASF56:
 4044 0791 76746675 		.ascii	"vtfunc_t\000"
 4044      6E635F74 
 4044      00
 4045              	.LASF152:
 4046 079a 5F5F7365 		.ascii	"__set_BASEPRI\000"
 4046      745F4241 
 4046      53455052 
 4046      4900
 4047              	.LASF158:
 4048 07a8 6F73616C 		.ascii	"osalMutexLock\000"
ARM GAS  /tmp/ccnDxhvs.s 			page 78


 4048      4D757465 
 4048      784C6F63 
 4048      6B00
 4049              	.LASF69:
 4050 07b6 70616E69 		.ascii	"panic_msg\000"
 4050      635F6D73 
 4050      6700
 4051              	.LASF119:
 4052 07c0 4932435F 		.ascii	"I2C_READY\000"
 4052      52454144 
 4052      5900
 4053              	.LASF91:
 4054 07ca 6F666673 		.ascii	"offset\000"
 4054      657400
 4055              	.LASF103:
 4056 07d1 63685F6D 		.ascii	"ch_mutex\000"
 4056      75746578 
 4056      00
 4057              	.LASF89:
 4058 07da 636F6E74 		.ascii	"context\000"
 4058      65787400 
 4059              	.LASF58:
 4060 07e2 63685F76 		.ascii	"ch_virtual_timer\000"
 4060      69727475 
 4060      616C5F74 
 4060      696D6572 
 4060      00
 4061              	.LASF20:
 4062 07f3 7274636E 		.ascii	"rtcnt_t\000"
 4062      745F7400 
 4063              	.LASF113:
 4064 07fb 73656C66 		.ascii	"selfindex\000"
 4064      696E6465 
 4064      7800
 4065              	.LASF63:
 4066 0805 76745F70 		.ascii	"vt_par\000"
 4066      617200
 4067              	.LASF48:
 4068 080c 74687265 		.ascii	"threads_queue_t\000"
 4068      6164735F 
 4068      71756575 
 4068      655F7400 
 4069              	.LASF185:
 4070 081c 6932635F 		.ascii	"i2c_lld_init\000"
 4070      6C6C645F 
 4070      696E6974 
 4070      00
 4071              	.LASF36:
 4072 0829 705F7265 		.ascii	"p_refs\000"
 4072      667300
 4073              	.LASF77:
 4074 0830 434E4454 		.ascii	"CNDTR\000"
 4074      5200
 4075              	.LASF79:
 4076 0836 434D4152 		.ascii	"CMAR\000"
 4076      00
 4077              	.LASF72:
ARM GAS  /tmp/ccnDxhvs.s 			page 79


 4078 083b 726C6973 		.ascii	"rlist\000"
 4078      7400
 4079              	.LASF15:
 4080 0841 75696E74 		.ascii	"uint8_t\000"
 4080      385F7400 
 4081              	.LASF83:
 4082 0849 4F415231 		.ascii	"OAR1\000"
 4082      00
 4083              	.LASF84:
 4084 084e 4F415232 		.ascii	"OAR2\000"
 4084      00
 4085              	.LASF173:
 4086 0853 6932634D 		.ascii	"i2cMasterReceiveTimeout\000"
 4086      61737465 
 4086      72526563 
 4086      65697665 
 4086      54696D65 
 4087              	.LASF95:
 4088 086b 77746F62 		.ascii	"wtobjp\000"
 4088      6A7000
 4089              	.LASF66:
 4090 0872 76745F73 		.ascii	"vt_systime\000"
 4090      79737469 
 4090      6D6500
 4091              	.LASF160:
 4092 087d 69326349 		.ascii	"i2cInit\000"
 4092      6E697400 
 4093              	.LASF153:
 4094 0885 63685379 		.ascii	"chSysUnlock\000"
 4094      73556E6C 
 4094      6F636B00 
 4095              	.LASF39:
 4096 0891 705F6D73 		.ascii	"p_msg\000"
 4096      6700
 4097              	.LASF86:
 4098 0897 4932435F 		.ascii	"I2C_TypeDef\000"
 4098      54797065 
 4098      44656600 
 4099              	.LASF129:
 4100 08a3 6932636F 		.ascii	"i2copmode_t\000"
 4100      706D6F64 
 4100      655F7400 
 4101              	.LASF161:
 4102 08af 6932634F 		.ascii	"i2cObjectInit\000"
 4102      626A6563 
 4102      74496E69 
 4102      7400
 4103              	.LASF105:
 4104 08bd 6D5F6F77 		.ascii	"m_owner\000"
 4104      6E657200 
 4105              	.LASF33:
 4106 08c5 705F6374 		.ascii	"p_ctx\000"
 4106      7800
 4107              	.LASF62:
 4108 08cb 76745F66 		.ascii	"vt_func\000"
 4108      756E6300 
 4109              		.ident	"GCC: (GNU Tools for ARM Embedded Processors) 4.9.3 20150529 (release) [ARM/embedded-4_9-br
ARM GAS  /tmp/ccnDxhvs.s 			page 80


ARM GAS  /tmp/ccnDxhvs.s 			page 81


DEFINED SYMBOLS
                            *ABS*:00000000 i2c.c
     /tmp/ccnDxhvs.s:19     .text.i2cInit:00000000 $t
     /tmp/ccnDxhvs.s:25     .text.i2cInit:00000000 i2cInit
     /tmp/ccnDxhvs.s:40     .text.i2cObjectInit:00000000 $t
     /tmp/ccnDxhvs.s:46     .text.i2cObjectInit:00000000 i2cObjectInit
     /tmp/ccnDxhvs.s:77     .text.i2cStart:00000000 $t
     /tmp/ccnDxhvs.s:83     .text.i2cStart:00000000 i2cStart
     /tmp/ccnDxhvs.s:156    .text.i2cStop:00000000 $t
     /tmp/ccnDxhvs.s:162    .text.i2cStop:00000000 i2cStop
     /tmp/ccnDxhvs.s:232    .text.i2cGetErrors:00000000 $t
     /tmp/ccnDxhvs.s:238    .text.i2cGetErrors:00000000 i2cGetErrors
     /tmp/ccnDxhvs.s:254    .text.i2cMasterTransmitTimeout:00000000 $t
     /tmp/ccnDxhvs.s:260    .text.i2cMasterTransmitTimeout:00000000 i2cMasterTransmitTimeout
     /tmp/ccnDxhvs.s:350    .text.i2cMasterReceiveTimeout:00000000 $t
     /tmp/ccnDxhvs.s:356    .text.i2cMasterReceiveTimeout:00000000 i2cMasterReceiveTimeout
     /tmp/ccnDxhvs.s:440    .text.i2cAcquireBus:00000000 $t
     /tmp/ccnDxhvs.s:446    .text.i2cAcquireBus:00000000 i2cAcquireBus
     /tmp/ccnDxhvs.s:467    .text.i2cReleaseBus:00000000 $t
     /tmp/ccnDxhvs.s:473    .text.i2cReleaseBus:00000000 i2cReleaseBus
                     .debug_frame:00000010 $d

UNDEFINED SYMBOLS
i2c_lld_init
chMtxObjectInit
i2c_lld_start
i2c_lld_stop
i2c_lld_master_transmit_timeout
i2c_lld_master_receive_timeout
chMtxLock
chMtxUnlock
