ARM GAS  /tmp/ccnDxhvs.s 			page 1


   1              		.syntax unified
   2              		.cpu cortex-m3
   3              		.fpu softvfp
   4              		.eabi_attribute 20, 1
   5              		.eabi_attribute 21, 1
   6              		.eabi_attribute 23, 3
   7              		.eabi_attribute 24, 1
   8              		.eabi_attribute 25, 1
   9              		.eabi_attribute 26, 1
  10              		.eabi_attribute 30, 2
  11              		.eabi_attribute 34, 1
  12              		.eabi_attribute 18, 4
  13              		.thumb
  14              		.file	"i2c.c"
  15              		.text
  16              	.Ltext0:
  17              		.cfi_sections	.debug_frame
  18              		.section	.text.i2cInit,"ax",%progbits
  19              		.align	2
  20              		.p2align 4,,15
  21              		.global	i2cInit
  22              		.thumb
  23              		.thumb_func
  24              		.type	i2cInit, %function
  25              	i2cInit:
  26              	.LFB207:
  27              		.file 1 "/home/maciek/ChibiOS_16.1.5/os/hal/src/i2c.c"
  28              		.loc 1 59 0
  29              		.cfi_startproc
  30              		@ args = 0, pretend = 0, frame = 0
  31              		@ frame_needed = 0, uses_anonymous_args = 0
  32              		@ link register save eliminated.
  33              		.loc 1 61 0
  34 0000 FFF7FEBF 		b	i2c_lld_init
  35              	.LVL0:
  36              		.cfi_endproc
  37              	.LFE207:
  38              		.size	i2cInit, .-i2cInit
  39              		.section	.text.i2cObjectInit,"ax",%progbits
  40              		.align	2
  41              		.p2align 4,,15
  42              		.global	i2cObjectInit
  43              		.thumb
  44              		.thumb_func
  45              		.type	i2cObjectInit, %function
  46              	i2cObjectInit:
  47              	.LFB208:
  48              		.loc 1 71 0
  49              		.cfi_startproc
  50              		@ args = 0, pretend = 0, frame = 0
  51              		@ frame_needed = 0, uses_anonymous_args = 0
  52              		@ link register save eliminated.
  53              	.LVL1:
  54              		.loc 1 73 0
  55 0000 0122     		movs	r2, #1
  56              		.loc 1 74 0
  57 0002 0023     		movs	r3, #0
ARM GAS  /tmp/ccnDxhvs.s 			page 2


  58              		.loc 1 73 0
  59 0004 0270     		strb	r2, [r0]
  60              		.loc 1 74 0
  61 0006 4360     		str	r3, [r0, #4]
  62              	.LVL2:
  63              	.LBB82:
  64              	.LBB83:
  65              		.file 2 "/home/maciek/ChibiOS_16.1.5/os/hal/osal/rt/osal.h"
  66              		.loc 2 887 0
  67 0008 0C30     		adds	r0, r0, #12
  68              	.LVL3:
  69 000a FFF7FEBF 		b	chMtxObjectInit
  70              	.LVL4:
  71              	.LBE83:
  72              	.LBE82:
  73              		.cfi_endproc
  74              	.LFE208:
  75              		.size	i2cObjectInit, .-i2cObjectInit
  76 000e 00BF     		.section	.text.i2cStart,"ax",%progbits
  77              		.align	2
  78              		.p2align 4,,15
  79              		.global	i2cStart
  80              		.thumb
  81              		.thumb_func
  82              		.type	i2cStart, %function
  83              	i2cStart:
  84              	.LFB209:
  85              		.loc 1 93 0
  86              		.cfi_startproc
  87              		@ args = 0, pretend = 0, frame = 0
  88              		@ frame_needed = 0, uses_anonymous_args = 0
  89              	.LVL5:
  90 0000 10B5     		push	{r4, lr}
  91              		.cfi_def_cfa_offset 8
  92              		.cfi_offset 4, -8
  93              		.cfi_offset 14, -4
  94              	.LBB84:
  95              	.LBB85:
  96              	.LBB86:
  97              	.LBB87:
  98              	.LBB88:
  99              		.file 3 "/home/maciek/ChibiOS_16.1.5/os/ext/CMSIS/include/core_cmFunc.h"
 100              		.loc 3 548 0
 101 0002 2023     		movs	r3, #32
 102              	.LBE88:
 103              	.LBE87:
 104              	.LBE86:
 105              	.LBE85:
 106              	.LBE84:
 107              		.loc 1 93 0
 108 0004 0446     		mov	r4, r0
 109              	.LBB93:
 110              	.LBB92:
 111              	.LBB91:
 112              	.LBB90:
 113              	.LBB89:
 114              		.loc 3 548 0
ARM GAS  /tmp/ccnDxhvs.s 			page 3


 115              	@ 548 "/home/maciek/ChibiOS_16.1.5/os/ext/CMSIS/include/core_cmFunc.h" 1
 116 0006 83F31188 		MSR basepri, r3
 117              	@ 0 "" 2
 118              		.thumb
 119              	.LBE89:
 120              	.LBE90:
 121              	.LBE91:
 122              	.LBE92:
 123              	.LBE93:
 124              		.loc 1 100 0
 125 000a 4160     		str	r1, [r0, #4]
 126              		.loc 1 101 0
 127 000c FFF7FEFF 		bl	i2c_lld_start
 128              	.LVL6:
 129              		.loc 1 102 0
 130 0010 0223     		movs	r3, #2
 131 0012 2370     		strb	r3, [r4]
 132              	.LVL7:
 133              	.LBB94:
 134              	.LBB95:
 135              	.LBB96:
 136              	.LBB97:
 137              	.LBB98:
 138              	.LBB99:
 139              		.loc 3 548 0
 140 0014 0023     		movs	r3, #0
 141              	@ 548 "/home/maciek/ChibiOS_16.1.5/os/ext/CMSIS/include/core_cmFunc.h" 1
 142 0016 83F31188 		MSR basepri, r3
 143              	@ 0 "" 2
 144              		.thumb
 145 001a 10BD     		pop	{r4, pc}
 146              	.LBE99:
 147              	.LBE98:
 148              	.LBE97:
 149              	.LBE96:
 150              	.LBE95:
 151              	.LBE94:
 152              		.cfi_endproc
 153              	.LFE209:
 154              		.size	i2cStart, .-i2cStart
 155              		.section	.text.i2cStop,"ax",%progbits
 156              		.align	2
 157              		.p2align 4,,15
 158              		.global	i2cStop
 159              		.thumb
 160              		.thumb_func
 161              		.type	i2cStop, %function
 162              	i2cStop:
 163              	.LFB210:
 164              		.loc 1 113 0
 165              		.cfi_startproc
 166              		@ args = 0, pretend = 0, frame = 0
 167              		@ frame_needed = 0, uses_anonymous_args = 0
 168              	.LVL8:
 169 0000 10B5     		push	{r4, lr}
 170              		.cfi_def_cfa_offset 8
 171              		.cfi_offset 4, -8
ARM GAS  /tmp/ccnDxhvs.s 			page 4


 172              		.cfi_offset 14, -4
 173              	.LBB100:
 174              	.LBB101:
 175              	.LBB102:
 176              	.LBB103:
 177              	.LBB104:
 178              		.loc 3 548 0
 179 0002 2023     		movs	r3, #32
 180              	.LBE104:
 181              	.LBE103:
 182              	.LBE102:
 183              	.LBE101:
 184              	.LBE100:
 185              		.loc 1 113 0
 186 0004 0446     		mov	r4, r0
 187              	.LBB109:
 188              	.LBB108:
 189              	.LBB107:
 190              	.LBB106:
 191              	.LBB105:
 192              		.loc 3 548 0
 193              	@ 548 "/home/maciek/ChibiOS_16.1.5/os/ext/CMSIS/include/core_cmFunc.h" 1
 194 0006 83F31188 		MSR basepri, r3
 195              	@ 0 "" 2
 196              		.thumb
 197              	.LBE105:
 198              	.LBE106:
 199              	.LBE107:
 200              	.LBE108:
 201              	.LBE109:
 202              		.loc 1 120 0
 203 000a FFF7FEFF 		bl	i2c_lld_stop
 204              	.LVL9:
 205              		.loc 1 121 0
 206 000e 0123     		movs	r3, #1
 207 0010 2370     		strb	r3, [r4]
 208              	.LVL10:
 209              	.LBB110:
 210              	.LBB111:
 211              	.LBB112:
 212              	.LBB113:
 213              	.LBB114:
 214              	.LBB115:
 215              		.loc 3 548 0
 216 0012 0023     		movs	r3, #0
 217              	@ 548 "/home/maciek/ChibiOS_16.1.5/os/ext/CMSIS/include/core_cmFunc.h" 1
 218 0014 83F31188 		MSR basepri, r3
 219              	@ 0 "" 2
 220              		.thumb
 221 0018 10BD     		pop	{r4, pc}
 222              	.LBE115:
 223              	.LBE114:
 224              	.LBE113:
 225              	.LBE112:
 226              	.LBE111:
 227              	.LBE110:
 228              		.cfi_endproc
ARM GAS  /tmp/ccnDxhvs.s 			page 5


 229              	.LFE210:
 230              		.size	i2cStop, .-i2cStop
 231 001a 00BF     		.section	.text.i2cGetErrors,"ax",%progbits
 232              		.align	2
 233              		.p2align 4,,15
 234              		.global	i2cGetErrors
 235              		.thumb
 236              		.thumb_func
 237              		.type	i2cGetErrors, %function
 238              	i2cGetErrors:
 239              	.LFB211:
 240              		.loc 1 133 0
 241              		.cfi_startproc
 242              		@ args = 0, pretend = 0, frame = 0
 243              		@ frame_needed = 0, uses_anonymous_args = 0
 244              		@ link register save eliminated.
 245              	.LVL11:
 246              		.loc 1 138 0
 247 0000 8068     		ldr	r0, [r0, #8]
 248              	.LVL12:
 249 0002 7047     		bx	lr
 250              		.cfi_endproc
 251              	.LFE211:
 252              		.size	i2cGetErrors, .-i2cGetErrors
 253              		.section	.text.i2cMasterTransmitTimeout,"ax",%progbits
 254              		.align	2
 255              		.p2align 4,,15
 256              		.global	i2cMasterTransmitTimeout
 257              		.thumb
 258              		.thumb_func
 259              		.type	i2cMasterTransmitTimeout, %function
 260              	i2cMasterTransmitTimeout:
 261              	.LFB212:
 262              		.loc 1 172 0
 263              		.cfi_startproc
 264              		@ args = 12, pretend = 0, frame = 0
 265              		@ frame_needed = 0, uses_anonymous_args = 0
 266              	.LVL13:
 267 0000 F0B5     		push	{r4, r5, r6, r7, lr}
 268              		.cfi_def_cfa_offset 20
 269              		.cfi_offset 4, -20
 270              		.cfi_offset 5, -16
 271              		.cfi_offset 6, -12
 272              		.cfi_offset 7, -8
 273              		.cfi_offset 14, -4
 274 0002 85B0     		sub	sp, sp, #20
 275              		.cfi_def_cfa_offset 40
 276              		.loc 1 172 0
 277 0004 0446     		mov	r4, r0
 278 0006 BDF83070 		ldrh	r7, [sp, #48]
 279              	.LBB116:
 280              	.LBB117:
 281              	.LBB118:
 282              	.LBB119:
 283              	.LBB120:
 284              		.loc 3 548 0
 285 000a 2025     		movs	r5, #32
ARM GAS  /tmp/ccnDxhvs.s 			page 6


 286              	@ 548 "/home/maciek/ChibiOS_16.1.5/os/ext/CMSIS/include/core_cmFunc.h" 1
 287 000c 85F31188 		MSR basepri, r5
 288              	@ 0 "" 2
 289              		.thumb
 290              	.LBE120:
 291              	.LBE119:
 292              	.LBE118:
 293              	.LBE117:
 294              	.LBE116:
 295              		.loc 1 185 0
 296 0010 0A9D     		ldr	r5, [sp, #40]
 297              		.loc 1 184 0
 298 0012 4FF0030E 		mov	lr, #3
 299              		.loc 1 185 0
 300 0016 0095     		str	r5, [sp]
 301 0018 0B9D     		ldr	r5, [sp, #44]
 302              		.loc 1 183 0
 303 001a 0026     		movs	r6, #0
 304              		.loc 1 185 0
 305 001c 0195     		str	r5, [sp, #4]
 306 001e 0297     		str	r7, [sp, #8]
 307              		.loc 1 183 0
 308 0020 8660     		str	r6, [r0, #8]
 309              		.loc 1 184 0
 310 0022 80F800E0 		strb	lr, [r0]
 311              		.loc 1 185 0
 312 0026 FFF7FEFF 		bl	i2c_lld_master_transmit_timeout
 313              	.LVL14:
 314              		.loc 1 187 0
 315 002a 431C     		adds	r3, r0, #1
 316              		.loc 1 188 0
 317 002c 0CBF     		ite	eq
 318 002e 0523     		moveq	r3, #5
 319              		.loc 1 191 0
 320 0030 0223     		movne	r3, #2
 321 0032 2370     		strb	r3, [r4]
 322              	.LVL15:
 323              	.LBB121:
 324              	.LBB122:
 325              	.LBB123:
 326              	.LBB124:
 327              	.LBB125:
 328              	.LBB126:
 329              		.loc 3 548 0
 330 0034 0023     		movs	r3, #0
 331              	@ 548 "/home/maciek/ChibiOS_16.1.5/os/ext/CMSIS/include/core_cmFunc.h" 1
 332 0036 83F31188 		MSR basepri, r3
 333              	@ 0 "" 2
 334              		.thumb
 335              	.LBE126:
 336              	.LBE125:
 337              	.LBE124:
 338              	.LBE123:
 339              	.LBE122:
 340              	.LBE121:
 341              		.loc 1 195 0
 342 003a 05B0     		add	sp, sp, #20
ARM GAS  /tmp/ccnDxhvs.s 			page 7


 343              		.cfi_def_cfa_offset 20
 344              		@ sp needed
 345 003c F0BD     		pop	{r4, r5, r6, r7, pc}
 346              		.cfi_endproc
 347              	.LFE212:
 348              		.size	i2cMasterTransmitTimeout, .-i2cMasterTransmitTimeout
 349 003e 00BF     		.section	.text.i2cMasterReceiveTimeout,"ax",%progbits
 350              		.align	2
 351              		.p2align 4,,15
 352              		.global	i2cMasterReceiveTimeout
 353              		.thumb
 354              		.thumb_func
 355              		.type	i2cMasterReceiveTimeout, %function
 356              	i2cMasterReceiveTimeout:
 357              	.LFB213:
 358              		.loc 1 221 0
 359              		.cfi_startproc
 360              		@ args = 4, pretend = 0, frame = 0
 361              		@ frame_needed = 0, uses_anonymous_args = 0
 362              	.LVL16:
 363 0000 F0B5     		push	{r4, r5, r6, r7, lr}
 364              		.cfi_def_cfa_offset 20
 365              		.cfi_offset 4, -20
 366              		.cfi_offset 5, -16
 367              		.cfi_offset 6, -12
 368              		.cfi_offset 7, -8
 369              		.cfi_offset 14, -4
 370 0002 83B0     		sub	sp, sp, #12
 371              		.cfi_def_cfa_offset 32
 372              		.loc 1 221 0
 373 0004 0446     		mov	r4, r0
 374 0006 BDF82070 		ldrh	r7, [sp, #32]
 375              	.LBB127:
 376              	.LBB128:
 377              	.LBB129:
 378              	.LBB130:
 379              	.LBB131:
 380              		.loc 3 548 0
 381 000a 2025     		movs	r5, #32
 382              	@ 548 "/home/maciek/ChibiOS_16.1.5/os/ext/CMSIS/include/core_cmFunc.h" 1
 383 000c 85F31188 		MSR basepri, r5
 384              	@ 0 "" 2
 385              		.thumb
 386              	.LBE131:
 387              	.LBE130:
 388              	.LBE129:
 389              	.LBE128:
 390              	.LBE127:
 391              		.loc 1 232 0
 392 0010 0026     		movs	r6, #0
 393              		.loc 1 233 0
 394 0012 0425     		movs	r5, #4
 395              		.loc 1 234 0
 396 0014 0097     		str	r7, [sp]
 397              		.loc 1 232 0
 398 0016 8660     		str	r6, [r0, #8]
 399              		.loc 1 233 0
ARM GAS  /tmp/ccnDxhvs.s 			page 8


 400 0018 0570     		strb	r5, [r0]
 401              		.loc 1 234 0
 402 001a FFF7FEFF 		bl	i2c_lld_master_receive_timeout
 403              	.LVL17:
 404              		.loc 1 235 0
 405 001e 431C     		adds	r3, r0, #1
 406              		.loc 1 236 0
 407 0020 0CBF     		ite	eq
 408 0022 0523     		moveq	r3, #5
 409              		.loc 1 239 0
 410 0024 0223     		movne	r3, #2
 411 0026 2370     		strb	r3, [r4]
 412              	.LVL18:
 413              	.LBB132:
 414              	.LBB133:
 415              	.LBB134:
 416              	.LBB135:
 417              	.LBB136:
 418              	.LBB137:
 419              		.loc 3 548 0
 420 0028 0023     		movs	r3, #0
 421              	@ 548 "/home/maciek/ChibiOS_16.1.5/os/ext/CMSIS/include/core_cmFunc.h" 1
 422 002a 83F31188 		MSR basepri, r3
 423              	@ 0 "" 2
 424              		.thumb
 425              	.LBE137:
 426              	.LBE136:
 427              	.LBE135:
 428              	.LBE134:
 429              	.LBE133:
 430              	.LBE132:
 431              		.loc 1 243 0
 432 002e 03B0     		add	sp, sp, #12
 433              		.cfi_def_cfa_offset 20
 434              		@ sp needed
 435 0030 F0BD     		pop	{r4, r5, r6, r7, pc}
 436              		.cfi_endproc
 437              	.LFE213:
 438              		.size	i2cMasterReceiveTimeout, .-i2cMasterReceiveTimeout
 439 0032 00BF     		.section	.text.i2cAcquireBus,"ax",%progbits
 440              		.align	2
 441              		.p2align 4,,15
 442              		.global	i2cAcquireBus
 443              		.thumb
 444              		.thumb_func
 445              		.type	i2cAcquireBus, %function
 446              	i2cAcquireBus:
 447              	.LFB214:
 448              		.loc 1 257 0
 449              		.cfi_startproc
 450              		@ args = 0, pretend = 0, frame = 0
 451              		@ frame_needed = 0, uses_anonymous_args = 0
 452              		@ link register save eliminated.
 453              	.LVL19:
 454              	.LBB138:
 455              	.LBB139:
 456              		.loc 2 907 0
ARM GAS  /tmp/ccnDxhvs.s 			page 9


 457 0000 0C30     		adds	r0, r0, #12
 458              	.LVL20:
 459 0002 FFF7FEBF 		b	chMtxLock
 460              	.LVL21:
 461              	.LBE139:
 462              	.LBE138:
 463              		.cfi_endproc
 464              	.LFE214:
 465              		.size	i2cAcquireBus, .-i2cAcquireBus
 466 0006 00BF     		.section	.text.i2cReleaseBus,"ax",%progbits
 467              		.align	2
 468              		.p2align 4,,15
 469              		.global	i2cReleaseBus
 470              		.thumb
 471              		.thumb_func
 472              		.type	i2cReleaseBus, %function
 473              	i2cReleaseBus:
 474              	.LFB215:
 475              		.loc 1 273 0
 476              		.cfi_startproc
 477              		@ args = 0, pretend = 0, frame = 0
 478              		@ frame_needed = 0, uses_anonymous_args = 0
 479              		@ link register save eliminated.
 480              	.LVL22:
 481              	.LBB140:
 482              	.LBB141:
 483              		.loc 2 931 0
 484 0000 0C30     		adds	r0, r0, #12
 485              	.LVL23:
 486 0002 FFF7FEBF 		b	chMtxUnlock
 487              	.LVL24:
 488              	.LBE141:
 489              	.LBE140:
 490              		.cfi_endproc
 491              	.LFE215:
 492              		.size	i2cReleaseBus, .-i2cReleaseBus
 493 0006 00BF     		.text
 494              	.Letext0:
 495              		.file 4 "/opt/stm32/gcc/gcc-arm-none-eabi-4_9-2015q2/lib/gcc/arm-none-eabi/4.9.3/include/stddef.h"
 496              		.file 5 "/opt/stm32/gcc/gcc-arm-none-eabi-4_9-2015q2/arm-none-eabi/include/machine/_default_types.
 497              		.file 6 "/opt/stm32/gcc/gcc-arm-none-eabi-4_9-2015q2/arm-none-eabi/include/sys/_stdint.h"
 498              		.file 7 "/home/maciek/ChibiOS_16.1.5/os/rt/ports/ARMCMx/compilers/GCC/chtypes.h"
 499              		.file 8 "/home/maciek/ChibiOS_16.1.5/os/rt/include/chsystypes.h"
 500              		.file 9 "/home/maciek/ChibiOS_16.1.5/os/rt/include/chschd.h"
 501              		.file 10 "/home/maciek/ChibiOS_16.1.5/os/ext/CMSIS/ST/STM32F1xx/stm32f103xe.h"
 502              		.file 11 "/home/maciek/ChibiOS_16.1.5/os/rt/ports/ARMCMx/chcore.h"
 503              		.file 12 "/home/maciek/ChibiOS_16.1.5/os/rt/ports/ARMCMx/chcore_v7m.h"
 504              		.file 13 "/home/maciek/ChibiOS_16.1.5/os/rt/include/chtm.h"
 505              		.file 14 "/home/maciek/ChibiOS_16.1.5/os/rt/include/chsem.h"
 506              		.file 15 "/home/maciek/ChibiOS_16.1.5/os/rt/include/chmtx.h"
 507              		.file 16 "/home/maciek/ChibiOS_16.1.5/os/hal/ports/STM32/LLD/DMAv1/stm32_dma.h"
 508              		.file 17 "/home/maciek/ChibiOS_16.1.5/os/hal/include/i2c.h"
 509              		.file 18 "/home/maciek/ChibiOS_16.1.5/os/hal/ports/STM32/LLD/I2Cv1/i2c_lld.h"
 510              		.file 19 "/home/maciek/ChibiOS_16.1.5/os/rt/include/chsys.h"
 511              		.file 20 "/home/maciek/ChibiOS_16.1.5/os/ext/CMSIS/include/core_cm3.h"