ARM GAS  /tmp/ccH4VmGS.s 			page 1


   1              		.syntax unified
   2              		.cpu cortex-m3
   3              		.fpu softvfp
   4              		.eabi_attribute 20, 1
   5              		.eabi_attribute 21, 1
   6              		.eabi_attribute 23, 3
   7              		.eabi_attribute 24, 1
   8              		.eabi_attribute 25, 1
   9              		.eabi_attribute 26, 1
  10              		.eabi_attribute 30, 2
  11              		.eabi_attribute 34, 1
  12              		.eabi_attribute 18, 4
  13              		.thumb
  14              		.file	"main.c"
  15              		.text
  16              	.Ltext0:
  17              		.cfi_sections	.debug_frame
  18              		.section	.text.BlinkerThread_A,"ax",%progbits
  19              		.align	2
  20              		.p2align 4,,15
  21              		.thumb
  22              		.thumb_func
  23              		.type	BlinkerThread_A, %function
  24              	BlinkerThread_A:
  25              	.LFB218:
  26              		.file 1 "main.c"
  27              		.loc 1 262 0
  28              		.cfi_startproc
  29              		@ args = 0, pretend = 0, frame = 0
  30              		@ frame_needed = 0, uses_anonymous_args = 0
  31              	.LVL0:
  32 0000 10B5     		push	{r4, lr}
  33              		.cfi_def_cfa_offset 8
  34              		.cfi_offset 4, -8
  35              		.cfi_offset 14, -4
  36              	.LBB10:
  37              		.loc 1 275 0
  38 0002 054C     		ldr	r4, .L5
  39              	.LVL1:
  40              	.L2:
  41              		.loc 1 275 0 is_stmt 0 discriminator 1
  42 0004 E368     		ldr	r3, [r4, #12]
  43              		.loc 1 289 0 is_stmt 1 discriminator 1
  44 0006 4FF4FA60 		mov	r0, #2000
  45              		.loc 1 275 0 discriminator 1
  46 000a 83F48053 		eor	r3, r3, #4096
  47 000e E360     		str	r3, [r4, #12]
  48              	.LVL2:
  49              		.loc 1 289 0 discriminator 1
  50 0010 FFF7FEFF 		bl	chThdSleep
  51              	.LVL3:
  52              	.LBE10:
  53              		.loc 1 290 0 discriminator 1
  54 0014 F6E7     		b	.L2
  55              	.L6:
  56 0016 00BF     		.align	2
  57              	.L5:
ARM GAS  /tmp/ccH4VmGS.s 			page 2


  58 0018 000C0140 		.word	1073810432
  59              		.cfi_endproc
  60              	.LFE218:
  61              		.size	BlinkerThread_A, .-BlinkerThread_A
  62              		.section	.text.BlinkerThread_B,"ax",%progbits
  63              		.align	2
  64              		.p2align 4,,15
  65              		.thumb
  66              		.thumb_func
  67              		.type	BlinkerThread_B, %function
  68              	BlinkerThread_B:
  69              	.LFB219:
  70              		.loc 1 299 0
  71              		.cfi_startproc
  72              		@ args = 0, pretend = 0, frame = 0
  73              		@ frame_needed = 0, uses_anonymous_args = 0
  74              	.LVL4:
  75 0000 70B5     		push	{r4, r5, r6, lr}
  76              		.cfi_def_cfa_offset 16
  77              		.cfi_offset 4, -16
  78              		.cfi_offset 5, -12
  79              		.cfi_offset 6, -8
  80              		.cfi_offset 14, -4
  81              	.LBB11:
  82              	.LBB12:
  83              	.LBB13:
  84              	.LBB14:
  85              		.file 2 "/home/maciek/ChibiOS_16.1.5/os/rt/include/chthreads.h"
  86              		.loc 2 176 0
  87 0002 0B4E     		ldr	r6, .L16
  88              	.LBE14:
  89              	.LBE13:
  90              		.loc 2 233 0
  91 0004 3369     		ldr	r3, [r6, #16]
  92 0006 5B7C     		ldrb	r3, [r3, #17]	@ zero_extendqisi2
  93              	.LBE12:
  94              	.LBE11:
  95              		.loc 1 303 0
  96 0008 5A07     		lsls	r2, r3, #29
  97 000a 0CD4     		bmi	.L11
  98              		.loc 1 309 0
  99 000c 094C     		ldr	r4, .L16+4
 100              	.LVL5:
 101              	.L8:
 102 000e E368     		ldr	r3, [r4, #12]
 103              		.loc 1 311 0
 104 0010 4FF47A60 		mov	r0, #4000
 105              		.loc 1 309 0
 106 0014 83F40053 		eor	r3, r3, #8192
 107 0018 E360     		str	r3, [r4, #12]
 108              		.loc 1 311 0
 109 001a FFF7FEFF 		bl	chThdSleep
 110              	.LVL6:
 111              	.LBB16:
 112              	.LBB15:
 113              		.loc 2 233 0
 114 001e 3369     		ldr	r3, [r6, #16]
ARM GAS  /tmp/ccH4VmGS.s 			page 3


 115 0020 5B7C     		ldrb	r3, [r3, #17]	@ zero_extendqisi2
 116              	.LBE15:
 117              	.LBE16:
 118              		.loc 1 303 0
 119 0022 5B07     		lsls	r3, r3, #29
 120 0024 F3D5     		bpl	.L8
 121              	.L11:
 122              		.loc 1 314 0
 123 0026 0020     		movs	r0, #0
 124              		.loc 1 315 0
 125 0028 BDE87040 		pop	{r4, r5, r6, lr}
 126              		.cfi_restore 14
 127              		.cfi_restore 6
 128              		.cfi_restore 5
 129              		.cfi_restore 4
 130              		.cfi_def_cfa_offset 0
 131              		.loc 1 314 0
 132 002c FFF7FEBF 		b	chThdExit
 133              	.LVL7:
 134              	.L17:
 135              		.align	2
 136              	.L16:
 137 0030 00000000 		.word	ch
 138 0034 000C0140 		.word	1073810432
 139              		.cfi_endproc
 140              	.LFE219:
 141              		.size	BlinkerThread_B, .-BlinkerThread_B
 142              		.section	.text.startup.main,"ax",%progbits
 143              		.align	2
 144              		.p2align 4,,15
 145              		.global	main
 146              		.thumb
 147              		.thumb_func
 148              		.type	main, %function
 149              	main:
 150              	.LFB222:
 151              		.loc 1 423 0
 152              		.cfi_startproc
 153              		@ args = 0, pretend = 0, frame = 0
 154              		@ frame_needed = 0, uses_anonymous_args = 0
 155              	.LVL8:
 156 0000 30B5     		push	{r4, r5, lr}
 157              		.cfi_def_cfa_offset 12
 158              		.cfi_offset 4, -12
 159              		.cfi_offset 5, -8
 160              		.cfi_offset 14, -4
 161              		.loc 1 461 0
 162 0002 184C     		ldr	r4, .L21
 163              		.loc 1 423 0
 164 0004 83B0     		sub	sp, sp, #12
 165              		.cfi_def_cfa_offset 24
 166              		.loc 1 438 0
 167 0006 FFF7FEFF 		bl	halInit
 168              	.LVL9:
 169              		.loc 1 440 0
 170 000a FFF7FEFF 		bl	chSysInit
 171              	.LVL10:
ARM GAS  /tmp/ccH4VmGS.s 			page 4


 172              		.loc 1 461 0
 173 000e 2046     		mov	r0, r4
 174 0010 0021     		movs	r1, #0
 175 0012 FFF7FEFF 		bl	sdStart
 176              	.LVL11:
 177              		.loc 1 467 0
 178 0016 144A     		ldr	r2, .L21+4
 179              		.loc 1 531 0
 180 0018 1449     		ldr	r1, .L21+8
 181              		.loc 1 467 0
 182 001a 5369     		ldr	r3, [r2, #20]
 183              		.loc 1 531 0
 184 001c 2046     		mov	r0, r4
 185              		.loc 1 467 0
 186 001e 43F04003 		orr	r3, r3, #64
 187 0022 5361     		str	r3, [r2, #20]
 188              		.loc 1 531 0
 189 0024 FFF7FEFF 		bl	chprintf
 190              	.LVL12:
 191              		.loc 1 532 0
 192 0028 114B     		ldr	r3, .L21+12
 193              		.loc 1 533 0
 194 002a 1249     		ldr	r1, .L21+16
 195              		.loc 1 540 0
 196 002c 0025     		movs	r5, #0
 197              		.loc 1 533 0
 198 002e 2046     		mov	r0, r4
 199              		.loc 1 532 0
 200 0030 1C60     		str	r4, [r3]
 201              		.loc 1 533 0
 202 0032 FFF7FEFF 		bl	chprintf
 203              	.LVL13:
 204              		.loc 1 540 0
 205 0036 4FF48071 		mov	r1, #256
 206 003a 0222     		movs	r2, #2
 207 003c 0E4B     		ldr	r3, .L21+20
 208 003e 0095     		str	r5, [sp]
 209 0040 0E48     		ldr	r0, .L21+24
 210 0042 FFF7FEFF 		bl	chThdCreateStatic
 211              	.LVL14:
 212              		.loc 1 546 0
 213 0046 0095     		str	r5, [sp]
 214 0048 0D48     		ldr	r0, .L21+28
 215 004a 4FF48071 		mov	r1, #256
 216 004e 0222     		movs	r2, #2
 217 0050 0C4B     		ldr	r3, .L21+32
 218 0052 FFF7FEFF 		bl	chThdCreateStatic
 219              	.LVL15:
 220              	.L19:
 221              		.loc 1 576 0 discriminator 1
 222 0056 4FF4C870 		mov	r0, #400
 223 005a FFF7FEFF 		bl	chThdSleep
 224              	.LVL16:
 225              		.loc 1 580 0 discriminator 1
 226 005e FFF7FEFF 		bl	telemetryReadSerialData
 227              	.LVL17:
 228              		.loc 1 607 0 discriminator 1
ARM GAS  /tmp/ccH4VmGS.s 			page 5


 229 0062 F8E7     		b	.L19
 230              	.L22:
 231              		.align	2
 232              	.L21:
 233 0064 00000000 		.word	SD4
 234 0068 00100240 		.word	1073876992
 235 006c 00000000 		.word	.LC0
 236 0070 00000000 		.word	g_chnp
 237 0074 08000000 		.word	.LC1
 238 0078 00000000 		.word	BlinkerThread_A
 239 007c 00000000 		.word	.LANCHOR1
 240 0080 00000000 		.word	.LANCHOR2
 241 0084 00000000 		.word	BlinkerThread_B
 242              		.cfi_endproc
 243              	.LFE222:
 244              		.size	main, .-main
 245              		.global	pStream
 246              		.global	led_b
 247              		.global	g_streamIdx
 248              		.global	g_streamDataID
 249              		.global	g_i2cErrorInfo
 250              		.global	g_runMain
 251              		.global	g_boardStatus
 252              		.section	.bss.g_streamIdx,"aw",%nobits
 253              		.type	g_streamIdx, %object
 254              		.size	g_streamIdx, 1
 255              	g_streamIdx:
 256 0000 00       		.space	1
 257              		.section	.bss.g_boardStatus,"aw",%nobits
 258              		.align	2
 259              		.type	g_boardStatus, %object
 260              		.size	g_boardStatus, 4
 261              	g_boardStatus:
 262 0000 00000000 		.space	4
 263              		.section	.bss.g_i2cErrorInfo,"aw",%nobits
 264              		.align	2
 265              		.type	g_i2cErrorInfo, %object
 266              		.size	g_i2cErrorInfo, 8
 267              	g_i2cErrorInfo:
 268 0000 00000000 		.space	8
 268      00000000 
 269              		.section	.data.g_runMain,"aw",%progbits
 270              		.type	g_runMain, %object
 271              		.size	g_runMain, 1
 272              	g_runMain:
 273 0000 01       		.byte	1
 274              		.section	.bss.g_streamDataID,"aw",%nobits
 275              		.type	g_streamDataID, %object
 276              		.size	g_streamDataID, 1
 277              	g_streamDataID:
 278 0000 00       		.space	1
 279              		.section	.rodata.str1.4,"aMS",%progbits,1
 280              		.align	2
 281              	.LC0:
 282 0000 776F310A 		.ascii	"wo1\012\000"
 282      00
 283 0005 000000   		.space	3
ARM GAS  /tmp/ccH4VmGS.s 			page 6


 284              	.LC1:
 285 0008 776F320A 		.ascii	"wo2\012\000"
 285      00
 286              		.section	.bss.waBlinkerThread_B,"aw",%nobits
 287              		.align	3
 288              		.set	.LANCHOR2,. + 0
 289              		.type	waBlinkerThread_B, %object
 290              		.size	waBlinkerThread_B, 256
 291              	waBlinkerThread_B:
 292 0000 00000000 		.space	256
 292      00000000 
 292      00000000 
 292      00000000 
 292      00000000 
 293              		.section	.bss.pStream,"aw",%nobits
 294              		.align	2
 295              		.type	pStream, %object
 296              		.size	pStream, 4
 297              	pStream:
 298 0000 00000000 		.space	4
 299              		.section	.bss.waBlinkerThread_A,"aw",%nobits
 300              		.align	3
 301              		.set	.LANCHOR1,. + 0
 302              		.type	waBlinkerThread_A, %object
 303              		.size	waBlinkerThread_A, 256
 304              	waBlinkerThread_A:
 305 0000 00000000 		.space	256
 305      00000000 
 305      00000000 
 305      00000000 
 305      00000000 
 306              		.section	.bss.led_b,"aw",%nobits
 307              		.set	.LANCHOR0,. + 0
 308              		.type	led_b, %object
 309              		.size	led_b, 1
 310              	led_b:
 311 0000 00       		.space	1
 312              		.text
 313              	.Letext0:
 314              		.file 3 "/opt/stm32/gcc/gcc-arm-none-eabi-4_9-2015q2/lib/gcc/arm-none-eabi/4.9.3/include/stddef.h"
 315              		.file 4 "/opt/stm32/gcc/gcc-arm-none-eabi-4_9-2015q2/arm-none-eabi/include/machine/_default_types.
 316              		.file 5 "/opt/stm32/gcc/gcc-arm-none-eabi-4_9-2015q2/arm-none-eabi/include/sys/_stdint.h"
 317              		.file 6 "/home/maciek/ChibiOS_16.1.5/os/rt/ports/ARMCMx/compilers/GCC/chtypes.h"
 318              		.file 7 "/home/maciek/ChibiOS_16.1.5/os/rt/include/chsystypes.h"
 319              		.file 8 "/home/maciek/ChibiOS_16.1.5/os/rt/include/chschd.h"
 320              		.file 9 "/home/maciek/ChibiOS_16.1.5/os/ext/CMSIS/ST/STM32F1xx/stm32f103xe.h"
 321              		.file 10 "/home/maciek/ChibiOS_16.1.5/os/rt/ports/ARMCMx/chcore.h"
 322              		.file 11 "/home/maciek/ChibiOS_16.1.5/os/rt/ports/ARMCMx/chcore_v7m.h"
 323              		.file 12 "/home/maciek/ChibiOS_16.1.5/os/rt/include/chtm.h"
 324              		.file 13 "/home/maciek/ChibiOS_16.1.5/os/rt/include/chsem.h"
 325              		.file 14 "/home/maciek/ChibiOS_16.1.5/os/rt/include/chmtx.h"
 326              		.file 15 "/home/maciek/ChibiOS_16.1.5/os/rt/include/chbsem.h"
 327              		.file 16 "/home/maciek/ChibiOS_16.1.5/os/rt/include/chevents.h"
 328              		.file 17 "/home/maciek/ChibiOS_16.1.5/os/rt/include/chqueues.h"
 329              		.file 18 "/home/maciek/ChibiOS_16.1.5/os/rt/include/chstreams.h"
 330              		.file 19 "/home/maciek/ChibiOS_16.1.5/os/hal/ports/STM32/LLD/DMAv1/stm32_dma.h"
 331              		.file 20 "/home/maciek/ChibiOS_16.1.5/os/hal/include/hal_channels.h"
ARM GAS  /tmp/ccH4VmGS.s 			page 7


 332              		.file 21 "/home/maciek/ChibiOS_16.1.5/os/hal/include/hal_buffers.h"
 333              		.file 22 "/home/maciek/ChibiOS_16.1.5/os/hal/ports/STM32/LLD/GPIOv1/pal_lld.h"
 334              		.file 23 "/home/maciek/ChibiOS_16.1.5/os/hal/include/i2c.h"
 335              		.file 24 "/home/maciek/ChibiOS_16.1.5/os/hal/ports/STM32/LLD/I2Cv1/i2c_lld.h"
 336              		.file 25 "/home/maciek/ChibiOS_16.1.5/os/hal/include/serial.h"
 337              		.file 26 "/home/maciek/ChibiOS_16.1.5/os/hal/ports/STM32/LLD/USARTv1/serial_lld.h"
 338              		.file 27 "/home/maciek/ChibiOS_16.1.5/os/hal/include/usb.h"
 339              		.file 28 "/home/maciek/ChibiOS_16.1.5/os/hal/ports/STM32/LLD/USBv1/usb_lld.h"
 340              		.file 29 "/home/maciek/ChibiOS_16.1.5/os/hal/include/serial_usb.h"
 341              		.file 30 "mpu6050.h"
 342              		.file 31 "misc.h"
 343              		.file 32 "/home/maciek/ChibiOS_16.1.5/os/various/shell.h"
 344              		.file 33 "/home/maciek/ChibiOS_16.1.5/os/ext/CMSIS/include/core_cm3.h"
 345              		.file 34 "usbcfg.h"
 346              		.file 35 "telemetry.h"
 347              		.file 36 "/home/maciek/ChibiOS_16.1.5/os/hal/include/hal.h"
 348              		.file 37 "/home/maciek/ChibiOS_16.1.5/os/rt/include/chsys.h"
 349              		.file 38 "/home/maciek/ChibiOS_16.1.5/os/hal/osal/rt/osal.h"