ARM GAS  /tmp/cc7uye1Q.s 			page 1


   1              		.syntax unified
   2              		.cpu cortex-m3
   3              		.fpu softvfp
   4              		.eabi_attribute 20, 1
   5              		.eabi_attribute 21, 1
   6              		.eabi_attribute 23, 3
   7              		.eabi_attribute 24, 1
   8              		.eabi_attribute 25, 1
   9              		.eabi_attribute 26, 1
  10              		.eabi_attribute 30, 2
  11              		.eabi_attribute 34, 1
  12              		.eabi_attribute 18, 4
  13              		.thumb
  14              		.file	"mavlink_handler.c"
  15              		.text
  16              	.Ltext0:
  17              		.cfi_sections	.debug_frame
  18              		.section	.text.stream_trigger.part.0,"ax",%progbits
  19              		.align	2
  20              		.p2align 4,,15
  21              		.thumb
  22              		.thumb_func
  23              		.type	stream_trigger.part.0, %function
  24              	stream_trigger.part.0:
  25              	.LFB1707:
  26              		.file 1 "mavlink_handler.c"
  27              		.loc 1 27 0
  28              		.cfi_startproc
  29              		@ args = 0, pretend = 0, frame = 0
  30              		@ frame_needed = 0, uses_anonymous_args = 0
  31              		@ link register save eliminated.
  32              	.LVL0:
  33              		.loc 1 32 0
  34 0000 094B     		ldr	r3, .L7
  35 0002 1B5C     		ldrb	r3, [r3, r0]	@ zero_extendqisi2
  36              	.LVL1:
  37              		.loc 1 34 0
  38 0004 73B1     		cbz	r3, .L5
  39              		.loc 1 37 0
  40 0006 0949     		ldr	r1, .L7+4
  41 0008 0A5C     		ldrb	r2, [r1, r0]	@ zero_extendqisi2
  42 000a 4AB9     		cbnz	r2, .L3
  43              	.LVL2:
  44              		.loc 1 41 0
  45 000c 322B     		cmp	r3, #50
  46 000e 28BF     		it	cs
  47 0010 3223     		movcs	r3, #50
  48              	.LVL3:
  49 0012 3222     		movs	r2, #50
  50 0014 92FBF3F3 		sdiv	r3, r2, r3
  51 0018 013B     		subs	r3, r3, #1
  52 001a 0B54     		strb	r3, [r1, r0]
  53              		.loc 1 42 0
  54 001c 0120     		movs	r0, #1
  55              	.LVL4:
  56 001e 7047     		bx	lr
  57              	.LVL5:
ARM GAS  /tmp/cc7uye1Q.s 			page 2


  58              	.L3:
  59              		.loc 1 44 0
  60 0020 013A     		subs	r2, r2, #1
  61 0022 0A54     		strb	r2, [r1, r0]
  62              	.L5:
  63              		.loc 1 45 0
  64 0024 0020     		movs	r0, #0
  65              	.LVL6:
  66 0026 7047     		bx	lr
  67              	.L8:
  68              		.align	2
  69              	.L7:
  70 0028 00000000 		.word	.LANCHOR0
  71 002c 00000000 		.word	.LANCHOR1
  72              		.cfi_endproc
  73              	.LFE1707:
  74              		.size	stream_trigger.part.0, .-stream_trigger.part.0
  75              		.section	.text.stream_trigger,"ax",%progbits
  76              		.align	2
  77              		.p2align 4,,15
  78              		.global	stream_trigger
  79              		.thumb
  80              		.thumb_func
  81              		.type	stream_trigger, %function
  82              	stream_trigger:
  83              	.LFB1703:
  84              		.loc 1 27 0
  85              		.cfi_startproc
  86              		@ args = 0, pretend = 0, frame = 0
  87              		@ frame_needed = 0, uses_anonymous_args = 0
  88              		@ link register save eliminated.
  89              	.LVL7:
  90              		.loc 1 28 0
  91 0000 0328     		cmp	r0, #3
  92 0002 01D8     		bhi	.L10
  93 0004 FFF7FEBF 		b	stream_trigger.part.0
  94              	.LVL8:
  95              	.L10:
  96              		.loc 1 46 0
  97 0008 0020     		movs	r0, #0
  98              	.LVL9:
  99 000a 7047     		bx	lr
 100              		.cfi_endproc
 101              	.LFE1703:
 102              		.size	stream_trigger, .-stream_trigger
 103              		.section	.text.handle_requset_data_stream,"ax",%progbits
 104              		.align	2
 105              		.p2align 4,,15
 106              		.global	handle_requset_data_stream
 107              		.thumb
 108              		.thumb_func
 109              		.type	handle_requset_data_stream, %function
 110              	handle_requset_data_stream:
 111              	.LFB1704:
 112              		.loc 1 48 0
 113              		.cfi_startproc
 114              		@ args = 0, pretend = 0, frame = 8
ARM GAS  /tmp/cc7uye1Q.s 			page 3


 115              		@ frame_needed = 0, uses_anonymous_args = 0
 116              		@ link register save eliminated.
 117              	.LVL10:
 118              	.LBB201:
 119              	.LBB202:
 120              		.file 2 "mavlink/common/./mavlink_msg_request_data_stream.h"
 121              		.loc 2 303 0
 122 0000 0346     		mov	r3, r0
 123 0002 53F8080F 		ldr	r0, [r3, #8]!	@ unaligned
 124              	.LVL11:
 125              	.LBE202:
 126              	.LBE201:
 127              		.loc 1 48 0
 128 0006 82B0     		sub	sp, sp, #8
 129              		.cfi_def_cfa_offset 8
 130              	.LVL12:
 131              	.LBB204:
 132              	.LBB203:
 133              		.loc 2 303 0
 134 0008 9B88     		ldrh	r3, [r3, #4]	@ unaligned
 135              	.LVL13:
 136 000a 0090     		str	r0, [sp]	@ unaligned
 137 000c ADF80430 		strh	r3, [sp, #4]	@ unaligned
 138              	.LBE203:
 139              	.LBE204:
 140              		.loc 1 54 0
 141 0010 9DF80530 		ldrb	r3, [sp, #5]	@ zero_extendqisi2
 142 0014 2BB1     		cbz	r3, .L12
 143              		.loc 1 57 0
 144 0016 012B     		cmp	r3, #1
 145 0018 01D0     		beq	.L23
 146              	.L11:
 147              		.loc 1 80 0
 148 001a 02B0     		add	sp, sp, #8
 149              		.cfi_remember_state
 150              		.cfi_def_cfa_offset 0
 151              	.LVL14:
 152              		@ sp needed
 153 001c 7047     		bx	lr
 154              	.LVL15:
 155              	.L23:
 156              		.cfi_restore_state
 157              		.loc 1 58 0
 158 001e 9DF80030 		ldrb	r3, [sp]	@ zero_extendqisi2
 159              	.LVL16:
 160              	.L12:
 161              		.loc 1 62 0
 162 0022 9DF80420 		ldrb	r2, [sp, #4]	@ zero_extendqisi2
 163 0026 0A2A     		cmp	r2, #10
 164 0028 F7D8     		bhi	.L11
 165 002a 01A1     		adr	r1, .L16
 166 002c 51F822F0 		ldr	pc, [r1, r2, lsl #2]
 167              		.p2align 2
 168              	.L16:
 169 0030 65000000 		.word	.L15+1
 170 0034 71000000 		.word	.L17+1
 171 0038 1B000000 		.word	.L11+1
ARM GAS  /tmp/cc7uye1Q.s 			page 4


 172 003c 79000000 		.word	.L18+1
 173 0040 1B000000 		.word	.L11+1
 174 0044 1B000000 		.word	.L11+1
 175 0048 1B000000 		.word	.L11+1
 176 004c 1B000000 		.word	.L11+1
 177 0050 1B000000 		.word	.L11+1
 178 0054 1B000000 		.word	.L11+1
 179 0058 5D000000 		.word	.L19+1
 180              		.p2align 1
 181              	.L19:
 182              		.loc 1 71 0
 183 005c 084A     		ldr	r2, .L24
 184 005e 1370     		strb	r3, [r2]
 185              		.loc 1 80 0
 186 0060 02B0     		add	sp, sp, #8
 187              		.cfi_remember_state
 188              		.cfi_def_cfa_offset 0
 189              	.LVL17:
 190              		@ sp needed
 191 0062 7047     		bx	lr
 192              	.LVL18:
 193              	.L15:
 194              		.cfi_restore_state
 195              	.LBB205:
 196              		.loc 1 66 0 discriminator 1
 197 0064 064A     		ldr	r2, .L24
 198 0066 1370     		strb	r3, [r2]
 199              	.LVL19:
 200 0068 5370     		strb	r3, [r2, #1]
 201              	.LVL20:
 202 006a 9370     		strb	r3, [r2, #2]
 203              	.LVL21:
 204              	.LBE205:
 205              		.loc 1 80 0 discriminator 1
 206 006c 02B0     		add	sp, sp, #8
 207              		.cfi_remember_state
 208              		.cfi_def_cfa_offset 0
 209              	.LVL22:
 210              		@ sp needed
 211 006e 7047     		bx	lr
 212              	.LVL23:
 213              	.L17:
 214              		.cfi_restore_state
 215              		.loc 1 77 0
 216 0070 034A     		ldr	r2, .L24
 217 0072 9370     		strb	r3, [r2, #2]
 218              		.loc 1 80 0
 219 0074 02B0     		add	sp, sp, #8
 220              		.cfi_remember_state
 221              		.cfi_def_cfa_offset 0
 222              	.LVL24:
 223              		@ sp needed
 224 0076 7047     		bx	lr
 225              	.LVL25:
 226              	.L18:
 227              		.cfi_restore_state
 228              		.loc 1 74 0
ARM GAS  /tmp/cc7uye1Q.s 			page 5


 229 0078 014A     		ldr	r2, .L24
 230 007a 5370     		strb	r3, [r2, #1]
 231              		.loc 1 80 0
 232 007c 02B0     		add	sp, sp, #8
 233              		.cfi_def_cfa_offset 0
 234              	.LVL26:
 235              		@ sp needed
 236 007e 7047     		bx	lr
 237              	.L25:
 238              		.align	2
 239              	.L24:
 240 0080 00000000 		.word	.LANCHOR0
 241              		.cfi_endproc
 242              	.LFE1704:
 243              		.size	handle_requset_data_stream, .-handle_requset_data_stream
 244              		.global	__aeabi_fmul
 245              		.global	__aeabi_fadd
 246              		.global	__aeabi_fsub
 247              		.global	__aeabi_fcmpgt
 248              		.global	__aeabi_fcmplt
 249              		.global	__aeabi_f2iz
 250              		.section	.text.handleStream,"ax",%progbits
 251              		.align	2
 252              		.p2align 4,,15
 253              		.global	handleStream
 254              		.thumb
 255              		.thumb_func
 256              		.type	handleStream, %function
 257              	handleStream:
 258              	.LFB1705:
 259              		.loc 1 82 0
 260              		.cfi_startproc
 261              		@ args = 0, pretend = 0, frame = 576
 262              		@ frame_needed = 0, uses_anonymous_args = 0
 263 0000 2DE9F04F 		push	{r4, r5, r6, r7, r8, r9, r10, fp, lr}
 264              		.cfi_def_cfa_offset 36
 265              		.cfi_offset 4, -36
 266              		.cfi_offset 5, -32
 267              		.cfi_offset 6, -28
 268              		.cfi_offset 7, -24
 269              		.cfi_offset 8, -20
 270              		.cfi_offset 9, -16
 271              		.cfi_offset 10, -12
 272              		.cfi_offset 11, -8
 273              		.cfi_offset 14, -4
 274              		.loc 1 86 0
 275 0004 754B     		ldr	r3, .L66
 276              		.loc 1 82 0
 277 0006 ADF5117D 		sub	sp, sp, #580
 278              		.cfi_def_cfa_offset 616
 279              		.loc 1 86 0
 280 000a 0122     		movs	r2, #1
 281              	.LBB314:
 282              	.LBB315:
 283 000c 0320     		movs	r0, #3
 284              	.LBE315:
 285              	.LBE314:
ARM GAS  /tmp/cc7uye1Q.s 			page 6


 286 000e DA70     		strb	r2, [r3, #3]
 287              	.LVL27:
 288              	.LBB317:
 289              	.LBB316:
 290 0010 FFF7FEFF 		bl	stream_trigger.part.0
 291              	.LVL28:
 292              	.LBE316:
 293              	.LBE317:
 294              		.loc 1 88 0
 295 0014 0028     		cmp	r0, #0
 296 0016 40F01F82 		bne	.L60
 297              	.L27:
 298              	.LVL29:
 299              	.LBB318:
 300              	.LBB319:
 301 001a 0020     		movs	r0, #0
 302 001c FFF7FEFF 		bl	stream_trigger.part.0
 303              	.LVL30:
 304              	.LBE319:
 305              	.LBE318:
 306              		.loc 1 95 0
 307 0020 0028     		cmp	r0, #0
 308 0022 40F0E780 		bne	.L61
 309              	.L31:
 310              	.LVL31:
 311              	.LBB320:
 312              	.LBB321:
 313 0026 0120     		movs	r0, #1
 314 0028 FFF7FEFF 		bl	stream_trigger.part.0
 315              	.LVL32:
 316              	.LBE321:
 317              	.LBE320:
 318              	.LBB322:
 319              	.LBB323:
 320 002c 0220     		movs	r0, #2
 321 002e FFF7FEFF 		bl	stream_trigger.part.0
 322              	.LVL33:
 323              	.LBE323:
 324              	.LBE322:
 325              		.loc 1 108 0
 326 0032 18B9     		cbnz	r0, .L62
 327              		.loc 1 117 0
 328 0034 0DF5117D 		add	sp, sp, #580
 329              		.cfi_remember_state
 330              		.cfi_def_cfa_offset 36
 331              		@ sp needed
 332 0038 BDE8F08F 		pop	{r4, r5, r6, r7, r8, r9, r10, fp, pc}
 333              	.L62:
 334              		.cfi_restore_state
 335              	.LVL34:
 336              	.LBB324:
 337              	.LBB325:
 338              	.LBB326:
 339              	.LBB327:
 340              	.LBB328:
 341              	.LBB329:
 342              	.LBB330:
ARM GAS  /tmp/cc7uye1Q.s 			page 7


 343              		.file 3 "/home/maciek/ChibiOS_16.1.5/os/ext/CMSIS/include/core_cmFunc.h"
 344              		.loc 3 548 0
 345 003c 2023     		movs	r3, #32
 346              	@ 548 "/home/maciek/ChibiOS_16.1.5/os/ext/CMSIS/include/core_cmFunc.h" 1
 347 003e 83F31188 		MSR basepri, r3
 348              	@ 0 "" 2
 349              		.thumb
 350              	.LBE330:
 351              	.LBE329:
 352              	.LBE328:
 353              	.LBE327:
 354              	.LBB331:
 355              	.LBB332:
 356              		.file 4 "/home/maciek/ChibiOS_16.1.5/os/rt/include/chvt.h"
 357              		.loc 4 231 0
 358 0042 674B     		ldr	r3, .L66+4
 359              	.LBE332:
 360              	.LBE331:
 361              	.LBB334:
 362              	.LBB335:
 363              	.LBB336:
 364              	.LBB337:
 365              	.LBB338:
 366              		.loc 3 548 0
 367 0044 4FF00008 		mov	r8, #0
 368              	.LBE338:
 369              	.LBE337:
 370              	.LBE336:
 371              	.LBE335:
 372              	.LBE334:
 373              	.LBB343:
 374              	.LBB333:
 375              		.loc 4 231 0
 376 0048 DC8B     		ldrh	r4, [r3, #30]
 377 004a A6B2     		uxth	r6, r4
 378              	.LVL35:
 379              	.LBE333:
 380              	.LBE343:
 381              	.LBB344:
 382              	.LBB342:
 383              	.LBB341:
 384              	.LBB340:
 385              	.LBB339:
 386              		.loc 3 548 0
 387              	@ 548 "/home/maciek/ChibiOS_16.1.5/os/ext/CMSIS/include/core_cmFunc.h" 1
 388 004c 88F31188 		MSR basepri, r8
 389              	@ 0 "" 2
 390              		.thumb
 391              	.LBE339:
 392              	.LBE340:
 393              	.LBE341:
 394              	.LBE342:
 395              	.LBE344:
 396              	.LBE326:
 397              	.LBE325:
 398              		.loc 1 111 0
 399 0050 644D     		ldr	r5, .L66+8
ARM GAS  /tmp/cc7uye1Q.s 			page 8


 400              		.loc 1 110 0
 401 0052 4FF4FA64 		mov	r4, #2000
 402              		.loc 1 111 0
 403 0056 2868     		ldr	r0, [r5]	@ unaligned
 404              		.loc 1 110 0
 405 0058 FFF7FEFF 		bl	__aeabi_f2iz
 406              	.LVL36:
 407              		.loc 1 111 0
 408 005c 6B68     		ldr	r3, [r5, #4]	@ unaligned
 409              		.loc 1 110 0
 410 005e 1FFA80FB 		uxth	fp, r0
 411 0062 1846     		mov	r0, r3
 412 0064 FFF7FEFF 		bl	__aeabi_f2iz
 413              	.LVL37:
 414              		.loc 1 111 0
 415 0068 AB68     		ldr	r3, [r5, #8]	@ unaligned
 416              		.loc 1 110 0
 417 006a 1FFA80FA 		uxth	r10, r0
 418 006e 1846     		mov	r0, r3
 419 0070 FFF7FEFF 		bl	__aeabi_f2iz
 420              	.LVL38:
 421              		.loc 1 112 0
 422 0074 EB68     		ldr	r3, [r5, #12]	@ unaligned
 423              		.loc 1 110 0
 424 0076 1FFA80F9 		uxth	r9, r0
 425 007a 1846     		mov	r0, r3
 426 007c FFF7FEFF 		bl	__aeabi_f2iz
 427              	.LVL39:
 428              		.loc 1 112 0
 429 0080 2B69     		ldr	r3, [r5, #16]	@ unaligned
 430              		.loc 1 110 0
 431 0082 82B2     		uxth	r2, r0
 432 0084 1846     		mov	r0, r3
 433 0086 0192     		str	r2, [sp, #4]
 434 0088 FFF7FEFF 		bl	__aeabi_f2iz
 435              	.LVL40:
 436 008c 04FB06F4 		mul	r4, r4, r6
 437              		.loc 1 112 0
 438 0090 6B69     		ldr	r3, [r5, #20]	@ unaligned
 439              		.loc 1 110 0
 440 0092 554D     		ldr	r5, .L66+12
 441 0094 04F2E734 		addw	r4, r4, #999
 442 0098 A5FB0424 		umull	r2, r4, r5, r4
 443 009c 81B2     		uxth	r1, r0
 444 009e A409     		lsrs	r4, r4, #6
 445 00a0 1846     		mov	r0, r3
 446 00a2 0091     		str	r1, [sp]
 447 00a4 A4B2     		uxth	r4, r4
 448 00a6 FFF7FEFF 		bl	__aeabi_f2iz
 449              	.LVL41:
 450 00aa 0025     		movs	r5, #0
 451              	.LBB345:
 452              	.LBB346:
 453              		.file 5 "mavlink/common/./mavlink_msg_raw_imu.h"
 454              		.loc 5 81 0
 455 00ac 90AB     		add	r3, sp, #576
 456              	.LBE346:
ARM GAS  /tmp/cc7uye1Q.s 			page 9


 457              	.LBE345:
 458              		.loc 1 110 0
 459 00ae 63E98E45 		strd	r4, [r3, #-568]!
 460              	.LBB412:
 461              	.LBB406:
 462              		.loc 5 92 0
 463 00b2 4EAC     		add	r4, sp, #312
 464 00b4 9E46     		mov	lr, r3
 465 00b6 2746     		mov	r7, r4
 466              		.loc 5 85 0
 467 00b8 019A     		ldr	r2, [sp, #4]
 468              		.loc 5 86 0
 469 00ba 0099     		ldr	r1, [sp]
 470              		.loc 5 82 0
 471 00bc A3F808B0 		strh	fp, [r3, #8]	@ movhi
 472              		.loc 5 83 0
 473 00c0 A3F80AA0 		strh	r10, [r3, #10]	@ movhi
 474              		.loc 5 84 0
 475 00c4 A3F80C90 		strh	r9, [r3, #12]	@ movhi
 476              		.loc 5 88 0
 477 00c8 A3F81480 		strh	r8, [r3, #20]	@ movhi
 478              		.loc 5 89 0
 479 00cc A3F81680 		strh	r8, [r3, #22]	@ movhi
 480              		.loc 5 90 0
 481 00d0 A3F81880 		strh	r8, [r3, #24]	@ movhi
 482              		.loc 5 85 0
 483 00d4 DA81     		strh	r2, [r3, #14]	@ movhi
 484              		.loc 5 86 0
 485 00d6 1982     		strh	r1, [r3, #16]	@ movhi
 486              		.loc 5 87 0
 487 00d8 5882     		strh	r0, [r3, #18]	@ movhi
 488              		.loc 5 92 0
 489 00da BEE80F00 		ldmia	lr!, {r0, r1, r2, r3}
 490              	.LVL42:
 491 00de 0FC7     		stmia	r7!, {r0, r1, r2, r3}
 492 00e0 9EE80700 		ldmia	lr, {r0, r1, r2}
 493              	.LBB347:
 494              	.LBB348:
 495              	.LBB349:
 496              		.file 6 "mavlink/common/../mavlink_helpers.h"
 497              		.loc 6 81 0
 498 00e4 414B     		ldr	r3, .L66+16
 499              	.LBE349:
 500              	.LBE348:
 501              	.LBE347:
 502              		.loc 5 92 0
 503 00e6 03C7     		stmia	r7!, {r0, r1}
 504              	.LBB396:
 505              	.LBB386:
 506              	.LBB376:
 507              		.loc 6 81 0
 508 00e8 9979     		ldrb	r1, [r3, #6]	@ zero_extendqisi2
 509              	.LBE376:
 510              	.LBE386:
 511              	.LBE396:
 512              		.loc 5 92 0
 513 00ea 0DF5987E 		add	lr, sp, #304
ARM GAS  /tmp/cc7uye1Q.s 			page 10


 514              	.LVL43:
 515              	.LBB397:
 516              	.LBB387:
 517              	.LBB377:
 518              		.loc 6 77 0
 519 00ee 4FF01A0C 		mov	ip, #26
 520              	.LBE377:
 521              	.LBE387:
 522              	.LBE397:
 523              		.loc 5 95 0
 524 00f2 4FF01B0B 		mov	fp, #27
 525              	.LVL44:
 526              	.LBB398:
 527              	.LBB388:
 528              	.LBB378:
 529              		.loc 6 76 0
 530 00f6 4FF0FE0A 		mov	r10, #254
 531              	.LVL45:
 532              		.loc 6 78 0
 533 00fa 4FF01409 		mov	r9, #20
 534              	.LVL46:
 535              		.loc 6 79 0
 536 00fe 4FF09A08 		mov	r8, #154
 537              		.loc 6 82 0
 538 0102 481C     		adds	r0, r1, #1
 539              	.LBE378:
 540              	.LBE388:
 541              	.LBE398:
 542              		.loc 5 92 0
 543 0104 3A80     		strh	r2, [r7]	@ movhi
 544              	.LBB399:
 545              	.LBB389:
 546              	.LBB379:
 547              		.loc 6 82 0
 548 0106 9871     		strb	r0, [r3, #6]
 549 0108 6546     		mov	r5, ip
 550              	.LBB350:
 551              	.LBB351:
 552              	.LBB352:
 553              	.LBB353:
 554              		.file 7 "mavlink/common/../checksum.h"
 555              		.loc 7 53 0
 556 010a 4FF6FF76 		movw	r6, #65535
 557              	.LVL47:
 558              	.LBE353:
 559              	.LBE352:
 560              	.LBE351:
 561              	.LBE350:
 562              	.LBE379:
 563              	.LBE389:
 564              	.LBE399:
 565              		.loc 5 95 0
 566 010e 8EF807B0 		strb	fp, [lr, #7]
 567              	.LVL48:
 568              	.LBB400:
 569              	.LBB390:
 570              	.LBB380:
ARM GAS  /tmp/cc7uye1Q.s 			page 11


 571              		.loc 6 76 0
 572 0112 8EF802A0 		strb	r10, [lr, #2]
 573              		.loc 6 78 0
 574 0116 8EF80590 		strb	r9, [lr, #5]
 575              		.loc 6 79 0
 576 011a 8EF80680 		strb	r8, [lr, #6]
 577              	.LVL49:
 578              		.loc 6 77 0
 579 011e 8EF803C0 		strb	ip, [lr, #3]
 580              		.loc 6 81 0
 581 0122 8EF80410 		strb	r1, [lr, #4]
 582              	.LVL50:
 583 0126 0DF23313 		addw	r3, sp, #307
 584              	.LVL51:
 585 012a 0DF23712 		addw	r2, sp, #311
 586 012e 01E0     		b	.L41
 587              	.LVL52:
 588              	.L63:
 589 0130 13F8015F 		ldrb	r5, [r3, #1]!	@ zero_extendqisi2
 590              	.LVL53:
 591              	.L41:
 592              	.LBB361:
 593              	.LBB360:
 594              	.LBB354:
 595              	.LBB355:
 596              		.loc 7 39 0
 597 0134 7540     		eors	r5, r5, r6
 598              	.LVL54:
 599              		.loc 7 40 0
 600 0136 85EA0515 		eor	r5, r5, r5, lsl #4
 601              	.LVL55:
 602 013a EDB2     		uxtb	r5, r5
 603              	.LVL56:
 604              		.loc 7 41 0
 605 013c 360A     		lsrs	r6, r6, #8
 606              	.LVL57:
 607 013e 86EA1516 		eor	r6, r6, r5, lsr #4
 608 0142 46EA0526 		orr	r6, r6, r5, lsl #8
 609              	.LBE355:
 610              	.LBE354:
 611              		.loc 7 68 0
 612 0146 9342     		cmp	r3, r2
 613              	.LBB358:
 614              	.LBB356:
 615              		.loc 7 41 0
 616 0148 86EAC506 		eor	r6, r6, r5, lsl #3
 617              	.LVL58:
 618              	.LBE356:
 619              	.LBE358:
 620              		.loc 7 68 0
 621 014c F0D1     		bne	.L63
 622              	.LBB359:
 623              	.LBB357:
 624              		.loc 7 41 0
 625 014e 3746     		mov	r7, r6
 626              	.LBE357:
 627              	.LBE359:
ARM GAS  /tmp/cc7uye1Q.s 			page 12


 628              	.LBE360:
 629              	.LBE361:
 630              		.loc 6 83 0
 631 0150 AEF80060 		strh	r6, [lr]	@ movhi
 632              	.LVL59:
 633 0154 0DF5A975 		add	r5, sp, #338
 634              	.LVL60:
 635              	.L42:
 636              	.LBB362:
 637              	.LBB363:
 638              	.LBB364:
 639              	.LBB365:
 640              		.loc 7 39 0
 641 0158 14F8013B 		ldrb	r3, [r4], #1	@ zero_extendqisi2
 642              	.LVL61:
 643              		.loc 7 41 0
 644 015c 3A0A     		lsrs	r2, r7, #8
 645              		.loc 7 39 0
 646 015e 7B40     		eors	r3, r3, r7
 647              	.LVL62:
 648              		.loc 7 40 0
 649 0160 83EA0313 		eor	r3, r3, r3, lsl #4
 650              	.LVL63:
 651 0164 DBB2     		uxtb	r3, r3
 652              	.LVL64:
 653 0166 82EA1312 		eor	r2, r2, r3, lsr #4
 654 016a 82EA0322 		eor	r2, r2, r3, lsl #8
 655              		.loc 7 41 0
 656 016e 82EAC303 		eor	r3, r2, r3, lsl #3
 657              	.LVL65:
 658 0172 9FB2     		uxth	r7, r3
 659              	.LVL66:
 660              	.LBE365:
 661              	.LBE364:
 662              		.loc 7 87 0
 663 0174 AC42     		cmp	r4, r5
 664              	.LBB367:
 665              	.LBB366:
 666              		.loc 7 41 0
 667 0176 AEF80070 		strh	r7, [lr]	@ movhi
 668              	.LVL67:
 669              	.LBE366:
 670              	.LBE367:
 671              		.loc 7 87 0
 672 017a EDD1     		bne	.L42
 673              	.LVL68:
 674              	.LBE363:
 675              	.LBE362:
 676              	.LBE380:
 677              	.LBE390:
 678              	.LBE400:
 679              	.LBE406:
 680              	.LBE412:
 681              	.LBB413:
 682              	.LBB414:
 683              		.loc 6 176 0
 684 017c DDF83201 		ldr	r0, [sp, #306]	@ unaligned
ARM GAS  /tmp/cc7uye1Q.s 			page 13


 685 0180 DDF83611 		ldr	r1, [sp, #310]	@ unaligned
 686 0184 DDF83A21 		ldr	r2, [sp, #314]	@ unaligned
 687 0188 DDF83E31 		ldr	r3, [sp, #318]	@ unaligned
 688 018c 0AAC     		add	r4, sp, #40
 689              	.LVL69:
 690 018e 0FC4     		stmia	r4!, {r0, r1, r2, r3}
 691              	.LBE414:
 692              	.LBE413:
 693              	.LBB417:
 694              	.LBB407:
 695              	.LBB401:
 696              	.LBB391:
 697              	.LBB381:
 698              	.LBB368:
 699              	.LBB369:
 700              		.loc 7 39 0
 701 0190 87F09005 		eor	r5, r7, #144
 702              	.LVL70:
 703              		.loc 7 40 0
 704 0194 85EA0515 		eor	r5, r5, r5, lsl #4
 705              	.LVL71:
 706 0198 EDB2     		uxtb	r5, r5
 707              	.LVL72:
 708              	.LBE369:
 709              	.LBE368:
 710              	.LBE381:
 711              	.LBE391:
 712              	.LBE401:
 713              	.LBE407:
 714              	.LBE417:
 715              	.LBB418:
 716              	.LBB415:
 717              		.loc 6 176 0
 718 019a DDF84201 		ldr	r0, [sp, #322]	@ unaligned
 719 019e DDF84611 		ldr	r1, [sp, #326]	@ unaligned
 720 01a2 DDF84A21 		ldr	r2, [sp, #330]	@ unaligned
 721 01a6 DDF84E31 		ldr	r3, [sp, #334]	@ unaligned
 722              	.LBE415:
 723              	.LBE418:
 724              	.LBB419:
 725              	.LBB408:
 726              	.LBB402:
 727              	.LBB392:
 728              	.LBB382:
 729              	.LBB373:
 730              	.LBB370:
 731              		.loc 7 41 0
 732 01aa 3F0A     		lsrs	r7, r7, #8
 733 01ac 87EA1517 		eor	r7, r7, r5, lsr #4
 734              	.LBE370:
 735              	.LBE373:
 736              	.LBE382:
 737              	.LBE392:
 738              	.LBE402:
 739              	.LBE408:
 740              	.LBE419:
 741              	.LBB420:
ARM GAS  /tmp/cc7uye1Q.s 			page 14


 742              	.LBB416:
 743              		.loc 6 176 0
 744 01b0 0FC4     		stmia	r4!, {r0, r1, r2, r3}
 745 01b2 87EA0527 		eor	r7, r7, r5, lsl #8
 746              	.LBE416:
 747              	.LBE420:
 748              	.LBB421:
 749              	.LBB409:
 750              	.LBB403:
 751              	.LBB393:
 752              	.LBB383:
 753              	.LBB374:
 754              	.LBB371:
 755              		.loc 7 41 0
 756 01b6 87EAC503 		eor	r3, r7, r5, lsl #3
 757              	.LBE371:
 758              	.LBE374:
 759              	.LBE383:
 760              	.LBE393:
 761              	.LBE403:
 762              	.LBE409:
 763              	.LBE421:
 764              		.loc 1 115 0
 765 01ba 0D48     		ldr	r0, .L66+20
 766              	.LBB422:
 767              	.LBB410:
 768              	.LBB404:
 769              	.LBB394:
 770              	.LBB384:
 771              	.LBB375:
 772              	.LBB372:
 773              		.loc 7 41 0
 774 01bc 9BB2     		uxth	r3, r3
 775              	.LVL73:
 776              	.LBE372:
 777              	.LBE375:
 778              		.loc 6 89 0
 779 01be 190A     		lsrs	r1, r3, #8
 780              	.LBE384:
 781              	.LBE394:
 782              	.LBE404:
 783              	.LBE410:
 784              	.LBE422:
 785              		.loc 1 115 0
 786 01c0 0268     		ldr	r2, [r0]
 787              	.LBB423:
 788              	.LBB411:
 789              	.LBB405:
 790              	.LBB395:
 791              	.LBB385:
 792              		.loc 6 89 0
 793 01c2 8DF84910 		strb	r1, [sp, #73]
 794              		.loc 6 88 0
 795 01c6 8DF84830 		strb	r3, [sp, #72]
 796              	.LBE385:
 797              	.LBE395:
 798              	.LBE405:
ARM GAS  /tmp/cc7uye1Q.s 			page 15


 799              	.LBE411:
 800              	.LBE423:
 801              		.loc 1 115 0
 802 01ca 1368     		ldr	r3, [r2]
 803 01cc 0AA9     		add	r1, sp, #40
 804              	.LVL74:
 805 01ce 2222     		movs	r2, #34
 806 01d0 9847     		blx	r3
 807              	.LVL75:
 808              	.LBE324:
 809              		.loc 1 117 0
 810 01d2 0DF5117D 		add	sp, sp, #580
 811              		.cfi_remember_state
 812              		.cfi_def_cfa_offset 36
 813              	.LVL76:
 814              		@ sp needed
 815 01d6 BDE8F08F 		pop	{r4, r5, r6, r7, r8, r9, r10, fp, pc}
 816              	.LVL77:
 817              	.L67:
 818 01da 00BF     		.align	2
 819              	.L66:
 820 01dc 00000000 		.word	.LANCHOR0
 821 01e0 00000000 		.word	ch
 822 01e4 00000000 		.word	g_IMU1
 823 01e8 D34D6210 		.word	274877907
 824 01ec 00000000 		.word	.LANCHOR2
 825 01f0 00000000 		.word	SD4
 826              	.LVL78:
 827              	.L61:
 828              		.cfi_restore_state
 829              	.LBB424:
 830              	.LBB425:
 831              	.LBB426:
 832              		.file 8 "misc.h"
 833              		.loc 8 102 0
 834 01f4 DFF89883 		ldr	r8, .L68+20
 835 01f8 D8F86050 		ldr	r5, [r8, #96]	@ unaligned
 836 01fc 2946     		mov	r1, r5
 837 01fe 2846     		mov	r0, r5
 838 0200 FFF7FEFF 		bl	__aeabi_fmul
 839              	.LVL79:
 840              		.loc 8 104 0
 841 0204 D8F86440 		ldr	r4, [r8, #100]	@ unaligned
 842              		.loc 8 102 0
 843 0208 8146     		mov	r9, r0
 844              	.LVL80:
 845              		.loc 8 104 0
 846 020a 2146     		mov	r1, r4
 847 020c 2046     		mov	r0, r4
 848              	.LVL81:
 849 020e FFF7FEFF 		bl	__aeabi_fmul
 850              	.LVL82:
 851 0212 0146     		mov	r1, r0
 852 0214 4846     		mov	r0, r9
 853 0216 FFF7FEFF 		bl	__aeabi_fadd
 854              	.LVL83:
 855 021a 0146     		mov	r1, r0
ARM GAS  /tmp/cc7uye1Q.s 			page 16


 856 021c FFF7FEFF 		bl	__aeabi_fadd
 857              	.LVL84:
 858 0220 0146     		mov	r1, r0
 859 0222 4FF07E50 		mov	r0, #1065353216
 860 0226 FFF7FEFF 		bl	__aeabi_fsub
 861              	.LVL85:
 862              		.loc 8 105 0
 863 022a D8F858A0 		ldr	r10, [r8, #88]	@ unaligned
 864              		.loc 8 104 0
 865 022e 0090     		str	r0, [sp]	@ float
 866              	.LVL86:
 867              		.loc 8 105 0
 868 0230 5146     		mov	r1, r10
 869 0232 2046     		mov	r0, r4
 870              	.LVL87:
 871 0234 FFF7FEFF 		bl	__aeabi_fmul
 872              	.LVL88:
 873 0238 D8F85C60 		ldr	r6, [r8, #92]	@ unaligned
 874 023c 0746     		mov	r7, r0
 875 023e 3146     		mov	r1, r6
 876 0240 2846     		mov	r0, r5
 877 0242 FFF7FEFF 		bl	__aeabi_fmul
 878              	.LVL89:
 879 0246 0146     		mov	r1, r0
 880 0248 3846     		mov	r0, r7
 881 024a FFF7FEFF 		bl	__aeabi_fadd
 882              	.LVL90:
 883 024e 0146     		mov	r1, r0
 884 0250 FFF7FEFF 		bl	__aeabi_fadd
 885              	.LVL91:
 886              		.loc 8 106 0
 887 0254 5146     		mov	r1, r10
 888              		.loc 8 105 0
 889 0256 8346     		mov	fp, r0
 890              	.LVL92:
 891              		.loc 8 106 0
 892 0258 2846     		mov	r0, r5
 893              	.LVL93:
 894 025a FFF7FEFF 		bl	__aeabi_fmul
 895              	.LVL94:
 896 025e 3146     		mov	r1, r6
 897 0260 0746     		mov	r7, r0
 898 0262 2046     		mov	r0, r4
 899 0264 FFF7FEFF 		bl	__aeabi_fmul
 900              	.LVL95:
 901 0268 0146     		mov	r1, r0
 902 026a 3846     		mov	r0, r7
 903 026c FFF7FEFF 		bl	__aeabi_fsub
 904              	.LVL96:
 905 0270 0146     		mov	r1, r0
 906 0272 FFF7FEFF 		bl	__aeabi_fadd
 907              	.LVL97:
 908              		.loc 8 107 0
 909 0276 3146     		mov	r1, r6
 910              		.loc 8 106 0
 911 0278 0746     		mov	r7, r0
 912              	.LVL98:
ARM GAS  /tmp/cc7uye1Q.s 			page 17


 913              		.loc 8 107 0
 914 027a 5046     		mov	r0, r10
 915              	.LVL99:
 916 027c FFF7FEFF 		bl	__aeabi_fmul
 917              	.LVL100:
 918 0280 2146     		mov	r1, r4
 919 0282 0190     		str	r0, [sp, #4]
 920 0284 2846     		mov	r0, r5
 921 0286 FFF7FEFF 		bl	__aeabi_fmul
 922              	.LVL101:
 923 028a 019B     		ldr	r3, [sp, #4]
 924 028c 0146     		mov	r1, r0
 925 028e 1846     		mov	r0, r3
 926 0290 FFF7FEFF 		bl	__aeabi_fadd
 927              	.LVL102:
 928 0294 0146     		mov	r1, r0
 929 0296 FFF7FEFF 		bl	__aeabi_fadd
 930              	.LVL103:
 931              		.loc 8 108 0
 932 029a 3146     		mov	r1, r6
 933              		.loc 8 107 0
 934 029c 0546     		mov	r5, r0
 935              	.LVL104:
 936              		.loc 8 108 0
 937 029e 3046     		mov	r0, r6
 938              	.LVL105:
 939 02a0 FFF7FEFF 		bl	__aeabi_fmul
 940              	.LVL106:
 941 02a4 0146     		mov	r1, r0
 942 02a6 4846     		mov	r0, r9
 943 02a8 FFF7FEFF 		bl	__aeabi_fadd
 944              	.LVL107:
 945 02ac 0146     		mov	r1, r0
 946 02ae FFF7FEFF 		bl	__aeabi_fadd
 947              	.LVL108:
 948 02b2 0146     		mov	r1, r0
 949 02b4 4FF07E50 		mov	r0, #1065353216
 950 02b8 FFF7FEFF 		bl	__aeabi_fsub
 951              	.LVL109:
 952 02bc 4FF07E51 		mov	r1, #1065353216
 953 02c0 0446     		mov	r4, r0
 954              	.LVL110:
 955 02c2 3846     		mov	r0, r7
 956              	.LVL111:
 957 02c4 FFF7FEFF 		bl	__aeabi_fcmpgt
 958              	.LVL112:
 959 02c8 0028     		cmp	r0, #0
 960 02ca 40F0C180 		bne	.L32
 961 02ce 3846     		mov	r0, r7
 962 02d0 AA49     		ldr	r1, .L68
 963 02d2 FFF7FEFF 		bl	__aeabi_fcmplt
 964              	.LVL113:
 965 02d6 0028     		cmp	r0, #0
 966 02d8 40F0BA80 		bne	.L32
 967              	.L33:
 968              		.loc 8 111 0
 969 02dc 0099     		ldr	r1, [sp]	@ float
ARM GAS  /tmp/cc7uye1Q.s 			page 18


 970 02de 5846     		mov	r0, fp
 971 02e0 FFF7FEFF 		bl	atan2f
 972              	.LVL114:
 973              		.loc 8 112 0
 974 02e4 2846     		mov	r0, r5
 975 02e6 2146     		mov	r1, r4
 976 02e8 FFF7FEFF 		bl	atan2f
 977              	.LVL115:
 978              	.LBE426:
 979              	.LBE425:
 980              	.LBB428:
 981              	.LBB429:
 982              	.LBB430:
 983              	.LBB431:
 984              	.LBB432:
 985              	.LBB433:
 986              		.loc 3 548 0
 987 02ec 2023     		movs	r3, #32
 988              	@ 548 "/home/maciek/ChibiOS_16.1.5/os/ext/CMSIS/include/core_cmFunc.h" 1
 989 02ee 83F31188 		MSR basepri, r3
 990              	@ 0 "" 2
 991              		.thumb
 992              	.LBE433:
 993              	.LBE432:
 994              	.LBE431:
 995              	.LBE430:
 996              	.LBB434:
 997              	.LBB435:
 998              		.loc 4 231 0
 999 02f2 A34B     		ldr	r3, .L68+4
 1000              	.LBE435:
 1001              	.LBE434:
 1002              	.LBB437:
 1003              	.LBB438:
 1004              	.LBB439:
 1005              	.LBB440:
 1006              	.LBB441:
 1007              		.loc 3 548 0
 1008 02f4 0021     		movs	r1, #0
 1009              	.LBE441:
 1010              	.LBE440:
 1011              	.LBE439:
 1012              	.LBE438:
 1013              	.LBE437:
 1014              	.LBB446:
 1015              	.LBB436:
 1016              		.loc 4 231 0
 1017 02f6 DB8B     		ldrh	r3, [r3, #30]
 1018 02f8 9AB2     		uxth	r2, r3
 1019              	.LVL116:
 1020              	.LBE436:
 1021              	.LBE446:
 1022              	.LBB447:
 1023              	.LBB445:
 1024              	.LBB444:
 1025              	.LBB443:
 1026              	.LBB442:
ARM GAS  /tmp/cc7uye1Q.s 			page 19


 1027              		.loc 3 548 0
 1028              	@ 548 "/home/maciek/ChibiOS_16.1.5/os/ext/CMSIS/include/core_cmFunc.h" 1
 1029 02fa 81F31188 		MSR basepri, r1
 1030              	@ 0 "" 2
 1031              		.thumb
 1032              	.LBE442:
 1033              	.LBE443:
 1034              	.LBE444:
 1035              	.LBE445:
 1036              	.LBE447:
 1037              	.LBE429:
 1038              	.LBE428:
 1039              	.LBB448:
 1040              	.LBB449:
 1041              		.file 9 "mavlink/common/./mavlink_msg_attitude.h"
 1042              		.loc 9 77 0
 1043 02fe 4EAC     		add	r4, sp, #312
 1044              	.LVL117:
 1045 0300 2746     		mov	r7, r4
 1046              	.LVL118:
 1047              	.LBE449:
 1048              	.LBE448:
 1049              		.loc 1 98 0
 1050 0302 4FF4FA63 		mov	r3, #2000
 1051 0306 03FB02F3 		mul	r3, r3, r2
 1052 030a 9E4A     		ldr	r2, .L68+8
 1053 030c 03F2E733 		addw	r3, r3, #999
 1054 0310 A2FB0323 		umull	r2, r3, r2, r3
 1055 0314 D8F85C90 		ldr	r9, [r8, #92]	@ unaligned
 1056              	.LVL119:
 1057 0318 D8F85800 		ldr	r0, [r8, #88]	@ unaligned
 1058 031c D8F86010 		ldr	r1, [r8, #96]	@ unaligned
 1059              	.LVL120:
 1060              	.LBB493:
 1061              	.LBB490:
 1062              		.loc 9 73 0
 1063 0320 0022     		movs	r2, #0
 1064              	.LBE490:
 1065              	.LBE493:
 1066              		.loc 1 98 0
 1067 0322 C3F38F13 		ubfx	r3, r3, #6, #16
 1068              	.LBB494:
 1069              	.LBB491:
 1070              		.loc 9 70 0
 1071 0326 CDF80C90 		str	r9, [sp, #12]	@ float
 1072              		.loc 9 69 0
 1073 032a 0293     		str	r3, [sp, #8]
 1074              		.loc 9 71 0
 1075 032c 0490     		str	r0, [sp, #16]	@ float
 1076              		.loc 9 72 0
 1077 032e 0591     		str	r1, [sp, #20]	@ float
 1078              		.loc 9 73 0
 1079 0330 0692     		str	r2, [sp, #24]	@ float
 1080              		.loc 9 74 0
 1081 0332 0792     		str	r2, [sp, #28]	@ float
 1082              		.loc 9 75 0
 1083 0334 0892     		str	r2, [sp, #32]	@ float
ARM GAS  /tmp/cc7uye1Q.s 			page 20


 1084              		.loc 9 77 0
 1085 0336 0DF1080E 		add	lr, sp, #8
 1086 033a BEE80F00 		ldmia	lr!, {r0, r1, r2, r3}
 1087              	.LVL121:
 1088 033e 0FC7     		stmia	r7!, {r0, r1, r2, r3}
 1089 0340 9EE80700 		ldmia	lr, {r0, r1, r2}
 1090              	.LBB450:
 1091              	.LBB451:
 1092              	.LBB452:
 1093              		.loc 6 81 0
 1094 0344 904B     		ldr	r3, .L68+12
 1095              	.LBE452:
 1096              	.LBE451:
 1097              	.LBE450:
 1098              		.loc 9 77 0
 1099 0346 87E80700 		stmia	r7, {r0, r1, r2}
 1100              	.LBB485:
 1101              	.LBB480:
 1102              	.LBB475:
 1103              		.loc 6 81 0
 1104 034a 9A79     		ldrb	r2, [r3, #6]	@ zero_extendqisi2
 1105              	.LBE475:
 1106              	.LBE480:
 1107              	.LBE485:
 1108              		.loc 9 77 0
 1109 034c 0DF5987E 		add	lr, sp, #304
 1110              	.LVL122:
 1111              	.LBB486:
 1112              	.LBB481:
 1113              	.LBB476:
 1114              		.loc 6 82 0
 1115 0350 511C     		adds	r1, r2, #1
 1116              		.loc 6 77 0
 1117 0352 4FF01C0C 		mov	ip, #28
 1118              	.LBE476:
 1119              	.LBE481:
 1120              	.LBE486:
 1121              		.loc 9 80 0
 1122 0356 4FF01E09 		mov	r9, #30
 1123              	.LVL123:
 1124              	.LBB487:
 1125              	.LBB482:
 1126              	.LBB477:
 1127              		.loc 6 76 0
 1128 035a 4FF0FE08 		mov	r8, #254
 1129              		.loc 6 78 0
 1130 035e 1427     		movs	r7, #20
 1131              		.loc 6 79 0
 1132 0360 9A20     		movs	r0, #154
 1133              		.loc 6 81 0
 1134 0362 8EF80420 		strb	r2, [lr, #4]
 1135              		.loc 6 82 0
 1136 0366 9971     		strb	r1, [r3, #6]
 1137 0368 6546     		mov	r5, ip
 1138              	.LVL124:
 1139              	.LBB453:
 1140              	.LBB454:
ARM GAS  /tmp/cc7uye1Q.s 			page 21


 1141              	.LBB455:
 1142              	.LBB456:
 1143              		.loc 7 53 0
 1144 036a 4FF6FF76 		movw	r6, #65535
 1145              	.LBE456:
 1146              	.LBE455:
 1147              	.LBE454:
 1148              	.LBE453:
 1149              	.LBE477:
 1150              	.LBE482:
 1151              	.LBE487:
 1152              		.loc 9 80 0
 1153 036e 8EF80790 		strb	r9, [lr, #7]
 1154              	.LVL125:
 1155              	.LBB488:
 1156              	.LBB483:
 1157              	.LBB478:
 1158              		.loc 6 76 0
 1159 0372 8EF80280 		strb	r8, [lr, #2]
 1160              		.loc 6 78 0
 1161 0376 8EF80570 		strb	r7, [lr, #5]
 1162              		.loc 6 79 0
 1163 037a 8EF80600 		strb	r0, [lr, #6]
 1164              	.LVL126:
 1165              		.loc 6 77 0
 1166 037e 8EF803C0 		strb	ip, [lr, #3]
 1167 0382 0DF23312 		addw	r2, sp, #307
 1168              	.LVL127:
 1169 0386 0DF23711 		addw	r1, sp, #311
 1170 038a 01E0     		b	.L36
 1171              	.LVL128:
 1172              	.L64:
 1173 038c 12F8015F 		ldrb	r5, [r2, #1]!	@ zero_extendqisi2
 1174              	.LVL129:
 1175              	.L36:
 1176              	.LBB464:
 1177              	.LBB463:
 1178              	.LBB457:
 1179              	.LBB458:
 1180              		.loc 7 39 0
 1181 0390 85EA0603 		eor	r3, r5, r6
 1182              	.LVL130:
 1183              		.loc 7 40 0
 1184 0394 83EA0313 		eor	r3, r3, r3, lsl #4
 1185              	.LVL131:
 1186 0398 DBB2     		uxtb	r3, r3
 1187              	.LVL132:
 1188              		.loc 7 41 0
 1189 039a 360A     		lsrs	r6, r6, #8
 1190              	.LVL133:
 1191 039c 86EA1316 		eor	r6, r6, r3, lsr #4
 1192 03a0 46EA0326 		orr	r6, r6, r3, lsl #8
 1193              	.LBE458:
 1194              	.LBE457:
 1195              		.loc 7 68 0
 1196 03a4 8A42     		cmp	r2, r1
 1197              	.LBB461:
ARM GAS  /tmp/cc7uye1Q.s 			page 22


 1198              	.LBB459:
 1199              		.loc 7 41 0
 1200 03a6 86EAC306 		eor	r6, r6, r3, lsl #3
 1201              	.LVL134:
 1202              	.LBE459:
 1203              	.LBE461:
 1204              		.loc 7 68 0
 1205 03aa EFD1     		bne	.L64
 1206              	.LBB462:
 1207              	.LBB460:
 1208              		.loc 7 41 0
 1209 03ac 3346     		mov	r3, r6
 1210              	.LVL135:
 1211              	.LBE460:
 1212              	.LBE462:
 1213              	.LBE463:
 1214              	.LBE464:
 1215              		.loc 6 83 0
 1216 03ae AEF80060 		strh	r6, [lr]	@ movhi
 1217              	.LVL136:
 1218 03b2 55A8     		add	r0, sp, #340
 1219              	.LVL137:
 1220              	.L37:
 1221              	.LBB465:
 1222              	.LBB466:
 1223              	.LBB467:
 1224              	.LBB468:
 1225              		.loc 7 39 0
 1226 03b4 14F8012B 		ldrb	r2, [r4], #1	@ zero_extendqisi2
 1227              	.LVL138:
 1228              		.loc 7 41 0
 1229 03b8 190A     		lsrs	r1, r3, #8
 1230              		.loc 7 39 0
 1231 03ba 5340     		eors	r3, r3, r2
 1232              	.LVL139:
 1233              		.loc 7 40 0
 1234 03bc 83EA0313 		eor	r3, r3, r3, lsl #4
 1235              	.LVL140:
 1236 03c0 DBB2     		uxtb	r3, r3
 1237              	.LVL141:
 1238 03c2 81EA1312 		eor	r2, r1, r3, lsr #4
 1239 03c6 82EA0322 		eor	r2, r2, r3, lsl #8
 1240              		.loc 7 41 0
 1241 03ca 82EAC303 		eor	r3, r2, r3, lsl #3
 1242              	.LVL142:
 1243 03ce 9BB2     		uxth	r3, r3
 1244              	.LBE468:
 1245              	.LBE467:
 1246              		.loc 7 87 0
 1247 03d0 8442     		cmp	r4, r0
 1248              	.LBB470:
 1249              	.LBB469:
 1250              		.loc 7 41 0
 1251 03d2 AEF80030 		strh	r3, [lr]	@ movhi
 1252              	.LVL143:
 1253              	.LBE469:
 1254              	.LBE470:
ARM GAS  /tmp/cc7uye1Q.s 			page 23


 1255              		.loc 7 87 0
 1256 03d6 EDD1     		bne	.L37
 1257              	.LVL144:
 1258              	.LBE466:
 1259              	.LBE465:
 1260              	.LBE478:
 1261              	.LBE483:
 1262              	.LBE488:
 1263              	.LBE491:
 1264              	.LBE494:
 1265              	.LBB495:
 1266              	.LBB496:
 1267              		.loc 6 176 0
 1268 03d8 0AAE     		add	r6, sp, #40
 1269              	.LVL145:
 1270 03da 3746     		mov	r7, r6
 1271              	.LBE496:
 1272              	.LBE495:
 1273              	.LBB500:
 1274              	.LBB492:
 1275              	.LBB489:
 1276              	.LBB484:
 1277              	.LBB479:
 1278              	.LBB471:
 1279              	.LBB472:
 1280              		.loc 7 39 0
 1281 03dc 83F02702 		eor	r2, r3, #39
 1282              	.LVL146:
 1283              		.loc 7 40 0
 1284 03e0 82EA0212 		eor	r2, r2, r2, lsl #4
 1285              	.LVL147:
 1286 03e4 D2B2     		uxtb	r2, r2
 1287              	.LVL148:
 1288              		.loc 7 41 0
 1289 03e6 1B0A     		lsrs	r3, r3, #8
 1290 03e8 83EA1213 		eor	r3, r3, r2, lsr #4
 1291 03ec 83EA0223 		eor	r3, r3, r2, lsl #8
 1292 03f0 83EAC203 		eor	r3, r3, r2, lsl #3
 1293 03f4 9BB2     		uxth	r3, r3
 1294 03f6 9AB2     		uxth	r2, r3
 1295              	.LVL149:
 1296              	.LBE472:
 1297              	.LBE471:
 1298              		.loc 6 89 0
 1299 03f8 4FEA1228 		lsr	r8, r2, #8
 1300              		.loc 6 88 0
 1301 03fc DCB2     		uxtb	r4, r3
 1302              	.LVL150:
 1303              	.LBB474:
 1304              	.LBB473:
 1305              		.loc 7 41 0
 1306 03fe AEF80020 		strh	r2, [lr]	@ movhi
 1307              	.LBE473:
 1308              	.LBE474:
 1309              		.loc 6 89 0
 1310 0402 8EF82580 		strb	r8, [lr, #37]
 1311              	.LVL151:
ARM GAS  /tmp/cc7uye1Q.s 			page 24


 1312              		.loc 6 88 0
 1313 0406 8EF82440 		strb	r4, [lr, #36]
 1314              	.LBE479:
 1315              	.LBE484:
 1316              	.LBE489:
 1317              	.LBE492:
 1318              	.LBE500:
 1319              	.LBB501:
 1320              	.LBB497:
 1321              		.loc 6 176 0
 1322 040a 0DF5A975 		add	r5, sp, #338
 1323              	.LVL152:
 1324 040e 0DF5997E 		add	lr, sp, #306
 1325              	.LVL153:
 1326              	.L38:
 1327 0412 BC46     		mov	ip, r7
 1328 0414 DEF80000 		ldr	r0, [lr]	@ unaligned
 1329 0418 DEF80410 		ldr	r1, [lr, #4]	@ unaligned
 1330 041c DEF80820 		ldr	r2, [lr, #8]	@ unaligned
 1331 0420 DEF80C30 		ldr	r3, [lr, #12]	@ unaligned
 1332 0424 0EF1100E 		add	lr, lr, #16
 1333 0428 AE45     		cmp	lr, r5
 1334 042a 07F11007 		add	r7, r7, #16
 1335 042e ACE80F00 		stmia	ip!, {r0, r1, r2, r3}
 1336 0432 EED1     		bne	.L38
 1337              	.LBE497:
 1338              	.LBE501:
 1339              		.loc 1 101 0
 1340 0434 5548     		ldr	r0, .L68+16
 1341              	.LBB502:
 1342              	.LBB498:
 1343              		.loc 6 176 0
 1344 0436 BEF80020 		ldrh	r2, [lr]	@ unaligned
 1345              	.LBE498:
 1346              	.LBE502:
 1347              		.loc 1 101 0
 1348 043a 0368     		ldr	r3, [r0]
 1349              	.LBB503:
 1350              	.LBB499:
 1351              		.loc 6 176 0
 1352 043c 3A80     		strh	r2, [r7]	@ unaligned
 1353              	.LVL154:
 1354              		.loc 6 180 0
 1355 043e 86F82240 		strb	r4, [r6, #34]
 1356              		.loc 6 181 0
 1357 0442 86F82380 		strb	r8, [r6, #35]
 1358              	.LBE499:
 1359              	.LBE503:
 1360              		.loc 1 101 0
 1361 0446 3146     		mov	r1, r6
 1362 0448 1B68     		ldr	r3, [r3]
 1363 044a 2422     		movs	r2, #36
 1364 044c 9847     		blx	r3
 1365              	.LVL155:
 1366 044e EAE5     		b	.L31
 1367              	.LVL156:
 1368              	.L32:
ARM GAS  /tmp/cc7uye1Q.s 			page 25


 1369              	.LBB504:
 1370              	.LBB427:
 1371              		.loc 8 110 0
 1372 0450 3846     		mov	r0, r7
 1373 0452 FFF7FEFF 		bl	asinf
 1374              	.LVL157:
 1375 0456 41E7     		b	.L33
 1376              	.LVL158:
 1377              	.L60:
 1378              	.LBE427:
 1379              	.LBE504:
 1380              	.LBE424:
 1381              	.LBB505:
 1382              	.LBB506:
 1383              	.LBB507:
 1384              		.file 10 "mavlink/common/./mavlink_msg_heartbeat.h"
 1385              		.loc 10 71 0
 1386 0458 4EAC     		add	r4, sp, #312
 1387 045a 2746     		mov	r7, r4
 1388              		.loc 10 65 0
 1389 045c 4FF01A0E 		mov	lr, #26
 1390              		.loc 10 64 0
 1391 0460 0AAE     		add	r6, sp, #40
 1392 0462 4FF0000C 		mov	ip, #0
 1393              		.loc 10 67 0
 1394 0466 C220     		movs	r0, #194
 1395              		.loc 10 68 0
 1396 0468 0421     		movs	r1, #4
 1397              		.loc 10 69 0
 1398 046a 0322     		movs	r2, #3
 1399              		.loc 10 65 0
 1400 046c 86F804E0 		strb	lr, [r6, #4]
 1401              	.LBB508:
 1402              	.LBB509:
 1403              	.LBB510:
 1404              		.loc 6 81 0
 1405 0470 DFF81491 		ldr	r9, .L68+12
 1406              	.LBE510:
 1407              	.LBE509:
 1408              	.LBE508:
 1409              		.loc 10 67 0
 1410 0474 B071     		strb	r0, [r6, #6]
 1411              		.loc 10 68 0
 1412 0476 F171     		strb	r1, [r6, #7]
 1413              		.loc 10 69 0
 1414 0478 3272     		strb	r2, [r6, #8]
 1415              		.loc 10 64 0
 1416 047a C6F800C0 		str	ip, [r6]
 1417              		.loc 10 66 0
 1418 047e 86F805C0 		strb	ip, [r6, #5]
 1419              		.loc 10 71 0
 1420 0482 96E80700 		ldmia	r6, {r0, r1, r2}
 1421 0486 03C7     		stmia	r7!, {r0, r1}
 1422              	.LBB545:
 1423              	.LBB539:
 1424              	.LBB533:
 1425              		.loc 6 81 0
ARM GAS  /tmp/cc7uye1Q.s 			page 26


 1426 0488 99F806A0 		ldrb	r10, [r9, #6]	@ zero_extendqisi2
 1427              	.LBE533:
 1428              	.LBE539:
 1429              	.LBE545:
 1430              		.loc 10 71 0
 1431 048c 0DF5987E 		add	lr, sp, #304
 1432              	.LVL159:
 1433              	.LBB546:
 1434              	.LBB540:
 1435              	.LBB534:
 1436              		.loc 6 77 0
 1437 0490 4FF00908 		mov	r8, #9
 1438              		.loc 6 79 0
 1439 0494 9A21     		movs	r1, #154
 1440              		.loc 6 76 0
 1441 0496 4FF0FE0B 		mov	fp, #254
 1442              		.loc 6 78 0
 1443 049a 1420     		movs	r0, #20
 1444              	.LBE534:
 1445              	.LBE540:
 1446              	.LBE546:
 1447              		.loc 10 71 0
 1448 049c 3A70     		strb	r2, [r7]
 1449              	.LBB547:
 1450              	.LBB541:
 1451              	.LBB535:
 1452              		.loc 6 82 0
 1453 049e 0AF10102 		add	r2, r10, #1
 1454              		.loc 6 79 0
 1455 04a2 8EF80610 		strb	r1, [lr, #6]
 1456              		.loc 6 82 0
 1457 04a6 89F80620 		strb	r2, [r9, #6]
 1458 04aa 4346     		mov	r3, r8
 1459              	.LBB511:
 1460              	.LBB512:
 1461              	.LBB513:
 1462              	.LBB514:
 1463              		.loc 7 53 0
 1464 04ac 4FF6FF75 		movw	r5, #65535
 1465              	.LBE514:
 1466              	.LBE513:
 1467              	.LBE512:
 1468              	.LBE511:
 1469              	.LBE535:
 1470              	.LBE541:
 1471              	.LBE547:
 1472              		.loc 10 74 0
 1473 04b0 8EF807C0 		strb	ip, [lr, #7]
 1474              	.LVL160:
 1475              	.LBB548:
 1476              	.LBB542:
 1477              	.LBB536:
 1478              		.loc 6 76 0
 1479 04b4 8EF802B0 		strb	fp, [lr, #2]
 1480              		.loc 6 78 0
 1481 04b8 8EF80500 		strb	r0, [lr, #5]
 1482              		.loc 6 81 0
ARM GAS  /tmp/cc7uye1Q.s 			page 27


 1483 04bc 8EF804A0 		strb	r10, [lr, #4]
 1484              	.LVL161:
 1485              		.loc 6 77 0
 1486 04c0 8EF80380 		strb	r8, [lr, #3]
 1487 04c4 0DF23312 		addw	r2, sp, #307
 1488              	.LVL162:
 1489 04c8 0DF23711 		addw	r1, sp, #311
 1490 04cc 01E0     		b	.L29
 1491              	.LVL163:
 1492              	.L65:
 1493 04ce 12F8013F 		ldrb	r3, [r2, #1]!	@ zero_extendqisi2
 1494              	.LVL164:
 1495              	.L29:
 1496              	.LBB522:
 1497              	.LBB521:
 1498              	.LBB515:
 1499              	.LBB516:
 1500              		.loc 7 39 0
 1501 04d2 6B40     		eors	r3, r3, r5
 1502              	.LVL165:
 1503              		.loc 7 40 0
 1504 04d4 83EA0313 		eor	r3, r3, r3, lsl #4
 1505              	.LVL166:
 1506 04d8 DBB2     		uxtb	r3, r3
 1507              	.LVL167:
 1508              		.loc 7 41 0
 1509 04da 2D0A     		lsrs	r5, r5, #8
 1510              	.LVL168:
 1511 04dc 85EA1315 		eor	r5, r5, r3, lsr #4
 1512 04e0 45EA0325 		orr	r5, r5, r3, lsl #8
 1513              	.LBE516:
 1514              	.LBE515:
 1515              		.loc 7 68 0
 1516 04e4 8A42     		cmp	r2, r1
 1517              	.LBB519:
 1518              	.LBB517:
 1519              		.loc 7 41 0
 1520 04e6 85EAC305 		eor	r5, r5, r3, lsl #3
 1521              	.LVL169:
 1522              	.LBE517:
 1523              	.LBE519:
 1524              		.loc 7 68 0
 1525 04ea F0D1     		bne	.L65
 1526              	.LBB520:
 1527              	.LBB518:
 1528              		.loc 7 41 0
 1529 04ec 2B46     		mov	r3, r5
 1530              	.LVL170:
 1531              	.LBE518:
 1532              	.LBE520:
 1533              	.LBE521:
 1534              	.LBE522:
 1535              		.loc 6 83 0
 1536 04ee AEF80050 		strh	r5, [lr]	@ movhi
 1537              	.LVL171:
 1538 04f2 0DF24110 		addw	r0, sp, #321
 1539              	.LVL172:
ARM GAS  /tmp/cc7uye1Q.s 			page 28


 1540              	.L30:
 1541              	.LBB523:
 1542              	.LBB524:
 1543              	.LBB525:
 1544              	.LBB526:
 1545              		.loc 7 39 0
 1546 04f6 14F8012B 		ldrb	r2, [r4], #1	@ zero_extendqisi2
 1547              	.LVL173:
 1548              		.loc 7 41 0
 1549 04fa 190A     		lsrs	r1, r3, #8
 1550              		.loc 7 39 0
 1551 04fc 5340     		eors	r3, r3, r2
 1552              	.LVL174:
 1553              		.loc 7 40 0
 1554 04fe 83EA0313 		eor	r3, r3, r3, lsl #4
 1555              	.LVL175:
 1556 0502 DBB2     		uxtb	r3, r3
 1557              	.LVL176:
 1558 0504 81EA1312 		eor	r2, r1, r3, lsr #4
 1559 0508 82EA0322 		eor	r2, r2, r3, lsl #8
 1560              		.loc 7 41 0
 1561 050c 82EAC303 		eor	r3, r2, r3, lsl #3
 1562              	.LVL177:
 1563 0510 9BB2     		uxth	r3, r3
 1564              	.LBE526:
 1565              	.LBE525:
 1566              		.loc 7 87 0
 1567 0512 8442     		cmp	r4, r0
 1568              	.LBB528:
 1569              	.LBB527:
 1570              		.loc 7 41 0
 1571 0514 AEF80030 		strh	r3, [lr]	@ movhi
 1572              	.LVL178:
 1573              	.LBE527:
 1574              	.LBE528:
 1575              		.loc 7 87 0
 1576 0518 EDD1     		bne	.L30
 1577              	.LVL179:
 1578              	.LBE524:
 1579              	.LBE523:
 1580              	.LBE536:
 1581              	.LBE542:
 1582              	.LBE548:
 1583              	.LBE507:
 1584              	.LBE506:
 1585              	.LBB553:
 1586              	.LBB554:
 1587              		.loc 6 176 0
 1588 051a 3446     		mov	r4, r6
 1589              	.LVL180:
 1590              	.LBE554:
 1591              	.LBE553:
 1592              	.LBB558:
 1593              	.LBB551:
 1594              	.LBB549:
 1595              	.LBB543:
 1596              	.LBB537:
ARM GAS  /tmp/cc7uye1Q.s 			page 29


 1597              	.LBB529:
 1598              	.LBB530:
 1599              		.loc 7 39 0
 1600 051c 83F03202 		eor	r2, r3, #50
 1601              	.LVL181:
 1602              		.loc 7 40 0
 1603 0520 82EA0212 		eor	r2, r2, r2, lsl #4
 1604              	.LVL182:
 1605 0524 D2B2     		uxtb	r2, r2
 1606              	.LVL183:
 1607              		.loc 7 41 0
 1608 0526 1B0A     		lsrs	r3, r3, #8
 1609 0528 83EA1213 		eor	r3, r3, r2, lsr #4
 1610 052c 83EA0223 		eor	r3, r3, r2, lsl #8
 1611 0530 83EAC203 		eor	r3, r3, r2, lsl #3
 1612 0534 9BB2     		uxth	r3, r3
 1613 0536 9DB2     		uxth	r5, r3
 1614              	.LVL184:
 1615              	.LBE530:
 1616              	.LBE529:
 1617              		.loc 6 89 0
 1618 0538 4FEA152C 		lsr	ip, r5, #8
 1619              		.loc 6 88 0
 1620 053c DBB2     		uxtb	r3, r3
 1621 053e 8EF81130 		strb	r3, [lr, #17]
 1622              		.loc 6 89 0
 1623 0542 8EF812C0 		strb	ip, [lr, #18]
 1624              	.LVL185:
 1625              	.LBE537:
 1626              	.LBE543:
 1627              	.LBE549:
 1628              	.LBE551:
 1629              	.LBE558:
 1630              	.LBB559:
 1631              	.LBB555:
 1632              		.loc 6 176 0
 1633 0546 DDF83611 		ldr	r1, [sp, #310]	@ unaligned
 1634 054a DDF83A21 		ldr	r2, [sp, #314]	@ unaligned
 1635              	.LVL186:
 1636 054e DDF83201 		ldr	r0, [sp, #306]	@ unaligned
 1637              	.LBE555:
 1638              	.LBE559:
 1639              		.loc 1 92 0
 1640 0552 0E4F     		ldr	r7, .L68+16
 1641              	.LVL187:
 1642              	.LBB560:
 1643              	.LBB556:
 1644              		.loc 6 176 0
 1645 0554 07C4     		stmia	r4!, {r0, r1, r2}
 1646 0556 BDF83E01 		ldrh	r0, [sp, #318]	@ unaligned
 1647 055a 9DF84011 		ldrb	r1, [sp, #320]	@ zero_extendqisi2
 1648              	.LBE556:
 1649              	.LBE560:
 1650              		.loc 1 92 0
 1651 055e 3A68     		ldr	r2, [r7]
 1652              	.LBB561:
 1653              	.LBB557:
ARM GAS  /tmp/cc7uye1Q.s 			page 30


 1654              		.loc 6 176 0
 1655 0560 2080     		strh	r0, [r4]	@ unaligned
 1656 0562 A170     		strb	r1, [r4, #2]
 1657              	.LVL188:
 1658              		.loc 6 181 0
 1659 0564 86F810C0 		strb	ip, [r6, #16]
 1660              		.loc 6 180 0
 1661 0568 F373     		strb	r3, [r6, #15]
 1662              	.LBE557:
 1663              	.LBE561:
 1664              		.loc 1 92 0
 1665 056a 1368     		ldr	r3, [r2]
 1666 056c 3146     		mov	r1, r6
 1667 056e 3846     		mov	r0, r7
 1668 0570 1122     		movs	r2, #17
 1669              	.LBB562:
 1670              	.LBB552:
 1671              	.LBB550:
 1672              	.LBB544:
 1673              	.LBB538:
 1674              	.LBB532:
 1675              	.LBB531:
 1676              		.loc 7 41 0
 1677 0572 AEF80050 		strh	r5, [lr]	@ movhi
 1678              	.LBE531:
 1679              	.LBE532:
 1680              	.LBE538:
 1681              	.LBE544:
 1682              	.LBE550:
 1683              	.LBE552:
 1684              	.LBE562:
 1685              		.loc 1 92 0
 1686 0576 9847     		blx	r3
 1687              	.LVL189:
 1688 0578 4FE5     		b	.L27
 1689              	.L69:
 1690 057a 00BF     		.align	2
 1691              	.L68:
 1692 057c 000080BF 		.word	-1082130432
 1693 0580 00000000 		.word	ch
 1694 0584 D34D6210 		.word	274877907
 1695 0588 00000000 		.word	.LANCHOR2
 1696 058c 00000000 		.word	SD4
 1697 0590 00000000 		.word	g_IMU1
 1698              	.LBE505:
 1699              		.cfi_endproc
 1700              	.LFE1705:
 1701              		.size	handleStream, .-handleStream
 1702              		.global	__aeabi_fcmpeq
 1703              		.section	.text.readMavlinkChannel,"ax",%progbits
 1704              		.align	2
 1705              		.p2align 4,,15
 1706              		.global	readMavlinkChannel
 1707              		.thumb
 1708              		.thumb_func
 1709              		.type	readMavlinkChannel, %function
 1710              	readMavlinkChannel:
ARM GAS  /tmp/cc7uye1Q.s 			page 31


 1711              	.LFB1706:
 1712              		.loc 1 119 0
 1713              		.cfi_startproc
 1714              		@ args = 0, pretend = 0, frame = 48
 1715              		@ frame_needed = 0, uses_anonymous_args = 0
 1716 0000 2DE9F04F 		push	{r4, r5, r6, r7, r8, r9, r10, fp, lr}
 1717              		.cfi_def_cfa_offset 36
 1718              		.cfi_offset 4, -36
 1719              		.cfi_offset 5, -32
 1720              		.cfi_offset 6, -28
 1721              		.cfi_offset 7, -24
 1722              		.cfi_offset 8, -20
 1723              		.cfi_offset 9, -16
 1724              		.cfi_offset 10, -12
 1725              		.cfi_offset 11, -8
 1726              		.cfi_offset 14, -4
 1727              		.loc 1 121 0
 1728 0004 BB48     		ldr	r0, .L125
 1729 0006 BC4F     		ldr	r7, .L125+4
 1730 0008 0368     		ldr	r3, [r0]
 1731              		.loc 1 119 0
 1732 000a 8DB0     		sub	sp, sp, #52
 1733              		.cfi_def_cfa_offset 88
 1734              		.loc 1 121 0
 1735 000c DC69     		ldr	r4, [r3, #28]
 1736 000e 3946     		mov	r1, r7
 1737 0010 4022     		movs	r2, #64
 1738 0012 0A23     		movs	r3, #10
 1739 0014 A047     		blx	r4
 1740              	.LVL190:
 1741 0016 C0B2     		uxtb	r0, r0
 1742              	.LVL191:
 1743              		.loc 1 124 0
 1744 0018 0028     		cmp	r0, #0
 1745 001a 00F08D80 		beq	.L70
 1746 001e 431E     		subs	r3, r0, #1
 1747 0020 DBB2     		uxtb	r3, r3
 1748 0022 B64C     		ldr	r4, .L125+8
 1749 0024 B64E     		ldr	r6, .L125+12
 1750 0026 B74D     		ldr	r5, .L125+16
 1751 0028 07EB030A 		add	r10, r7, r3
 1752 002c 07F1FF38 		add	r8, r7, #-1
 1753              	.LVL192:
 1754              	.L106:
 1755              	.LBB606:
 1756              	.LBB607:
 1757              	.LBB608:
 1758              	.LBB609:
 1759              	.LBB610:
 1760              		.loc 6 274 0
 1761 0030 E378     		ldrb	r3, [r4, #3]	@ zero_extendqisi2
 1762              		.loc 6 272 0
 1763 0032 0022     		movs	r2, #0
 1764 0034 2270     		strb	r2, [r4]
 1765              	.LBE610:
 1766              	.LBE609:
 1767              	.LBE608:
ARM GAS  /tmp/cc7uye1Q.s 			page 32


 1768              	.LBE607:
 1769              	.LBE606:
 1770              		.loc 1 125 0
 1771 0036 18F8019F 		ldrb	r9, [r8, #1]!	@ zero_extendqisi2
 1772              	.LVL193:
 1773              	.LBB712:
 1774              	.LBB708:
 1775              	.LBB692:
 1776              	.LBB686:
 1777              	.LBB680:
 1778              		.loc 6 274 0
 1779 003a 0A2B     		cmp	r3, #10
 1780 003c 00F29980 		bhi	.L72
 1781 0040 DFE813F0 		tbh	[pc, r3, lsl #1]
 1782              	.L74:
 1783 0044 F400     		.2byte	(.L73-.L74)/2
 1784 0046 F400     		.2byte	(.L73-.L74)/2
 1785 0048 DF00     		.2byte	(.L75-.L74)/2
 1786 004a 0E01     		.2byte	(.L76-.L74)/2
 1787 004c FB00     		.2byte	(.L77-.L74)/2
 1788 004e B100     		.2byte	(.L78-.L74)/2
 1789 0050 9C00     		.2byte	(.L79-.L74)/2
 1790 0052 C400     		.2byte	(.L80-.L74)/2
 1791 0054 7D00     		.2byte	(.L81-.L74)/2
 1792 0056 0B00     		.2byte	(.L82-.L74)/2
 1793 0058 0B00     		.2byte	(.L82-.L74)/2
 1794              		.p2align 1
 1795              	.L82:
 1796              		.loc 6 373 0
 1797 005a 0A2B     		cmp	r3, #10
 1798 005c 04D0     		beq	.L89
 1799 005e 3388     		ldrh	r3, [r6]
 1800 0060 B9EB132F 		cmp	r9, r3, lsr #8
 1801 0064 00F03C81 		beq	.L90
 1802              	.L89:
 1803              		.loc 6 375 0
 1804 0068 0227     		movs	r7, #2
 1805 006a 2770     		strb	r7, [r4]
 1806              	.L91:
 1807              		.loc 6 381 0
 1808 006c 94F804E0 		ldrb	lr, [r4, #4]	@ zero_extendqisi2
 1809 0070 A34B     		ldr	r3, .L125+12
 1810 0072 B644     		add	lr, lr, r6
 1811              		.loc 6 380 0
 1812 0074 4FF0010C 		mov	ip, #1
 1813              		.loc 6 382 0
 1814 0078 1946     		mov	r1, r3
 1815 007a A348     		ldr	r0, .L125+20
 1816 007c 4FF48872 		mov	r2, #272
 1817              		.loc 6 381 0
 1818 0080 8EF80990 		strb	r9, [lr, #9]
 1819              		.loc 6 380 0
 1820 0084 84F803C0 		strb	ip, [r4, #3]
 1821              		.loc 6 382 0
 1822 0088 0193     		str	r3, [sp, #4]
 1823 008a FFF7FEFF 		bl	memcpy
 1824              	.LVL194:
ARM GAS  /tmp/cc7uye1Q.s 			page 33


 1825              		.loc 6 388 0
 1826 008e 012F     		cmp	r7, #1
 1827              		.loc 6 380 0
 1828 0090 DFF868B2 		ldr	fp, .L125+8
 1829              		.loc 6 388 0
 1830 0094 019B     		ldr	r3, [sp, #4]
 1831 0096 6DD1     		bne	.L108
 1832              		.loc 6 395 0
 1833 0098 1A79     		ldrb	r2, [r3, #4]	@ zero_extendqisi2
 1834              		.loc 6 397 0
 1835 009a BBF80810 		ldrh	r1, [fp, #8]
 1836              		.loc 6 395 0
 1837 009e 8BF80520 		strb	r2, [fp, #5]
 1838              		.loc 6 397 0
 1839 00a2 09B9     		cbnz	r1, .L94
 1840 00a4 ABF80A10 		strh	r1, [fp, #10]	@ movhi
 1841              	.L94:
 1842              		.loc 6 399 0
 1843 00a8 0131     		adds	r1, r1, #1
 1844 00aa 89B2     		uxth	r1, r1
 1845 00ac E378     		ldrb	r3, [r4, #3]	@ zero_extendqisi2
 1846 00ae 2181     		strh	r1, [r4, #8]	@ movhi
 1847              	.L93:
 1848              		.loc 6 407 0
 1849 00b0 A078     		ldrb	r0, [r4, #2]	@ zero_extendqisi2
 1850              		.loc 6 405 0
 1851 00b2 0132     		adds	r2, r2, #1
 1852              		.loc 6 402 0
 1853 00b4 96F803C0 		ldrb	ip, [r6, #3]	@ zero_extendqisi2
 1854              		.loc 6 404 0
 1855 00b8 94F804E0 		ldrb	lr, [r4, #4]	@ zero_extendqisi2
 1856              		.loc 6 403 0
 1857 00bc EB70     		strb	r3, [r5, #3]
 1858              		.loc 6 402 0
 1859 00be 924B     		ldr	r3, .L125+20
 1860              		.loc 6 405 0
 1861 00c0 6A71     		strb	r2, [r5, #5]
 1862              		.loc 6 410 0
 1863 00c2 022F     		cmp	r7, #2
 1864              		.loc 6 408 0
 1865 00c4 4FF00002 		mov	r2, #0
 1866              		.loc 6 406 0
 1867 00c8 2981     		strh	r1, [r5, #8]	@ movhi
 1868              		.loc 6 402 0
 1869 00ca 83F803C0 		strb	ip, [r3, #3]
 1870              		.loc 6 407 0
 1871 00ce 6881     		strh	r0, [r5, #10]	@ movhi
 1872              		.loc 6 404 0
 1873 00d0 85F804E0 		strb	lr, [r5, #4]
 1874              		.loc 6 402 0
 1875 00d4 1846     		mov	r0, r3
 1876              		.loc 6 408 0
 1877 00d6 A270     		strb	r2, [r4, #2]
 1878              		.loc 6 402 0
 1879 00d8 8949     		ldr	r1, .L125+12
 1880              		.loc 6 404 0
 1881 00da 884B     		ldr	r3, .L125+8
ARM GAS  /tmp/cc7uye1Q.s 			page 34


 1882              		.loc 6 410 0
 1883 00dc 00F0D380 		beq	.L120
 1884              	.LBE680:
 1885              	.LBE686:
 1886              	.LBE692:
 1887              	.LBE708:
 1888              	.LBE712:
 1889              		.loc 1 125 0
 1890 00e0 3FB3     		cbz	r7, .L98
 1891              		.loc 1 126 0
 1892 00e2 C379     		ldrb	r3, [r0, #7]	@ zero_extendqisi2
 1893 00e4 422B     		cmp	r3, #66
 1894 00e6 00F0E280 		beq	.L99
 1895 00ea 4C2B     		cmp	r3, #76
 1896 00ec 21D1     		bne	.L98
 1897              	.LVL195:
 1898              	.LBB713:
 1899              	.LBB714:
 1900              	.LBB715:
 1901              		.file 11 "mavlink/common/./mavlink_msg_command_long.h"
 1902              		.loc 11 447 0
 1903 00ee 00F10807 		add	r7, r0, #8
 1904 00f2 0DF10C0E 		add	lr, sp, #12
 1905              	.LVL196:
 1906 00f6 0FCF     		ldmia	r7!, {r0, r1, r2, r3}
 1907 00f8 AEE80F00 		stmia	lr!, {r0, r1, r2, r3}
 1908              	.LVL197:
 1909 00fc 0FCF     		ldmia	r7!, {r0, r1, r2, r3}
 1910 00fe AEE80F00 		stmia	lr!, {r0, r1, r2, r3}
 1911              	.LVL198:
 1912              	.LBE715:
 1913              	.LBE714:
 1914              		.loc 1 137 0
 1915 0102 BDF82830 		ldrh	r3, [sp, #40]
 1916              	.LBB718:
 1917              	.LBB716:
 1918              		.loc 11 447 0
 1919 0106 3A68     		ldr	r2, [r7]
 1920              	.LBE716:
 1921              	.LBE718:
 1922              		.loc 1 137 0
 1923 0108 CD2B     		cmp	r3, #205
 1924              	.LBB719:
 1925              	.LBB717:
 1926              		.loc 11 447 0
 1927 010a 8EF80020 		strb	r2, [lr]
 1928              	.LBE717:
 1929              	.LBE719:
 1930              		.loc 1 137 0
 1931 010e 10D1     		bne	.L98
 1932              		.loc 1 139 0
 1933 0110 099F     		ldr	r7, [sp, #36]	@ float
 1934 0112 4FF07E51 		mov	r1, #1065353216
 1935 0116 3846     		mov	r0, r7
 1936 0118 FFF7FEFF 		bl	__aeabi_fcmpeq
 1937              	.LVL199:
 1938 011c 0028     		cmp	r0, #0
ARM GAS  /tmp/cc7uye1Q.s 			page 35


 1939 011e 40F0D980 		bne	.L121
 1940              		.loc 1 141 0
 1941 0122 3846     		mov	r0, r7
 1942 0124 4FF08041 		mov	r1, #1073741824
 1943 0128 FFF7FEFF 		bl	__aeabi_fcmpeq
 1944              	.LVL200:
 1945 012c 0028     		cmp	r0, #0
 1946 012e 40F0DB80 		bne	.L122
 1947              	.LVL201:
 1948              	.L98:
 1949              	.LBE713:
 1950              		.loc 1 124 0 discriminator 2
 1951 0132 D045     		cmp	r8, r10
 1952 0134 7FF47CAF 		bne	.L106
 1953              	.LVL202:
 1954              	.L70:
 1955              		.loc 1 154 0
 1956 0138 0DB0     		add	sp, sp, #52
 1957              		.cfi_remember_state
 1958              		.cfi_def_cfa_offset 36
 1959              		@ sp needed
 1960 013a BDE8F08F 		pop	{r4, r5, r6, r7, r8, r9, r10, fp, pc}
 1961              	.LVL203:
 1962              	.L81:
 1963              		.cfi_restore_state
 1964              	.LBB720:
 1965              	.LBB709:
 1966              	.LBB693:
 1967              	.LBB687:
 1968              	.LBB681:
 1969              		.loc 6 361 0
 1970 013e F279     		ldrb	r2, [r6, #7]	@ zero_extendqisi2
 1971 0140 7249     		ldr	r1, .L125+24
 1972              	.LBB611:
 1973              	.LBB612:
 1974              	.LBB613:
 1975              		.loc 7 39 0
 1976 0142 3388     		ldrh	r3, [r6]
 1977 0144 895C     		ldrb	r1, [r1, r2]	@ zero_extendqisi2
 1978              		.loc 7 41 0
 1979 0146 1A0A     		lsrs	r2, r3, #8
 1980              		.loc 7 39 0
 1981 0148 4B40     		eors	r3, r3, r1
 1982              	.LVL204:
 1983              		.loc 7 40 0
 1984 014a 83EA0313 		eor	r3, r3, r3, lsl #4
 1985              	.LVL205:
 1986 014e DBB2     		uxtb	r3, r3
 1987              	.LVL206:
 1988 0150 82EA1312 		eor	r2, r2, r3, lsr #4
 1989 0154 42EA0322 		orr	r2, r2, r3, lsl #8
 1990              		.loc 7 41 0
 1991 0158 82EAC303 		eor	r3, r2, r3, lsl #3
 1992              	.LVL207:
 1993              	.LBE613:
 1994              	.LBE612:
 1995              	.LBE611:
ARM GAS  /tmp/cc7uye1Q.s 			page 36


 1996              		.loc 6 363 0
 1997 015c DAB2     		uxtb	r2, r3
 1998 015e 9145     		cmp	r9, r2
 1999              	.LBB616:
 2000              	.LBB615:
 2001              	.LBB614:
 2002              		.loc 7 41 0
 2003 0160 3380     		strh	r3, [r6]	@ movhi
 2004              	.LVL208:
 2005              	.LBE614:
 2006              	.LBE615:
 2007              	.LBE616:
 2008              		.loc 6 364 0
 2009 0162 14BF     		ite	ne
 2010 0164 0A23     		movne	r3, #10
 2011              		.loc 6 366 0
 2012 0166 0923     		moveq	r3, #9
 2013 0168 E370     		strb	r3, [r4, #3]
 2014              		.loc 6 368 0
 2015 016a 2379     		ldrb	r3, [r4, #4]	@ zero_extendqisi2
 2016 016c 3344     		add	r3, r3, r6
 2017 016e 83F80890 		strb	r9, [r3, #8]
 2018              	.LVL209:
 2019              	.L72:
 2020              		.loc 6 274 0
 2021 0172 0027     		movs	r7, #0
 2022              	.LVL210:
 2023              	.L108:
 2024 0174 E378     		ldrb	r3, [r4, #3]	@ zero_extendqisi2
 2025 0176 6279     		ldrb	r2, [r4, #5]	@ zero_extendqisi2
 2026 0178 2189     		ldrh	r1, [r4, #8]
 2027 017a 99E7     		b	.L93
 2028              	.LVL211:
 2029              	.L79:
 2030              	.LBB617:
 2031              	.LBB618:
 2032              	.LBB619:
 2033              		.loc 7 39 0
 2034 017c 3388     		ldrh	r3, [r6]
 2035              	.LBE619:
 2036              	.LBE618:
 2037              	.LBE617:
 2038              		.loc 6 340 0
 2039 017e F178     		ldrb	r1, [r6, #3]	@ zero_extendqisi2
 2040              	.LBB624:
 2041              	.LBB622:
 2042              	.LBB620:
 2043              		.loc 7 39 0
 2044 0180 89EA0302 		eor	r2, r9, r3
 2045              		.loc 7 40 0
 2046 0184 82EA0212 		eor	r2, r2, r2, lsl #4
 2047 0188 D2B2     		uxtb	r2, r2
 2048              		.loc 7 41 0
 2049 018a 1B0A     		lsrs	r3, r3, #8
 2050 018c 83EA1213 		eor	r3, r3, r2, lsr #4
 2051 0190 43EA0223 		orr	r3, r3, r2, lsl #8
 2052 0194 83EAC203 		eor	r3, r3, r2, lsl #3
ARM GAS  /tmp/cc7uye1Q.s 			page 37


 2053              	.LBE620:
 2054              	.LBE622:
 2055              	.LBE624:
 2056              		.loc 6 338 0
 2057 0198 86F80790 		strb	r9, [r6, #7]
 2058              	.LVL212:
 2059              	.LBB625:
 2060              	.LBB623:
 2061              	.LBB621:
 2062              		.loc 7 41 0
 2063 019c 3380     		strh	r3, [r6]	@ movhi
 2064              	.LBE621:
 2065              	.LBE623:
 2066              	.LBE625:
 2067              		.loc 6 340 0
 2068 019e 69B3     		cbz	r1, .L86
 2069              	.LVL213:
 2070              		.loc 6 346 0
 2071 01a0 0723     		movs	r3, #7
 2072 01a2 E370     		strb	r3, [r4, #3]
 2073 01a4 E5E7     		b	.L72
 2074              	.LVL214:
 2075              	.L78:
 2076              	.LBB626:
 2077              	.LBB627:
 2078              	.LBB628:
 2079              		.loc 7 39 0
 2080 01a6 3388     		ldrh	r3, [r6]
 2081              	.LBE628:
 2082              	.LBE627:
 2083              	.LBE626:
 2084              		.loc 6 326 0
 2085 01a8 0621     		movs	r1, #6
 2086              	.LBB633:
 2087              	.LBB631:
 2088              	.LBB629:
 2089              		.loc 7 39 0
 2090 01aa 89EA0302 		eor	r2, r9, r3
 2091              		.loc 7 40 0
 2092 01ae 82EA0212 		eor	r2, r2, r2, lsl #4
 2093 01b2 D2B2     		uxtb	r2, r2
 2094              		.loc 7 41 0
 2095 01b4 1B0A     		lsrs	r3, r3, #8
 2096 01b6 83EA1213 		eor	r3, r3, r2, lsr #4
 2097 01ba 43EA0223 		orr	r3, r3, r2, lsl #8
 2098 01be 83EAC203 		eor	r3, r3, r2, lsl #3
 2099              	.LBE629:
 2100              	.LBE631:
 2101              	.LBE633:
 2102              		.loc 6 324 0
 2103 01c2 86F80690 		strb	r9, [r6, #6]
 2104              	.LVL215:
 2105              	.LBB634:
 2106              	.LBB632:
 2107              	.LBB630:
 2108              		.loc 7 41 0
 2109 01c6 3380     		strh	r3, [r6]	@ movhi
ARM GAS  /tmp/cc7uye1Q.s 			page 38


 2110              	.LBE630:
 2111              	.LBE632:
 2112              	.LBE634:
 2113              		.loc 6 326 0
 2114 01c8 E170     		strb	r1, [r4, #3]
 2115 01ca D2E7     		b	.L72
 2116              	.LVL216:
 2117              	.L80:
 2118              		.loc 6 351 0
 2119 01cc 2179     		ldrb	r1, [r4, #4]	@ zero_extendqisi2
 2120 01ce 7318     		adds	r3, r6, r1
 2121 01d0 83F80890 		strb	r9, [r3, #8]
 2122              	.LVL217:
 2123              	.LBB635:
 2124              	.LBB636:
 2125              	.LBB637:
 2126              		.loc 7 39 0
 2127 01d4 3388     		ldrh	r3, [r6]
 2128              	.LVL218:
 2129              	.LBE637:
 2130              	.LBE636:
 2131              	.LBE635:
 2132              		.loc 6 351 0
 2133 01d6 0131     		adds	r1, r1, #1
 2134              	.LVL219:
 2135              	.LBB644:
 2136              	.LBB641:
 2137              	.LBB638:
 2138              		.loc 7 39 0
 2139 01d8 89EA0302 		eor	r2, r9, r3
 2140              	.LVL220:
 2141              		.loc 7 40 0
 2142 01dc 82EA0212 		eor	r2, r2, r2, lsl #4
 2143              	.LVL221:
 2144 01e0 D2B2     		uxtb	r2, r2
 2145              	.LVL222:
 2146              		.loc 7 41 0
 2147 01e2 1B0A     		lsrs	r3, r3, #8
 2148 01e4 83EA1213 		eor	r3, r3, r2, lsr #4
 2149              	.LBE638:
 2150              	.LBE641:
 2151              	.LBE644:
 2152              		.loc 6 353 0
 2153 01e8 F078     		ldrb	r0, [r6, #3]	@ zero_extendqisi2
 2154              		.loc 6 351 0
 2155 01ea C9B2     		uxtb	r1, r1
 2156              	.LVL223:
 2157 01ec 43EA0223 		orr	r3, r3, r2, lsl #8
 2158              	.LBB645:
 2159              	.LBB642:
 2160              	.LBB639:
 2161              		.loc 7 41 0
 2162 01f0 83EAC203 		eor	r3, r3, r2, lsl #3
 2163              	.LBE639:
 2164              	.LBE642:
 2165              	.LBE645:
 2166              		.loc 6 353 0
ARM GAS  /tmp/cc7uye1Q.s 			page 39


 2167 01f4 8842     		cmp	r0, r1
 2168              		.loc 6 351 0
 2169 01f6 2171     		strb	r1, [r4, #4]
 2170              	.LBB646:
 2171              	.LBB643:
 2172              	.LBB640:
 2173              		.loc 7 41 0
 2174 01f8 3380     		strh	r3, [r6]	@ movhi
 2175              	.LVL224:
 2176              	.LBE640:
 2177              	.LBE643:
 2178              	.LBE646:
 2179              		.loc 6 353 0
 2180 01fa BAD1     		bne	.L72
 2181              	.LVL225:
 2182              	.L86:
 2183              		.loc 6 342 0
 2184 01fc 0823     		movs	r3, #8
 2185 01fe E370     		strb	r3, [r4, #3]
 2186 0200 B7E7     		b	.L72
 2187              	.L75:
 2188              	.LBB647:
 2189              	.LBB648:
 2190              	.LBB649:
 2191              		.loc 7 39 0
 2192 0202 3388     		ldrh	r3, [r6]
 2193              	.LBE649:
 2194              	.LBE648:
 2195              	.LBE647:
 2196              		.loc 6 305 0
 2197 0204 0021     		movs	r1, #0
 2198              	.LBB654:
 2199              	.LBB652:
 2200              	.LBB650:
 2201              		.loc 7 39 0
 2202 0206 89EA0302 		eor	r2, r9, r3
 2203              		.loc 7 40 0
 2204 020a 82EA0212 		eor	r2, r2, r2, lsl #4
 2205 020e D2B2     		uxtb	r2, r2
 2206              		.loc 7 41 0
 2207 0210 1B0A     		lsrs	r3, r3, #8
 2208 0212 83EA1213 		eor	r3, r3, r2, lsr #4
 2209 0216 43EA0223 		orr	r3, r3, r2, lsl #8
 2210 021a 83EAC203 		eor	r3, r3, r2, lsl #3
 2211              	.LBE650:
 2212              	.LBE652:
 2213              	.LBE654:
 2214              		.loc 6 307 0
 2215 021e 0422     		movs	r2, #4
 2216              		.loc 6 304 0
 2217 0220 86F80390 		strb	r9, [r6, #3]
 2218              	.LBB655:
 2219              	.LBB653:
 2220              	.LBB651:
 2221              		.loc 7 41 0
 2222 0224 3380     		strh	r3, [r6]	@ movhi
 2223              	.LBE651:
ARM GAS  /tmp/cc7uye1Q.s 			page 40


 2224              	.LBE653:
 2225              	.LBE655:
 2226              		.loc 6 305 0
 2227 0226 2171     		strb	r1, [r4, #4]
 2228              	.LVL226:
 2229              		.loc 6 307 0
 2230 0228 E270     		strb	r2, [r4, #3]
 2231 022a A2E7     		b	.L72
 2232              	.LVL227:
 2233              	.L73:
 2234              		.loc 6 278 0
 2235 022c B9F1FE0F 		cmp	r9, #254
 2236 0230 46D0     		beq	.L123
 2237              	.LVL228:
 2238 0232 6279     		ldrb	r2, [r4, #5]	@ zero_extendqisi2
 2239 0234 2189     		ldrh	r1, [r4, #8]
 2240              		.loc 6 388 0
 2241 0236 0027     		movs	r7, #0
 2242 0238 3AE7     		b	.L93
 2243              	.LVL229:
 2244              	.L77:
 2245              	.LBB656:
 2246              	.LBB657:
 2247              	.LBB658:
 2248              		.loc 7 39 0
 2249 023a 3388     		ldrh	r3, [r6]
 2250              	.LBE658:
 2251              	.LBE657:
 2252              	.LBE656:
 2253              		.loc 6 314 0
 2254 023c 0321     		movs	r1, #3
 2255              	.LBB663:
 2256              	.LBB661:
 2257              	.LBB659:
 2258              		.loc 7 39 0
 2259 023e 89EA0302 		eor	r2, r9, r3
 2260              		.loc 7 40 0
 2261 0242 82EA0212 		eor	r2, r2, r2, lsl #4
 2262 0246 D2B2     		uxtb	r2, r2
 2263              		.loc 7 41 0
 2264 0248 1B0A     		lsrs	r3, r3, #8
 2265 024a 83EA1213 		eor	r3, r3, r2, lsr #4
 2266 024e 43EA0223 		orr	r3, r3, r2, lsl #8
 2267 0252 83EAC203 		eor	r3, r3, r2, lsl #3
 2268              	.LBE659:
 2269              	.LBE661:
 2270              	.LBE663:
 2271              		.loc 6 312 0
 2272 0256 86F80490 		strb	r9, [r6, #4]
 2273              	.LVL230:
 2274              	.LBB664:
 2275              	.LBB662:
 2276              	.LBB660:
 2277              		.loc 7 41 0
 2278 025a 3380     		strh	r3, [r6]	@ movhi
 2279              	.LBE660:
 2280              	.LBE662:
ARM GAS  /tmp/cc7uye1Q.s 			page 41


 2281              	.LBE664:
 2282              		.loc 6 314 0
 2283 025c E170     		strb	r1, [r4, #3]
 2284 025e 88E7     		b	.L72
 2285              	.LVL231:
 2286              	.L76:
 2287              	.LBB665:
 2288              	.LBB666:
 2289              	.LBB667:
 2290              		.loc 7 39 0
 2291 0260 3388     		ldrh	r3, [r6]
 2292              	.LBE667:
 2293              	.LBE666:
 2294              	.LBE665:
 2295              		.loc 6 320 0
 2296 0262 0521     		movs	r1, #5
 2297              	.LBB672:
 2298              	.LBB670:
 2299              	.LBB668:
 2300              		.loc 7 39 0
 2301 0264 89EA0302 		eor	r2, r9, r3
 2302              		.loc 7 40 0
 2303 0268 82EA0212 		eor	r2, r2, r2, lsl #4
 2304 026c D2B2     		uxtb	r2, r2
 2305              		.loc 7 41 0
 2306 026e 1B0A     		lsrs	r3, r3, #8
 2307 0270 83EA1213 		eor	r3, r3, r2, lsr #4
 2308 0274 43EA0223 		orr	r3, r3, r2, lsl #8
 2309 0278 83EAC203 		eor	r3, r3, r2, lsl #3
 2310              	.LBE668:
 2311              	.LBE670:
 2312              	.LBE672:
 2313              		.loc 6 318 0
 2314 027c 86F80590 		strb	r9, [r6, #5]
 2315              	.LVL232:
 2316              	.LBB673:
 2317              	.LBB671:
 2318              	.LBB669:
 2319              		.loc 7 41 0
 2320 0280 3380     		strh	r3, [r6]	@ movhi
 2321              	.LBE669:
 2322              	.LBE671:
 2323              	.LBE673:
 2324              		.loc 6 320 0
 2325 0282 E170     		strb	r1, [r4, #3]
 2326 0284 75E7     		b	.L72
 2327              	.LVL233:
 2328              	.L120:
 2329              		.loc 6 418 0
 2330 0286 8E44     		add	lr, lr, r1
 2331 0288 9EF809B0 		ldrb	fp, [lr, #9]	@ zero_extendqisi2
 2332 028c 9EF808E0 		ldrb	lr, [lr, #8]	@ zero_extendqisi2
 2333              	.LBE681:
 2334              	.LBE687:
 2335              	.LBE693:
 2336              	.LBB694:
 2337              		.loc 6 522 0
ARM GAS  /tmp/cc7uye1Q.s 			page 42


 2338 0290 4FF0010C 		mov	ip, #1
 2339              	.LBE694:
 2340              	.LBB701:
 2341              	.LBB688:
 2342              	.LBB682:
 2343              		.loc 6 418 0
 2344 0294 4EEA0B2E 		orr	lr, lr, fp, lsl #8
 2345              	.LBE682:
 2346              	.LBE688:
 2347              	.LBE701:
 2348              	.LBB702:
 2349              		.loc 6 525 0
 2350 0298 B9F1FE0F 		cmp	r9, #254
 2351              		.loc 6 523 0
 2352 029c 1A70     		strb	r2, [r3]
 2353              	.LBE702:
 2354              	.LBB703:
 2355              	.LBB689:
 2356              	.LBB683:
 2357              		.loc 6 418 0
 2358 029e A0F800E0 		strh	lr, [r0]	@ movhi
 2359              	.LVL234:
 2360              	.LBE683:
 2361              	.LBE689:
 2362              	.LBE703:
 2363              	.LBB704:
 2364              		.loc 6 522 0
 2365 02a2 83F802C0 		strb	ip, [r3, #2]
 2366              		.loc 6 525 0
 2367 02a6 05D0     		beq	.L124
 2368              		.loc 6 524 0
 2369 02a8 83F803C0 		strb	ip, [r3, #3]
 2370 02ac 41E7     		b	.L98
 2371              	.LVL235:
 2372              	.L99:
 2373              	.LBE704:
 2374              	.LBE709:
 2375              	.LBE720:
 2376              		.loc 1 131 0
 2377 02ae FFF7FEFF 		bl	handle_requset_data_stream
 2378              	.LVL236:
 2379              		.loc 1 132 0
 2380 02b2 3EE7     		b	.L98
 2381              	.LVL237:
 2382              	.L124:
 2383              	.LBB721:
 2384              	.LBB710:
 2385              	.LBB705:
 2386              	.LBB695:
 2387              	.LBB696:
 2388              	.LBB697:
 2389              		.loc 7 53 0
 2390 02b4 4FF6FF70 		movw	r0, #65535
 2391              	.LBE697:
 2392              	.LBE696:
 2393              	.LBE695:
 2394              		.loc 6 527 0
ARM GAS  /tmp/cc7uye1Q.s 			page 43


 2395 02b8 DF70     		strb	r7, [r3, #3]
 2396              		.loc 6 528 0
 2397 02ba CA70     		strb	r2, [r1, #3]
 2398              	.LVL238:
 2399              	.LBB700:
 2400              	.LBB699:
 2401              	.LBB698:
 2402              		.loc 7 53 0
 2403 02bc 0880     		strh	r0, [r1]	@ movhi
 2404 02be 38E7     		b	.L98
 2405              	.LVL239:
 2406              	.L123:
 2407              	.LBE698:
 2408              	.LBE699:
 2409              	.LBE700:
 2410              	.LBE705:
 2411              	.LBB706:
 2412              	.LBB690:
 2413              	.LBB684:
 2414              	.LBB674:
 2415              	.LBB675:
 2416              	.LBB676:
 2417 02c0 4FF6FF71 		movw	r1, #65535
 2418              	.LBE676:
 2419              	.LBE675:
 2420              	.LBE674:
 2421              		.loc 6 280 0
 2422 02c4 0222     		movs	r2, #2
 2423              		.loc 6 281 0
 2424 02c6 0023     		movs	r3, #0
 2425              		.loc 6 282 0
 2426 02c8 86F80290 		strb	r9, [r6, #2]
 2427              	.LVL240:
 2428              	.LBB679:
 2429              	.LBB678:
 2430              	.LBB677:
 2431              		.loc 7 53 0
 2432 02cc 3180     		strh	r1, [r6]	@ movhi
 2433              	.LBE677:
 2434              	.LBE678:
 2435              	.LBE679:
 2436              		.loc 6 280 0
 2437 02ce E270     		strb	r2, [r4, #3]
 2438              		.loc 6 281 0
 2439 02d0 F370     		strb	r3, [r6, #3]
 2440 02d2 4EE7     		b	.L72
 2441              	.LVL241:
 2442              	.L121:
 2443              	.LBE684:
 2444              	.LBE690:
 2445              	.LBE706:
 2446              	.LBE710:
 2447              	.LBE721:
 2448              	.LBB722:
 2449              		.loc 1 140 0
 2450 02d4 0020     		movs	r0, #0
 2451 02d6 0146     		mov	r1, r0
ARM GAS  /tmp/cc7uye1Q.s 			page 44


 2452 02d8 0246     		mov	r2, r0
 2453 02da FFF7FEFF 		bl	setCameraRotation
 2454              	.LVL242:
 2455 02de 28E7     		b	.L98
 2456              	.LVL243:
 2457              	.L90:
 2458              	.LBE722:
 2459              	.LBB723:
 2460              	.LBB711:
 2461              	.LBB707:
 2462              	.LBB691:
 2463              	.LBB685:
 2464              		.loc 6 378 0
 2465 02e0 0123     		movs	r3, #1
 2466 02e2 1F46     		mov	r7, r3
 2467 02e4 2370     		strb	r3, [r4]
 2468 02e6 C1E6     		b	.L91
 2469              	.LVL244:
 2470              	.L122:
 2471              	.LBE685:
 2472              	.LBE691:
 2473              	.LBE707:
 2474              	.LBE711:
 2475              	.LBE723:
 2476              	.LBB724:
 2477              		.loc 1 142 0
 2478 02e8 0398     		ldr	r0, [sp, #12]	@ float
 2479 02ea 0499     		ldr	r1, [sp, #16]	@ float
 2480 02ec 059A     		ldr	r2, [sp, #20]	@ float
 2481 02ee FFF7FEFF 		bl	setCameraRotation
 2482              	.LVL245:
 2483 02f2 1EE7     		b	.L98
 2484              	.L126:
 2485              		.align	2
 2486              	.L125:
 2487 02f4 00000000 		.word	SD4
 2488 02f8 00000000 		.word	.LANCHOR3
 2489 02fc 00000000 		.word	.LANCHOR2
 2490 0300 00000000 		.word	.LANCHOR4
 2491 0304 00000000 		.word	.LANCHOR7
 2492 0308 00000000 		.word	.LANCHOR6
 2493 030c 00000000 		.word	.LANCHOR5
 2494              	.LBE724:
 2495              		.cfi_endproc
 2496              	.LFE1706:
 2497              		.size	readMavlinkChannel, .-readMavlinkChannel
 2498              		.section	.bss.streamRates,"aw",%nobits
 2499              		.align	2
 2500              		.set	.LANCHOR0,. + 0
 2501              		.type	streamRates, %object
 2502              		.size	streamRates, 4
 2503              	streamRates:
 2504 0000 00000000 		.space	4
 2505              		.section	.bss.m_mavlink_status.8223,"aw",%nobits
 2506              		.align	2
 2507              		.set	.LANCHOR2,. + 0
 2508              		.type	m_mavlink_status.8223, %object
ARM GAS  /tmp/cc7uye1Q.s 			page 45


 2509              		.size	m_mavlink_status.8223, 48
 2510              	m_mavlink_status.8223:
 2511 0000 00000000 		.space	48
 2511      00000000 
 2511      00000000 
 2511      00000000 
 2511      00000000 
 2512              		.section	.bss.msg,"aw",%nobits
 2513              		.align	2
 2514              		.set	.LANCHOR6,. + 0
 2515              		.type	msg, %object
 2516              		.size	msg, 272
 2517              	msg:
 2518 0000 00000000 		.space	272
 2518      00000000 
 2518      00000000 
 2518      00000000 
 2518      00000000 
 2519              		.section	.rodata.mavlink_message_crcs.8273,"a",%progbits
 2520              		.align	2
 2521              		.set	.LANCHOR5,. + 0
 2522              		.type	mavlink_message_crcs.8273, %object
 2523              		.size	mavlink_message_crcs.8273, 256
 2524              	mavlink_message_crcs.8273:
 2525 0000 32       		.byte	50
 2526 0001 7C       		.byte	124
 2527 0002 89       		.byte	-119
 2528 0003 00       		.byte	0
 2529 0004 ED       		.byte	-19
 2530 0005 D9       		.byte	-39
 2531 0006 68       		.byte	104
 2532 0007 77       		.byte	119
 2533 0008 00       		.byte	0
 2534 0009 00       		.byte	0
 2535 000a 00       		.byte	0
 2536 000b 59       		.byte	89
 2537 000c 00       		.byte	0
 2538 000d 00       		.byte	0
 2539 000e 00       		.byte	0
 2540 000f 00       		.byte	0
 2541 0010 00       		.byte	0
 2542 0011 00       		.byte	0
 2543 0012 00       		.byte	0
 2544 0013 00       		.byte	0
 2545 0014 D6       		.byte	-42
 2546 0015 9F       		.byte	-97
 2547 0016 DC       		.byte	-36
 2548 0017 A8       		.byte	-88
 2549 0018 18       		.byte	24
 2550 0019 17       		.byte	23
 2551 001a AA       		.byte	-86
 2552 001b 90       		.byte	-112
 2553 001c 43       		.byte	67
 2554 001d 73       		.byte	115
 2555 001e 27       		.byte	39
 2556 001f F6       		.byte	-10
 2557 0020 B9       		.byte	-71
ARM GAS  /tmp/cc7uye1Q.s 			page 46


 2558 0021 68       		.byte	104
 2559 0022 ED       		.byte	-19
 2560 0023 F4       		.byte	-12
 2561 0024 DE       		.byte	-34
 2562 0025 D4       		.byte	-44
 2563 0026 09       		.byte	9
 2564 0027 FE       		.byte	-2
 2565 0028 E6       		.byte	-26
 2566 0029 1C       		.byte	28
 2567 002a 1C       		.byte	28
 2568 002b 84       		.byte	-124
 2569 002c DD       		.byte	-35
 2570 002d E8       		.byte	-24
 2571 002e 0B       		.byte	11
 2572 002f 99       		.byte	-103
 2573 0030 29       		.byte	41
 2574 0031 27       		.byte	39
 2575 0032 4E       		.byte	78
 2576 0033 00       		.byte	0
 2577 0034 00       		.byte	0
 2578 0035 00       		.byte	0
 2579 0036 0F       		.byte	15
 2580 0037 03       		.byte	3
 2581 0038 00       		.byte	0
 2582 0039 00       		.byte	0
 2583 003a 00       		.byte	0
 2584 003b 00       		.byte	0
 2585 003c 00       		.byte	0
 2586 003d 99       		.byte	-103
 2587 003e B7       		.byte	-73
 2588 003f 33       		.byte	51
 2589 0040 3B       		.byte	59
 2590 0041 76       		.byte	118
 2591 0042 94       		.byte	-108
 2592 0043 15       		.byte	21
 2593 0044 00       		.byte	0
 2594 0045 F3       		.byte	-13
 2595 0046 7C       		.byte	124
 2596 0047 00       		.byte	0
 2597 0048 00       		.byte	0
 2598 0049 26       		.byte	38
 2599 004a 14       		.byte	20
 2600 004b 9E       		.byte	-98
 2601 004c 98       		.byte	-104
 2602 004d 8F       		.byte	-113
 2603 004e 00       		.byte	0
 2604 004f 00       		.byte	0
 2605 0050 00       		.byte	0
 2606 0051 6A       		.byte	106
 2607 0052 31       		.byte	49
 2608 0053 16       		.byte	22
 2609 0054 8F       		.byte	-113
 2610 0055 8C       		.byte	-116
 2611 0056 05       		.byte	5
 2612 0057 96       		.byte	-106
 2613 0058 00       		.byte	0
 2614 0059 E7       		.byte	-25
ARM GAS  /tmp/cc7uye1Q.s 			page 47


 2615 005a B7       		.byte	-73
 2616 005b 3F       		.byte	63
 2617 005c 36       		.byte	54
 2618 005d 00       		.byte	0
 2619 005e 00       		.byte	0
 2620 005f 00       		.byte	0
 2621 0060 00       		.byte	0
 2622 0061 00       		.byte	0
 2623 0062 00       		.byte	0
 2624 0063 00       		.byte	0
 2625 0064 AF       		.byte	-81
 2626 0065 66       		.byte	102
 2627 0066 9E       		.byte	-98
 2628 0067 D0       		.byte	-48
 2629 0068 38       		.byte	56
 2630 0069 5D       		.byte	93
 2631 006a 8A       		.byte	-118
 2632 006b 6C       		.byte	108
 2633 006c 20       		.byte	32
 2634 006d B9       		.byte	-71
 2635 006e 54       		.byte	84
 2636 006f 22       		.byte	34
 2637 0070 AE       		.byte	-82
 2638 0071 7C       		.byte	124
 2639 0072 ED       		.byte	-19
 2640 0073 04       		.byte	4
 2641 0074 4C       		.byte	76
 2642 0075 80       		.byte	-128
 2643 0076 38       		.byte	56
 2644 0077 74       		.byte	116
 2645 0078 86       		.byte	-122
 2646 0079 ED       		.byte	-19
 2647 007a CB       		.byte	-53
 2648 007b FA       		.byte	-6
 2649 007c 57       		.byte	87
 2650 007d CB       		.byte	-53
 2651 007e DC       		.byte	-36
 2652 007f 19       		.byte	25
 2653 0080 E2       		.byte	-30
 2654 0081 2E       		.byte	46
 2655 0082 1D       		.byte	29
 2656 0083 DF       		.byte	-33
 2657 0084 55       		.byte	85
 2658 0085 06       		.byte	6
 2659 0086 E5       		.byte	-27
 2660 0087 CB       		.byte	-53
 2661 0088 01       		.byte	1
 2662 0089 C3       		.byte	-61
 2663 008a 6D       		.byte	109
 2664 008b A8       		.byte	-88
 2665 008c B5       		.byte	-75
 2666 008d 00       		.byte	0
 2667 008e 00       		.byte	0
 2668 008f 00       		.byte	0
 2669 0090 00       		.byte	0
 2670 0091 00       		.byte	0
 2671 0092 00       		.byte	0
ARM GAS  /tmp/cc7uye1Q.s 			page 48


 2672 0093 9A       		.byte	-102
 2673 0094 B2       		.byte	-78
 2674 0095 FF       		.byte	-1
 2675 0096 00       		.byte	0
 2676 0097 00       		.byte	0
 2677 0098 00       		.byte	0
 2678 0099 00       		.byte	0
 2679 009a 00       		.byte	0
 2680 009b 00       		.byte	0
 2681 009c 00       		.byte	0
 2682 009d 00       		.byte	0
 2683 009e 00       		.byte	0
 2684 009f 00       		.byte	0
 2685 00a0 00       		.byte	0
 2686 00a1 00       		.byte	0
 2687 00a2 00       		.byte	0
 2688 00a3 00       		.byte	0
 2689 00a4 00       		.byte	0
 2690 00a5 00       		.byte	0
 2691 00a6 00       		.byte	0
 2692 00a7 00       		.byte	0
 2693 00a8 00       		.byte	0
 2694 00a9 00       		.byte	0
 2695 00aa 00       		.byte	0
 2696 00ab 00       		.byte	0
 2697 00ac 00       		.byte	0
 2698 00ad 00       		.byte	0
 2699 00ae 00       		.byte	0
 2700 00af 00       		.byte	0
 2701 00b0 00       		.byte	0
 2702 00b1 00       		.byte	0
 2703 00b2 00       		.byte	0
 2704 00b3 00       		.byte	0
 2705 00b4 00       		.byte	0
 2706 00b5 00       		.byte	0
 2707 00b6 00       		.byte	0
 2708 00b7 00       		.byte	0
 2709 00b8 00       		.byte	0
 2710 00b9 00       		.byte	0
 2711 00ba 00       		.byte	0
 2712 00bb 00       		.byte	0
 2713 00bc 00       		.byte	0
 2714 00bd 00       		.byte	0
 2715 00be 00       		.byte	0
 2716 00bf 00       		.byte	0
 2717 00c0 00       		.byte	0
 2718 00c1 00       		.byte	0
 2719 00c2 00       		.byte	0
 2720 00c3 00       		.byte	0
 2721 00c4 00       		.byte	0
 2722 00c5 00       		.byte	0
 2723 00c6 00       		.byte	0
 2724 00c7 00       		.byte	0
 2725 00c8 00       		.byte	0
 2726 00c9 00       		.byte	0
 2727 00ca 00       		.byte	0
 2728 00cb 00       		.byte	0
ARM GAS  /tmp/cc7uye1Q.s 			page 49


 2729 00cc 00       		.byte	0
 2730 00cd 00       		.byte	0
 2731 00ce 00       		.byte	0
 2732 00cf 00       		.byte	0
 2733 00d0 00       		.byte	0
 2734 00d1 00       		.byte	0
 2735 00d2 00       		.byte	0
 2736 00d3 00       		.byte	0
 2737 00d4 00       		.byte	0
 2738 00d5 00       		.byte	0
 2739 00d6 00       		.byte	0
 2740 00d7 00       		.byte	0
 2741 00d8 00       		.byte	0
 2742 00d9 00       		.byte	0
 2743 00da 00       		.byte	0
 2744 00db 00       		.byte	0
 2745 00dc 00       		.byte	0
 2746 00dd 00       		.byte	0
 2747 00de 00       		.byte	0
 2748 00df 00       		.byte	0
 2749 00e0 00       		.byte	0
 2750 00e1 00       		.byte	0
 2751 00e2 00       		.byte	0
 2752 00e3 00       		.byte	0
 2753 00e4 00       		.byte	0
 2754 00e5 00       		.byte	0
 2755 00e6 00       		.byte	0
 2756 00e7 00       		.byte	0
 2757 00e8 00       		.byte	0
 2758 00e9 00       		.byte	0
 2759 00ea 00       		.byte	0
 2760 00eb 00       		.byte	0
 2761 00ec 00       		.byte	0
 2762 00ed 00       		.byte	0
 2763 00ee 00       		.byte	0
 2764 00ef 00       		.byte	0
 2765 00f0 00       		.byte	0
 2766 00f1 5A       		.byte	90
 2767 00f2 00       		.byte	0
 2768 00f3 00       		.byte	0
 2769 00f4 00       		.byte	0
 2770 00f5 00       		.byte	0
 2771 00f6 00       		.byte	0
 2772 00f7 00       		.byte	0
 2773 00f8 08       		.byte	8
 2774 00f9 CC       		.byte	-52
 2775 00fa 31       		.byte	49
 2776 00fb AA       		.byte	-86
 2777 00fc 2C       		.byte	44
 2778 00fd 53       		.byte	83
 2779 00fe 2E       		.byte	46
 2780 00ff 00       		.byte	0
 2781              		.section	.bss.m_mavlink_buffer.8227,"aw",%nobits
 2782              		.align	2
 2783              		.set	.LANCHOR4,. + 0
 2784              		.type	m_mavlink_buffer.8227, %object
 2785              		.size	m_mavlink_buffer.8227, 1088
ARM GAS  /tmp/cc7uye1Q.s 			page 50


 2786              	m_mavlink_buffer.8227:
 2787 0000 00000000 		.space	1088
 2787      00000000 
 2787      00000000 
 2787      00000000 
 2787      00000000 
 2788              		.section	.data.stream_tics,"aw",%progbits
 2789              		.align	2
 2790              		.set	.LANCHOR1,. + 0
 2791              		.type	stream_tics, %object
 2792              		.size	stream_tics, 4
 2793              	stream_tics:
 2794 0000 FF       		.byte	-1
 2795 0001 000000   		.space	3
 2796              		.section	.bss.mavBuff,"aw",%nobits
 2797              		.align	2
 2798              		.set	.LANCHOR3,. + 0
 2799              		.type	mavBuff, %object
 2800              		.size	mavBuff, 64
 2801              	mavBuff:
 2802 0000 00000000 		.space	64
 2802      00000000 
 2802      00000000 
 2802      00000000 
 2802      00000000 
 2803              		.section	.bss.status,"aw",%nobits
 2804              		.align	2
 2805              		.set	.LANCHOR7,. + 0
 2806              		.type	status, %object
 2807              		.size	status, 12
 2808              	status:
 2809 0000 00000000 		.space	12
 2809      00000000 
 2809      00000000 
 2810              		.text
 2811              	.Letext0:
 2812              		.file 12 "/opt/stm32/gcc/gcc-arm-none-eabi-4_9-2015q2/lib/gcc/arm-none-eabi/4.9.3/include/stddef.h
 2813              		.file 13 "/opt/stm32/gcc/gcc-arm-none-eabi-4_9-2015q2/arm-none-eabi/include/machine/_default_types
 2814              		.file 14 "/opt/stm32/gcc/gcc-arm-none-eabi-4_9-2015q2/arm-none-eabi/include/sys/_stdint.h"
 2815              		.file 15 "/home/maciek/ChibiOS_16.1.5/os/rt/ports/ARMCMx/compilers/GCC/chtypes.h"
 2816              		.file 16 "/home/maciek/ChibiOS_16.1.5/os/rt/include/chsystypes.h"
 2817              		.file 17 "/home/maciek/ChibiOS_16.1.5/os/rt/include/chschd.h"
 2818              		.file 18 "/home/maciek/ChibiOS_16.1.5/os/ext/CMSIS/ST/STM32F1xx/stm32f103xe.h"
 2819              		.file 19 "/home/maciek/ChibiOS_16.1.5/os/rt/ports/ARMCMx/chcore.h"
 2820              		.file 20 "/home/maciek/ChibiOS_16.1.5/os/rt/ports/ARMCMx/chcore_v7m.h"
 2821              		.file 21 "/home/maciek/ChibiOS_16.1.5/os/rt/include/chtm.h"
 2822              		.file 22 "/home/maciek/ChibiOS_16.1.5/os/rt/include/chsem.h"
 2823              		.file 23 "/home/maciek/ChibiOS_16.1.5/os/rt/include/chmtx.h"
 2824              		.file 24 "/home/maciek/ChibiOS_16.1.5/os/rt/include/chevents.h"
 2825              		.file 25 "/home/maciek/ChibiOS_16.1.5/os/rt/include/chqueues.h"
 2826              		.file 26 "/home/maciek/ChibiOS_16.1.5/os/hal/include/serial.h"
 2827              		.file 27 "mpu6050.h"
 2828              		.file 28 "mavlink/common/../mavlink_types.h"
 2829              		.file 29 "mavlink/common/common.h"
 2830              		.file 30 "mavlink_handler.h"
 2831              		.file 31 "/home/maciek/ChibiOS_16.1.5/os/rt/include/chsys.h"
 2832              		.file 32 "/home/maciek/ChibiOS_16.1.5/os/hal/ports/STM32/LLD/USARTv1/serial_lld.h"
ARM GAS  /tmp/cc7uye1Q.s 			page 51


 2833              		.file 33 "/home/maciek/ChibiOS_16.1.5/os/ext/CMSIS/include/core_cm3.h"
 2834              		.file 34 "/opt/stm32/gcc/gcc-arm-none-eabi-4_9-2015q2/arm-none-eabi/include/math.h"
 2835              		.file 35 "attitude.h"