ARM GAS  /tmp/ccqaUL8j.s 			page 1


   1              		.syntax unified
   2              		.cpu cortex-m3
   3              		.fpu softvfp
   4              		.eabi_attribute 20, 1
   5              		.eabi_attribute 21, 1
   6              		.eabi_attribute 23, 3
   7              		.eabi_attribute 24, 1
   8              		.eabi_attribute 25, 1
   9              		.eabi_attribute 26, 1
  10              		.eabi_attribute 30, 2
  11              		.eabi_attribute 34, 1
  12              		.eabi_attribute 18, 4
  13              		.thumb
  14              		.file	"memstreams.c"
  15              		.text
  16              	.Ltext0:
  17              		.cfi_sections	.debug_frame
  18              		.section	.text.put,"ax",%progbits
  19              		.align	2
  20              		.p2align 4,,15
  21              		.thumb
  22              		.thumb_func
  23              		.type	put, %function
  24              	put:
  25              	.LFB209:
  26              		.file 1 "/home/maciek/ChibiOS_16.1.5/os/hal/lib/streams/memstreams.c"
  27              		.loc 1 66 0
  28              		.cfi_startproc
  29              		@ args = 0, pretend = 0, frame = 0
  30              		@ frame_needed = 0, uses_anonymous_args = 0
  31              		@ link register save eliminated.
  32              	.LVL0:
  33              		.loc 1 69 0
  34 0000 C268     		ldr	r2, [r0, #12]
  35              		.loc 1 66 0
  36 0002 0346     		mov	r3, r0
  37              	.LVL1:
  38              		.loc 1 69 0
  39 0004 8068     		ldr	r0, [r0, #8]
  40              	.LVL2:
  41 0006 9042     		cmp	r0, r2
  42 0008 09D0     		beq	.L3
  43              		.loc 1 66 0
  44 000a 10B4     		push	{r4}
  45              		.cfi_def_cfa_offset 4
  46              		.cfi_offset 4, -4
  47              		.loc 1 71 0
  48 000c 5C68     		ldr	r4, [r3, #4]
  49              		.loc 1 73 0
  50 000e 0020     		movs	r0, #0
  51              		.loc 1 71 0
  52 0010 A154     		strb	r1, [r4, r2]
  53              		.loc 1 72 0
  54 0012 DA68     		ldr	r2, [r3, #12]
  55              		.loc 1 74 0
  56 0014 5DF8044B 		ldr	r4, [sp], #4
  57              		.cfi_restore 4
ARM GAS  /tmp/ccqaUL8j.s 			page 2


  58              		.cfi_def_cfa_offset 0
  59              		.loc 1 72 0
  60 0018 0132     		adds	r2, r2, #1
  61 001a DA60     		str	r2, [r3, #12]
  62              		.loc 1 74 0
  63 001c 7047     		bx	lr
  64              	.L3:
  65              		.loc 1 70 0
  66 001e 6FF00100 		mvn	r0, #1
  67 0022 7047     		bx	lr
  68              		.cfi_endproc
  69              	.LFE209:
  70              		.size	put, .-put
  71              		.section	.text.get,"ax",%progbits
  72              		.align	2
  73              		.p2align 4,,15
  74              		.thumb
  75              		.thumb_func
  76              		.type	get, %function
  77              	get:
  78              	.LFB210:
  79              		.loc 1 76 0
  80              		.cfi_startproc
  81              		@ args = 0, pretend = 0, frame = 0
  82              		@ frame_needed = 0, uses_anonymous_args = 0
  83              		@ link register save eliminated.
  84              	.LVL3:
  85              		.loc 1 80 0
  86 0000 0369     		ldr	r3, [r0, #16]
  87 0002 C268     		ldr	r2, [r0, #12]
  88 0004 9A42     		cmp	r2, r3
  89 0006 05D0     		beq	.L9
  90              		.loc 1 82 0
  91 0008 4168     		ldr	r1, [r0, #4]
  92              		.loc 1 83 0
  93 000a 5A1C     		adds	r2, r3, #1
  94              		.loc 1 82 0
  95 000c CB5C     		ldrb	r3, [r1, r3]	@ zero_extendqisi2
  96              	.LVL4:
  97              		.loc 1 83 0
  98 000e 0261     		str	r2, [r0, #16]
  99              		.loc 1 84 0
 100 0010 1846     		mov	r0, r3
 101              	.LVL5:
 102 0012 7047     		bx	lr
 103              	.LVL6:
 104              	.L9:
 105              		.loc 1 81 0
 106 0014 6FF00100 		mvn	r0, #1
 107              	.LVL7:
 108              		.loc 1 85 0
 109 0018 7047     		bx	lr
 110              		.cfi_endproc
 111              	.LFE210:
 112              		.size	get, .-get
 113 001a 00BF     		.section	.text.reads,"ax",%progbits
 114              		.align	2
ARM GAS  /tmp/ccqaUL8j.s 			page 3


 115              		.p2align 4,,15
 116              		.thumb
 117              		.thumb_func
 118              		.type	reads, %function
 119              	reads:
 120              	.LFB208:
 121              		.loc 1 56 0
 122              		.cfi_startproc
 123              		@ args = 0, pretend = 0, frame = 0
 124              		@ frame_needed = 0, uses_anonymous_args = 0
 125              	.LVL8:
 126 0000 70B5     		push	{r4, r5, r6, lr}
 127              		.cfi_def_cfa_offset 16
 128              		.cfi_offset 4, -16
 129              		.cfi_offset 5, -12
 130              		.cfi_offset 6, -8
 131              		.cfi_offset 14, -4
 132              		.loc 1 59 0
 133 0002 0669     		ldr	r6, [r0, #16]
 134 0004 C468     		ldr	r4, [r0, #12]
 135              		.loc 1 56 0
 136 0006 0546     		mov	r5, r0
 137              	.LVL9:
 138              		.loc 1 59 0
 139 0008 A41B     		subs	r4, r4, r6
 140 000a 9442     		cmp	r4, r2
 141 000c 28BF     		it	cs
 142 000e 1446     		movcs	r4, r2
 143              	.LVL10:
 144              		.loc 1 61 0
 145 0010 4368     		ldr	r3, [r0, #4]
 146 0012 2246     		mov	r2, r4
 147 0014 0846     		mov	r0, r1
 148              	.LVL11:
 149 0016 9919     		adds	r1, r3, r6
 150              	.LVL12:
 151 0018 FFF7FEFF 		bl	memcpy
 152              	.LVL13:
 153              		.loc 1 62 0
 154 001c 2B69     		ldr	r3, [r5, #16]
 155              		.loc 1 64 0
 156 001e 2046     		mov	r0, r4
 157              		.loc 1 62 0
 158 0020 1C44     		add	r4, r4, r3
 159              	.LVL14:
 160 0022 2C61     		str	r4, [r5, #16]
 161              		.loc 1 64 0
 162 0024 70BD     		pop	{r4, r5, r6, pc}
 163              		.cfi_endproc
 164              	.LFE208:
 165              		.size	reads, .-reads
 166 0026 00BF     		.section	.text.writes,"ax",%progbits
 167              		.align	2
 168              		.p2align 4,,15
 169              		.thumb
 170              		.thumb_func
 171              		.type	writes, %function
ARM GAS  /tmp/ccqaUL8j.s 			page 4


 172              	writes:
 173              	.LFB207:
 174              		.loc 1 46 0
 175              		.cfi_startproc
 176              		@ args = 0, pretend = 0, frame = 0
 177              		@ frame_needed = 0, uses_anonymous_args = 0
 178              	.LVL15:
 179 0000 38B5     		push	{r3, r4, r5, lr}
 180              		.cfi_def_cfa_offset 16
 181              		.cfi_offset 3, -16
 182              		.cfi_offset 4, -12
 183              		.cfi_offset 5, -8
 184              		.cfi_offset 14, -4
 185              		.loc 1 49 0
 186 0002 C368     		ldr	r3, [r0, #12]
 187 0004 8468     		ldr	r4, [r0, #8]
 188              		.loc 1 46 0
 189 0006 0546     		mov	r5, r0
 190              	.LVL16:
 191              		.loc 1 49 0
 192 0008 E41A     		subs	r4, r4, r3
 193 000a 9442     		cmp	r4, r2
 194 000c 28BF     		it	cs
 195 000e 1446     		movcs	r4, r2
 196              	.LVL17:
 197              		.loc 1 51 0
 198 0010 4068     		ldr	r0, [r0, #4]
 199              	.LVL18:
 200 0012 2246     		mov	r2, r4
 201 0014 1844     		add	r0, r0, r3
 202 0016 FFF7FEFF 		bl	memcpy
 203              	.LVL19:
 204              		.loc 1 52 0
 205 001a EB68     		ldr	r3, [r5, #12]
 206              		.loc 1 54 0
 207 001c 2046     		mov	r0, r4
 208              		.loc 1 52 0
 209 001e 1C44     		add	r4, r4, r3
 210              	.LVL20:
 211 0020 EC60     		str	r4, [r5, #12]
 212              		.loc 1 54 0
 213 0022 38BD     		pop	{r3, r4, r5, pc}
 214              		.cfi_endproc
 215              	.LFE207:
 216              		.size	writes, .-writes
 217              		.section	.text.msObjectInit,"ax",%progbits
 218              		.align	2
 219              		.p2align 4,,15
 220              		.global	msObjectInit
 221              		.thumb
 222              		.thumb_func
 223              		.type	msObjectInit, %function
 224              	msObjectInit:
 225              	.LFB211:
 226              		.loc 1 104 0
 227              		.cfi_startproc
 228              		@ args = 0, pretend = 0, frame = 0
ARM GAS  /tmp/ccqaUL8j.s 			page 5


 229              		@ frame_needed = 0, uses_anonymous_args = 0
 230              		@ link register save eliminated.
 231              	.LVL21:
 232 0000 30B4     		push	{r4, r5}
 233              		.cfi_def_cfa_offset 8
 234              		.cfi_offset 4, -8
 235              		.cfi_offset 5, -4
 236              		.loc 1 106 0
 237 0002 044D     		ldr	r5, .L16
 238              		.loc 1 110 0
 239 0004 0024     		movs	r4, #0
 240              		.loc 1 106 0
 241 0006 0560     		str	r5, [r0]
 242              		.loc 1 110 0
 243 0008 0461     		str	r4, [r0, #16]
 244              		.loc 1 107 0
 245 000a 4160     		str	r1, [r0, #4]
 246              		.loc 1 108 0
 247 000c 8260     		str	r2, [r0, #8]
 248              		.loc 1 109 0
 249 000e C360     		str	r3, [r0, #12]
 250              		.loc 1 111 0
 251 0010 30BC     		pop	{r4, r5}
 252              		.cfi_restore 5
 253              		.cfi_restore 4
 254              		.cfi_def_cfa_offset 0
 255 0012 7047     		bx	lr
 256              	.L17:
 257              		.align	2
 258              	.L16:
 259 0014 00000000 		.word	.LANCHOR0
 260              		.cfi_endproc
 261              	.LFE211:
 262              		.size	msObjectInit, .-msObjectInit
 263              		.section	.rodata.vmt,"a",%progbits
 264              		.align	2
 265              		.set	.LANCHOR0,. + 0
 266              		.type	vmt, %object
 267              		.size	vmt, 16
 268              	vmt:
 269 0000 00000000 		.word	writes
 270 0004 00000000 		.word	reads
 271 0008 00000000 		.word	put
 272 000c 00000000 		.word	get
 273              		.text
 274              	.Letext0:
 275              		.file 2 "/opt/stm32/gcc/gcc-arm-none-eabi-4_9-2015q2/lib/gcc/arm-none-eabi/4.9.3/include/stddef.h"
 276              		.file 3 "/opt/stm32/gcc/gcc-arm-none-eabi-4_9-2015q2/arm-none-eabi/include/machine/_default_types.
 277              		.file 4 "/opt/stm32/gcc/gcc-arm-none-eabi-4_9-2015q2/arm-none-eabi/include/sys/_stdint.h"
 278              		.file 5 "/home/maciek/ChibiOS_16.1.5/os/rt/ports/ARMCMx/compilers/GCC/chtypes.h"
 279              		.file 6 "/home/maciek/ChibiOS_16.1.5/os/rt/include/chsystypes.h"
 280              		.file 7 "/home/maciek/ChibiOS_16.1.5/os/rt/include/chschd.h"
 281              		.file 8 "/home/maciek/ChibiOS_16.1.5/os/rt/ports/ARMCMx/chcore.h"
 282              		.file 9 "/home/maciek/ChibiOS_16.1.5/os/rt/ports/ARMCMx/chcore_v7m.h"
 283              		.file 10 "/home/maciek/ChibiOS_16.1.5/os/rt/include/chtm.h"
 284              		.file 11 "/home/maciek/ChibiOS_16.1.5/os/rt/include/chsem.h"
 285              		.file 12 "/home/maciek/ChibiOS_16.1.5/os/rt/include/chmtx.h"
ARM GAS  /tmp/ccqaUL8j.s 			page 6


 286              		.file 13 "/home/maciek/ChibiOS_16.1.5/os/hal/lib/streams/memstreams.h"
 287              		.file 14 "/home/maciek/ChibiOS_16.1.5/os/ext/CMSIS/include/core_cm3.h"