ARM GAS  /tmp/ccGDfWPe.s 			page 1


   1              		.syntax unified
   2              		.cpu cortex-m3
   3              		.fpu softvfp
   4              		.eabi_attribute 20, 1
   5              		.eabi_attribute 21, 1
   6              		.eabi_attribute 23, 3
   7              		.eabi_attribute 24, 1
   8              		.eabi_attribute 25, 1
   9              		.eabi_attribute 26, 1
  10              		.eabi_attribute 30, 2
  11              		.eabi_attribute 34, 1
  12              		.eabi_attribute 18, 4
  13              		.thumb
  14              		.file	"mpu6050.c"
  15              		.text
  16              	.Ltext0:
  17              		.cfi_sections	.debug_frame
  18              		.section	.text.imuStructureInit,"ax",%progbits
  19              		.align	2
  20              		.p2align 4,,15
  21              		.global	imuStructureInit
  22              		.thumb
  23              		.thumb_func
  24              		.type	imuStructureInit, %function
  25              	imuStructureInit:
  26              	.LFB213:
  27              		.file 1 "mpu6050.c"
  28              		.loc 1 126 0
  29              		.cfi_startproc
  30              		@ args = 0, pretend = 0, frame = 0
  31              		@ frame_needed = 0, uses_anonymous_args = 0
  32              	.LVL0:
  33 0000 38B5     		push	{r3, r4, r5, lr}
  34              		.cfi_def_cfa_offset 16
  35              		.cfi_offset 3, -16
  36              		.cfi_offset 4, -12
  37              		.cfi_offset 5, -8
  38              		.cfi_offset 14, -4
  39              		.loc 1 126 0
  40 0002 0446     		mov	r4, r0
  41 0004 0D46     		mov	r5, r1
  42              		.loc 1 129 0
  43 0006 6C22     		movs	r2, #108
  44 0008 0021     		movs	r1, #0
  45              	.LVL1:
  46 000a FFF7FEFF 		bl	memset
  47              	.LVL2:
  48              		.loc 1 131 0
  49 000e 4FF07E53 		mov	r3, #1065353216
  50 0012 A364     		str	r3, [r4, #72]	@ unaligned
  51              		.loc 1 136 0
  52 0014 124B     		ldr	r3, .L6
  53              		.loc 1 133 0
  54 0016 7DB1     		cbz	r5, .L2
  55              		.loc 1 136 0
  56 0018 1978     		ldrb	r1, [r3]	@ zero_extendqisi2
  57 001a 5A78     		ldrb	r2, [r3, #1]	@ zero_extendqisi2
ARM GAS  /tmp/ccGDfWPe.s 			page 2


  58 001c 9B78     		ldrb	r3, [r3, #2]	@ zero_extendqisi2
  59              		.loc 1 134 0
  60 001e 6920     		movs	r0, #105
  61              		.loc 1 136 0
  62 0020 0909     		lsrs	r1, r1, #4
  63 0022 1209     		lsrs	r2, r2, #4
  64 0024 1B09     		lsrs	r3, r3, #4
  65 0026 84F86810 		strb	r1, [r4, #104]
  66 002a 84F86920 		strb	r2, [r4, #105]
  67 002e 84F86A30 		strb	r3, [r4, #106]
  68              		.loc 1 134 0
  69 0032 84F86B00 		strb	r0, [r4, #107]
  70              	.LVL3:
  71 0036 38BD     		pop	{r3, r4, r5, pc}
  72              	.LVL4:
  73              	.L2:
  74              		.loc 1 141 0
  75 0038 1978     		ldrb	r1, [r3]	@ zero_extendqisi2
  76 003a 5A78     		ldrb	r2, [r3, #1]	@ zero_extendqisi2
  77 003c 9B78     		ldrb	r3, [r3, #2]	@ zero_extendqisi2
  78              		.loc 1 139 0
  79 003e 6820     		movs	r0, #104
  80              		.loc 1 141 0
  81 0040 01F00F01 		and	r1, r1, #15
  82 0044 02F00F02 		and	r2, r2, #15
  83 0048 03F00F03 		and	r3, r3, #15
  84 004c 84F86810 		strb	r1, [r4, #104]
  85 0050 84F86920 		strb	r2, [r4, #105]
  86 0054 84F86A30 		strb	r3, [r4, #106]
  87              		.loc 1 139 0
  88 0058 84F86B00 		strb	r0, [r4, #107]
  89              	.LVL5:
  90 005c 38BD     		pop	{r3, r4, r5, pc}
  91              	.LVL6:
  92              	.L7:
  93 005e 00BF     		.align	2
  94              	.L6:
  95 0060 00000000 		.word	.LANCHOR0
  96              		.cfi_endproc
  97              	.LFE213:
  98              		.size	imuStructureInit, .-imuStructureInit
  99              		.section	.text.imuCalibrationSet,"ax",%progbits
 100              		.align	2
 101              		.p2align 4,,15
 102              		.global	imuCalibrationSet
 103              		.thumb
 104              		.thumb_func
 105              		.type	imuCalibrationSet, %function
 106              	imuCalibrationSet:
 107              	.LFB214:
 108              		.loc 1 149 0
 109              		.cfi_startproc
 110              		@ args = 0, pretend = 0, frame = 0
 111              		@ frame_needed = 0, uses_anonymous_args = 0
 112              		@ link register save eliminated.
 113              	.LVL7:
 114              		.loc 1 150 0
ARM GAS  /tmp/ccGDfWPe.s 			page 3


 115 0000 034A     		ldr	r2, .L9
 116 0002 00F07800 		and	r0, r0, #120
 117              	.LVL8:
 118 0006 1368     		ldr	r3, [r2]
 119 0008 0343     		orrs	r3, r3, r0
 120 000a 1360     		str	r3, [r2]
 121 000c 7047     		bx	lr
 122              	.L10:
 123 000e 00BF     		.align	2
 124              	.L9:
 125 0010 00000000 		.word	g_boardStatus
 126              		.cfi_endproc
 127              	.LFE214:
 128              		.size	imuCalibrationSet, .-imuCalibrationSet
 129              		.global	__aeabi_f2d
 130              		.global	__aeabi_dsub
 131              		.global	__aeabi_d2f
 132              		.global	__aeabi_fadd
 133              		.global	__aeabi_dadd
 134              		.global	__aeabi_fdiv
 135              		.section	.text.imuCalibrate,"ax",%progbits
 136              		.align	2
 137              		.p2align 4,,15
 138              		.global	imuCalibrate
 139              		.thumb
 140              		.thumb_func
 141              		.type	imuCalibrate, %function
 142              	imuCalibrate:
 143              	.LFB215:
 144              		.loc 1 160 0
 145              		.cfi_startproc
 146              		@ args = 0, pretend = 0, frame = 0
 147              		@ frame_needed = 0, uses_anonymous_args = 0
 148              	.LVL9:
 149 0000 F8B5     		push	{r3, r4, r5, r6, r7, lr}
 150              		.cfi_def_cfa_offset 24
 151              		.cfi_offset 3, -24
 152              		.cfi_offset 4, -20
 153              		.cfi_offset 5, -16
 154              		.cfi_offset 6, -12
 155              		.cfi_offset 7, -8
 156              		.cfi_offset 14, -4
 157              		.loc 1 160 0
 158 0002 0446     		mov	r4, r0
 159              		.loc 1 161 0
 160 0004 0E46     		mov	r6, r1
 161              		.loc 1 162 0
 162 0006 456E     		ldr	r5, [r0, #100]	@ unaligned
 163              		.loc 1 161 0
 164 0008 51B3     		cbz	r1, .L12
 165              		.loc 1 162 0
 166 000a 002D     		cmp	r5, #0
 167 000c 58D0     		beq	.L19
 168              		.loc 1 169 0
 169 000e B5F5FA6F 		cmp	r5, #2000
 170              		.loc 1 171 0
 171 0012 8069     		ldr	r0, [r0, #24]	@ unaligned
ARM GAS  /tmp/ccGDfWPe.s 			page 4


 172              	.LVL10:
 173              		.loc 1 169 0
 174 0014 6ED2     		bcs	.L15
 175              		.loc 1 171 0
 176 0016 2168     		ldr	r1, [r4]	@ unaligned
 177              	.LVL11:
 178 0018 FFF7FEFF 		bl	__aeabi_fadd
 179              	.LVL12:
 180              		.loc 1 172 0
 181 001c E369     		ldr	r3, [r4, #28]	@ unaligned
 182 001e 6168     		ldr	r1, [r4, #4]	@ unaligned
 183              		.loc 1 171 0
 184 0020 A061     		str	r0, [r4, #24]	@ unaligned
 185              		.loc 1 172 0
 186 0022 1846     		mov	r0, r3
 187 0024 FFF7FEFF 		bl	__aeabi_fadd
 188              	.LVL13:
 189              		.loc 1 173 0
 190 0028 236A     		ldr	r3, [r4, #32]	@ unaligned
 191              		.loc 1 172 0
 192 002a E061     		str	r0, [r4, #28]	@ unaligned
 193              		.loc 1 173 0
 194 002c 1846     		mov	r0, r3
 195 002e FFF7FEFF 		bl	__aeabi_f2d
 196              	.LVL14:
 197 0032 0646     		mov	r6, r0
 198 0034 A068     		ldr	r0, [r4, #8]	@ unaligned
 199 0036 0F46     		mov	r7, r1
 200 0038 FFF7FEFF 		bl	__aeabi_f2d
 201              	.LVL15:
 202 003c 46A3     		adr	r3, .L22
 203 003e D3E90023 		ldrd	r2, [r3]
 204 0042 FFF7FEFF 		bl	__aeabi_dsub
 205              	.LVL16:
 206 0046 0246     		mov	r2, r0
 207 0048 0B46     		mov	r3, r1
 208 004a 3046     		mov	r0, r6
 209 004c 3946     		mov	r1, r7
 210 004e FFF7FEFF 		bl	__aeabi_dadd
 211              	.LVL17:
 212 0052 FFF7FEFF 		bl	__aeabi_d2f
 213              	.LVL18:
 214              		.loc 1 174 0
 215 0056 0135     		adds	r5, r5, #1
 216              		.loc 1 173 0
 217 0058 2062     		str	r0, [r4, #32]	@ unaligned
 218              		.loc 1 174 0
 219 005a 6566     		str	r5, [r4, #100]	@ unaligned
 220              		.loc 1 175 0
 221 005c 0020     		movs	r0, #0
 222 005e F8BD     		pop	{r3, r4, r5, r6, r7, pc}
 223              	.LVL19:
 224              	.L12:
 225              		.loc 1 184 0
 226 0060 EDB1     		cbz	r5, .L20
 227              		.loc 1 191 0
 228 0062 B5F5FA6F 		cmp	r5, #2000
ARM GAS  /tmp/ccGDfWPe.s 			page 5


 229              		.loc 1 193 0
 230 0066 406A     		ldr	r0, [r0, #36]	@ unaligned
 231              	.LVL20:
 232              		.loc 1 191 0
 233 0068 5FD3     		bcc	.L21
 234              		.loc 1 200 0
 235 006a 3D49     		ldr	r1, .L22+8
 236              	.LVL21:
 237 006c FFF7FEFF 		bl	__aeabi_fdiv
 238              	.LVL22:
 239              		.loc 1 201 0
 240 0070 A36A     		ldr	r3, [r4, #40]	@ unaligned
 241              		.loc 1 200 0
 242 0072 6062     		str	r0, [r4, #36]	@ unaligned
 243              		.loc 1 201 0
 244 0074 3A49     		ldr	r1, .L22+8
 245 0076 1846     		mov	r0, r3
 246 0078 FFF7FEFF 		bl	__aeabi_fdiv
 247              	.LVL23:
 248              		.loc 1 202 0
 249 007c E36A     		ldr	r3, [r4, #44]	@ unaligned
 250              		.loc 1 201 0
 251 007e A062     		str	r0, [r4, #40]	@ unaligned
 252              		.loc 1 202 0
 253 0080 3749     		ldr	r1, .L22+8
 254 0082 1846     		mov	r0, r3
 255 0084 FFF7FEFF 		bl	__aeabi_fdiv
 256              	.LVL24:
 257              		.loc 1 203 0
 258 0088 84F86460 		strb	r6, [r4, #100]
 259              		.loc 1 202 0
 260 008c E062     		str	r0, [r4, #44]	@ unaligned
 261              		.loc 1 203 0
 262 008e 84F86560 		strb	r6, [r4, #101]
 263 0092 84F86660 		strb	r6, [r4, #102]
 264 0096 84F86760 		strb	r6, [r4, #103]
 265              		.loc 1 206 0
 266 009a 0120     		movs	r0, #1
 267              		.loc 1 207 0
 268 009c F8BD     		pop	{r3, r4, r5, r6, r7, pc}
 269              	.LVL25:
 270              	.L20:
 271              		.loc 1 186 0
 272 009e C168     		ldr	r1, [r0, #12]	@ unaligned
 273              	.LVL26:
 274              		.loc 1 187 0
 275 00a0 0269     		ldr	r2, [r0, #16]	@ unaligned
 276              		.loc 1 188 0
 277 00a2 4369     		ldr	r3, [r0, #20]	@ unaligned
 278              		.loc 1 189 0
 279 00a4 0126     		movs	r6, #1
 280 00a6 80F86550 		strb	r5, [r0, #101]
 281 00aa 80F86650 		strb	r5, [r0, #102]
 282 00ae 80F86750 		strb	r5, [r0, #103]
 283              		.loc 1 190 0
 284 00b2 2846     		mov	r0, r5
 285              	.LVL27:
ARM GAS  /tmp/ccGDfWPe.s 			page 6


 286              		.loc 1 186 0
 287 00b4 6162     		str	r1, [r4, #36]	@ unaligned
 288              		.loc 1 187 0
 289 00b6 A262     		str	r2, [r4, #40]	@ unaligned
 290              		.loc 1 188 0
 291 00b8 E362     		str	r3, [r4, #44]	@ unaligned
 292              		.loc 1 189 0
 293 00ba 84F86460 		strb	r6, [r4, #100]
 294              		.loc 1 190 0
 295 00be F8BD     		pop	{r3, r4, r5, r6, r7, pc}
 296              	.LVL28:
 297              	.L19:
 298              		.loc 1 164 0
 299 00c0 0268     		ldr	r2, [r0]	@ unaligned
 300              		.loc 1 165 0
 301 00c2 4368     		ldr	r3, [r0, #4]	@ unaligned
 302              		.loc 1 166 0
 303 00c4 8068     		ldr	r0, [r0, #8]	@ unaligned
 304              	.LVL29:
 305              		.loc 1 164 0
 306 00c6 A261     		str	r2, [r4, #24]	@ unaligned
 307              		.loc 1 165 0
 308 00c8 E361     		str	r3, [r4, #28]	@ unaligned
 309              		.loc 1 166 0
 310 00ca FFF7FEFF 		bl	__aeabi_f2d
 311              	.LVL30:
 312 00ce 22A3     		adr	r3, .L22
 313 00d0 D3E90023 		ldrd	r2, [r3]
 314 00d4 FFF7FEFF 		bl	__aeabi_dsub
 315              	.LVL31:
 316 00d8 FFF7FEFF 		bl	__aeabi_d2f
 317              	.LVL32:
 318              		.loc 1 167 0
 319 00dc 0123     		movs	r3, #1
 320              		.loc 1 166 0
 321 00de 2062     		str	r0, [r4, #32]	@ unaligned
 322              		.loc 1 167 0
 323 00e0 84F86550 		strb	r5, [r4, #101]
 324 00e4 84F86650 		strb	r5, [r4, #102]
 325 00e8 84F86750 		strb	r5, [r4, #103]
 326              		.loc 1 168 0
 327 00ec 2846     		mov	r0, r5
 328              		.loc 1 167 0
 329 00ee 84F86430 		strb	r3, [r4, #100]
 330              		.loc 1 168 0
 331 00f2 F8BD     		pop	{r3, r4, r5, r6, r7, pc}
 332              	.LVL33:
 333              	.L15:
 334              		.loc 1 178 0
 335 00f4 1A49     		ldr	r1, .L22+8
 336              	.LVL34:
 337 00f6 FFF7FEFF 		bl	__aeabi_fdiv
 338              	.LVL35:
 339              		.loc 1 179 0
 340 00fa E369     		ldr	r3, [r4, #28]	@ unaligned
 341              		.loc 1 178 0
 342 00fc A061     		str	r0, [r4, #24]	@ unaligned
ARM GAS  /tmp/ccGDfWPe.s 			page 7


 343              		.loc 1 179 0
 344 00fe 1849     		ldr	r1, .L22+8
 345 0100 1846     		mov	r0, r3
 346 0102 FFF7FEFF 		bl	__aeabi_fdiv
 347              	.LVL36:
 348              		.loc 1 180 0
 349 0106 236A     		ldr	r3, [r4, #32]	@ unaligned
 350              		.loc 1 179 0
 351 0108 E061     		str	r0, [r4, #28]	@ unaligned
 352              		.loc 1 180 0
 353 010a 1549     		ldr	r1, .L22+8
 354 010c 1846     		mov	r0, r3
 355 010e FFF7FEFF 		bl	__aeabi_fdiv
 356              	.LVL37:
 357              		.loc 1 181 0
 358 0112 0023     		movs	r3, #0
 359              		.loc 1 180 0
 360 0114 2062     		str	r0, [r4, #32]	@ unaligned
 361              		.loc 1 181 0
 362 0116 84F86430 		strb	r3, [r4, #100]
 363 011a 84F86530 		strb	r3, [r4, #101]
 364 011e 84F86630 		strb	r3, [r4, #102]
 365 0122 84F86730 		strb	r3, [r4, #103]
 366              		.loc 1 206 0
 367 0126 0120     		movs	r0, #1
 368 0128 F8BD     		pop	{r3, r4, r5, r6, r7, pc}
 369              	.LVL38:
 370              	.L21:
 371              		.loc 1 193 0
 372 012a E168     		ldr	r1, [r4, #12]	@ unaligned
 373              	.LVL39:
 374 012c FFF7FEFF 		bl	__aeabi_fadd
 375              	.LVL40:
 376              		.loc 1 194 0
 377 0130 A36A     		ldr	r3, [r4, #40]	@ unaligned
 378 0132 2169     		ldr	r1, [r4, #16]	@ unaligned
 379              		.loc 1 193 0
 380 0134 6062     		str	r0, [r4, #36]	@ unaligned
 381              		.loc 1 194 0
 382 0136 1846     		mov	r0, r3
 383 0138 FFF7FEFF 		bl	__aeabi_fadd
 384              	.LVL41:
 385              		.loc 1 195 0
 386 013c E36A     		ldr	r3, [r4, #44]	@ unaligned
 387              		.loc 1 194 0
 388 013e A062     		str	r0, [r4, #40]	@ unaligned
 389              		.loc 1 195 0
 390 0140 6169     		ldr	r1, [r4, #20]	@ unaligned
 391 0142 1846     		mov	r0, r3
 392 0144 FFF7FEFF 		bl	__aeabi_fadd
 393              	.LVL42:
 394              		.loc 1 196 0
 395 0148 6B1C     		adds	r3, r5, #1
 396              		.loc 1 195 0
 397 014a E062     		str	r0, [r4, #44]	@ unaligned
 398              		.loc 1 196 0
 399 014c 6366     		str	r3, [r4, #100]	@ unaligned
ARM GAS  /tmp/ccGDfWPe.s 			page 8


 400              		.loc 1 197 0
 401 014e 3046     		mov	r0, r6
 402 0150 F8BD     		pop	{r3, r4, r5, r6, r7, pc}
 403              	.LVL43:
 404              	.L23:
 405 0152 00BFAFF3 		.align	3
 405      0080
 406              	.L22:
 407 0158 1F85EB51 		.word	1374389535
 408 015c B89E2340 		.word	1076076216
 409 0160 0000FA44 		.word	1157234688
 410              		.cfi_endproc
 411              	.LFE215:
 412              		.size	imuCalibrate, .-imuCalibrate
 413              		.section	.text.mpu6050Init,"ax",%progbits
 414              		.align	2
 415              		.p2align 4,,15
 416              		.global	mpu6050Init
 417              		.thumb
 418              		.thumb_func
 419              		.type	mpu6050Init, %function
 420              	mpu6050Init:
 421              	.LFB216:
 422              		.loc 1 216 0
 423              		.cfi_startproc
 424              		@ args = 0, pretend = 0, frame = 0
 425              		@ frame_needed = 0, uses_anonymous_args = 0
 426              	.LVL44:
 427 0000 2DE9F043 		push	{r4, r5, r6, r7, r8, r9, lr}
 428              		.cfi_def_cfa_offset 28
 429              		.cfi_offset 4, -28
 430              		.cfi_offset 5, -24
 431              		.cfi_offset 6, -20
 432              		.cfi_offset 7, -16
 433              		.cfi_offset 8, -12
 434              		.cfi_offset 9, -8
 435              		.cfi_offset 14, -4
 436 0004 0746     		mov	r7, r0
 437 0006 85B0     		sub	sp, sp, #20
 438              		.cfi_def_cfa_offset 48
 439              		.loc 1 218 0
 440 0008 4649     		ldr	r1, .L39
 441              		.loc 1 223 0
 442 000a 474C     		ldr	r4, .L39+4
 443              		.loc 1 218 0
 444 000c 4748     		ldr	r0, .L39+8
 445              	.LVL45:
 446 000e FFF7FEFF 		bl	chprintf
 447              	.LVL46:
 448              		.loc 1 228 0
 449 0012 0025     		movs	r5, #0
 450              		.loc 1 224 0
 451 0014 C023     		movs	r3, #192
 452              		.loc 1 226 0
 453 0016 4648     		ldr	r0, .L39+12
 454              		.loc 1 228 0
 455 0018 4FF00209 		mov	r9, #2
ARM GAS  /tmp/ccGDfWPe.s 			page 9


 456 001c BFB2     		uxth	r7, r7
 457              		.loc 1 223 0
 458 001e 6B26     		movs	r6, #107
 459              		.loc 1 224 0
 460 0020 6370     		strb	r3, [r4, #1]
 461              		.loc 1 223 0
 462 0022 2670     		strb	r6, [r4]
 463              		.loc 1 226 0
 464 0024 FFF7FEFF 		bl	i2cAcquireBus
 465              	.LVL47:
 466              		.loc 1 228 0
 467 0028 3946     		mov	r1, r7
 468 002a 2246     		mov	r2, r4
 469 002c 0095     		str	r5, [sp]
 470 002e 0195     		str	r5, [sp, #4]
 471 0030 CDF80890 		str	r9, [sp, #8]
 472 0034 4B46     		mov	r3, r9
 473 0036 3E48     		ldr	r0, .L39+12
 474 0038 FFF7FEFF 		bl	i2cMasterTransmitTimeout
 475              	.LVL48:
 476              		.loc 1 231 0
 477 003c 8046     		mov	r8, r0
 478 003e 88B1     		cbz	r0, .L25
 479              		.loc 1 232 0
 480 0040 3C49     		ldr	r1, .L39+16
 481 0042 3A48     		ldr	r0, .L39+8
 482              	.LVL49:
 483 0044 FFF7FEFF 		bl	chprintf
 484              	.LVL50:
 485              		.loc 1 233 0
 486 0048 3948     		ldr	r0, .L39+12
 487 004a FFF7FEFF 		bl	i2cReleaseBus
 488              	.LVL51:
 489              		.loc 1 234 0
 490 004e 3848     		ldr	r0, .L39+12
 491 0050 FFF7FEFF 		bl	i2cGetErrors
 492              	.LVL52:
 493 0054 384B     		ldr	r3, .L39+20
 494 0056 1860     		str	r0, [r3]	@ unaligned
 495              		.loc 1 235 0
 496 0058 0028     		cmp	r0, #0
 497 005a 4AD1     		bne	.L26
 498              	.LVL53:
 499              	.L29:
 500              		.loc 1 239 0
 501 005c 0020     		movs	r0, #0
 502              	.L27:
 503              		.loc 1 288 0
 504 005e 05B0     		add	sp, sp, #20
 505              		.cfi_remember_state
 506              		.cfi_def_cfa_offset 28
 507              		@ sp needed
 508 0060 BDE8F083 		pop	{r4, r5, r6, r7, r8, r9, pc}
 509              	.LVL54:
 510              	.L25:
 511              		.cfi_restore_state
 512              		.loc 1 243 0
ARM GAS  /tmp/ccGDfWPe.s 			page 10


 513 0064 C820     		movs	r0, #200
 514              	.LVL55:
 515              		.loc 1 247 0
 516 0066 0325     		movs	r5, #3
 517              		.loc 1 243 0
 518 0068 FFF7FEFF 		bl	chThdSleep
 519              	.LVL56:
 520              		.loc 1 249 0
 521 006c CDF80080 		str	r8, [sp]
 522 0070 CDF80480 		str	r8, [sp, #4]
 523 0074 CDF80890 		str	r9, [sp, #8]
 524 0078 2D48     		ldr	r0, .L39+12
 525              		.loc 1 246 0
 526 007a 2670     		strb	r6, [r4]
 527              		.loc 1 249 0
 528 007c 3946     		mov	r1, r7
 529 007e 2246     		mov	r2, r4
 530 0080 4B46     		mov	r3, r9
 531              		.loc 1 247 0
 532 0082 6570     		strb	r5, [r4, #1]
 533              		.loc 1 249 0
 534 0084 FFF7FEFF 		bl	i2cMasterTransmitTimeout
 535              	.LVL57:
 536              		.loc 1 252 0
 537 0088 0646     		mov	r6, r0
 538 008a A8B1     		cbz	r0, .L28
 539              		.loc 1 253 0
 540 008c 2B49     		ldr	r1, .L39+24
 541 008e 2748     		ldr	r0, .L39+8
 542              	.LVL58:
 543 0090 FFF7FEFF 		bl	chprintf
 544              	.LVL59:
 545              		.loc 1 254 0
 546 0094 2648     		ldr	r0, .L39+12
 547 0096 FFF7FEFF 		bl	i2cReleaseBus
 548              	.LVL60:
 549              		.loc 1 255 0
 550 009a 2548     		ldr	r0, .L39+12
 551 009c FFF7FEFF 		bl	i2cGetErrors
 552              	.LVL61:
 553 00a0 254B     		ldr	r3, .L39+20
 554 00a2 1860     		str	r0, [r3]	@ unaligned
 555              		.loc 1 256 0
 556 00a4 0028     		cmp	r0, #0
 557 00a6 D9D0     		beq	.L29
 558              		.loc 1 257 0
 559 00a8 5A68     		ldr	r2, [r3, #4]	@ unaligned
 560              		.loc 1 258 0
 561 00aa 2548     		ldr	r0, .L39+28
 562              		.loc 1 257 0
 563 00ac 0132     		adds	r2, r2, #1
 564 00ae 5A60     		str	r2, [r3, #4]	@ unaligned
 565              		.loc 1 258 0
 566 00b0 FFF7FEFF 		bl	debugLog
 567              	.LVL62:
 568              		.loc 1 260 0
 569 00b4 4046     		mov	r0, r8
ARM GAS  /tmp/ccGDfWPe.s 			page 11


 570 00b6 D2E7     		b	.L27
 571              	.LVL63:
 572              	.L28:
 573              		.loc 1 273 0
 574 00b8 3946     		mov	r1, r7
 575              		.loc 1 267 0
 576 00ba 4FF0190E 		mov	lr, #25
 577              		.loc 1 270 0
 578 00be 1025     		movs	r5, #16
 579              		.loc 1 268 0
 580 00c0 0B27     		movs	r7, #11
 581              		.loc 1 273 0
 582 00c2 0090     		str	r0, [sp]
 583 00c4 0190     		str	r0, [sp, #4]
 584 00c6 CDF80890 		str	r9, [sp, #8]
 585 00ca 2246     		mov	r2, r4
 586              		.loc 1 269 0
 587 00cc A670     		strb	r6, [r4, #2]
 588              		.loc 1 267 0
 589 00ce 84F800E0 		strb	lr, [r4]
 590              		.loc 1 268 0
 591 00d2 6770     		strb	r7, [r4, #1]
 592              		.loc 1 270 0
 593 00d4 E570     		strb	r5, [r4, #3]
 594              		.loc 1 271 0
 595 00d6 2571     		strb	r5, [r4, #4]
 596              		.loc 1 273 0
 597 00d8 1548     		ldr	r0, .L39+12
 598              	.LVL64:
 599 00da 0523     		movs	r3, #5
 600 00dc FFF7FEFF 		bl	i2cMasterTransmitTimeout
 601              	.LVL65:
 602 00e0 0446     		mov	r4, r0
 603              	.LVL66:
 604              		.loc 1 276 0
 605 00e2 1348     		ldr	r0, .L39+12
 606              	.LVL67:
 607 00e4 FFF7FEFF 		bl	i2cReleaseBus
 608              	.LVL68:
 609              		.loc 1 278 0
 610 00e8 6CB9     		cbnz	r4, .L38
 611              		.loc 1 287 0
 612 00ea 0120     		movs	r0, #1
 613              		.loc 1 288 0
 614 00ec 05B0     		add	sp, sp, #20
 615              		.cfi_remember_state
 616              		.cfi_def_cfa_offset 28
 617              		@ sp needed
 618 00ee BDE8F083 		pop	{r4, r5, r6, r7, r8, r9, pc}
 619              	.LVL69:
 620              	.L26:
 621              		.cfi_restore_state
 622              		.loc 1 236 0
 623 00f2 5A68     		ldr	r2, [r3, #4]	@ unaligned
 624              		.loc 1 237 0
 625 00f4 1348     		ldr	r0, .L39+32
 626              		.loc 1 236 0
ARM GAS  /tmp/ccGDfWPe.s 			page 12


 627 00f6 0132     		adds	r2, r2, #1
 628 00f8 5A60     		str	r2, [r3, #4]	@ unaligned
 629              		.loc 1 237 0
 630 00fa FFF7FEFF 		bl	debugLog
 631              	.LVL70:
 632              		.loc 1 239 0
 633 00fe 2846     		mov	r0, r5
 634              		.loc 1 288 0
 635 0100 05B0     		add	sp, sp, #20
 636              		.cfi_remember_state
 637              		.cfi_def_cfa_offset 28
 638              		@ sp needed
 639 0102 BDE8F083 		pop	{r4, r5, r6, r7, r8, r9, pc}
 640              	.LVL71:
 641              	.L38:
 642              		.cfi_restore_state
 643              		.loc 1 279 0
 644 0106 0A48     		ldr	r0, .L39+12
 645 0108 FFF7FEFF 		bl	i2cGetErrors
 646              	.LVL72:
 647 010c 0A4B     		ldr	r3, .L39+20
 648 010e 1860     		str	r0, [r3]	@ unaligned
 649              		.loc 1 280 0
 650 0110 0028     		cmp	r0, #0
 651 0112 A3D0     		beq	.L29
 652              		.loc 1 281 0
 653 0114 5A68     		ldr	r2, [r3, #4]	@ unaligned
 654              		.loc 1 282 0
 655 0116 0C48     		ldr	r0, .L39+36
 656              		.loc 1 281 0
 657 0118 0132     		adds	r2, r2, #1
 658 011a 5A60     		str	r2, [r3, #4]	@ unaligned
 659              		.loc 1 282 0
 660 011c FFF7FEFF 		bl	debugLog
 661              	.LVL73:
 662              		.loc 1 284 0
 663 0120 3046     		mov	r0, r6
 664 0122 9CE7     		b	.L27
 665              	.L40:
 666              		.align	2
 667              	.L39:
 668 0124 00000000 		.word	.LC0
 669 0128 00000000 		.word	.LANCHOR1
 670 012c 00000000 		.word	SD4
 671 0130 00000000 		.word	I2CD2
 672 0134 10000000 		.word	.LC1
 673 0138 00000000 		.word	g_i2cErrorInfo
 674 013c 30000000 		.word	.LC3
 675 0140 44000000 		.word	.LC4
 676 0144 20000000 		.word	.LC2
 677 0148 54000000 		.word	.LC5
 678              		.cfi_endproc
 679              	.LFE216:
 680              		.size	mpu6050Init, .-mpu6050Init
 681              		.global	__aeabi_i2d
 682              		.global	__aeabi_dmul
 683              		.global	__aeabi_i2f
ARM GAS  /tmp/ccGDfWPe.s 			page 13


 684              		.global	__aeabi_fmul
 685              		.global	__aeabi_f2uiz
 686              		.section	.text.mpu6050GetNewData,"ax",%progbits
 687              		.align	2
 688              		.p2align 4,,15
 689              		.global	mpu6050GetNewData
 690              		.thumb
 691              		.thumb_func
 692              		.type	mpu6050GetNewData, %function
 693              	mpu6050GetNewData:
 694              	.LFB217:
 695              		.loc 1 296 0
 696              		.cfi_startproc
 697              		@ args = 0, pretend = 0, frame = 16
 698              		@ frame_needed = 0, uses_anonymous_args = 0
 699              	.LVL74:
 700 0000 2DE9F04F 		push	{r4, r5, r6, r7, r8, r9, r10, fp, lr}
 701              		.cfi_def_cfa_offset 36
 702              		.cfi_offset 4, -36
 703              		.cfi_offset 5, -32
 704              		.cfi_offset 6, -28
 705              		.cfi_offset 7, -24
 706              		.cfi_offset 8, -20
 707              		.cfi_offset 9, -16
 708              		.cfi_offset 10, -12
 709              		.cfi_offset 11, -8
 710              		.cfi_offset 14, -4
 711 0004 0546     		mov	r5, r0
 712              		.loc 1 302 0
 713 0006 8C4E     		ldr	r6, .L56+8
 714              		.loc 1 296 0
 715 0008 89B0     		sub	sp, sp, #36
 716              		.cfi_def_cfa_offset 72
 717              		.loc 1 302 0
 718 000a 3B23     		movs	r3, #59
 719              		.loc 1 303 0
 720 000c 8B48     		ldr	r0, .L56+12
 721              	.LVL75:
 722              		.loc 1 304 0
 723 000e 8C4C     		ldr	r4, .L56+16
 724              		.loc 1 302 0
 725 0010 3370     		strb	r3, [r6]
 726              		.loc 1 303 0
 727 0012 FFF7FEFF 		bl	i2cAcquireBus
 728              	.LVL76:
 729              		.loc 1 304 0
 730 0016 0E20     		movs	r0, #14
 731 0018 0223     		movs	r3, #2
 732 001a 95F86B10 		ldrb	r1, [r5, #107]	@ zero_extendqisi2
 733 001e 3246     		mov	r2, r6
 734 0020 0190     		str	r0, [sp, #4]
 735 0022 0293     		str	r3, [sp, #8]
 736 0024 0094     		str	r4, [sp]
 737 0026 8548     		ldr	r0, .L56+12
 738 0028 0123     		movs	r3, #1
 739 002a FFF7FEFF 		bl	i2cMasterTransmitTimeout
 740              	.LVL77:
ARM GAS  /tmp/ccGDfWPe.s 			page 14


 741 002e 0646     		mov	r6, r0
 742              	.LVL78:
 743              		.loc 1 306 0
 744 0030 8248     		ldr	r0, .L56+12
 745              	.LVL79:
 746 0032 FFF7FEFF 		bl	i2cReleaseBus
 747              	.LVL80:
 748              		.loc 1 308 0
 749 0036 002E     		cmp	r6, #0
 750 0038 40F0D580 		bne	.L52
 751              		.loc 1 317 0
 752 003c 94F800B0 		ldrb	fp, [r4]	@ zero_extendqisi2
 753 0040 6778     		ldrb	r7, [r4, #1]	@ zero_extendqisi2
 754              		.loc 1 318 0
 755 0042 94F802A0 		ldrb	r10, [r4, #2]	@ zero_extendqisi2
 756 0046 E678     		ldrb	r6, [r4, #3]	@ zero_extendqisi2
 757              	.LVL81:
 758              		.loc 1 319 0
 759 0048 94F80490 		ldrb	r9, [r4, #4]	@ zero_extendqisi2
 760 004c 6079     		ldrb	r0, [r4, #5]	@ zero_extendqisi2
 761              		.loc 1 320 0
 762 004e 94F80880 		ldrb	r8, [r4, #8]	@ zero_extendqisi2
 763 0052 617A     		ldrb	r1, [r4, #9]	@ zero_extendqisi2
 764              		.loc 1 321 0
 765 0054 94F80AC0 		ldrb	ip, [r4, #10]	@ zero_extendqisi2
 766 0058 E27A     		ldrb	r2, [r4, #11]	@ zero_extendqisi2
 767              		.loc 1 322 0
 768 005a 237B     		ldrb	r3, [r4, #12]	@ zero_extendqisi2
 769 005c 647B     		ldrb	r4, [r4, #13]	@ zero_extendqisi2
 770              		.loc 1 329 0
 771 005e 95F868E0 		ldrb	lr, [r5, #104]	@ zero_extendqisi2
 772              		.loc 1 322 0
 773 0062 44EA0323 		orr	r3, r4, r3, lsl #8
 774              		.loc 1 319 0
 775 0066 40EA0920 		orr	r0, r0, r9, lsl #8
 776              		.loc 1 322 0
 777 006a ADF81E30 		strh	r3, [sp, #30]	@ movhi
 778              		.loc 1 317 0
 779 006e 47EA0B27 		orr	r7, r7, fp, lsl #8
 780              		.loc 1 318 0
 781 0072 46EA0A26 		orr	r6, r6, r10, lsl #8
 782              		.loc 1 320 0
 783 0076 41EA0821 		orr	r1, r1, r8, lsl #8
 784              		.loc 1 321 0
 785 007a 42EA0C22 		orr	r2, r2, ip, lsl #8
 786              		.loc 1 329 0
 787 007e 0EF00704 		and	r4, lr, #7
 788              	.LVL82:
 789              		.loc 1 331 0
 790 0082 08AB     		add	r3, sp, #32
 791              		.loc 1 317 0
 792 0084 ADF81470 		strh	r7, [sp, #20]	@ movhi
 793              		.loc 1 318 0
 794 0088 ADF81660 		strh	r6, [sp, #22]	@ movhi
 795              		.loc 1 319 0
 796 008c ADF81800 		strh	r0, [sp, #24]	@ movhi
 797              		.loc 1 320 0
ARM GAS  /tmp/ccGDfWPe.s 			page 15


 798 0090 ADF81A10 		strh	r1, [sp, #26]	@ movhi
 799              		.loc 1 321 0
 800 0094 ADF81C20 		strh	r2, [sp, #28]	@ movhi
 801              		.loc 1 331 0
 802 0098 03EB4403 		add	r3, r3, r4, lsl #1
 803              		.loc 1 330 0
 804 009c 1EF0080F 		tst	lr, #8
 805              		.loc 1 331 0
 806 00a0 33F90C0C 		ldrsh	r0, [r3, #-12]
 807              		.loc 1 330 0
 808 00a4 70D1     		bne	.L53
 809              		.loc 1 334 0
 810 00a6 C043     		mvns	r0, r0
 811 00a8 FFF7FEFF 		bl	__aeabi_i2d
 812              	.LVL83:
 813 00ac 60A3     		adr	r3, .L56
 814 00ae D3E90023 		ldrd	r2, [r3]
 815 00b2 FFF7FEFF 		bl	__aeabi_dmul
 816              	.LVL84:
 817 00b6 FFF7FEFF 		bl	__aeabi_d2f
 818              	.LVL85:
 819              		.loc 1 335 0
 820 00ba 08AB     		add	r3, sp, #32
 821 00bc 03EB4404 		add	r4, r3, r4, lsl #1
 822              	.LVL86:
 823 00c0 34F9063C 		ldrsh	r3, [r4, #-6]
 824              		.loc 1 334 0
 825 00c4 2860     		str	r0, [r5]	@ unaligned
 826 00c6 0646     		mov	r6, r0
 827              		.loc 1 335 0
 828 00c8 D843     		mvns	r0, r3
 829 00ca FFF7FEFF 		bl	__aeabi_i2f
 830              	.LVL87:
 831 00ce 5D49     		ldr	r1, .L56+20
 832 00d0 FFF7FEFF 		bl	__aeabi_fmul
 833              	.LVL88:
 834 00d4 E860     		str	r0, [r5, #12]	@ unaligned
 835              	.L45:
 836              		.loc 1 339 0
 837 00d6 3046     		mov	r0, r6
 838 00d8 FFF7FEFF 		bl	__aeabi_f2uiz
 839              	.LVL89:
 840 00dc 5A49     		ldr	r1, .L56+24
 841 00de C2B2     		uxtb	r2, r0
 842 00e0 5A48     		ldr	r0, .L56+28
 843 00e2 FFF7FEFF 		bl	chprintf
 844              	.LVL90:
 845              		.loc 1 340 0
 846 00e6 6868     		ldr	r0, [r5, #4]	@ unaligned
 847 00e8 FFF7FEFF 		bl	__aeabi_f2uiz
 848              	.LVL91:
 849 00ec 5849     		ldr	r1, .L56+32
 850 00ee C2B2     		uxtb	r2, r0
 851 00f0 5648     		ldr	r0, .L56+28
 852 00f2 FFF7FEFF 		bl	chprintf
 853              	.LVL92:
 854              		.loc 1 345 0
ARM GAS  /tmp/ccGDfWPe.s 			page 16


 855 00f6 95F86930 		ldrb	r3, [r5, #105]	@ zero_extendqisi2
 856 00fa 03F00704 		and	r4, r3, #7
 857              	.LVL93:
 858              		.loc 1 346 0
 859 00fe 13F0080F 		tst	r3, #8
 860              		.loc 1 347 0
 861 0102 08AB     		add	r3, sp, #32
 862 0104 03EB4403 		add	r3, r3, r4, lsl #1
 863 0108 33F90C0C 		ldrsh	r0, [r3, #-12]
 864              		.loc 1 346 0
 865 010c 53D0     		beq	.L46
 866              		.loc 1 347 0
 867 010e FFF7FEFF 		bl	__aeabi_i2d
 868              	.LVL94:
 869 0112 47A3     		adr	r3, .L56
 870 0114 D3E90023 		ldrd	r2, [r3]
 871 0118 FFF7FEFF 		bl	__aeabi_dmul
 872              	.LVL95:
 873 011c FFF7FEFF 		bl	__aeabi_d2f
 874              	.LVL96:
 875              		.loc 1 348 0
 876 0120 08AB     		add	r3, sp, #32
 877 0122 03EB4404 		add	r4, r3, r4, lsl #1
 878              	.LVL97:
 879              		.loc 1 347 0
 880 0126 6860     		str	r0, [r5, #4]	@ unaligned
 881              		.loc 1 348 0
 882 0128 34F9060C 		ldrsh	r0, [r4, #-6]
 883 012c FFF7FEFF 		bl	__aeabi_i2f
 884              	.LVL98:
 885 0130 4449     		ldr	r1, .L56+20
 886 0132 FFF7FEFF 		bl	__aeabi_fmul
 887              	.LVL99:
 888 0136 2861     		str	r0, [r5, #16]	@ unaligned
 889              	.L47:
 890              		.loc 1 355 0
 891 0138 95F86A30 		ldrb	r3, [r5, #106]	@ zero_extendqisi2
 892 013c 03F00704 		and	r4, r3, #7
 893              	.LVL100:
 894              		.loc 1 356 0
 895 0140 13F0080F 		tst	r3, #8
 896              		.loc 1 357 0
 897 0144 08AB     		add	r3, sp, #32
 898 0146 03EB4403 		add	r3, r3, r4, lsl #1
 899 014a 33F90C0C 		ldrsh	r0, [r3, #-12]
 900              		.loc 1 356 0
 901 014e 55D1     		bne	.L54
 902              		.loc 1 360 0
 903 0150 C043     		mvns	r0, r0
 904 0152 FFF7FEFF 		bl	__aeabi_i2d
 905              	.LVL101:
 906 0156 36A3     		adr	r3, .L56
 907 0158 D3E90023 		ldrd	r2, [r3]
 908 015c FFF7FEFF 		bl	__aeabi_dmul
 909              	.LVL102:
 910 0160 FFF7FEFF 		bl	__aeabi_d2f
 911              	.LVL103:
ARM GAS  /tmp/ccGDfWPe.s 			page 17


 912              		.loc 1 361 0
 913 0164 08AB     		add	r3, sp, #32
 914 0166 03EB4404 		add	r4, r3, r4, lsl #1
 915              	.LVL104:
 916 016a 34F9063C 		ldrsh	r3, [r4, #-6]
 917              		.loc 1 360 0
 918 016e A860     		str	r0, [r5, #8]	@ unaligned
 919              		.loc 1 361 0
 920 0170 D843     		mvns	r0, r3
 921              	.L51:
 922 0172 FFF7FEFF 		bl	__aeabi_i2f
 923              	.LVL105:
 924 0176 3349     		ldr	r1, .L56+20
 925 0178 FFF7FEFF 		bl	__aeabi_fmul
 926              	.LVL106:
 927              		.loc 1 364 0
 928 017c 0123     		movs	r3, #1
 929              		.loc 1 361 0
 930 017e 6861     		str	r0, [r5, #20]	@ unaligned
 931              	.L43:
 932              		.loc 1 365 0
 933 0180 1846     		mov	r0, r3
 934 0182 09B0     		add	sp, sp, #36
 935              		.cfi_remember_state
 936              		.cfi_def_cfa_offset 36
 937              		@ sp needed
 938 0184 BDE8F08F 		pop	{r4, r5, r6, r7, r8, r9, r10, fp, pc}
 939              	.LVL107:
 940              	.L53:
 941              		.cfi_restore_state
 942              		.loc 1 331 0
 943 0188 FFF7FEFF 		bl	__aeabi_i2d
 944              	.LVL108:
 945 018c 28A3     		adr	r3, .L56
 946 018e D3E90023 		ldrd	r2, [r3]
 947 0192 FFF7FEFF 		bl	__aeabi_dmul
 948              	.LVL109:
 949 0196 FFF7FEFF 		bl	__aeabi_d2f
 950              	.LVL110:
 951              		.loc 1 332 0
 952 019a 08AB     		add	r3, sp, #32
 953 019c 03EB4404 		add	r4, r3, r4, lsl #1
 954              	.LVL111:
 955              		.loc 1 331 0
 956 01a0 2860     		str	r0, [r5]	@ unaligned
 957 01a2 0646     		mov	r6, r0
 958              		.loc 1 332 0
 959 01a4 34F9060C 		ldrsh	r0, [r4, #-6]
 960 01a8 FFF7FEFF 		bl	__aeabi_i2f
 961              	.LVL112:
 962 01ac 2549     		ldr	r1, .L56+20
 963 01ae FFF7FEFF 		bl	__aeabi_fmul
 964              	.LVL113:
 965 01b2 E860     		str	r0, [r5, #12]	@ unaligned
 966 01b4 8FE7     		b	.L45
 967              	.LVL114:
 968              	.L46:
ARM GAS  /tmp/ccGDfWPe.s 			page 18


 969              		.loc 1 350 0
 970 01b6 C043     		mvns	r0, r0
 971 01b8 FFF7FEFF 		bl	__aeabi_i2d
 972              	.LVL115:
 973 01bc 1CA3     		adr	r3, .L56
 974 01be D3E90023 		ldrd	r2, [r3]
 975 01c2 FFF7FEFF 		bl	__aeabi_dmul
 976              	.LVL116:
 977 01c6 FFF7FEFF 		bl	__aeabi_d2f
 978              	.LVL117:
 979              		.loc 1 351 0
 980 01ca 08AB     		add	r3, sp, #32
 981 01cc 03EB4404 		add	r4, r3, r4, lsl #1
 982              	.LVL118:
 983 01d0 34F9063C 		ldrsh	r3, [r4, #-6]
 984              		.loc 1 350 0
 985 01d4 6860     		str	r0, [r5, #4]	@ unaligned
 986              		.loc 1 351 0
 987 01d6 D843     		mvns	r0, r3
 988 01d8 FFF7FEFF 		bl	__aeabi_i2f
 989              	.LVL119:
 990 01dc 1949     		ldr	r1, .L56+20
 991 01de FFF7FEFF 		bl	__aeabi_fmul
 992              	.LVL120:
 993 01e2 2861     		str	r0, [r5, #16]	@ unaligned
 994 01e4 A8E7     		b	.L47
 995              	.LVL121:
 996              	.L52:
 997              		.loc 1 309 0
 998 01e6 1548     		ldr	r0, .L56+12
 999 01e8 FFF7FEFF 		bl	i2cGetErrors
 1000              	.LVL122:
 1001 01ec 194B     		ldr	r3, .L56+36
 1002 01ee 1860     		str	r0, [r3]	@ unaligned
 1003              		.loc 1 310 0
 1004 01f0 A0B9     		cbnz	r0, .L55
 1005              		.loc 1 314 0
 1006 01f2 0346     		mov	r3, r0
 1007              		.loc 1 365 0
 1008 01f4 1846     		mov	r0, r3
 1009 01f6 09B0     		add	sp, sp, #36
 1010              		.cfi_remember_state
 1011              		.cfi_def_cfa_offset 36
 1012              		@ sp needed
 1013 01f8 BDE8F08F 		pop	{r4, r5, r6, r7, r8, r9, r10, fp, pc}
 1014              	.LVL123:
 1015              	.L54:
 1016              		.cfi_restore_state
 1017              		.loc 1 357 0
 1018 01fc FFF7FEFF 		bl	__aeabi_i2d
 1019              	.LVL124:
 1020 0200 0BA3     		adr	r3, .L56
 1021 0202 D3E90023 		ldrd	r2, [r3]
 1022 0206 FFF7FEFF 		bl	__aeabi_dmul
 1023              	.LVL125:
 1024 020a FFF7FEFF 		bl	__aeabi_d2f
 1025              	.LVL126:
ARM GAS  /tmp/ccGDfWPe.s 			page 19


 1026              		.loc 1 358 0
 1027 020e 08AB     		add	r3, sp, #32
 1028 0210 03EB4404 		add	r4, r3, r4, lsl #1
 1029              	.LVL127:
 1030              		.loc 1 357 0
 1031 0214 A860     		str	r0, [r5, #8]	@ unaligned
 1032              		.loc 1 358 0
 1033 0216 34F9060C 		ldrsh	r0, [r4, #-6]
 1034 021a AAE7     		b	.L51
 1035              	.LVL128:
 1036              	.L55:
 1037              		.loc 1 311 0
 1038 021c 5A68     		ldr	r2, [r3, #4]	@ unaligned
 1039              		.loc 1 312 0
 1040 021e 0E48     		ldr	r0, .L56+40
 1041              		.loc 1 311 0
 1042 0220 0132     		adds	r2, r2, #1
 1043 0222 5A60     		str	r2, [r3, #4]	@ unaligned
 1044              		.loc 1 312 0
 1045 0224 FFF7FEFF 		bl	debugLog
 1046              	.LVL129:
 1047              		.loc 1 314 0
 1048 0228 0023     		movs	r3, #0
 1049 022a A9E7     		b	.L43
 1050              	.L57:
 1051 022c AFF30080 		.align	3
 1052              	.L56:
 1053 0230 1F85EB51 		.word	1374389535
 1054 0234 B89E633F 		.word	1063493304
 1055 0238 00000000 		.word	.LANCHOR1
 1056 023c 00000000 		.word	I2CD2
 1057 0240 00000000 		.word	.LANCHOR2
 1058 0244 90C1F93C 		.word	1023000976
 1059 0248 74000000 		.word	.LC7
 1060 024c 00000000 		.word	SD4
 1061 0250 7C000000 		.word	.LC8
 1062 0254 00000000 		.word	g_i2cErrorInfo
 1063 0258 64000000 		.word	.LC6
 1064              		.cfi_endproc
 1065              	.LFE217:
 1066              		.size	mpu6050GetNewData, .-mpu6050GetNewData
 1067              		.section	.text.sensorSettingsUpdate,"ax",%progbits
 1068              		.align	2
 1069              		.p2align 4,,15
 1070              		.global	sensorSettingsUpdate
 1071              		.thumb
 1072              		.thumb_func
 1073              		.type	sensorSettingsUpdate, %function
 1074              	sensorSettingsUpdate:
 1075              	.LFB218:
 1076              		.loc 1 370 0
 1077              		.cfi_startproc
 1078              		@ args = 0, pretend = 0, frame = 0
 1079              		@ frame_needed = 0, uses_anonymous_args = 0
 1080              		@ link register save eliminated.
 1081              	.LVL130:
 1082 0000 30B4     		push	{r4, r5}
ARM GAS  /tmp/ccGDfWPe.s 			page 20


 1083              		.cfi_def_cfa_offset 8
 1084              		.cfi_offset 4, -8
 1085              		.cfi_offset 5, -4
 1086              		.loc 1 372 0
 1087 0002 0B4B     		ldr	r3, .L60
 1088 0004 0288     		ldrh	r2, [r0]	@ unaligned
 1089 0006 8478     		ldrb	r4, [r0, #2]	@ zero_extendqisi2
 1090 0008 1A80     		strh	r2, [r3]	@ unaligned
 1091              		.loc 1 374 0
 1092 000a 1878     		ldrb	r0, [r3]	@ zero_extendqisi2
 1093              	.LVL131:
 1094 000c 5978     		ldrb	r1, [r3, #1]	@ zero_extendqisi2
 1095 000e 094A     		ldr	r2, .L60+4
 1096 0010 04F00F05 		and	r5, r4, #15
 1097 0014 00F00F00 		and	r0, r0, #15
 1098 0018 01F00F01 		and	r1, r1, #15
 1099              		.loc 1 372 0
 1100 001c 9C70     		strb	r4, [r3, #2]
 1101              	.LVL132:
 1102              		.loc 1 374 0
 1103 001e 82F86A50 		strb	r5, [r2, #106]
 1104 0022 82F86800 		strb	r0, [r2, #104]
 1105              	.LVL133:
 1106 0026 82F86910 		strb	r1, [r2, #105]
 1107              	.LVL134:
 1108              		.loc 1 376 0
 1109 002a 30BC     		pop	{r4, r5}
 1110              		.cfi_restore 5
 1111              		.cfi_restore 4
 1112              		.cfi_def_cfa_offset 0
 1113 002c 7047     		bx	lr
 1114              	.L61:
 1115 002e 00BF     		.align	2
 1116              	.L60:
 1117 0030 00000000 		.word	.LANCHOR0
 1118 0034 00000000 		.word	.LANCHOR3
 1119              		.cfi_endproc
 1120              	.LFE218:
 1121              		.size	sensorSettingsUpdate, .-sensorSettingsUpdate
 1122              		.section	.text.accelBiasUpdate,"ax",%progbits
 1123              		.align	2
 1124              		.p2align 4,,15
 1125              		.global	accelBiasUpdate
 1126              		.thumb
 1127              		.thumb_func
 1128              		.type	accelBiasUpdate, %function
 1129              	accelBiasUpdate:
 1130              	.LFB219:
 1131              		.loc 1 381 0
 1132              		.cfi_startproc
 1133              		@ args = 0, pretend = 0, frame = 0
 1134              		@ frame_needed = 0, uses_anonymous_args = 0
 1135              		@ link register save eliminated.
 1136              	.LVL135:
 1137 0000 30B4     		push	{r4, r5}
 1138              		.cfi_def_cfa_offset 8
 1139              		.cfi_offset 4, -8
ARM GAS  /tmp/ccGDfWPe.s 			page 21


 1140              		.cfi_offset 5, -4
 1141              		.loc 1 382 0
 1142 0002 8A68     		ldr	r2, [r1, #8]	@ unaligned
 1143 0004 0D68     		ldr	r5, [r1]	@ unaligned
 1144 0006 4C68     		ldr	r4, [r1, #4]	@ unaligned
 1145 0008 8561     		str	r5, [r0, #24]	@ unaligned
 1146 000a C461     		str	r4, [r0, #28]	@ unaligned
 1147 000c 0262     		str	r2, [r0, #32]	@ unaligned
 1148              		.loc 1 383 0
 1149 000e 30BC     		pop	{r4, r5}
 1150              		.cfi_restore 5
 1151              		.cfi_restore 4
 1152              		.cfi_def_cfa_offset 0
 1153 0010 7047     		bx	lr
 1154              		.cfi_endproc
 1155              	.LFE219:
 1156              		.size	accelBiasUpdate, .-accelBiasUpdate
 1157 0012 00BF     		.section	.text.gyroBiasUpdate,"ax",%progbits
 1158              		.align	2
 1159              		.p2align 4,,15
 1160              		.global	gyroBiasUpdate
 1161              		.thumb
 1162              		.thumb_func
 1163              		.type	gyroBiasUpdate, %function
 1164              	gyroBiasUpdate:
 1165              	.LFB220:
 1166              		.loc 1 388 0
 1167              		.cfi_startproc
 1168              		@ args = 0, pretend = 0, frame = 0
 1169              		@ frame_needed = 0, uses_anonymous_args = 0
 1170              		@ link register save eliminated.
 1171              	.LVL136:
 1172 0000 30B4     		push	{r4, r5}
 1173              		.cfi_def_cfa_offset 8
 1174              		.cfi_offset 4, -8
 1175              		.cfi_offset 5, -4
 1176              		.loc 1 389 0
 1177 0002 8A68     		ldr	r2, [r1, #8]	@ unaligned
 1178 0004 0D68     		ldr	r5, [r1]	@ unaligned
 1179 0006 4C68     		ldr	r4, [r1, #4]	@ unaligned
 1180 0008 4562     		str	r5, [r0, #36]	@ unaligned
 1181 000a 8462     		str	r4, [r0, #40]	@ unaligned
 1182 000c C262     		str	r2, [r0, #44]	@ unaligned
 1183              		.loc 1 390 0
 1184 000e 30BC     		pop	{r4, r5}
 1185              		.cfi_restore 5
 1186              		.cfi_restore 4
 1187              		.cfi_def_cfa_offset 0
 1188 0010 7047     		bx	lr
 1189              		.cfi_endproc
 1190              	.LFE220:
 1191              		.size	gyroBiasUpdate, .-gyroBiasUpdate
 1192              		.global	g_IMU1
 1193              		.global	g_sensorSettings
 1194 0012 00BF     		.section	.bss.mpu6050TXData,"aw",%nobits
 1195              		.align	2
 1196              		.set	.LANCHOR1,. + 0
ARM GAS  /tmp/ccGDfWPe.s 			page 22


 1197              		.type	mpu6050TXData, %object
 1198              		.size	mpu6050TXData, 5
 1199              	mpu6050TXData:
 1200 0000 00000000 		.space	5
 1200      00
 1201              		.section	.bss.mpu6050RXData,"aw",%nobits
 1202              		.align	2
 1203              		.set	.LANCHOR2,. + 0
 1204              		.type	mpu6050RXData, %object
 1205              		.size	mpu6050RXData, 14
 1206              	mpu6050RXData:
 1207 0000 00000000 		.space	14
 1207      00000000 
 1207      00000000 
 1207      0000
 1208              		.section	.rodata.str1.4,"aMS",%progbits,1
 1209              		.align	2
 1210              	.LC0:
 1211 0000 49494936 		.ascii	"III6050 init\012\000"
 1211      30353020 
 1211      696E6974 
 1211      0A00
 1212 000e 0000     		.space	2
 1213              	.LC1:
 1214 0010 49494936 		.ascii	"III6050 not OK\012\000"
 1214      30353020 
 1214      6E6F7420 
 1214      4F4B0A00 
 1215              	.LC2:
 1216 0020 453A6D70 		.ascii	"E:mpu6050i-tx1\000"
 1216      75363035 
 1216      30692D74 
 1216      783100
 1217 002f 00       		.space	1
 1218              	.LC3:
 1219 0030 49494936 		.ascii	"III6050 not OK2\012\000"
 1219      30353020 
 1219      6E6F7420 
 1219      4F4B320A 
 1219      00
 1220 0041 000000   		.space	3
 1221              	.LC4:
 1222 0044 453A6D70 		.ascii	"E:mpu6050i-rst\000"
 1222      75363035 
 1222      30692D72 
 1222      737400
 1223 0053 00       		.space	1
 1224              	.LC5:
 1225 0054 453A6D70 		.ascii	"E:mpu6050i-cfg\000"
 1225      75363035 
 1225      30692D63 
 1225      666700
 1226 0063 00       		.space	1
 1227              	.LC6:
 1228 0064 453A6D70 		.ascii	"E:mpu6050gnd\000"
 1228      75363035 
 1228      30676E64 
ARM GAS  /tmp/ccGDfWPe.s 			page 23


 1228      00
 1229 0071 000000   		.space	3
 1230              	.LC7:
 1231 0074 67254420 		.ascii	"g%D \000"
 1231      00
 1232 0079 000000   		.space	3
 1233              	.LC8:
 1234 007c 6725440D 		.ascii	"g%D\015\000"
 1234      00
 1235              		.section	.data.g_sensorSettings,"aw",%progbits
 1236              		.align	2
 1237              		.set	.LANCHOR0,. + 0
 1238              		.type	g_sensorSettings, %object
 1239              		.size	g_sensorSettings, 3
 1240              	g_sensorSettings:
 1241 0000 00       		.byte	0
 1242 0001 11       		.byte	17
 1243 0002 AA       		.byte	-86
 1244              		.section	.bss.g_IMU1,"aw",%nobits
 1245              		.align	2
 1246              		.set	.LANCHOR3,. + 0
 1247              		.type	g_IMU1, %object
 1248              		.size	g_IMU1, 108
 1249              	g_IMU1:
 1250 0000 00000000 		.space	108
 1250      00000000 
 1250      00000000 
 1250      00000000 
 1250      00000000 
 1251              		.text
 1252              	.Letext0:
 1253              		.file 2 "/opt/stm32/gcc/gcc-arm-none-eabi-4_9-2015q2/lib/gcc/arm-none-eabi/4.9.3/include/stddef.h"
 1254              		.file 3 "/opt/stm32/gcc/gcc-arm-none-eabi-4_9-2015q2/arm-none-eabi/include/machine/_default_types.
 1255              		.file 4 "/opt/stm32/gcc/gcc-arm-none-eabi-4_9-2015q2/arm-none-eabi/include/sys/_stdint.h"
 1256              		.file 5 "/home/maciek/ChibiOS_16.1.5/os/rt/ports/ARMCMx/compilers/GCC/chtypes.h"
 1257              		.file 6 "/home/maciek/ChibiOS_16.1.5/os/rt/include/chsystypes.h"
 1258              		.file 7 "/home/maciek/ChibiOS_16.1.5/os/rt/include/chschd.h"
 1259              		.file 8 "/home/maciek/ChibiOS_16.1.5/os/ext/CMSIS/ST/STM32F1xx/stm32f103xe.h"
 1260              		.file 9 "/home/maciek/ChibiOS_16.1.5/os/rt/ports/ARMCMx/chcore.h"
 1261              		.file 10 "/home/maciek/ChibiOS_16.1.5/os/rt/ports/ARMCMx/chcore_v7m.h"
 1262              		.file 11 "/home/maciek/ChibiOS_16.1.5/os/rt/include/chtm.h"
 1263              		.file 12 "/home/maciek/ChibiOS_16.1.5/os/rt/include/chsem.h"
 1264              		.file 13 "/home/maciek/ChibiOS_16.1.5/os/rt/include/chmtx.h"
 1265              		.file 14 "/home/maciek/ChibiOS_16.1.5/os/rt/include/chevents.h"
 1266              		.file 15 "/home/maciek/ChibiOS_16.1.5/os/rt/include/chqueues.h"
 1267              		.file 16 "/home/maciek/ChibiOS_16.1.5/os/rt/include/chstreams.h"
 1268              		.file 17 "/home/maciek/ChibiOS_16.1.5/os/hal/ports/STM32/LLD/DMAv1/stm32_dma.h"
 1269              		.file 18 "/home/maciek/ChibiOS_16.1.5/os/hal/include/i2c.h"
 1270              		.file 19 "/home/maciek/ChibiOS_16.1.5/os/hal/ports/STM32/LLD/I2Cv1/i2c_lld.h"
 1271              		.file 20 "/home/maciek/ChibiOS_16.1.5/os/hal/include/serial.h"
 1272              		.file 21 "misc.h"
 1273              		.file 22 "mpu6050.h"
 1274              		.file 23 "/home/maciek/ChibiOS_16.1.5/os/ext/CMSIS/include/core_cm3.h"
 1275              		.file 24 "/home/maciek/ChibiOS_16.1.5/os/hal/ports/STM32/LLD/USARTv1/serial_lld.h"
 1276              		.file 25 "/home/maciek/ChibiOS_16.1.5/os/rt/include/chthreads.h"
 1277              		.file 26 "telemetry.h"