ARM GAS  /tmp/ccb2B0P1.s 			page 1


   1              		.syntax unified
   2              		.cpu cortex-m3
   3              		.fpu softvfp
   4              		.eabi_attribute 20, 1
   5              		.eabi_attribute 21, 1
   6              		.eabi_attribute 23, 3
   7              		.eabi_attribute 24, 1
   8              		.eabi_attribute 25, 1
   9              		.eabi_attribute 26, 1
  10              		.eabi_attribute 30, 2
  11              		.eabi_attribute 34, 1
  12              		.eabi_attribute 18, 4
  13              		.thumb
  14              		.file	"pal_lld.c"
  15              		.text
  16              	.Ltext0:
  17              		.cfi_sections	.debug_frame
  18              		.section	.text._pal_lld_init,"ax",%progbits
  19              		.align	2
  20              		.p2align 4,,15
  21              		.global	_pal_lld_init
  22              		.thumb
  23              		.thumb_func
  24              		.type	_pal_lld_init, %function
  25              	_pal_lld_init:
  26              	.LFB207:
  27              		.file 1 "/home/maciek/ChibiOS_16.1.5/os/hal/ports/STM32/LLD/GPIOv1/pal_lld.c"
  28              		.loc 1 76 0
  29              		.cfi_startproc
  30              		@ args = 0, pretend = 0, frame = 0
  31              		@ frame_needed = 0, uses_anonymous_args = 0
  32              		@ link register save eliminated.
  33              	.LVL0:
  34              		.loc 1 81 0
  35 0000 1E49     		ldr	r1, .L3
  36              		.loc 1 76 0
  37 0002 F0B4     		push	{r4, r5, r6, r7}
  38              		.cfi_def_cfa_offset 16
  39              		.cfi_offset 4, -16
  40              		.cfi_offset 5, -12
  41              		.cfi_offset 6, -8
  42              		.cfi_offset 7, -4
  43              		.loc 1 81 0
  44 0004 8B69     		ldr	r3, [r1, #24]
  45              		.loc 1 86 0
  46 0006 1E4A     		ldr	r2, .L3+4
  47              		.loc 1 81 0
  48 0008 43F4FE73 		orr	r3, r3, #508
  49 000c 43F00103 		orr	r3, r3, #1
  50 0010 8B61     		str	r3, [r1, #24]
  51              		.loc 1 86 0
  52 0012 0368     		ldr	r3, [r0]
  53              		.loc 1 89 0
  54 0014 1B4E     		ldr	r6, .L3+8
  55              		.loc 1 86 0
  56 0016 D360     		str	r3, [r2, #12]
  57              		.loc 1 87 0
ARM GAS  /tmp/ccb2B0P1.s 			page 2


  58 0018 8368     		ldr	r3, [r0, #8]
  59              		.loc 1 92 0
  60 001a 1B4D     		ldr	r5, .L3+12
  61              		.loc 1 87 0
  62 001c 5360     		str	r3, [r2, #4]
  63              		.loc 1 88 0
  64 001e 4368     		ldr	r3, [r0, #4]
  65              		.loc 1 95 0
  66 0020 1A4C     		ldr	r4, .L3+16
  67              		.loc 1 88 0
  68 0022 1360     		str	r3, [r2]
  69              		.loc 1 89 0
  70 0024 C368     		ldr	r3, [r0, #12]
  71              		.loc 1 99 0
  72 0026 A1F57841 		sub	r1, r1, #63488
  73              		.loc 1 89 0
  74 002a F360     		str	r3, [r6, #12]
  75              		.loc 1 90 0
  76 002c 4769     		ldr	r7, [r0, #20]
  77              		.loc 1 103 0
  78 002e 02F5A052 		add	r2, r2, #5120
  79              		.loc 1 90 0
  80 0032 7760     		str	r7, [r6, #4]
  81              		.loc 1 91 0
  82 0034 0769     		ldr	r7, [r0, #16]
  83              		.loc 1 107 0
  84 0036 164B     		ldr	r3, .L3+20
  85              		.loc 1 91 0
  86 0038 3760     		str	r7, [r6]
  87              		.loc 1 92 0
  88 003a 8669     		ldr	r6, [r0, #24]
  89 003c EE60     		str	r6, [r5, #12]
  90              		.loc 1 93 0
  91 003e 066A     		ldr	r6, [r0, #32]
  92 0040 6E60     		str	r6, [r5, #4]
  93              		.loc 1 94 0
  94 0042 C669     		ldr	r6, [r0, #28]
  95 0044 2E60     		str	r6, [r5]
  96              		.loc 1 95 0
  97 0046 456A     		ldr	r5, [r0, #36]
  98 0048 E560     		str	r5, [r4, #12]
  99              		.loc 1 96 0
 100 004a C56A     		ldr	r5, [r0, #44]
 101 004c 6560     		str	r5, [r4, #4]
 102              		.loc 1 97 0
 103 004e 856A     		ldr	r5, [r0, #40]
 104 0050 2560     		str	r5, [r4]
 105              		.loc 1 99 0
 106 0052 046B     		ldr	r4, [r0, #48]
 107 0054 CC60     		str	r4, [r1, #12]
 108              		.loc 1 100 0
 109 0056 846B     		ldr	r4, [r0, #56]
 110 0058 4C60     		str	r4, [r1, #4]
 111              		.loc 1 101 0
 112 005a 446B     		ldr	r4, [r0, #52]
 113 005c 0C60     		str	r4, [r1]
 114              		.loc 1 103 0
ARM GAS  /tmp/ccb2B0P1.s 			page 3


 115 005e C16B     		ldr	r1, [r0, #60]
 116              		.loc 1 113 0
 117 0060 F0BC     		pop	{r4, r5, r6, r7}
 118              		.cfi_restore 7
 119              		.cfi_restore 6
 120              		.cfi_restore 5
 121              		.cfi_restore 4
 122              		.cfi_def_cfa_offset 0
 123              		.loc 1 103 0
 124 0062 D160     		str	r1, [r2, #12]
 125              		.loc 1 104 0
 126 0064 416C     		ldr	r1, [r0, #68]
 127 0066 5160     		str	r1, [r2, #4]
 128              		.loc 1 105 0
 129 0068 016C     		ldr	r1, [r0, #64]
 130 006a 1160     		str	r1, [r2]
 131              		.loc 1 107 0
 132 006c 826C     		ldr	r2, [r0, #72]
 133 006e DA60     		str	r2, [r3, #12]
 134              		.loc 1 108 0
 135 0070 026D     		ldr	r2, [r0, #80]
 136 0072 5A60     		str	r2, [r3, #4]
 137              		.loc 1 109 0
 138 0074 C26C     		ldr	r2, [r0, #76]
 139 0076 1A60     		str	r2, [r3]
 140              		.loc 1 113 0
 141 0078 7047     		bx	lr
 142              	.L4:
 143 007a 00BF     		.align	2
 144              	.L3:
 145 007c 00100240 		.word	1073876992
 146 0080 00080140 		.word	1073809408
 147 0084 000C0140 		.word	1073810432
 148 0088 00100140 		.word	1073811456
 149 008c 00140140 		.word	1073812480
 150 0090 00200140 		.word	1073815552
 151              		.cfi_endproc
 152              	.LFE207:
 153              		.size	_pal_lld_init, .-_pal_lld_init
 154              		.section	.text._pal_lld_setgroupmode,"ax",%progbits
 155              		.align	2
 156              		.p2align 4,,15
 157              		.global	_pal_lld_setgroupmode
 158              		.thumb
 159              		.thumb_func
 160              		.type	_pal_lld_setgroupmode, %function
 161              	_pal_lld_setgroupmode:
 162              	.LFB208:
 163              		.loc 1 132 0
 164              		.cfi_startproc
 165              		@ args = 0, pretend = 0, frame = 0
 166              		@ frame_needed = 0, uses_anonymous_args = 0
 167              	.LVL1:
 168              		.loc 1 156 0
 169 0000 032A     		cmp	r2, #3
 170              		.loc 1 132 0
 171 0002 F0B5     		push	{r4, r5, r6, r7, lr}
ARM GAS  /tmp/ccb2B0P1.s 			page 4


 172              		.cfi_def_cfa_offset 20
 173              		.cfi_offset 4, -20
 174              		.cfi_offset 5, -16
 175              		.cfi_offset 6, -12
 176              		.cfi_offset 7, -8
 177              		.cfi_offset 14, -4
 178              		.loc 1 156 0
 179 0004 2CD0     		beq	.L16
 180              		.loc 1 158 0
 181 0006 042A     		cmp	r2, #4
 182              		.loc 1 159 0
 183 0008 08BF     		it	eq
 184 000a 4161     		streq	r1, [r0, #20]
 185              	.L7:
 186              		.loc 1 161 0
 187 000c 0023     		movs	r3, #0
 188 000e 1C46     		mov	r4, r3
 189 0010 1D46     		mov	r5, r3
 190 0012 1E46     		mov	r6, r3
 191              		.loc 1 160 0
 192 0014 DFF84CE0 		ldr	lr, .L17
 193 0018 0827     		movs	r7, #8
 194 001a 1EF80220 		ldrb	r2, [lr, r2]	@ zero_extendqisi2
 195              	.LVL2:
 196              	.L12:
 197              		.loc 1 167 0
 198 001e 11F0800F 		tst	r1, #128
 199              		.loc 1 163 0
 200 0022 4FEA0515 		lsl	r5, r5, #4
 201              	.LVL3:
 202              		.loc 1 165 0
 203 0026 4FEA0313 		lsl	r3, r3, #4
 204              	.LVL4:
 205              		.loc 1 164 0
 206 002a 4FEA0616 		lsl	r6, r6, #4
 207              	.LVL5:
 208              		.loc 1 166 0
 209 002e 4FEA0414 		lsl	r4, r4, #4
 210              	.LVL6:
 211              		.loc 1 168 0
 212 0032 0CBF     		ite	eq
 213 0034 45F00F05 		orreq	r5, r5, #15
 214              	.LVL7:
 215              		.loc 1 170 0
 216 0038 1343     		orrne	r3, r3, r2
 217              	.LVL8:
 218              		.loc 1 171 0
 219 003a 11F4004F 		tst	r1, #32768
 220              		.loc 1 172 0
 221 003e 0CBF     		ite	eq
 222 0040 46F00F06 		orreq	r6, r6, #15
 223              	.LVL9:
 224              		.loc 1 174 0
 225 0044 1443     		orrne	r4, r4, r2
 226              	.LVL10:
 227              		.loc 1 162 0
 228 0046 013F     		subs	r7, r7, #1
ARM GAS  /tmp/ccb2B0P1.s 			page 5


 229              	.LVL11:
 230              		.loc 1 175 0
 231 0048 4FEA4101 		lsl	r1, r1, #1
 232              	.LVL12:
 233              		.loc 1 162 0
 234 004c E7D1     		bne	.L12
 235              		.loc 1 177 0
 236 004e 4268     		ldr	r2, [r0, #4]
 237              	.LVL13:
 238 0050 1640     		ands	r6, r6, r2
 239              	.LVL14:
 240 0052 3443     		orrs	r4, r4, r6
 241              	.LVL15:
 242 0054 4460     		str	r4, [r0, #4]
 243              		.loc 1 178 0
 244 0056 0268     		ldr	r2, [r0]
 245 0058 1540     		ands	r5, r5, r2
 246              	.LVL16:
 247 005a 2B43     		orrs	r3, r3, r5
 248              	.LVL17:
 249 005c 0360     		str	r3, [r0]
 250 005e F0BD     		pop	{r4, r5, r6, r7, pc}
 251              	.LVL18:
 252              	.L16:
 253              		.loc 1 157 0
 254 0060 0161     		str	r1, [r0, #16]
 255 0062 D3E7     		b	.L7
 256              	.L18:
 257              		.align	2
 258              	.L17:
 259 0064 00000000 		.word	.LANCHOR0
 260              		.cfi_endproc
 261              	.LFE208:
 262              		.size	_pal_lld_setgroupmode, .-_pal_lld_setgroupmode
 263              		.section	.rodata.cfgtab.7063,"a",%progbits
 264              		.align	2
 265              		.set	.LANCHOR0,. + 0
 266              		.type	cfgtab.7063, %object
 267              		.size	cfgtab.7063, 18
 268              	cfgtab.7063:
 269 0000 04       		.byte	4
 270 0001 02       		.byte	2
 271 0002 04       		.byte	4
 272 0003 08       		.byte	8
 273 0004 08       		.byte	8
 274 0005 00       		.byte	0
 275 0006 03       		.byte	3
 276 0007 07       		.byte	7
 277 0008 08       		.byte	8
 278 0009 08       		.byte	8
 279 000a 08       		.byte	8
 280 000b 08       		.byte	8
 281 000c 08       		.byte	8
 282 000d 08       		.byte	8
 283 000e 08       		.byte	8
 284 000f 08       		.byte	8
 285 0010 0B       		.byte	11
ARM GAS  /tmp/ccb2B0P1.s 			page 6


 286 0011 0F       		.byte	15
 287              		.text
 288              	.Letext0:
 289              		.file 2 "/opt/stm32/gcc/gcc-arm-none-eabi-4_9-2015q2/arm-none-eabi/include/machine/_default_types.
 290              		.file 3 "/opt/stm32/gcc/gcc-arm-none-eabi-4_9-2015q2/arm-none-eabi/include/sys/_stdint.h"
 291              		.file 4 "/home/maciek/ChibiOS_16.1.5/os/rt/ports/ARMCMx/compilers/GCC/chtypes.h"
 292              		.file 5 "/home/maciek/ChibiOS_16.1.5/os/rt/include/chsystypes.h"
 293              		.file 6 "/home/maciek/ChibiOS_16.1.5/os/rt/include/chschd.h"
 294              		.file 7 "/home/maciek/ChibiOS_16.1.5/os/ext/CMSIS/ST/STM32F1xx/stm32f103xe.h"
 295              		.file 8 "/home/maciek/ChibiOS_16.1.5/os/rt/ports/ARMCMx/chcore.h"
 296              		.file 9 "/home/maciek/ChibiOS_16.1.5/os/rt/ports/ARMCMx/chcore_v7m.h"
 297              		.file 10 "/home/maciek/ChibiOS_16.1.5/os/rt/include/chtm.h"
 298              		.file 11 "/home/maciek/ChibiOS_16.1.5/os/rt/include/chsem.h"
 299              		.file 12 "/home/maciek/ChibiOS_16.1.5/os/rt/include/chmtx.h"
 300              		.file 13 "/home/maciek/ChibiOS_16.1.5/os/hal/ports/STM32/LLD/GPIOv1/pal_lld.h"
 301              		.file 14 "/home/maciek/ChibiOS_16.1.5/os/ext/CMSIS/include/core_cm3.h"