ARM GAS  /tmp/ccb2B0P1.s 			page 1


   1              		.syntax unified
   2              		.cpu cortex-m3
   3              		.fpu softvfp
   4              		.eabi_attribute 20, 1
   5              		.eabi_attribute 21, 1
   6              		.eabi_attribute 23, 3
   7              		.eabi_attribute 24, 1
   8              		.eabi_attribute 25, 1
   9              		.eabi_attribute 26, 1
  10              		.eabi_attribute 30, 2
  11              		.eabi_attribute 34, 1
  12              		.eabi_attribute 18, 4
  13              		.thumb
  14              		.file	"pal_lld.c"
  15              		.text
  16              	.Ltext0:
  17              		.cfi_sections	.debug_frame
  18              		.section	.text._pal_lld_init,"ax",%progbits
  19              		.align	2
  20              		.p2align 4,,15
  21              		.global	_pal_lld_init
  22              		.thumb
  23              		.thumb_func
  24              		.type	_pal_lld_init, %function
  25              	_pal_lld_init:
  26              	.LFB207:
  27              		.file 1 "/home/maciek/ChibiOS_16.1.5/os/hal/ports/STM32/LLD/GPIOv1/pal_lld.c"
  28              		.loc 1 76 0
  29              		.cfi_startproc
  30              		@ args = 0, pretend = 0, frame = 0
  31              		@ frame_needed = 0, uses_anonymous_args = 0
  32              		@ link register save eliminated.
  33              	.LVL0:
  34              		.loc 1 81 0
  35 0000 1E49     		ldr	r1, .L3
  36              		.loc 1 76 0
  37 0002 F0B4     		push	{r4, r5, r6, r7}
  38              		.cfi_def_cfa_offset 16
  39              		.cfi_offset 4, -16
  40              		.cfi_offset 5, -12
  41              		.cfi_offset 6, -8
  42              		.cfi_offset 7, -4
  43              		.loc 1 81 0
  44 0004 8B69     		ldr	r3, [r1, #24]
  45              		.loc 1 86 0
  46 0006 1E4A     		ldr	r2, .L3+4
  47              		.loc 1 81 0
  48 0008 43F4FE73 		orr	r3, r3, #508
  49 000c 43F00103 		orr	r3, r3, #1
  50 0010 8B61     		str	r3, [r1, #24]
  51              		.loc 1 86 0
  52 0012 0368     		ldr	r3, [r0]
  53              		.loc 1 89 0
  54 0014 1B4E     		ldr	r6, .L3+8
  55              		.loc 1 86 0
  56 0016 D360     		str	r3, [r2, #12]
  57              		.loc 1 87 0
ARM GAS  /tmp/ccb2B0P1.s 			page 2


  58 0018 8368     		ldr	r3, [r0, #8]
  59              		.loc 1 92 0
  60 001a 1B4D     		ldr	r5, .L3+12
  61              		.loc 1 87 0
  62 001c 5360     		str	r3, [r2, #4]
  63              		.loc 1 88 0
  64 001e 4368     		ldr	r3, [r0, #4]
  65              		.loc 1 95 0
  66 0020 1A4C     		ldr	r4, .L3+16
  67              		.loc 1 88 0
  68 0022 1360     		str	r3, [r2]
  69              		.loc 1 89 0
  70 0024 C368     		ldr	r3, [r0, #12]
  71              		.loc 1 99 0
  72 0026 A1F57841 		sub	r1, r1, #63488
  73              		.loc 1 89 0
  74 002a F360     		str	r3, [r6, #12]
  75              		.loc 1 90 0
  76 002c 4769     		ldr	r7, [r0, #20]
  77              		.loc 1 103 0
  78 002e 02F5A052 		add	r2, r2, #5120
  79              		.loc 1 90 0
  80 0032 7760     		str	r7, [r6, #4]
  81              		.loc 1 91 0
  82 0034 0769     		ldr	r7, [r0, #16]
  83              		.loc 1 107 0
  84 0036 164B     		ldr	r3, .L3+20
  85              		.loc 1 91 0
  86 0038 3760     		str	r7, [r6]
  87              		.loc 1 92 0
  88 003a 8669     		ldr	r6, [r0, #24]
  89 003c EE60     		str	r6, [r5, #12]
  90              		.loc 1 93 0
  91 003e 066A     		ldr	r6, [r0, #32]
  92 0040 6E60     		str	r6, [r5, #4]
  93              		.loc 1 94 0
  94 0042 C669     		ldr	r6, [r0, #28]
  95 0044 2E60     		str	r6, [r5]
  96              		.loc 1 95 0
  97 0046 456A     		ldr	r5, [r0, #36]
  98 0048 E560     		str	r5, [r4, #12]
  99              		.loc 1 96 0
 100 004a C56A     		ldr	r5, [r0, #44]
 101 004c 6560     		str	r5, [r4, #4]
 102              		.loc 1 97 0
 103 004e 856A     		ldr	r5, [r0, #40]
 104 0050 2560     		str	r5, [r4]
 105              		.loc 1 99 0
 106 0052 046B     		ldr	r4, [r0, #48]
 107 0054 CC60     		str	r4, [r1, #12]
 108              		.loc 1 100 0
 109 0056 846B     		ldr	r4, [r0, #56]
 110 0058 4C60     		str	r4, [r1, #4]
 111              		.loc 1 101 0
 112 005a 446B     		ldr	r4, [r0, #52]
 113 005c 0C60     		str	r4, [r1]
 114              		.loc 1 103 0
ARM GAS  /tmp/ccb2B0P1.s 			page 3


 115 005e C16B     		ldr	r1, [r0, #60]
 116              		.loc 1 113 0
 117 0060 F0BC     		pop	{r4, r5, r6, r7}
 118              		.cfi_restore 7
 119              		.cfi_restore 6
 120              		.cfi_restore 5
 121              		.cfi_restore 4
 122              		.cfi_def_cfa_offset 0
 123              		.loc 1 103 0
 124 0062 D160     		str	r1, [r2, #12]
 125              		.loc 1 104 0
 126 0064 416C     		ldr	r1, [r0, #68]
 127 0066 5160     		str	r1, [r2, #4]
 128              		.loc 1 105 0
 129 0068 016C     		ldr	r1, [r0, #64]
 130 006a 1160     		str	r1, [r2]
 131              		.loc 1 107 0
 132 006c 826C     		ldr	r2, [r0, #72]
 133 006e DA60     		str	r2, [r3, #12]
 134              		.loc 1 108 0
 135 0070 026D     		ldr	r2, [r0, #80]
 136 0072 5A60     		str	r2, [r3, #4]
 137              		.loc 1 109 0
 138 0074 C26C     		ldr	r2, [r0, #76]
 139 0076 1A60     		str	r2, [r3]
 140              		.loc 1 113 0
 141 0078 7047     		bx	lr
 142              	.L4:
 143 007a 00BF     		.align	2
 144              	.L3:
 145 007c 00100240 		.word	1073876992
 146 0080 00080140 		.word	1073809408
 147 0084 000C0140 		.word	1073810432
 148 0088 00100140 		.word	1073811456
 149 008c 00140140 		.word	1073812480
 150 0090 00200140 		.word	1073815552
 151              		.cfi_endproc
 152              	.LFE207:
 153              		.size	_pal_lld_init, .-_pal_lld_init
 154              		.section	.text._pal_lld_setgroupmode,"ax",%progbits
 155              		.align	2
 156              		.p2align 4,,15
 157              		.global	_pal_lld_setgroupmode
 158              		.thumb
 159              		.thumb_func
 160              		.type	_pal_lld_setgroupmode, %function
 161              	_pal_lld_setgroupmode:
 162              	.LFB208:
 163              		.loc 1 132 0
 164              		.cfi_startproc
 165              		@ args = 0, pretend = 0, frame = 0
 166              		@ frame_needed = 0, uses_anonymous_args = 0
 167              	.LVL1:
 168              		.loc 1 156 0
 169 0000 032A     		cmp	r2, #3
 170              		.loc 1 132 0
 171 0002 F0B5     		push	{r4, r5, r6, r7, lr}
ARM GAS  /tmp/ccb2B0P1.s 			page 4


 172              		.cfi_def_cfa_offset 20
 173              		.cfi_offset 4, -20
 174              		.cfi_offset 5, -16
 175              		.cfi_offset 6, -12
 176              		.cfi_offset 7, -8
 177              		.cfi_offset 14, -4
 178              		.loc 1 156 0
 179 0004 2CD0     		beq	.L16
 180              		.loc 1 158 0
 181 0006 042A     		cmp	r2, #4
 182              		.loc 1 159 0
 183 0008 08BF     		it	eq
 184 000a 4161     		streq	r1, [r0, #20]
 185              	.L7:
 186              		.loc 1 161 0
 187 000c 0023     		movs	r3, #0
 188 000e 1C46     		mov	r4, r3
 189 0010 1D46     		mov	r5, r3
 190 0012 1E46     		mov	r6, r3
 191              		.loc 1 160 0
 192 0014 DFF84CE0 		ldr	lr, .L17
 193 0018 0827     		movs	r7, #8
 194 001a 1EF80220 		ldrb	r2, [lr, r2]	@ zero_extendqisi2
 195              	.LVL2:
 196              	.L12:
 197              		.loc 1 167 0
 198 001e 11F0800F 		tst	r1, #128
 199              		.loc 1 163 0
 200 0022 4FEA0515 		lsl	r5, r5, #4
 201              	.LVL3:
 202              		.loc 1 165 0
 203 0026 4FEA0313 		lsl	r3, r3, #4
 204              	.LVL4:
 205              		.loc 1 164 0
 206 002a 4FEA0616 		lsl	r6, r6, #4
 207              	.LVL5:
 208              		.loc 1 166 0
 209 002e 4FEA0414 		lsl	r4, r4, #4
 210              	.LVL6:
 211              		.loc 1 168 0
 212 0032 0CBF     		ite	eq
 213 0034 45F00F05 		orreq	r5, r5, #15
 214              	.LVL7:
 215              		.loc 1 170 0
 216 0038 1343     		orrne	r3, r3, r2
 217              	.LVL8:
 218              		.loc 1 171 0
 219 003a 11F4004F 		tst	r1, #32768
 220              		.loc 1 172 0
 221 003e 0CBF     		ite	eq
 222 0040 46F00F06 		orreq	r6, r6, #15
 223              	.LVL9:
 224              		.loc 1 174 0
 225 0044 1443     		orrne	r4, r4, r2
 226              	.LVL10:
 227              		.loc 1 162 0
 228 0046 013F     		subs	r7, r7, #1
ARM GAS  /tmp/ccb2B0P1.s 			page 5


 229              	.LVL11:
 230              		.loc 1 175 0
 231 0048 4FEA4101 		lsl	r1, r1, #1
 232              	.LVL12:
 233              		.loc 1 162 0
 234 004c E7D1     		bne	.L12
 235              		.loc 1 177 0
 236 004e 4268     		ldr	r2, [r0, #4]
 237              	.LVL13:
 238 0050 1640     		ands	r6, r6, r2
 239              	.LVL14:
 240 0052 3443     		orrs	r4, r4, r6
 241              	.LVL15:
 242 0054 4460     		str	r4, [r0, #4]
 243              		.loc 1 178 0
 244 0056 0268     		ldr	r2, [r0]
 245 0058 1540     		ands	r5, r5, r2
 246              	.LVL16:
 247 005a 2B43     		orrs	r3, r3, r5
 248              	.LVL17:
 249 005c 0360     		str	r3, [r0]
 250 005e F0BD     		pop	{r4, r5, r6, r7, pc}
 251              	.LVL18:
 252              	.L16:
 253              		.loc 1 157 0
 254 0060 0161     		str	r1, [r0, #16]
 255 0062 D3E7     		b	.L7
 256              	.L18:
 257              		.align	2
 258              	.L17:
 259 0064 00000000 		.word	.LANCHOR0
 260              		.cfi_endproc
 261              	.LFE208:
 262              		.size	_pal_lld_setgroupmode, .-_pal_lld_setgroupmode
 263              		.section	.rodata.cfgtab.7063,"a",%progbits
 264              		.align	2
 265              		.set	.LANCHOR0,. + 0
 266              		.type	cfgtab.7063, %object
 267              		.size	cfgtab.7063, 18
 268              	cfgtab.7063:
 269 0000 04       		.byte	4
 270 0001 02       		.byte	2
 271 0002 04       		.byte	4
 272 0003 08       		.byte	8
 273 0004 08       		.byte	8
 274 0005 00       		.byte	0
 275 0006 03       		.byte	3
 276 0007 07       		.byte	7
 277 0008 08       		.byte	8
 278 0009 08       		.byte	8
 279 000a 08       		.byte	8
 280 000b 08       		.byte	8
 281 000c 08       		.byte	8
 282 000d 08       		.byte	8
 283 000e 08       		.byte	8
 284 000f 08       		.byte	8
 285 0010 0B       		.byte	11
ARM GAS  /tmp/ccb2B0P1.s 			page 6


 286 0011 0F       		.byte	15
 287              		.text
 288              	.Letext0:
 289              		.file 2 "/opt/stm32/gcc/gcc-arm-none-eabi-4_9-2015q2/arm-none-eabi/include/machine/_default_types.
 290              		.file 3 "/opt/stm32/gcc/gcc-arm-none-eabi-4_9-2015q2/arm-none-eabi/include/sys/_stdint.h"
 291              		.file 4 "/home/maciek/ChibiOS_16.1.5/os/rt/ports/ARMCMx/compilers/GCC/chtypes.h"
 292              		.file 5 "/home/maciek/ChibiOS_16.1.5/os/rt/include/chsystypes.h"
 293              		.file 6 "/home/maciek/ChibiOS_16.1.5/os/rt/include/chschd.h"
 294              		.file 7 "/home/maciek/ChibiOS_16.1.5/os/ext/CMSIS/ST/STM32F1xx/stm32f103xe.h"
 295              		.file 8 "/home/maciek/ChibiOS_16.1.5/os/rt/ports/ARMCMx/chcore.h"
 296              		.file 9 "/home/maciek/ChibiOS_16.1.5/os/rt/ports/ARMCMx/chcore_v7m.h"
 297              		.file 10 "/home/maciek/ChibiOS_16.1.5/os/rt/include/chtm.h"
 298              		.file 11 "/home/maciek/ChibiOS_16.1.5/os/rt/include/chsem.h"
 299              		.file 12 "/home/maciek/ChibiOS_16.1.5/os/rt/include/chmtx.h"
 300              		.file 13 "/home/maciek/ChibiOS_16.1.5/os/hal/ports/STM32/LLD/GPIOv1/pal_lld.h"
 301              		.file 14 "/home/maciek/ChibiOS_16.1.5/os/ext/CMSIS/include/core_cm3.h"
 302              		.section	.debug_info,"",%progbits
 303              	.Ldebug_info0:
 304 0000 CE080000 		.4byte	0x8ce
 305 0004 0400     		.2byte	0x4
 306 0006 00000000 		.4byte	.Ldebug_abbrev0
 307 000a 04       		.byte	0x4
 308 000b 01       		.uleb128 0x1
 309 000c 00010000 		.4byte	.LASF130
 310 0010 01       		.byte	0x1
 311 0011 33050000 		.4byte	.LASF131
 312 0015 00000000 		.4byte	.Ldebug_ranges0+0
 313 0019 00000000 		.4byte	0
 314 001d 00000000 		.4byte	.Ldebug_line0
 315 0021 02       		.uleb128 0x2
 316 0022 04       		.byte	0x4
 317 0023 05       		.byte	0x5
 318 0024 696E7400 		.ascii	"int\000"
 319 0028 03       		.uleb128 0x3
 320 0029 04       		.byte	0x4
 321 002a 07       		.byte	0x7
 322 002b 76020000 		.4byte	.LASF0
 323 002f 03       		.uleb128 0x3
 324 0030 01       		.byte	0x1
 325 0031 06       		.byte	0x6
 326 0032 E7000000 		.4byte	.LASF1
 327 0036 04       		.uleb128 0x4
 328 0037 36000000 		.4byte	.LASF4
 329 003b 02       		.byte	0x2
 330 003c 1D       		.byte	0x1d
 331 003d 41000000 		.4byte	0x41
 332 0041 03       		.uleb128 0x3
 333 0042 01       		.byte	0x1
 334 0043 08       		.byte	0x8
 335 0044 11040000 		.4byte	.LASF2
 336 0048 03       		.uleb128 0x3
 337 0049 02       		.byte	0x2
 338 004a 05       		.byte	0x5
 339 004b 29040000 		.4byte	.LASF3
 340 004f 04       		.uleb128 0x4
 341 0050 D6040000 		.4byte	.LASF5
 342 0054 02       		.byte	0x2
ARM GAS  /tmp/ccb2B0P1.s 			page 7


 343 0055 2B       		.byte	0x2b
 344 0056 5A000000 		.4byte	0x5a
 345 005a 03       		.uleb128 0x3
 346 005b 02       		.byte	0x2
 347 005c 07       		.byte	0x7
 348 005d C1020000 		.4byte	.LASF6
 349 0061 04       		.uleb128 0x4
 350 0062 21030000 		.4byte	.LASF7
 351 0066 02       		.byte	0x2
 352 0067 3F       		.byte	0x3f
 353 0068 6C000000 		.4byte	0x6c
 354 006c 03       		.uleb128 0x3
 355 006d 04       		.byte	0x4
 356 006e 05       		.byte	0x5
 357 006f E4010000 		.4byte	.LASF8
 358 0073 04       		.uleb128 0x4
 359 0074 1E020000 		.4byte	.LASF9
 360 0078 02       		.byte	0x2
 361 0079 41       		.byte	0x41
 362 007a 7E000000 		.4byte	0x7e
 363 007e 03       		.uleb128 0x3
 364 007f 04       		.byte	0x4
 365 0080 07       		.byte	0x7
 366 0081 B3040000 		.4byte	.LASF10
 367 0085 03       		.uleb128 0x3
 368 0086 08       		.byte	0x8
 369 0087 05       		.byte	0x5
 370 0088 D9000000 		.4byte	.LASF11
 371 008c 04       		.uleb128 0x4
 372 008d C1030000 		.4byte	.LASF12
 373 0091 02       		.byte	0x2
 374 0092 5B       		.byte	0x5b
 375 0093 97000000 		.4byte	0x97
 376 0097 03       		.uleb128 0x3
 377 0098 08       		.byte	0x8
 378 0099 07       		.byte	0x7
 379 009a 68000000 		.4byte	.LASF13
 380 009e 04       		.uleb128 0x4
 381 009f DD050000 		.4byte	.LASF14
 382 00a3 03       		.byte	0x3
 383 00a4 14       		.byte	0x14
 384 00a5 36000000 		.4byte	0x36
 385 00a9 04       		.uleb128 0x4
 386 00aa 06020000 		.4byte	.LASF15
 387 00ae 03       		.byte	0x3
 388 00af 1A       		.byte	0x1a
 389 00b0 4F000000 		.4byte	0x4f
 390 00b4 04       		.uleb128 0x4
 391 00b5 09040000 		.4byte	.LASF16
 392 00b9 03       		.byte	0x3
 393 00ba 1F       		.byte	0x1f
 394 00bb 61000000 		.4byte	0x61
 395 00bf 04       		.uleb128 0x4
 396 00c0 82040000 		.4byte	.LASF17
 397 00c4 03       		.byte	0x3
 398 00c5 20       		.byte	0x20
 399 00c6 73000000 		.4byte	0x73
ARM GAS  /tmp/ccb2B0P1.s 			page 8


 400 00ca 04       		.uleb128 0x4
 401 00cb 2D000000 		.4byte	.LASF18
 402 00cf 03       		.byte	0x3
 403 00d0 26       		.byte	0x26
 404 00d1 8C000000 		.4byte	0x8c
 405 00d5 04       		.uleb128 0x4
 406 00d6 95050000 		.4byte	.LASF19
 407 00da 04       		.byte	0x4
 408 00db 39       		.byte	0x39
 409 00dc BF000000 		.4byte	0xbf
 410 00e0 04       		.uleb128 0x4
 411 00e1 FF020000 		.4byte	.LASF20
 412 00e5 04       		.byte	0x4
 413 00e6 3C       		.byte	0x3c
 414 00e7 9E000000 		.4byte	0x9e
 415 00eb 04       		.uleb128 0x4
 416 00ec FD010000 		.4byte	.LASF21
 417 00f0 04       		.byte	0x4
 418 00f1 3D       		.byte	0x3d
 419 00f2 9E000000 		.4byte	0x9e
 420 00f6 04       		.uleb128 0x4
 421 00f7 CC030000 		.4byte	.LASF22
 422 00fb 04       		.byte	0x4
 423 00fc 3E       		.byte	0x3e
 424 00fd 9E000000 		.4byte	0x9e
 425 0101 04       		.uleb128 0x4
 426 0102 EB030000 		.4byte	.LASF23
 427 0106 04       		.byte	0x4
 428 0107 40       		.byte	0x40
 429 0108 BF000000 		.4byte	0xbf
 430 010c 04       		.uleb128 0x4
 431 010d ED020000 		.4byte	.LASF24
 432 0111 04       		.byte	0x4
 433 0112 41       		.byte	0x41
 434 0113 B4000000 		.4byte	0xb4
 435 0117 04       		.uleb128 0x4
 436 0118 15030000 		.4byte	.LASF25
 437 011c 04       		.byte	0x4
 438 011d 43       		.byte	0x43
 439 011e BF000000 		.4byte	0xbf
 440 0122 04       		.uleb128 0x4
 441 0123 70020000 		.4byte	.LASF26
 442 0127 04       		.byte	0x4
 443 0128 45       		.byte	0x45
 444 0129 B4000000 		.4byte	0xb4
 445 012d 04       		.uleb128 0x4
 446 012e F1040000 		.4byte	.LASF27
 447 0132 05       		.byte	0x5
 448 0133 35       		.byte	0x35
 449 0134 A9000000 		.4byte	0xa9
 450 0138 04       		.uleb128 0x4
 451 0139 E1040000 		.4byte	.LASF28
 452 013d 05       		.byte	0x5
 453 013e 3F       		.byte	0x3f
 454 013f 43010000 		.4byte	0x143
 455 0143 05       		.uleb128 0x5
 456 0144 DB020000 		.4byte	.LASF45
ARM GAS  /tmp/ccb2B0P1.s 			page 9


 457 0148 38       		.byte	0x38
 458 0149 06       		.byte	0x6
 459 014a C2       		.byte	0xc2
 460 014b 0C020000 		.4byte	0x20c
 461 014f 06       		.uleb128 0x6
 462 0150 89030000 		.4byte	.LASF29
 463 0154 06       		.byte	0x6
 464 0155 C3       		.byte	0xc3
 465 0156 17020000 		.4byte	0x217
 466 015a 00       		.byte	0
 467 015b 06       		.uleb128 0x6
 468 015c E4030000 		.4byte	.LASF30
 469 0160 06       		.byte	0x6
 470 0161 C5       		.byte	0xc5
 471 0162 17020000 		.4byte	0x217
 472 0166 04       		.byte	0x4
 473 0167 06       		.uleb128 0x6
 474 0168 C7000000 		.4byte	.LASF31
 475 016c 06       		.byte	0x6
 476 016d C7       		.byte	0xc7
 477 016e 01010000 		.4byte	0x101
 478 0172 08       		.byte	0x8
 479 0173 06       		.uleb128 0x6
 480 0174 19060000 		.4byte	.LASF32
 481 0178 06       		.byte	0x6
 482 0179 C8       		.byte	0xc8
 483 017a 3A050000 		.4byte	0x53a
 484 017e 0C       		.byte	0xc
 485 017f 06       		.uleb128 0x6
 486 0180 33040000 		.4byte	.LASF33
 487 0184 06       		.byte	0x6
 488 0185 DD       		.byte	0xdd
 489 0186 EB000000 		.4byte	0xeb
 490 018a 10       		.byte	0x10
 491 018b 06       		.uleb128 0x6
 492 018c 49040000 		.4byte	.LASF34
 493 0190 06       		.byte	0x6
 494 0191 E1       		.byte	0xe1
 495 0192 E0000000 		.4byte	0xe0
 496 0196 11       		.byte	0x11
 497 0197 06       		.uleb128 0x6
 498 0198 BD050000 		.4byte	.LASF35
 499 019c 06       		.byte	0x6
 500 019d E6       		.byte	0xe6
 501 019e F6000000 		.4byte	0xf6
 502 01a2 12       		.byte	0x12
 503 01a3 07       		.uleb128 0x7
 504 01a4 705F7500 		.ascii	"p_u\000"
 505 01a8 06       		.byte	0x6
 506 01a9 3101     		.2byte	0x131
 507 01ab F4050000 		.4byte	0x5f4
 508 01af 14       		.byte	0x14
 509 01b0 08       		.uleb128 0x8
 510 01b1 4C030000 		.4byte	.LASF36
 511 01b5 06       		.byte	0x6
 512 01b6 3601     		.2byte	0x136
 513 01b8 1D020000 		.4byte	0x21d
ARM GAS  /tmp/ccb2B0P1.s 			page 10


 514 01bc 18       		.byte	0x18
 515 01bd 08       		.uleb128 0x8
 516 01be 92020000 		.4byte	.LASF37
 517 01c2 06       		.byte	0x6
 518 01c3 3C01     		.2byte	0x13c
 519 01c5 41020000 		.4byte	0x241
 520 01c9 1C       		.byte	0x1c
 521 01ca 08       		.uleb128 0x8
 522 01cb F8050000 		.4byte	.LASF38
 523 01cf 06       		.byte	0x6
 524 01d0 4001     		.2byte	0x140
 525 01d2 0C010000 		.4byte	0x10c
 526 01d6 24       		.byte	0x24
 527 01d7 08       		.uleb128 0x8
 528 01d8 77040000 		.4byte	.LASF39
 529 01dc 06       		.byte	0x6
 530 01dd 4601     		.2byte	0x146
 531 01df 17010000 		.4byte	0x117
 532 01e3 28       		.byte	0x28
 533 01e4 08       		.uleb128 0x8
 534 01e5 1F040000 		.4byte	.LASF40
 535 01e9 06       		.byte	0x6
 536 01ea 4D01     		.2byte	0x14d
 537 01ec B3060000 		.4byte	0x6b3
 538 01f0 2C       		.byte	0x2c
 539 01f1 08       		.uleb128 0x8
 540 01f2 FB040000 		.4byte	.LASF41
 541 01f6 06       		.byte	0x6
 542 01f7 5101     		.2byte	0x151
 543 01f9 01010000 		.4byte	0x101
 544 01fd 30       		.byte	0x30
 545 01fe 08       		.uleb128 0x8
 546 01ff E5020000 		.4byte	.LASF42
 547 0203 06       		.byte	0x6
 548 0204 5801     		.2byte	0x158
 549 0206 DA020000 		.4byte	0x2da
 550 020a 34       		.byte	0x34
 551 020b 00       		.byte	0
 552 020c 04       		.uleb128 0x4
 553 020d 5F030000 		.4byte	.LASF43
 554 0211 05       		.byte	0x5
 555 0212 44       		.byte	0x44
 556 0213 17020000 		.4byte	0x217
 557 0217 09       		.uleb128 0x9
 558 0218 04       		.byte	0x4
 559 0219 38010000 		.4byte	0x138
 560 021d 04       		.uleb128 0x4
 561 021e 3D030000 		.4byte	.LASF44
 562 0222 05       		.byte	0x5
 563 0223 49       		.byte	0x49
 564 0224 28020000 		.4byte	0x228
 565 0228 05       		.uleb128 0x5
 566 0229 A3040000 		.4byte	.LASF46
 567 022d 04       		.byte	0x4
 568 022e 06       		.byte	0x6
 569 022f B0       		.byte	0xb0
 570 0230 41020000 		.4byte	0x241
ARM GAS  /tmp/ccb2B0P1.s 			page 11


 571 0234 06       		.uleb128 0x6
 572 0235 89030000 		.4byte	.LASF29
 573 0239 06       		.byte	0x6
 574 023a B1       		.byte	0xb1
 575 023b 17020000 		.4byte	0x217
 576 023f 00       		.byte	0
 577 0240 00       		.byte	0
 578 0241 04       		.uleb128 0x4
 579 0242 A4050000 		.4byte	.LASF47
 580 0246 05       		.byte	0x5
 581 0247 50       		.byte	0x50
 582 0248 4C020000 		.4byte	0x24c
 583 024c 05       		.uleb128 0x5
 584 024d B6000000 		.4byte	.LASF48
 585 0251 08       		.byte	0x8
 586 0252 06       		.byte	0x6
 587 0253 B7       		.byte	0xb7
 588 0254 71020000 		.4byte	0x271
 589 0258 06       		.uleb128 0x6
 590 0259 89030000 		.4byte	.LASF29
 591 025d 06       		.byte	0x6
 592 025e B8       		.byte	0xb8
 593 025f 17020000 		.4byte	0x217
 594 0263 00       		.byte	0
 595 0264 06       		.uleb128 0x6
 596 0265 E4030000 		.4byte	.LASF30
 597 0269 06       		.byte	0x6
 598 026a B9       		.byte	0xb9
 599 026b 17020000 		.4byte	0x217
 600 026f 04       		.byte	0x4
 601 0270 00       		.byte	0
 602 0271 04       		.uleb128 0x4
 603 0272 13000000 		.4byte	.LASF49
 604 0276 05       		.byte	0x5
 605 0277 57       		.byte	0x57
 606 0278 7C020000 		.4byte	0x27c
 607 027c 0A       		.uleb128 0xa
 608 027d 07030000 		.4byte	.LASF50
 609 0281 14       		.byte	0x14
 610 0282 06       		.byte	0x6
 611 0283 9001     		.2byte	0x190
 612 0285 BE020000 		.4byte	0x2be
 613 0289 08       		.uleb128 0x8
 614 028a 92040000 		.4byte	.LASF51
 615 028e 06       		.byte	0x6
 616 028f 9101     		.2byte	0x191
 617 0291 41020000 		.4byte	0x241
 618 0295 00       		.byte	0
 619 0296 08       		.uleb128 0x8
 620 0297 3B040000 		.4byte	.LASF52
 621 029b 06       		.byte	0x6
 622 029c 9201     		.2byte	0x192
 623 029e 01010000 		.4byte	0x101
 624 02a2 08       		.byte	0x8
 625 02a3 08       		.uleb128 0x8
 626 02a4 90030000 		.4byte	.LASF53
 627 02a8 06       		.byte	0x6
ARM GAS  /tmp/ccb2B0P1.s 			page 12


 628 02a9 9401     		.2byte	0x194
 629 02ab 3A050000 		.4byte	0x53a
 630 02af 0C       		.byte	0xc
 631 02b0 08       		.uleb128 0x8
 632 02b1 AE030000 		.4byte	.LASF54
 633 02b5 06       		.byte	0x6
 634 02b6 9B01     		.2byte	0x19b
 635 02b8 17020000 		.4byte	0x217
 636 02bc 10       		.byte	0x10
 637 02bd 00       		.byte	0
 638 02be 04       		.uleb128 0x4
 639 02bf 06050000 		.4byte	.LASF55
 640 02c3 05       		.byte	0x5
 641 02c4 5C       		.byte	0x5c
 642 02c5 C9020000 		.4byte	0x2c9
 643 02c9 09       		.uleb128 0x9
 644 02ca 04       		.byte	0x4
 645 02cb CF020000 		.4byte	0x2cf
 646 02cf 0B       		.uleb128 0xb
 647 02d0 DA020000 		.4byte	0x2da
 648 02d4 0C       		.uleb128 0xc
 649 02d5 DA020000 		.4byte	0x2da
 650 02d9 00       		.byte	0
 651 02da 0D       		.uleb128 0xd
 652 02db 04       		.byte	0x4
 653 02dc 04       		.uleb128 0x4
 654 02dd D4030000 		.4byte	.LASF56
 655 02e1 05       		.byte	0x5
 656 02e2 61       		.byte	0x61
 657 02e3 E7020000 		.4byte	0x2e7
 658 02e7 0A       		.uleb128 0xa
 659 02e8 59040000 		.4byte	.LASF57
 660 02ec 14       		.byte	0x14
 661 02ed 06       		.byte	0x6
 662 02ee 6B01     		.2byte	0x16b
 663 02f0 36030000 		.4byte	0x336
 664 02f4 08       		.uleb128 0x8
 665 02f5 83020000 		.4byte	.LASF58
 666 02f9 06       		.byte	0x6
 667 02fa 6C01     		.2byte	0x16c
 668 02fc B9060000 		.4byte	0x6b9
 669 0300 00       		.byte	0
 670 0301 08       		.uleb128 0x8
 671 0302 37020000 		.4byte	.LASF59
 672 0306 06       		.byte	0x6
 673 0307 6D01     		.2byte	0x16d
 674 0309 B9060000 		.4byte	0x6b9
 675 030d 04       		.byte	0x4
 676 030e 08       		.uleb128 0x8
 677 030f 9A040000 		.4byte	.LASF60
 678 0313 06       		.byte	0x6
 679 0314 6E01     		.2byte	0x16e
 680 0316 2D010000 		.4byte	0x12d
 681 031a 08       		.byte	0x8
 682 031b 08       		.uleb128 0x8
 683 031c 1F060000 		.4byte	.LASF61
 684 0320 06       		.byte	0x6
ARM GAS  /tmp/ccb2B0P1.s 			page 13


 685 0321 6F01     		.2byte	0x16f
 686 0323 BE020000 		.4byte	0x2be
 687 0327 0C       		.byte	0xc
 688 0328 08       		.uleb128 0x8
 689 0329 9D050000 		.4byte	.LASF62
 690 032d 06       		.byte	0x6
 691 032e 7101     		.2byte	0x171
 692 0330 DA020000 		.4byte	0x2da
 693 0334 10       		.byte	0x10
 694 0335 00       		.byte	0
 695 0336 04       		.uleb128 0x4
 696 0337 93000000 		.4byte	.LASF63
 697 033b 05       		.byte	0x5
 698 033c 66       		.byte	0x66
 699 033d 41030000 		.4byte	0x341
 700 0341 0A       		.uleb128 0xa
 701 0342 72030000 		.4byte	.LASF64
 702 0346 0C       		.byte	0xc
 703 0347 06       		.byte	0x6
 704 0348 7B01     		.2byte	0x17b
 705 034a 83030000 		.4byte	0x383
 706 034e 08       		.uleb128 0x8
 707 034f 83020000 		.4byte	.LASF58
 708 0353 06       		.byte	0x6
 709 0354 7C01     		.2byte	0x17c
 710 0356 B9060000 		.4byte	0x6b9
 711 035a 00       		.byte	0
 712 035b 08       		.uleb128 0x8
 713 035c 37020000 		.4byte	.LASF59
 714 0360 06       		.byte	0x6
 715 0361 7E01     		.2byte	0x17e
 716 0363 B9060000 		.4byte	0x6b9
 717 0367 04       		.byte	0x4
 718 0368 08       		.uleb128 0x8
 719 0369 9A040000 		.4byte	.LASF60
 720 036d 06       		.byte	0x6
 721 036e 8001     		.2byte	0x180
 722 0370 2D010000 		.4byte	0x12d
 723 0374 08       		.byte	0x8
 724 0375 08       		.uleb128 0x8
 725 0376 CE000000 		.4byte	.LASF65
 726 037a 06       		.byte	0x6
 727 037b 8201     		.2byte	0x182
 728 037d BF060000 		.4byte	0x6bf
 729 0381 0A       		.byte	0xa
 730 0382 00       		.byte	0
 731 0383 04       		.uleb128 0x4
 732 0384 4C000000 		.4byte	.LASF66
 733 0388 05       		.byte	0x5
 734 0389 6B       		.byte	0x6b
 735 038a 8E030000 		.4byte	0x38e
 736 038e 0A       		.uleb128 0xa
 737 038f F3030000 		.4byte	.LASF67
 738 0393 04       		.byte	0x4
 739 0394 06       		.byte	0x6
 740 0395 A201     		.2byte	0x1a2
 741 0397 A9030000 		.4byte	0x3a9
ARM GAS  /tmp/ccb2B0P1.s 			page 14


 742 039b 08       		.uleb128 0x8
 743 039c 0F050000 		.4byte	.LASF68
 744 03a0 06       		.byte	0x6
 745 03a1 AA01     		.2byte	0x1aa
 746 03a3 C4060000 		.4byte	0x6c4
 747 03a7 00       		.byte	0
 748 03a8 00       		.byte	0
 749 03a9 04       		.uleb128 0x4
 750 03aa F3020000 		.4byte	.LASF69
 751 03ae 05       		.byte	0x5
 752 03af 70       		.byte	0x70
 753 03b0 B4030000 		.4byte	0x3b4
 754 03b4 0E       		.uleb128 0xe
 755 03b5 DA010000 		.4byte	.LASF70
 756 03b9 3001     		.2byte	0x130
 757 03bb 06       		.byte	0x6
 758 03bc C201     		.2byte	0x1c2
 759 03be 10040000 		.4byte	0x410
 760 03c2 08       		.uleb128 0x8
 761 03c3 D7050000 		.4byte	.LASF71
 762 03c7 06       		.byte	0x6
 763 03c8 C601     		.2byte	0x1c6
 764 03ca 71020000 		.4byte	0x271
 765 03ce 00       		.byte	0
 766 03cf 08       		.uleb128 0x8
 767 03d0 3F020000 		.4byte	.LASF72
 768 03d4 06       		.byte	0x6
 769 03d5 CA01     		.2byte	0x1ca
 770 03d7 36030000 		.4byte	0x336
 771 03db 14       		.byte	0x14
 772 03dc 07       		.uleb128 0x7
 773 03dd 64626700 		.ascii	"dbg\000"
 774 03e1 06       		.byte	0x6
 775 03e2 CE01     		.2byte	0x1ce
 776 03e4 83030000 		.4byte	0x383
 777 03e8 20       		.byte	0x20
 778 03e9 08       		.uleb128 0x8
 779 03ea 88000000 		.4byte	.LASF73
 780 03ee 06       		.byte	0x6
 781 03ef D201     		.2byte	0x1d2
 782 03f1 38010000 		.4byte	0x138
 783 03f5 24       		.byte	0x24
 784 03f6 07       		.uleb128 0x7
 785 03f7 746D00   		.ascii	"tm\000"
 786 03fa 06       		.byte	0x6
 787 03fb D701     		.2byte	0x1d7
 788 03fd E9050000 		.4byte	0x5e9
 789 0401 5C       		.byte	0x5c
 790 0402 08       		.uleb128 0x8
 791 0403 61020000 		.4byte	.LASF74
 792 0407 06       		.byte	0x6
 793 0408 E301     		.2byte	0x1e3
 794 040a DB060000 		.4byte	0x6db
 795 040e 60       		.byte	0x60
 796 040f 00       		.byte	0
 797 0410 03       		.uleb128 0x3
 798 0411 04       		.byte	0x4
ARM GAS  /tmp/ccb2B0P1.s 			page 15


 799 0412 07       		.byte	0x7
 800 0413 56030000 		.4byte	.LASF75
 801 0417 0F       		.uleb128 0xf
 802 0418 BF000000 		.4byte	0xbf
 803 041c 10       		.uleb128 0x10
 804 041d 1C       		.byte	0x1c
 805 041e 07       		.byte	0x7
 806 041f EA01     		.2byte	0x1ea
 807 0421 81040000 		.4byte	0x481
 808 0425 07       		.uleb128 0x7
 809 0426 43524C00 		.ascii	"CRL\000"
 810 042a 07       		.byte	0x7
 811 042b EC01     		.2byte	0x1ec
 812 042d 17040000 		.4byte	0x417
 813 0431 00       		.byte	0
 814 0432 07       		.uleb128 0x7
 815 0433 43524800 		.ascii	"CRH\000"
 816 0437 07       		.byte	0x7
 817 0438 ED01     		.2byte	0x1ed
 818 043a 17040000 		.4byte	0x417
 819 043e 04       		.byte	0x4
 820 043f 07       		.uleb128 0x7
 821 0440 49445200 		.ascii	"IDR\000"
 822 0444 07       		.byte	0x7
 823 0445 EE01     		.2byte	0x1ee
 824 0447 17040000 		.4byte	0x417
 825 044b 08       		.byte	0x8
 826 044c 07       		.uleb128 0x7
 827 044d 4F445200 		.ascii	"ODR\000"
 828 0451 07       		.byte	0x7
 829 0452 EF01     		.2byte	0x1ef
 830 0454 17040000 		.4byte	0x417
 831 0458 0C       		.byte	0xc
 832 0459 08       		.uleb128 0x8
 833 045a F3000000 		.4byte	.LASF76
 834 045e 07       		.byte	0x7
 835 045f F001     		.2byte	0x1f0
 836 0461 17040000 		.4byte	0x417
 837 0465 10       		.byte	0x10
 838 0466 07       		.uleb128 0x7
 839 0467 42525200 		.ascii	"BRR\000"
 840 046b 07       		.byte	0x7
 841 046c F101     		.2byte	0x1f1
 842 046e 17040000 		.4byte	0x417
 843 0472 14       		.byte	0x14
 844 0473 08       		.uleb128 0x8
 845 0474 B6020000 		.4byte	.LASF77
 846 0478 07       		.byte	0x7
 847 0479 F201     		.2byte	0x1f2
 848 047b 17040000 		.4byte	0x417
 849 047f 18       		.byte	0x18
 850 0480 00       		.byte	0
 851 0481 11       		.uleb128 0x11
 852 0482 9D020000 		.4byte	.LASF78
 853 0486 07       		.byte	0x7
 854 0487 F301     		.2byte	0x1f3
 855 0489 1C040000 		.4byte	0x41c
ARM GAS  /tmp/ccb2B0P1.s 			page 16


 856 048d 10       		.uleb128 0x10
 857 048e 28       		.byte	0x28
 858 048f 07       		.byte	0x7
 859 0490 2C02     		.2byte	0x22c
 860 0492 18050000 		.4byte	0x518
 861 0496 07       		.uleb128 0x7
 862 0497 435200   		.ascii	"CR\000"
 863 049a 07       		.byte	0x7
 864 049b 2E02     		.2byte	0x22e
 865 049d 17040000 		.4byte	0x417
 866 04a1 00       		.byte	0
 867 04a2 08       		.uleb128 0x8
 868 04a3 F3050000 		.4byte	.LASF79
 869 04a7 07       		.byte	0x7
 870 04a8 2F02     		.2byte	0x22f
 871 04aa 17040000 		.4byte	0x417
 872 04ae 04       		.byte	0x4
 873 04af 07       		.uleb128 0x7
 874 04b0 43495200 		.ascii	"CIR\000"
 875 04b4 07       		.byte	0x7
 876 04b5 3002     		.2byte	0x230
 877 04b7 17040000 		.4byte	0x417
 878 04bb 08       		.byte	0x8
 879 04bc 08       		.uleb128 0x8
 880 04bd F4010000 		.4byte	.LASF80
 881 04c1 07       		.byte	0x7
 882 04c2 3102     		.2byte	0x231
 883 04c4 17040000 		.4byte	0x417
 884 04c8 0C       		.byte	0xc
 885 04c9 08       		.uleb128 0x8
 886 04ca B8030000 		.4byte	.LASF81
 887 04ce 07       		.byte	0x7
 888 04cf 3202     		.2byte	0x232
 889 04d1 17040000 		.4byte	0x417
 890 04d5 10       		.byte	0x10
 891 04d6 08       		.uleb128 0x8
 892 04d7 27060000 		.4byte	.LASF82
 893 04db 07       		.byte	0x7
 894 04dc 3302     		.2byte	0x233
 895 04de 17040000 		.4byte	0x417
 896 04e2 14       		.byte	0x14
 897 04e3 08       		.uleb128 0x8
 898 04e4 51040000 		.4byte	.LASF83
 899 04e8 07       		.byte	0x7
 900 04e9 3402     		.2byte	0x234
 901 04eb 17040000 		.4byte	0x417
 902 04ef 18       		.byte	0x18
 903 04f0 08       		.uleb128 0x8
 904 04f1 20050000 		.4byte	.LASF84
 905 04f5 07       		.byte	0x7
 906 04f6 3502     		.2byte	0x235
 907 04f8 17040000 		.4byte	0x417
 908 04fc 1C       		.byte	0x1c
 909 04fd 08       		.uleb128 0x8
 910 04fe D2050000 		.4byte	.LASF85
 911 0502 07       		.byte	0x7
 912 0503 3602     		.2byte	0x236
ARM GAS  /tmp/ccb2B0P1.s 			page 17


 913 0505 17040000 		.4byte	0x417
 914 0509 20       		.byte	0x20
 915 050a 07       		.uleb128 0x7
 916 050b 43535200 		.ascii	"CSR\000"
 917 050f 07       		.byte	0x7
 918 0510 3702     		.2byte	0x237
 919 0512 17040000 		.4byte	0x417
 920 0516 24       		.byte	0x24
 921 0517 00       		.byte	0
 922 0518 11       		.uleb128 0x11
 923 0519 AA020000 		.4byte	.LASF86
 924 051d 07       		.byte	0x7
 925 051e 3A02     		.2byte	0x23a
 926 0520 8D040000 		.4byte	0x48d
 927 0524 04       		.uleb128 0x4
 928 0525 2E020000 		.4byte	.LASF87
 929 0529 08       		.byte	0x8
 930 052a 65       		.byte	0x65
 931 052b DA020000 		.4byte	0x2da
 932 052f 04       		.uleb128 0x4
 933 0530 32030000 		.4byte	.LASF88
 934 0534 08       		.byte	0x8
 935 0535 6D       		.byte	0x6d
 936 0536 CA000000 		.4byte	0xca
 937 053a 05       		.uleb128 0x5
 938 053b 77050000 		.4byte	.LASF89
 939 053f 04       		.byte	0x4
 940 0540 08       		.byte	0x8
 941 0541 89       		.byte	0x89
 942 0542 53050000 		.4byte	0x553
 943 0546 12       		.uleb128 0x12
 944 0547 72313300 		.ascii	"r13\000"
 945 054b 08       		.byte	0x8
 946 054c 8A       		.byte	0x8a
 947 054d CE050000 		.4byte	0x5ce
 948 0551 00       		.byte	0
 949 0552 00       		.byte	0
 950 0553 05       		.uleb128 0x5
 951 0554 40000000 		.4byte	.LASF90
 952 0558 24       		.byte	0x24
 953 0559 09       		.byte	0x9
 954 055a FD       		.byte	0xfd
 955 055b CE050000 		.4byte	0x5ce
 956 055f 07       		.uleb128 0x7
 957 0560 723400   		.ascii	"r4\000"
 958 0563 09       		.byte	0x9
 959 0564 1001     		.2byte	0x110
 960 0566 24050000 		.4byte	0x524
 961 056a 00       		.byte	0
 962 056b 07       		.uleb128 0x7
 963 056c 723500   		.ascii	"r5\000"
 964 056f 09       		.byte	0x9
 965 0570 1101     		.2byte	0x111
 966 0572 24050000 		.4byte	0x524
 967 0576 04       		.byte	0x4
 968 0577 07       		.uleb128 0x7
 969 0578 723600   		.ascii	"r6\000"
ARM GAS  /tmp/ccb2B0P1.s 			page 18


 970 057b 09       		.byte	0x9
 971 057c 1201     		.2byte	0x112
 972 057e 24050000 		.4byte	0x524
 973 0582 08       		.byte	0x8
 974 0583 07       		.uleb128 0x7
 975 0584 723700   		.ascii	"r7\000"
 976 0587 09       		.byte	0x9
 977 0588 1301     		.2byte	0x113
 978 058a 24050000 		.4byte	0x524
 979 058e 0C       		.byte	0xc
 980 058f 07       		.uleb128 0x7
 981 0590 723800   		.ascii	"r8\000"
 982 0593 09       		.byte	0x9
 983 0594 1401     		.2byte	0x114
 984 0596 24050000 		.4byte	0x524
 985 059a 10       		.byte	0x10
 986 059b 07       		.uleb128 0x7
 987 059c 723900   		.ascii	"r9\000"
 988 059f 09       		.byte	0x9
 989 05a0 1501     		.2byte	0x115
 990 05a2 24050000 		.4byte	0x524
 991 05a6 14       		.byte	0x14
 992 05a7 07       		.uleb128 0x7
 993 05a8 72313000 		.ascii	"r10\000"
 994 05ac 09       		.byte	0x9
 995 05ad 1601     		.2byte	0x116
 996 05af 24050000 		.4byte	0x524
 997 05b3 18       		.byte	0x18
 998 05b4 07       		.uleb128 0x7
 999 05b5 72313100 		.ascii	"r11\000"
 1000 05b9 09       		.byte	0x9
 1001 05ba 1701     		.2byte	0x117
 1002 05bc 24050000 		.4byte	0x524
 1003 05c0 1C       		.byte	0x1c
 1004 05c1 07       		.uleb128 0x7
 1005 05c2 6C7200   		.ascii	"lr\000"
 1006 05c5 09       		.byte	0x9
 1007 05c6 1801     		.2byte	0x118
 1008 05c8 24050000 		.4byte	0x524
 1009 05cc 20       		.byte	0x20
 1010 05cd 00       		.byte	0
 1011 05ce 09       		.uleb128 0x9
 1012 05cf 04       		.byte	0x4
 1013 05d0 53050000 		.4byte	0x553
 1014 05d4 13       		.uleb128 0x13
 1015 05d5 04       		.byte	0x4
 1016 05d6 0A       		.byte	0xa
 1017 05d7 38       		.byte	0x38
 1018 05d8 E9050000 		.4byte	0x5e9
 1019 05dc 06       		.uleb128 0x6
 1020 05dd 19050000 		.4byte	.LASF91
 1021 05e1 0A       		.byte	0xa
 1022 05e2 3C       		.byte	0x3c
 1023 05e3 D5000000 		.4byte	0xd5
 1024 05e7 00       		.byte	0
 1025 05e8 00       		.byte	0
 1026 05e9 04       		.uleb128 0x4
ARM GAS  /tmp/ccb2B0P1.s 			page 19


 1027 05ea 96030000 		.4byte	.LASF92
 1028 05ee 0A       		.byte	0xa
 1029 05ef 3D       		.byte	0x3d
 1030 05f0 D4050000 		.4byte	0x5d4
 1031 05f4 14       		.uleb128 0x14
 1032 05f5 04       		.byte	0x4
 1033 05f6 06       		.byte	0x6
 1034 05f7 FA       		.byte	0xfa
 1035 05f8 51060000 		.4byte	0x651
 1036 05fc 15       		.uleb128 0x15
 1037 05fd 26000000 		.4byte	.LASF93
 1038 0601 06       		.byte	0x6
 1039 0602 0101     		.2byte	0x101
 1040 0604 0C010000 		.4byte	0x10c
 1041 0608 15       		.uleb128 0x15
 1042 0609 7F000000 		.4byte	.LASF94
 1043 060d 06       		.byte	0x6
 1044 060e 0801     		.2byte	0x108
 1045 0610 0C010000 		.4byte	0x10c
 1046 0614 15       		.uleb128 0x15
 1047 0615 E5050000 		.4byte	.LASF95
 1048 0619 06       		.byte	0x6
 1049 061a 0F01     		.2byte	0x10f
 1050 061c DA020000 		.4byte	0x2da
 1051 0620 15       		.uleb128 0x15
 1052 0621 20000000 		.4byte	.LASF96
 1053 0625 06       		.byte	0x6
 1054 0626 1601     		.2byte	0x116
 1055 0628 51060000 		.4byte	0x651
 1056 062c 15       		.uleb128 0x15
 1057 062d 8B020000 		.4byte	.LASF97
 1058 0631 06       		.byte	0x6
 1059 0632 1E01     		.2byte	0x11e
 1060 0634 7C060000 		.4byte	0x67c
 1061 0638 15       		.uleb128 0x15
 1062 0639 8B040000 		.4byte	.LASF98
 1063 063d 06       		.byte	0x6
 1064 063e 2701     		.2byte	0x127
 1065 0640 B3060000 		.4byte	0x6b3
 1066 0644 15       		.uleb128 0x15
 1067 0645 42040000 		.4byte	.LASF99
 1068 0649 06       		.byte	0x6
 1069 064a 2F01     		.2byte	0x12f
 1070 064c 17010000 		.4byte	0x117
 1071 0650 00       		.byte	0
 1072 0651 09       		.uleb128 0x9
 1073 0652 04       		.byte	0x4
 1074 0653 0C020000 		.4byte	0x20c
 1075 0657 05       		.uleb128 0x5
 1076 0658 6A040000 		.4byte	.LASF100
 1077 065c 0C       		.byte	0xc
 1078 065d 0B       		.byte	0xb
 1079 065e 34       		.byte	0x34
 1080 065f 7C060000 		.4byte	0x67c
 1081 0663 06       		.uleb128 0x6
 1082 0664 16020000 		.4byte	.LASF101
 1083 0668 0B       		.byte	0xb
ARM GAS  /tmp/ccb2B0P1.s 			page 20


 1084 0669 35       		.byte	0x35
 1085 066a 41020000 		.4byte	0x241
 1086 066e 00       		.byte	0
 1087 066f 06       		.uleb128 0x6
 1088 0670 BB020000 		.4byte	.LASF102
 1089 0674 0B       		.byte	0xb
 1090 0675 37       		.byte	0x37
 1091 0676 22010000 		.4byte	0x122
 1092 067a 08       		.byte	0x8
 1093 067b 00       		.byte	0
 1094 067c 09       		.uleb128 0x9
 1095 067d 04       		.byte	0x4
 1096 067e 57060000 		.4byte	0x657
 1097 0682 05       		.uleb128 0x5
 1098 0683 B4050000 		.4byte	.LASF103
 1099 0687 10       		.byte	0x10
 1100 0688 0C       		.byte	0xc
 1101 0689 39       		.byte	0x39
 1102 068a B3060000 		.4byte	0x6b3
 1103 068e 06       		.uleb128 0x6
 1104 068f F8000000 		.4byte	.LASF104
 1105 0693 0C       		.byte	0xc
 1106 0694 3A       		.byte	0x3a
 1107 0695 41020000 		.4byte	0x241
 1108 0699 00       		.byte	0
 1109 069a 06       		.uleb128 0x6
 1110 069b 11060000 		.4byte	.LASF105
 1111 069f 0C       		.byte	0xc
 1112 06a0 3C       		.byte	0x3c
 1113 06a1 17020000 		.4byte	0x217
 1114 06a5 08       		.byte	0x8
 1115 06a6 06       		.uleb128 0x6
 1116 06a7 EA040000 		.4byte	.LASF106
 1117 06ab 0C       		.byte	0xc
 1118 06ac 3E       		.byte	0x3e
 1119 06ad F6060000 		.4byte	0x6f6
 1120 06b1 0C       		.byte	0xc
 1121 06b2 00       		.byte	0
 1122 06b3 09       		.uleb128 0x9
 1123 06b4 04       		.byte	0x4
 1124 06b5 82060000 		.4byte	0x682
 1125 06b9 09       		.uleb128 0x9
 1126 06ba 04       		.byte	0x4
 1127 06bb DC020000 		.4byte	0x2dc
 1128 06bf 0F       		.uleb128 0xf
 1129 06c0 2D010000 		.4byte	0x12d
 1130 06c4 0F       		.uleb128 0xf
 1131 06c5 C9060000 		.4byte	0x6c9
 1132 06c9 09       		.uleb128 0x9
 1133 06ca 04       		.byte	0x4
 1134 06cb CF060000 		.4byte	0x6cf
 1135 06cf 16       		.uleb128 0x16
 1136 06d0 D4060000 		.4byte	0x6d4
 1137 06d4 03       		.uleb128 0x3
 1138 06d5 01       		.byte	0x1
 1139 06d6 08       		.byte	0x8
 1140 06d7 C5040000 		.4byte	.LASF107
ARM GAS  /tmp/ccb2B0P1.s 			page 21


 1141 06db 17       		.uleb128 0x17
 1142 06dc 2F050000 		.4byte	0x52f
 1143 06e0 EB060000 		.4byte	0x6eb
 1144 06e4 18       		.uleb128 0x18
 1145 06e5 10040000 		.4byte	0x410
 1146 06e9 19       		.byte	0x19
 1147 06ea 00       		.byte	0
 1148 06eb 04       		.uleb128 0x4
 1149 06ec 52020000 		.4byte	.LASF108
 1150 06f0 0C       		.byte	0xc
 1151 06f1 34       		.byte	0x34
 1152 06f2 82060000 		.4byte	0x682
 1153 06f6 09       		.uleb128 0x9
 1154 06f7 04       		.byte	0x4
 1155 06f8 EB060000 		.4byte	0x6eb
 1156 06fc 03       		.uleb128 0x3
 1157 06fd 01       		.byte	0x1
 1158 06fe 02       		.byte	0x2
 1159 06ff 03040000 		.4byte	.LASF109
 1160 0703 13       		.uleb128 0x13
 1161 0704 0C       		.byte	0xc
 1162 0705 0D       		.byte	0xd
 1163 0706 68       		.byte	0x68
 1164 0707 30070000 		.4byte	0x730
 1165 070b 12       		.uleb128 0x12
 1166 070c 6F647200 		.ascii	"odr\000"
 1167 0710 0D       		.byte	0xd
 1168 0711 6A       		.byte	0x6a
 1169 0712 BF000000 		.4byte	0xbf
 1170 0716 00       		.byte	0
 1171 0717 12       		.uleb128 0x12
 1172 0718 63726C00 		.ascii	"crl\000"
 1173 071c 0D       		.byte	0xd
 1174 071d 6C       		.byte	0x6c
 1175 071e BF000000 		.4byte	0xbf
 1176 0722 04       		.byte	0x4
 1177 0723 12       		.uleb128 0x12
 1178 0724 63726800 		.ascii	"crh\000"
 1179 0728 0D       		.byte	0xd
 1180 0729 6E       		.byte	0x6e
 1181 072a BF000000 		.4byte	0xbf
 1182 072e 08       		.byte	0x8
 1183 072f 00       		.byte	0
 1184 0730 04       		.uleb128 0x4
 1185 0731 00000000 		.4byte	.LASF110
 1186 0735 0D       		.byte	0xd
 1187 0736 6F       		.byte	0x6f
 1188 0737 03070000 		.4byte	0x703
 1189 073b 13       		.uleb128 0x13
 1190 073c 54       		.byte	0x54
 1191 073d 0D       		.byte	0xd
 1192 073e 78       		.byte	0x78
 1193 073f 98070000 		.4byte	0x798
 1194 0743 06       		.uleb128 0x6
 1195 0744 0F020000 		.4byte	.LASF111
 1196 0748 0D       		.byte	0xd
 1197 0749 7A       		.byte	0x7a
ARM GAS  /tmp/ccb2B0P1.s 			page 22


 1198 074a 30070000 		.4byte	0x730
 1199 074e 00       		.byte	0
 1200 074f 06       		.uleb128 0x6
 1201 0750 5A020000 		.4byte	.LASF112
 1202 0754 0D       		.byte	0xd
 1203 0755 7C       		.byte	0x7c
 1204 0756 30070000 		.4byte	0x730
 1205 075a 0C       		.byte	0xc
 1206 075b 06       		.uleb128 0x6
 1207 075c EC050000 		.4byte	.LASF113
 1208 0760 0D       		.byte	0xd
 1209 0761 7E       		.byte	0x7e
 1210 0762 30070000 		.4byte	0x730
 1211 0766 18       		.byte	0x18
 1212 0767 06       		.uleb128 0x6
 1213 0768 A7030000 		.4byte	.LASF114
 1214 076c 0D       		.byte	0xd
 1215 076d 80       		.byte	0x80
 1216 076e 30070000 		.4byte	0x730
 1217 0772 24       		.byte	0x24
 1218 0773 06       		.uleb128 0x6
 1219 0774 ED010000 		.4byte	.LASF115
 1220 0778 0D       		.byte	0xd
 1221 0779 83       		.byte	0x83
 1222 077a 30070000 		.4byte	0x730
 1223 077e 30       		.byte	0x30
 1224 077f 06       		.uleb128 0x6
 1225 0780 D4020000 		.4byte	.LASF116
 1226 0784 0D       		.byte	0xd
 1227 0785 86       		.byte	0x86
 1228 0786 30070000 		.4byte	0x730
 1229 078a 3C       		.byte	0x3c
 1230 078b 06       		.uleb128 0x6
 1231 078c 2B030000 		.4byte	.LASF117
 1232 0790 0D       		.byte	0xd
 1233 0791 89       		.byte	0x89
 1234 0792 30070000 		.4byte	0x730
 1235 0796 48       		.byte	0x48
 1236 0797 00       		.byte	0
 1237 0798 04       		.uleb128 0x4
 1238 0799 07060000 		.4byte	.LASF118
 1239 079d 0D       		.byte	0xd
 1240 079e 8D       		.byte	0x8d
 1241 079f 3B070000 		.4byte	0x73b
 1242 07a3 04       		.uleb128 0x4
 1243 07a4 5B000000 		.4byte	.LASF119
 1244 07a8 0D       		.byte	0xd
 1245 07a9 92       		.byte	0x92
 1246 07aa BF000000 		.4byte	0xbf
 1247 07ae 04       		.uleb128 0x4
 1248 07af FE050000 		.4byte	.LASF120
 1249 07b3 0D       		.byte	0xd
 1250 07b4 97       		.byte	0x97
 1251 07b5 BF000000 		.4byte	0xbf
 1252 07b9 04       		.uleb128 0x4
 1253 07ba 28050000 		.4byte	.LASF121
 1254 07be 0D       		.byte	0xd
ARM GAS  /tmp/ccb2B0P1.s 			page 23


 1255 07bf A4       		.byte	0xa4
 1256 07c0 C4070000 		.4byte	0x7c4
 1257 07c4 09       		.uleb128 0x9
 1258 07c5 04       		.byte	0x4
 1259 07c6 81040000 		.4byte	0x481
 1260 07ca 19       		.uleb128 0x19
 1261 07cb C4050000 		.4byte	.LASF122
 1262 07cf 01       		.byte	0x1
 1263 07d0 4C       		.byte	0x4c
 1264 07d1 00000000 		.4byte	.LFB207
 1265 07d5 94000000 		.4byte	.LFE207-.LFB207
 1266 07d9 01       		.uleb128 0x1
 1267 07da 9C       		.byte	0x9c
 1268 07db ED070000 		.4byte	0x7ed
 1269 07df 1A       		.uleb128 0x1a
 1270 07e0 CF040000 		.4byte	.LASF124
 1271 07e4 01       		.byte	0x1
 1272 07e5 4C       		.byte	0x4c
 1273 07e6 ED070000 		.4byte	0x7ed
 1274 07ea 01       		.uleb128 0x1
 1275 07eb 50       		.byte	0x50
 1276 07ec 00       		.byte	0
 1277 07ed 09       		.uleb128 0x9
 1278 07ee 04       		.byte	0x4
 1279 07ef F3070000 		.4byte	0x7f3
 1280 07f3 16       		.uleb128 0x16
 1281 07f4 98070000 		.4byte	0x798
 1282 07f8 19       		.uleb128 0x19
 1283 07f9 7F050000 		.4byte	.LASF123
 1284 07fd 01       		.byte	0x1
 1285 07fe 82       		.byte	0x82
 1286 07ff 00000000 		.4byte	.LFB208
 1287 0803 68000000 		.4byte	.LFE208-.LFB208
 1288 0807 01       		.uleb128 0x1
 1289 0808 9C       		.byte	0x9c
 1290 0809 A0080000 		.4byte	0x8a0
 1291 080d 1A       		.uleb128 0x1a
 1292 080e 4D020000 		.4byte	.LASF125
 1293 0812 01       		.byte	0x1
 1294 0813 82       		.byte	0x82
 1295 0814 B9070000 		.4byte	0x7b9
 1296 0818 01       		.uleb128 0x1
 1297 0819 50       		.byte	0x50
 1298 081a 1B       		.uleb128 0x1b
 1299 081b 29020000 		.4byte	.LASF126
 1300 081f 01       		.byte	0x1
 1301 0820 83       		.byte	0x83
 1302 0821 A3070000 		.4byte	0x7a3
 1303 0825 00000000 		.4byte	.LLST0
 1304 0829 1B       		.uleb128 0x1b
 1305 082a CA040000 		.4byte	.LASF127
 1306 082e 01       		.byte	0x1
 1307 082f 84       		.byte	0x84
 1308 0830 AE070000 		.4byte	0x7ae
 1309 0834 1E000000 		.4byte	.LLST1
 1310 0838 1C       		.uleb128 0x1c
 1311 0839 46020000 		.4byte	.LASF128
ARM GAS  /tmp/ccb2B0P1.s 			page 24


 1312 083d 01       		.byte	0x1
 1313 083e 85       		.byte	0x85
 1314 083f B0080000 		.4byte	0x8b0
 1315 0843 05       		.uleb128 0x5
 1316 0844 03       		.byte	0x3
 1317 0845 00000000 		.4byte	cfgtab.7063
 1318 0849 1D       		.uleb128 0x1d
 1319 084a 6D6800   		.ascii	"mh\000"
 1320 084d 01       		.byte	0x1
 1321 084e 99       		.byte	0x99
 1322 084f BF000000 		.4byte	0xbf
 1323 0853 4A000000 		.4byte	.LLST2
 1324 0857 1D       		.uleb128 0x1d
 1325 0858 6D6C00   		.ascii	"ml\000"
 1326 085b 01       		.byte	0x1
 1327 085c 99       		.byte	0x99
 1328 085d BF000000 		.4byte	0xbf
 1329 0861 5D000000 		.4byte	.LLST3
 1330 0865 1D       		.uleb128 0x1d
 1331 0866 63726800 		.ascii	"crh\000"
 1332 086a 01       		.byte	0x1
 1333 086b 99       		.byte	0x99
 1334 086c BF000000 		.4byte	0xbf
 1335 0870 70000000 		.4byte	.LLST4
 1336 0874 1D       		.uleb128 0x1d
 1337 0875 63726C00 		.ascii	"crl\000"
 1338 0879 01       		.byte	0x1
 1339 087a 99       		.byte	0x99
 1340 087b BF000000 		.4byte	0xbf
 1341 087f 83000000 		.4byte	.LLST5
 1342 0883 1D       		.uleb128 0x1d
 1343 0884 63666700 		.ascii	"cfg\000"
 1344 0888 01       		.byte	0x1
 1345 0889 99       		.byte	0x99
 1346 088a BF000000 		.4byte	0xbf
 1347 088e A1000000 		.4byte	.LLST6
 1348 0892 1D       		.uleb128 0x1d
 1349 0893 6900     		.ascii	"i\000"
 1350 0895 01       		.byte	0x1
 1351 0896 9A       		.byte	0x9a
 1352 0897 28000000 		.4byte	0x28
 1353 089b CA000000 		.4byte	.LLST7
 1354 089f 00       		.byte	0
 1355 08a0 17       		.uleb128 0x17
 1356 08a1 9E000000 		.4byte	0x9e
 1357 08a5 B0080000 		.4byte	0x8b0
 1358 08a9 18       		.uleb128 0x18
 1359 08aa 10040000 		.4byte	0x410
 1360 08ae 11       		.byte	0x11
 1361 08af 00       		.byte	0
 1362 08b0 16       		.uleb128 0x16
 1363 08b1 A0080000 		.4byte	0x8a0
 1364 08b5 1E       		.uleb128 0x1e
 1365 08b6 A9000000 		.4byte	.LASF129
 1366 08ba 0E       		.byte	0xe
 1367 08bb 5506     		.2byte	0x655
 1368 08bd C1080000 		.4byte	0x8c1
ARM GAS  /tmp/ccb2B0P1.s 			page 25


 1369 08c1 0F       		.uleb128 0xf
 1370 08c2 B4000000 		.4byte	0xb4
 1371 08c6 1F       		.uleb128 0x1f
 1372 08c7 636800   		.ascii	"ch\000"
 1373 08ca 06       		.byte	0x6
 1374 08cb 0902     		.2byte	0x209
 1375 08cd A9030000 		.4byte	0x3a9
 1376 08d1 00       		.byte	0
 1377              		.section	.debug_abbrev,"",%progbits
 1378              	.Ldebug_abbrev0:
 1379 0000 01       		.uleb128 0x1
 1380 0001 11       		.uleb128 0x11
 1381 0002 01       		.byte	0x1
 1382 0003 25       		.uleb128 0x25
 1383 0004 0E       		.uleb128 0xe
 1384 0005 13       		.uleb128 0x13
 1385 0006 0B       		.uleb128 0xb
 1386 0007 03       		.uleb128 0x3
 1387 0008 0E       		.uleb128 0xe
 1388 0009 55       		.uleb128 0x55
 1389 000a 17       		.uleb128 0x17
 1390 000b 11       		.uleb128 0x11
 1391 000c 01       		.uleb128 0x1
 1392 000d 10       		.uleb128 0x10
 1393 000e 17       		.uleb128 0x17
 1394 000f 00       		.byte	0
 1395 0010 00       		.byte	0
 1396 0011 02       		.uleb128 0x2
 1397 0012 24       		.uleb128 0x24
 1398 0013 00       		.byte	0
 1399 0014 0B       		.uleb128 0xb
 1400 0015 0B       		.uleb128 0xb
 1401 0016 3E       		.uleb128 0x3e
 1402 0017 0B       		.uleb128 0xb
 1403 0018 03       		.uleb128 0x3
 1404 0019 08       		.uleb128 0x8
 1405 001a 00       		.byte	0
 1406 001b 00       		.byte	0
 1407 001c 03       		.uleb128 0x3
 1408 001d 24       		.uleb128 0x24
 1409 001e 00       		.byte	0
 1410 001f 0B       		.uleb128 0xb
 1411 0020 0B       		.uleb128 0xb
 1412 0021 3E       		.uleb128 0x3e
 1413 0022 0B       		.uleb128 0xb
 1414 0023 03       		.uleb128 0x3
 1415 0024 0E       		.uleb128 0xe
 1416 0025 00       		.byte	0
 1417 0026 00       		.byte	0
 1418 0027 04       		.uleb128 0x4
 1419 0028 16       		.uleb128 0x16
 1420 0029 00       		.byte	0
 1421 002a 03       		.uleb128 0x3
 1422 002b 0E       		.uleb128 0xe
 1423 002c 3A       		.uleb128 0x3a
 1424 002d 0B       		.uleb128 0xb
 1425 002e 3B       		.uleb128 0x3b
ARM GAS  /tmp/ccb2B0P1.s 			page 26


 1426 002f 0B       		.uleb128 0xb
 1427 0030 49       		.uleb128 0x49
 1428 0031 13       		.uleb128 0x13
 1429 0032 00       		.byte	0
 1430 0033 00       		.byte	0
 1431 0034 05       		.uleb128 0x5
 1432 0035 13       		.uleb128 0x13
 1433 0036 01       		.byte	0x1
 1434 0037 03       		.uleb128 0x3
 1435 0038 0E       		.uleb128 0xe
 1436 0039 0B       		.uleb128 0xb
 1437 003a 0B       		.uleb128 0xb
 1438 003b 3A       		.uleb128 0x3a
 1439 003c 0B       		.uleb128 0xb
 1440 003d 3B       		.uleb128 0x3b
 1441 003e 0B       		.uleb128 0xb
 1442 003f 01       		.uleb128 0x1
 1443 0040 13       		.uleb128 0x13
 1444 0041 00       		.byte	0
 1445 0042 00       		.byte	0
 1446 0043 06       		.uleb128 0x6
 1447 0044 0D       		.uleb128 0xd
 1448 0045 00       		.byte	0
 1449 0046 03       		.uleb128 0x3
 1450 0047 0E       		.uleb128 0xe
 1451 0048 3A       		.uleb128 0x3a
 1452 0049 0B       		.uleb128 0xb
 1453 004a 3B       		.uleb128 0x3b
 1454 004b 0B       		.uleb128 0xb
 1455 004c 49       		.uleb128 0x49
 1456 004d 13       		.uleb128 0x13
 1457 004e 38       		.uleb128 0x38
 1458 004f 0B       		.uleb128 0xb
 1459 0050 00       		.byte	0
 1460 0051 00       		.byte	0
 1461 0052 07       		.uleb128 0x7
 1462 0053 0D       		.uleb128 0xd
 1463 0054 00       		.byte	0
 1464 0055 03       		.uleb128 0x3
 1465 0056 08       		.uleb128 0x8
 1466 0057 3A       		.uleb128 0x3a
 1467 0058 0B       		.uleb128 0xb
 1468 0059 3B       		.uleb128 0x3b
 1469 005a 05       		.uleb128 0x5
 1470 005b 49       		.uleb128 0x49
 1471 005c 13       		.uleb128 0x13
 1472 005d 38       		.uleb128 0x38
 1473 005e 0B       		.uleb128 0xb
 1474 005f 00       		.byte	0
 1475 0060 00       		.byte	0
 1476 0061 08       		.uleb128 0x8
 1477 0062 0D       		.uleb128 0xd
 1478 0063 00       		.byte	0
 1479 0064 03       		.uleb128 0x3
 1480 0065 0E       		.uleb128 0xe
 1481 0066 3A       		.uleb128 0x3a
 1482 0067 0B       		.uleb128 0xb
ARM GAS  /tmp/ccb2B0P1.s 			page 27


 1483 0068 3B       		.uleb128 0x3b
 1484 0069 05       		.uleb128 0x5
 1485 006a 49       		.uleb128 0x49
 1486 006b 13       		.uleb128 0x13
 1487 006c 38       		.uleb128 0x38
 1488 006d 0B       		.uleb128 0xb
 1489 006e 00       		.byte	0
 1490 006f 00       		.byte	0
 1491 0070 09       		.uleb128 0x9
 1492 0071 0F       		.uleb128 0xf
 1493 0072 00       		.byte	0
 1494 0073 0B       		.uleb128 0xb
 1495 0074 0B       		.uleb128 0xb
 1496 0075 49       		.uleb128 0x49
 1497 0076 13       		.uleb128 0x13
 1498 0077 00       		.byte	0
 1499 0078 00       		.byte	0
 1500 0079 0A       		.uleb128 0xa
 1501 007a 13       		.uleb128 0x13
 1502 007b 01       		.byte	0x1
 1503 007c 03       		.uleb128 0x3
 1504 007d 0E       		.uleb128 0xe
 1505 007e 0B       		.uleb128 0xb
 1506 007f 0B       		.uleb128 0xb
 1507 0080 3A       		.uleb128 0x3a
 1508 0081 0B       		.uleb128 0xb
 1509 0082 3B       		.uleb128 0x3b
 1510 0083 05       		.uleb128 0x5
 1511 0084 01       		.uleb128 0x1
 1512 0085 13       		.uleb128 0x13
 1513 0086 00       		.byte	0
 1514 0087 00       		.byte	0
 1515 0088 0B       		.uleb128 0xb
 1516 0089 15       		.uleb128 0x15
 1517 008a 01       		.byte	0x1
 1518 008b 27       		.uleb128 0x27
 1519 008c 19       		.uleb128 0x19
 1520 008d 01       		.uleb128 0x1
 1521 008e 13       		.uleb128 0x13
 1522 008f 00       		.byte	0
 1523 0090 00       		.byte	0
 1524 0091 0C       		.uleb128 0xc
 1525 0092 05       		.uleb128 0x5
 1526 0093 00       		.byte	0
 1527 0094 49       		.uleb128 0x49
 1528 0095 13       		.uleb128 0x13
 1529 0096 00       		.byte	0
 1530 0097 00       		.byte	0
 1531 0098 0D       		.uleb128 0xd
 1532 0099 0F       		.uleb128 0xf
 1533 009a 00       		.byte	0
 1534 009b 0B       		.uleb128 0xb
 1535 009c 0B       		.uleb128 0xb
 1536 009d 00       		.byte	0
 1537 009e 00       		.byte	0
 1538 009f 0E       		.uleb128 0xe
 1539 00a0 13       		.uleb128 0x13
ARM GAS  /tmp/ccb2B0P1.s 			page 28


 1540 00a1 01       		.byte	0x1
 1541 00a2 03       		.uleb128 0x3
 1542 00a3 0E       		.uleb128 0xe
 1543 00a4 0B       		.uleb128 0xb
 1544 00a5 05       		.uleb128 0x5
 1545 00a6 3A       		.uleb128 0x3a
 1546 00a7 0B       		.uleb128 0xb
 1547 00a8 3B       		.uleb128 0x3b
 1548 00a9 05       		.uleb128 0x5
 1549 00aa 01       		.uleb128 0x1
 1550 00ab 13       		.uleb128 0x13
 1551 00ac 00       		.byte	0
 1552 00ad 00       		.byte	0
 1553 00ae 0F       		.uleb128 0xf
 1554 00af 35       		.uleb128 0x35
 1555 00b0 00       		.byte	0
 1556 00b1 49       		.uleb128 0x49
 1557 00b2 13       		.uleb128 0x13
 1558 00b3 00       		.byte	0
 1559 00b4 00       		.byte	0
 1560 00b5 10       		.uleb128 0x10
 1561 00b6 13       		.uleb128 0x13
 1562 00b7 01       		.byte	0x1
 1563 00b8 0B       		.uleb128 0xb
 1564 00b9 0B       		.uleb128 0xb
 1565 00ba 3A       		.uleb128 0x3a
 1566 00bb 0B       		.uleb128 0xb
 1567 00bc 3B       		.uleb128 0x3b
 1568 00bd 05       		.uleb128 0x5
 1569 00be 01       		.uleb128 0x1
 1570 00bf 13       		.uleb128 0x13
 1571 00c0 00       		.byte	0
 1572 00c1 00       		.byte	0
 1573 00c2 11       		.uleb128 0x11
 1574 00c3 16       		.uleb128 0x16
 1575 00c4 00       		.byte	0
 1576 00c5 03       		.uleb128 0x3
 1577 00c6 0E       		.uleb128 0xe
 1578 00c7 3A       		.uleb128 0x3a
 1579 00c8 0B       		.uleb128 0xb
 1580 00c9 3B       		.uleb128 0x3b
 1581 00ca 05       		.uleb128 0x5
 1582 00cb 49       		.uleb128 0x49
 1583 00cc 13       		.uleb128 0x13
 1584 00cd 00       		.byte	0
 1585 00ce 00       		.byte	0
 1586 00cf 12       		.uleb128 0x12
 1587 00d0 0D       		.uleb128 0xd
 1588 00d1 00       		.byte	0
 1589 00d2 03       		.uleb128 0x3
 1590 00d3 08       		.uleb128 0x8
 1591 00d4 3A       		.uleb128 0x3a
 1592 00d5 0B       		.uleb128 0xb
 1593 00d6 3B       		.uleb128 0x3b
 1594 00d7 0B       		.uleb128 0xb
 1595 00d8 49       		.uleb128 0x49
 1596 00d9 13       		.uleb128 0x13
ARM GAS  /tmp/ccb2B0P1.s 			page 29


 1597 00da 38       		.uleb128 0x38
 1598 00db 0B       		.uleb128 0xb
 1599 00dc 00       		.byte	0
 1600 00dd 00       		.byte	0
 1601 00de 13       		.uleb128 0x13
 1602 00df 13       		.uleb128 0x13
 1603 00e0 01       		.byte	0x1
 1604 00e1 0B       		.uleb128 0xb
 1605 00e2 0B       		.uleb128 0xb
 1606 00e3 3A       		.uleb128 0x3a
 1607 00e4 0B       		.uleb128 0xb
 1608 00e5 3B       		.uleb128 0x3b
 1609 00e6 0B       		.uleb128 0xb
 1610 00e7 01       		.uleb128 0x1
 1611 00e8 13       		.uleb128 0x13
 1612 00e9 00       		.byte	0
 1613 00ea 00       		.byte	0
 1614 00eb 14       		.uleb128 0x14
 1615 00ec 17       		.uleb128 0x17
 1616 00ed 01       		.byte	0x1
 1617 00ee 0B       		.uleb128 0xb
 1618 00ef 0B       		.uleb128 0xb
 1619 00f0 3A       		.uleb128 0x3a
 1620 00f1 0B       		.uleb128 0xb
 1621 00f2 3B       		.uleb128 0x3b
 1622 00f3 0B       		.uleb128 0xb
 1623 00f4 01       		.uleb128 0x1
 1624 00f5 13       		.uleb128 0x13
 1625 00f6 00       		.byte	0
 1626 00f7 00       		.byte	0
 1627 00f8 15       		.uleb128 0x15
 1628 00f9 0D       		.uleb128 0xd
 1629 00fa 00       		.byte	0
 1630 00fb 03       		.uleb128 0x3
 1631 00fc 0E       		.uleb128 0xe
 1632 00fd 3A       		.uleb128 0x3a
 1633 00fe 0B       		.uleb128 0xb
 1634 00ff 3B       		.uleb128 0x3b
 1635 0100 05       		.uleb128 0x5
 1636 0101 49       		.uleb128 0x49
 1637 0102 13       		.uleb128 0x13
 1638 0103 00       		.byte	0
 1639 0104 00       		.byte	0
 1640 0105 16       		.uleb128 0x16
 1641 0106 26       		.uleb128 0x26
 1642 0107 00       		.byte	0
 1643 0108 49       		.uleb128 0x49
 1644 0109 13       		.uleb128 0x13
 1645 010a 00       		.byte	0
 1646 010b 00       		.byte	0
 1647 010c 17       		.uleb128 0x17
 1648 010d 01       		.uleb128 0x1
 1649 010e 01       		.byte	0x1
 1650 010f 49       		.uleb128 0x49
 1651 0110 13       		.uleb128 0x13
 1652 0111 01       		.uleb128 0x1
 1653 0112 13       		.uleb128 0x13
ARM GAS  /tmp/ccb2B0P1.s 			page 30


 1654 0113 00       		.byte	0
 1655 0114 00       		.byte	0
 1656 0115 18       		.uleb128 0x18
 1657 0116 21       		.uleb128 0x21
 1658 0117 00       		.byte	0
 1659 0118 49       		.uleb128 0x49
 1660 0119 13       		.uleb128 0x13
 1661 011a 2F       		.uleb128 0x2f
 1662 011b 0B       		.uleb128 0xb
 1663 011c 00       		.byte	0
 1664 011d 00       		.byte	0
 1665 011e 19       		.uleb128 0x19
 1666 011f 2E       		.uleb128 0x2e
 1667 0120 01       		.byte	0x1
 1668 0121 3F       		.uleb128 0x3f
 1669 0122 19       		.uleb128 0x19
 1670 0123 03       		.uleb128 0x3
 1671 0124 0E       		.uleb128 0xe
 1672 0125 3A       		.uleb128 0x3a
 1673 0126 0B       		.uleb128 0xb
 1674 0127 3B       		.uleb128 0x3b
 1675 0128 0B       		.uleb128 0xb
 1676 0129 27       		.uleb128 0x27
 1677 012a 19       		.uleb128 0x19
 1678 012b 11       		.uleb128 0x11
 1679 012c 01       		.uleb128 0x1
 1680 012d 12       		.uleb128 0x12
 1681 012e 06       		.uleb128 0x6
 1682 012f 40       		.uleb128 0x40
 1683 0130 18       		.uleb128 0x18
 1684 0131 9742     		.uleb128 0x2117
 1685 0133 19       		.uleb128 0x19
 1686 0134 01       		.uleb128 0x1
 1687 0135 13       		.uleb128 0x13
 1688 0136 00       		.byte	0
 1689 0137 00       		.byte	0
 1690 0138 1A       		.uleb128 0x1a
 1691 0139 05       		.uleb128 0x5
 1692 013a 00       		.byte	0
 1693 013b 03       		.uleb128 0x3
 1694 013c 0E       		.uleb128 0xe
 1695 013d 3A       		.uleb128 0x3a
 1696 013e 0B       		.uleb128 0xb
 1697 013f 3B       		.uleb128 0x3b
 1698 0140 0B       		.uleb128 0xb
 1699 0141 49       		.uleb128 0x49
 1700 0142 13       		.uleb128 0x13
 1701 0143 02       		.uleb128 0x2
 1702 0144 18       		.uleb128 0x18
 1703 0145 00       		.byte	0
 1704 0146 00       		.byte	0
 1705 0147 1B       		.uleb128 0x1b
 1706 0148 05       		.uleb128 0x5
 1707 0149 00       		.byte	0
 1708 014a 03       		.uleb128 0x3
 1709 014b 0E       		.uleb128 0xe
 1710 014c 3A       		.uleb128 0x3a
ARM GAS  /tmp/ccb2B0P1.s 			page 31


 1711 014d 0B       		.uleb128 0xb
 1712 014e 3B       		.uleb128 0x3b
 1713 014f 0B       		.uleb128 0xb
 1714 0150 49       		.uleb128 0x49
 1715 0151 13       		.uleb128 0x13
 1716 0152 02       		.uleb128 0x2
 1717 0153 17       		.uleb128 0x17
 1718 0154 00       		.byte	0
 1719 0155 00       		.byte	0
 1720 0156 1C       		.uleb128 0x1c
 1721 0157 34       		.uleb128 0x34
 1722 0158 00       		.byte	0
 1723 0159 03       		.uleb128 0x3
 1724 015a 0E       		.uleb128 0xe
 1725 015b 3A       		.uleb128 0x3a
 1726 015c 0B       		.uleb128 0xb
 1727 015d 3B       		.uleb128 0x3b
 1728 015e 0B       		.uleb128 0xb
 1729 015f 49       		.uleb128 0x49
 1730 0160 13       		.uleb128 0x13
 1731 0161 02       		.uleb128 0x2
 1732 0162 18       		.uleb128 0x18
 1733 0163 00       		.byte	0
 1734 0164 00       		.byte	0
 1735 0165 1D       		.uleb128 0x1d
 1736 0166 34       		.uleb128 0x34
 1737 0167 00       		.byte	0
 1738 0168 03       		.uleb128 0x3
 1739 0169 08       		.uleb128 0x8
 1740 016a 3A       		.uleb128 0x3a
 1741 016b 0B       		.uleb128 0xb
 1742 016c 3B       		.uleb128 0x3b
 1743 016d 0B       		.uleb128 0xb
 1744 016e 49       		.uleb128 0x49
 1745 016f 13       		.uleb128 0x13
 1746 0170 02       		.uleb128 0x2
 1747 0171 17       		.uleb128 0x17
 1748 0172 00       		.byte	0
 1749 0173 00       		.byte	0
 1750 0174 1E       		.uleb128 0x1e
 1751 0175 34       		.uleb128 0x34
 1752 0176 00       		.byte	0
 1753 0177 03       		.uleb128 0x3
 1754 0178 0E       		.uleb128 0xe
 1755 0179 3A       		.uleb128 0x3a
 1756 017a 0B       		.uleb128 0xb
 1757 017b 3B       		.uleb128 0x3b
 1758 017c 05       		.uleb128 0x5
 1759 017d 49       		.uleb128 0x49
 1760 017e 13       		.uleb128 0x13
 1761 017f 3F       		.uleb128 0x3f
 1762 0180 19       		.uleb128 0x19
 1763 0181 3C       		.uleb128 0x3c
 1764 0182 19       		.uleb128 0x19
 1765 0183 00       		.byte	0
 1766 0184 00       		.byte	0
 1767 0185 1F       		.uleb128 0x1f
ARM GAS  /tmp/ccb2B0P1.s 			page 32


 1768 0186 34       		.uleb128 0x34
 1769 0187 00       		.byte	0
 1770 0188 03       		.uleb128 0x3
 1771 0189 08       		.uleb128 0x8
 1772 018a 3A       		.uleb128 0x3a
 1773 018b 0B       		.uleb128 0xb
 1774 018c 3B       		.uleb128 0x3b
 1775 018d 05       		.uleb128 0x5
 1776 018e 49       		.uleb128 0x49
 1777 018f 13       		.uleb128 0x13
 1778 0190 3F       		.uleb128 0x3f
 1779 0191 19       		.uleb128 0x19
 1780 0192 3C       		.uleb128 0x3c
 1781 0193 19       		.uleb128 0x19
 1782 0194 00       		.byte	0
 1783 0195 00       		.byte	0
 1784 0196 00       		.byte	0
 1785              		.section	.debug_loc,"",%progbits
 1786              	.Ldebug_loc0:
 1787              	.LLST0:
 1788 0000 00000000 		.4byte	.LVL1
 1789 0004 4C000000 		.4byte	.LVL12
 1790 0008 0100     		.2byte	0x1
 1791 000a 51       		.byte	0x51
 1792 000b 4C000000 		.4byte	.LVL12
 1793 000f 68000000 		.4byte	.LFE208
 1794 0013 0100     		.2byte	0x1
 1795 0015 51       		.byte	0x51
 1796 0016 00000000 		.4byte	0
 1797 001a 00000000 		.4byte	0
 1798              	.LLST1:
 1799 001e 00000000 		.4byte	.LVL1
 1800 0022 1E000000 		.4byte	.LVL2
 1801 0026 0100     		.2byte	0x1
 1802 0028 52       		.byte	0x52
 1803 0029 1E000000 		.4byte	.LVL2
 1804 002d 60000000 		.4byte	.LVL18
 1805 0031 0400     		.2byte	0x4
 1806 0033 F3       		.byte	0xf3
 1807 0034 01       		.uleb128 0x1
 1808 0035 52       		.byte	0x52
 1809 0036 9F       		.byte	0x9f
 1810 0037 60000000 		.4byte	.LVL18
 1811 003b 68000000 		.4byte	.LFE208
 1812 003f 0100     		.2byte	0x1
 1813 0041 52       		.byte	0x52
 1814 0042 00000000 		.4byte	0
 1815 0046 00000000 		.4byte	0
 1816              	.LLST2:
 1817 004a 1E000000 		.4byte	.LVL2
 1818 004e 52000000 		.4byte	.LVL14
 1819 0052 0100     		.2byte	0x1
 1820 0054 56       		.byte	0x56
 1821 0055 00000000 		.4byte	0
 1822 0059 00000000 		.4byte	0
 1823              	.LLST3:
 1824 005d 1E000000 		.4byte	.LVL2
ARM GAS  /tmp/ccb2B0P1.s 			page 33


 1825 0061 5A000000 		.4byte	.LVL16
 1826 0065 0100     		.2byte	0x1
 1827 0067 55       		.byte	0x55
 1828 0068 00000000 		.4byte	0
 1829 006c 00000000 		.4byte	0
 1830              	.LLST4:
 1831 0070 1E000000 		.4byte	.LVL2
 1832 0074 54000000 		.4byte	.LVL15
 1833 0078 0100     		.2byte	0x1
 1834 007a 54       		.byte	0x54
 1835 007b 00000000 		.4byte	0
 1836 007f 00000000 		.4byte	0
 1837              	.LLST5:
 1838 0083 1E000000 		.4byte	.LVL2
 1839 0087 2A000000 		.4byte	.LVL4
 1840 008b 0100     		.2byte	0x1
 1841 008d 53       		.byte	0x53
 1842 008e 2E000000 		.4byte	.LVL5
 1843 0092 5C000000 		.4byte	.LVL17
 1844 0096 0100     		.2byte	0x1
 1845 0098 53       		.byte	0x53
 1846 0099 00000000 		.4byte	0
 1847 009d 00000000 		.4byte	0
 1848              	.LLST6:
 1849 00a1 1E000000 		.4byte	.LVL2
 1850 00a5 50000000 		.4byte	.LVL13
 1851 00a9 0100     		.2byte	0x1
 1852 00ab 52       		.byte	0x52
 1853 00ac 50000000 		.4byte	.LVL13
 1854 00b0 60000000 		.4byte	.LVL18
 1855 00b4 0C00     		.2byte	0xc
 1856 00b6 7E       		.byte	0x7e
 1857 00b7 00       		.sleb128 0
 1858 00b8 F3       		.byte	0xf3
 1859 00b9 01       		.uleb128 0x1
 1860 00ba 52       		.byte	0x52
 1861 00bb 22       		.byte	0x22
 1862 00bc 94       		.byte	0x94
 1863 00bd 01       		.byte	0x1
 1864 00be 08       		.byte	0x8
 1865 00bf FF       		.byte	0xff
 1866 00c0 1A       		.byte	0x1a
 1867 00c1 9F       		.byte	0x9f
 1868 00c2 00000000 		.4byte	0
 1869 00c6 00000000 		.4byte	0
 1870              	.LLST7:
 1871 00ca 1E000000 		.4byte	.LVL2
 1872 00ce 48000000 		.4byte	.LVL11
 1873 00d2 0500     		.2byte	0x5
 1874 00d4 38       		.byte	0x38
 1875 00d5 77       		.byte	0x77
 1876 00d6 00       		.sleb128 0
 1877 00d7 1C       		.byte	0x1c
 1878 00d8 9F       		.byte	0x9f
 1879 00d9 48000000 		.4byte	.LVL11
 1880 00dd 4C000000 		.4byte	.LVL12
 1881 00e1 0500     		.2byte	0x5
ARM GAS  /tmp/ccb2B0P1.s 			page 34


 1882 00e3 37       		.byte	0x37
 1883 00e4 77       		.byte	0x77
 1884 00e5 00       		.sleb128 0
 1885 00e6 1C       		.byte	0x1c
 1886 00e7 9F       		.byte	0x9f
 1887 00e8 00000000 		.4byte	0
 1888 00ec 00000000 		.4byte	0
 1889              		.section	.debug_aranges,"",%progbits
 1890 0000 24000000 		.4byte	0x24
 1891 0004 0200     		.2byte	0x2
 1892 0006 00000000 		.4byte	.Ldebug_info0
 1893 000a 04       		.byte	0x4
 1894 000b 00       		.byte	0
 1895 000c 0000     		.2byte	0
 1896 000e 0000     		.2byte	0
 1897 0010 00000000 		.4byte	.LFB207
 1898 0014 94000000 		.4byte	.LFE207-.LFB207
 1899 0018 00000000 		.4byte	.LFB208
 1900 001c 68000000 		.4byte	.LFE208-.LFB208
 1901 0020 00000000 		.4byte	0
 1902 0024 00000000 		.4byte	0
 1903              		.section	.debug_ranges,"",%progbits
 1904              	.Ldebug_ranges0:
 1905 0000 00000000 		.4byte	.LFB207
 1906 0004 94000000 		.4byte	.LFE207
 1907 0008 00000000 		.4byte	.LFB208
 1908 000c 68000000 		.4byte	.LFE208
 1909 0010 00000000 		.4byte	0
 1910 0014 00000000 		.4byte	0
 1911              		.section	.debug_line,"",%progbits
 1912              	.Ldebug_line0:
 1913 0000 21030000 		.section	.debug_str,"MS",%progbits,1
 1913      02009902 
 1913      00000201 
 1913      FB0E0D00 
 1913      01010101 
 1914              	.LASF110:
 1915 0000 73746D33 		.ascii	"stm32_gpio_setup_t\000"
 1915      325F6770 
 1915      696F5F73 
 1915      65747570 
 1915      5F7400
 1916              	.LASF49:
 1917 0013 72656164 		.ascii	"ready_list_t\000"
 1917      795F6C69 
 1917      73745F74 
 1917      00
 1918              	.LASF96:
 1919 0020 77747472 		.ascii	"wttrp\000"
 1919      7000
 1920              	.LASF93:
 1921 0026 7264796D 		.ascii	"rdymsg\000"
 1921      736700
 1922              	.LASF18:
 1923 002d 75696E74 		.ascii	"uint64_t\000"
 1923      36345F74 
 1923      00
ARM GAS  /tmp/ccb2B0P1.s 			page 35


 1924              	.LASF4:
 1925 0036 5F5F7569 		.ascii	"__uint8_t\000"
 1925      6E74385F 
 1925      7400
 1926              	.LASF90:
 1927 0040 706F7274 		.ascii	"port_intctx\000"
 1927      5F696E74 
 1927      63747800 
 1928              	.LASF66:
 1929 004c 73797374 		.ascii	"system_debug_t\000"
 1929      656D5F64 
 1929      65627567 
 1929      5F7400
 1930              	.LASF119:
 1931 005b 696F706F 		.ascii	"ioportmask_t\000"
 1931      72746D61 
 1931      736B5F74 
 1931      00
 1932              	.LASF13:
 1933 0068 6C6F6E67 		.ascii	"long long unsigned int\000"
 1933      206C6F6E 
 1933      6720756E 
 1933      7369676E 
 1933      65642069 
 1934              	.LASF94:
 1935 007f 65786974 		.ascii	"exitcode\000"
 1935      636F6465 
 1935      00
 1936              	.LASF73:
 1937 0088 6D61696E 		.ascii	"mainthread\000"
 1937      74687265 
 1937      616400
 1938              	.LASF63:
 1939 0093 76697274 		.ascii	"virtual_timers_list_t\000"
 1939      75616C5F 
 1939      74696D65 
 1939      72735F6C 
 1939      6973745F 
 1940              	.LASF129:
 1941 00a9 49544D5F 		.ascii	"ITM_RxBuffer\000"
 1941      52784275 
 1941      66666572 
 1941      00
 1942              	.LASF48:
 1943 00b6 63685F74 		.ascii	"ch_threads_queue\000"
 1943      68726561 
 1943      64735F71 
 1943      75657565 
 1943      00
 1944              	.LASF31:
 1945 00c7 705F7072 		.ascii	"p_prio\000"
 1945      696F00
 1946              	.LASF65:
 1947 00ce 76745F73 		.ascii	"vt_systime\000"
 1947      79737469 
 1947      6D6500
 1948              	.LASF11:
ARM GAS  /tmp/ccb2B0P1.s 			page 36


 1949 00d9 6C6F6E67 		.ascii	"long long int\000"
 1949      206C6F6E 
 1949      6720696E 
 1949      7400
 1950              	.LASF1:
 1951 00e7 7369676E 		.ascii	"signed char\000"
 1951      65642063 
 1951      68617200 
 1952              	.LASF76:
 1953 00f3 42535252 		.ascii	"BSRR\000"
 1953      00
 1954              	.LASF104:
 1955 00f8 6D5F7175 		.ascii	"m_queue\000"
 1955      65756500 
 1956              	.LASF130:
 1957 0100 474E5520 		.ascii	"GNU C 4.9.3 20150529 (release) [ARM/embedded-4_9-br"
 1957      4320342E 
 1957      392E3320 
 1957      32303135 
 1957      30353239 
 1958 0133 616E6368 		.ascii	"anch revision 224288] -mcpu=cortex-m3 -mno-thumb-in"
 1958      20726576 
 1958      6973696F 
 1958      6E203232 
 1958      34323838 
 1959 0166 74657277 		.ascii	"terwork -mthumb -ggdb -O2 -fomit-frame-pointer -fal"
 1959      6F726B20 
 1959      2D6D7468 
 1959      756D6220 
 1959      2D676764 
 1960 0199 69676E2D 		.ascii	"ign-functions=16 -ffunction-sections -fdata-section"
 1960      66756E63 
 1960      74696F6E 
 1960      733D3136 
 1960      202D6666 
 1961 01cc 73202D66 		.ascii	"s -fno-common\000"
 1961      6E6F2D63 
 1961      6F6D6D6F 
 1961      6E00
 1962              	.LASF70:
 1963 01da 63685F73 		.ascii	"ch_system\000"
 1963      79737465 
 1963      6D00
 1964              	.LASF8:
 1965 01e4 6C6F6E67 		.ascii	"long int\000"
 1965      20696E74 
 1965      00
 1966              	.LASF115:
 1967 01ed 50454461 		.ascii	"PEData\000"
 1967      746100
 1968              	.LASF80:
 1969 01f4 41504232 		.ascii	"APB2RSTR\000"
 1969      52535452 
 1969      00
 1970              	.LASF21:
 1971 01fd 74737461 		.ascii	"tstate_t\000"
 1971      74655F74 
ARM GAS  /tmp/ccb2B0P1.s 			page 37


 1971      00
 1972              	.LASF15:
 1973 0206 75696E74 		.ascii	"uint16_t\000"
 1973      31365F74 
 1973      00
 1974              	.LASF111:
 1975 020f 50414461 		.ascii	"PAData\000"
 1975      746100
 1976              	.LASF101:
 1977 0216 735F7175 		.ascii	"s_queue\000"
 1977      65756500 
 1978              	.LASF9:
 1979 021e 5F5F7569 		.ascii	"__uint32_t\000"
 1979      6E743332 
 1979      5F7400
 1980              	.LASF126:
 1981 0229 6D61736B 		.ascii	"mask\000"
 1981      00
 1982              	.LASF87:
 1983 022e 72656761 		.ascii	"regarm_t\000"
 1983      726D5F74 
 1983      00
 1984              	.LASF59:
 1985 0237 76745F70 		.ascii	"vt_prev\000"
 1985      72657600 
 1986              	.LASF72:
 1987 023f 76746C69 		.ascii	"vtlist\000"
 1987      737400
 1988              	.LASF128:
 1989 0246 63666774 		.ascii	"cfgtab\000"
 1989      616200
 1990              	.LASF125:
 1991 024d 706F7274 		.ascii	"port\000"
 1991      00
 1992              	.LASF108:
 1993 0252 6D757465 		.ascii	"mutex_t\000"
 1993      785F7400 
 1994              	.LASF112:
 1995 025a 50424461 		.ascii	"PBData\000"
 1995      746100
 1996              	.LASF74:
 1997 0261 69646C65 		.ascii	"idle_thread_wa\000"
 1997      5F746872 
 1997      6561645F 
 1997      776100
 1998              	.LASF26:
 1999 0270 636E745F 		.ascii	"cnt_t\000"
 1999      7400
 2000              	.LASF0:
 2001 0276 756E7369 		.ascii	"unsigned int\000"
 2001      676E6564 
 2001      20696E74 
 2001      00
 2002              	.LASF58:
 2003 0283 76745F6E 		.ascii	"vt_next\000"
 2003      65787400 
 2004              	.LASF97:
ARM GAS  /tmp/ccb2B0P1.s 			page 38


 2005 028b 77747365 		.ascii	"wtsemp\000"
 2005      6D7000
 2006              	.LASF37:
 2007 0292 705F6D73 		.ascii	"p_msgqueue\000"
 2007      67717565 
 2007      756500
 2008              	.LASF78:
 2009 029d 4750494F 		.ascii	"GPIO_TypeDef\000"
 2009      5F547970 
 2009      65446566 
 2009      00
 2010              	.LASF86:
 2011 02aa 5243435F 		.ascii	"RCC_TypeDef\000"
 2011      54797065 
 2011      44656600 
 2012              	.LASF77:
 2013 02b6 4C434B52 		.ascii	"LCKR\000"
 2013      00
 2014              	.LASF102:
 2015 02bb 735F636E 		.ascii	"s_cnt\000"
 2015      7400
 2016              	.LASF6:
 2017 02c1 73686F72 		.ascii	"short unsigned int\000"
 2017      7420756E 
 2017      7369676E 
 2017      65642069 
 2017      6E7400
 2018              	.LASF116:
 2019 02d4 50464461 		.ascii	"PFData\000"
 2019      746100
 2020              	.LASF45:
 2021 02db 63685F74 		.ascii	"ch_thread\000"
 2021      68726561 
 2021      6400
 2022              	.LASF42:
 2023 02e5 705F6D70 		.ascii	"p_mpool\000"
 2023      6F6F6C00 
 2024              	.LASF24:
 2025 02ed 6D73675F 		.ascii	"msg_t\000"
 2025      7400
 2026              	.LASF69:
 2027 02f3 63685F73 		.ascii	"ch_system_t\000"
 2027      79737465 
 2027      6D5F7400 
 2028              	.LASF20:
 2029 02ff 746D6F64 		.ascii	"tmode_t\000"
 2029      655F7400 
 2030              	.LASF50:
 2031 0307 63685F72 		.ascii	"ch_ready_list\000"
 2031      65616479 
 2031      5F6C6973 
 2031      7400
 2032              	.LASF25:
 2033 0315 6576656E 		.ascii	"eventmask_t\000"
 2033      746D6173 
 2033      6B5F7400 
 2034              	.LASF7:
ARM GAS  /tmp/ccb2B0P1.s 			page 39


 2035 0321 5F5F696E 		.ascii	"__int32_t\000"
 2035      7433325F 
 2035      7400
 2036              	.LASF117:
 2037 032b 50474461 		.ascii	"PGData\000"
 2037      746100
 2038              	.LASF88:
 2039 0332 73746B61 		.ascii	"stkalign_t\000"
 2039      6C69676E 
 2039      5F7400
 2040              	.LASF44:
 2041 033d 74687265 		.ascii	"threads_list_t\000"
 2041      6164735F 
 2041      6C697374 
 2041      5F7400
 2042              	.LASF36:
 2043 034c 705F7761 		.ascii	"p_waiting\000"
 2043      6974696E 
 2043      6700
 2044              	.LASF75:
 2045 0356 73697A65 		.ascii	"sizetype\000"
 2045      74797065 
 2045      00
 2046              	.LASF43:
 2047 035f 74687265 		.ascii	"thread_reference_t\000"
 2047      61645F72 
 2047      65666572 
 2047      656E6365 
 2047      5F7400
 2048              	.LASF64:
 2049 0372 63685F76 		.ascii	"ch_virtual_timers_list\000"
 2049      69727475 
 2049      616C5F74 
 2049      696D6572 
 2049      735F6C69 
 2050              	.LASF29:
 2051 0389 705F6E65 		.ascii	"p_next\000"
 2051      787400
 2052              	.LASF53:
 2053 0390 725F6374 		.ascii	"r_ctx\000"
 2053      7800
 2054              	.LASF92:
 2055 0396 746D5F63 		.ascii	"tm_calibration_t\000"
 2055      616C6962 
 2055      72617469 
 2055      6F6E5F74 
 2055      00
 2056              	.LASF114:
 2057 03a7 50444461 		.ascii	"PDData\000"
 2057      746100
 2058              	.LASF54:
 2059 03ae 725F6375 		.ascii	"r_current\000"
 2059      7272656E 
 2059      7400
 2060              	.LASF81:
 2061 03b8 41504231 		.ascii	"APB1RSTR\000"
 2061      52535452 
ARM GAS  /tmp/ccb2B0P1.s 			page 40


 2061      00
 2062              	.LASF12:
 2063 03c1 5F5F7569 		.ascii	"__uint64_t\000"
 2063      6E743634 
 2063      5F7400
 2064              	.LASF22:
 2065 03cc 74726566 		.ascii	"trefs_t\000"
 2065      735F7400 
 2066              	.LASF56:
 2067 03d4 76697274 		.ascii	"virtual_timer_t\000"
 2067      75616C5F 
 2067      74696D65 
 2067      725F7400 
 2068              	.LASF30:
 2069 03e4 705F7072 		.ascii	"p_prev\000"
 2069      657600
 2070              	.LASF23:
 2071 03eb 74707269 		.ascii	"tprio_t\000"
 2071      6F5F7400 
 2072              	.LASF67:
 2073 03f3 63685F73 		.ascii	"ch_system_debug\000"
 2073      79737465 
 2073      6D5F6465 
 2073      62756700 
 2074              	.LASF109:
 2075 0403 5F426F6F 		.ascii	"_Bool\000"
 2075      6C00
 2076              	.LASF16:
 2077 0409 696E7433 		.ascii	"int32_t\000"
 2077      325F7400 
 2078              	.LASF2:
 2079 0411 756E7369 		.ascii	"unsigned char\000"
 2079      676E6564 
 2079      20636861 
 2079      7200
 2080              	.LASF40:
 2081 041f 705F6D74 		.ascii	"p_mtxlist\000"
 2081      786C6973 
 2081      7400
 2082              	.LASF3:
 2083 0429 73686F72 		.ascii	"short int\000"
 2083      7420696E 
 2083      7400
 2084              	.LASF33:
 2085 0433 705F7374 		.ascii	"p_state\000"
 2085      61746500 
 2086              	.LASF52:
 2087 043b 725F7072 		.ascii	"r_prio\000"
 2087      696F00
 2088              	.LASF99:
 2089 0442 65776D61 		.ascii	"ewmask\000"
 2089      736B00
 2090              	.LASF34:
 2091 0449 705F666C 		.ascii	"p_flags\000"
 2091      61677300 
 2092              	.LASF83:
 2093 0451 41504232 		.ascii	"APB2ENR\000"
ARM GAS  /tmp/ccb2B0P1.s 			page 41


 2093      454E5200 
 2094              	.LASF57:
 2095 0459 63685F76 		.ascii	"ch_virtual_timer\000"
 2095      69727475 
 2095      616C5F74 
 2095      696D6572 
 2095      00
 2096              	.LASF100:
 2097 046a 63685F73 		.ascii	"ch_semaphore\000"
 2097      656D6170 
 2097      686F7265 
 2097      00
 2098              	.LASF39:
 2099 0477 705F6570 		.ascii	"p_epending\000"
 2099      656E6469 
 2099      6E6700
 2100              	.LASF17:
 2101 0482 75696E74 		.ascii	"uint32_t\000"
 2101      33325F74 
 2101      00
 2102              	.LASF98:
 2103 048b 77746D74 		.ascii	"wtmtxp\000"
 2103      787000
 2104              	.LASF51:
 2105 0492 725F7175 		.ascii	"r_queue\000"
 2105      65756500 
 2106              	.LASF60:
 2107 049a 76745F64 		.ascii	"vt_delta\000"
 2107      656C7461 
 2107      00
 2108              	.LASF46:
 2109 04a3 63685F74 		.ascii	"ch_threads_list\000"
 2109      68726561 
 2109      64735F6C 
 2109      69737400 
 2110              	.LASF10:
 2111 04b3 6C6F6E67 		.ascii	"long unsigned int\000"
 2111      20756E73 
 2111      69676E65 
 2111      6420696E 
 2111      7400
 2112              	.LASF107:
 2113 04c5 63686172 		.ascii	"char\000"
 2113      00
 2114              	.LASF127:
 2115 04ca 6D6F6465 		.ascii	"mode\000"
 2115      00
 2116              	.LASF124:
 2117 04cf 636F6E66 		.ascii	"config\000"
 2117      696700
 2118              	.LASF5:
 2119 04d6 5F5F7569 		.ascii	"__uint16_t\000"
 2119      6E743136 
 2119      5F7400
 2120              	.LASF28:
 2121 04e1 74687265 		.ascii	"thread_t\000"
 2121      61645F74 
ARM GAS  /tmp/ccb2B0P1.s 			page 42


 2121      00
 2122              	.LASF106:
 2123 04ea 6D5F6E65 		.ascii	"m_next\000"
 2123      787400
 2124              	.LASF27:
 2125 04f1 73797374 		.ascii	"systime_t\000"
 2125      696D655F 
 2125      7400
 2126              	.LASF41:
 2127 04fb 705F7265 		.ascii	"p_realprio\000"
 2127      616C7072 
 2127      696F00
 2128              	.LASF55:
 2129 0506 76746675 		.ascii	"vtfunc_t\000"
 2129      6E635F74 
 2129      00
 2130              	.LASF68:
 2131 050f 70616E69 		.ascii	"panic_msg\000"
 2131      635F6D73 
 2131      6700
 2132              	.LASF91:
 2133 0519 6F666673 		.ascii	"offset\000"
 2133      657400
 2134              	.LASF84:
 2135 0520 41504231 		.ascii	"APB1ENR\000"
 2135      454E5200 
 2136              	.LASF121:
 2137 0528 696F706F 		.ascii	"ioportid_t\000"
 2137      72746964 
 2137      5F7400
 2138              	.LASF131:
 2139 0533 2F686F6D 		.ascii	"/home/maciek/ChibiOS_16.1.5/os/hal/ports/STM32/LLD/"
 2139      652F6D61 
 2139      6369656B 
 2139      2F436869 
 2139      62694F53 
 2140 0566 4750494F 		.ascii	"GPIOv1/pal_lld.c\000"
 2140      76312F70 
 2140      616C5F6C 
 2140      6C642E63 
 2140      00
 2141              	.LASF89:
 2142 0577 636F6E74 		.ascii	"context\000"
 2142      65787400 
 2143              	.LASF123:
 2144 057f 5F70616C 		.ascii	"_pal_lld_setgroupmode\000"
 2144      5F6C6C64 
 2144      5F736574 
 2144      67726F75 
 2144      706D6F64 
 2145              	.LASF19:
 2146 0595 7274636E 		.ascii	"rtcnt_t\000"
 2146      745F7400 
 2147              	.LASF62:
 2148 059d 76745F70 		.ascii	"vt_par\000"
 2148      617200
 2149              	.LASF47:
ARM GAS  /tmp/ccb2B0P1.s 			page 43


 2150 05a4 74687265 		.ascii	"threads_queue_t\000"
 2150      6164735F 
 2150      71756575 
 2150      655F7400 
 2151              	.LASF103:
 2152 05b4 63685F6D 		.ascii	"ch_mutex\000"
 2152      75746578 
 2152      00
 2153              	.LASF35:
 2154 05bd 705F7265 		.ascii	"p_refs\000"
 2154      667300
 2155              	.LASF122:
 2156 05c4 5F70616C 		.ascii	"_pal_lld_init\000"
 2156      5F6C6C64 
 2156      5F696E69 
 2156      7400
 2157              	.LASF85:
 2158 05d2 42444352 		.ascii	"BDCR\000"
 2158      00
 2159              	.LASF71:
 2160 05d7 726C6973 		.ascii	"rlist\000"
 2160      7400
 2161              	.LASF14:
 2162 05dd 75696E74 		.ascii	"uint8_t\000"
 2162      385F7400 
 2163              	.LASF95:
 2164 05e5 77746F62 		.ascii	"wtobjp\000"
 2164      6A7000
 2165              	.LASF113:
 2166 05ec 50434461 		.ascii	"PCData\000"
 2166      746100
 2167              	.LASF79:
 2168 05f3 43464752 		.ascii	"CFGR\000"
 2168      00
 2169              	.LASF38:
 2170 05f8 705F6D73 		.ascii	"p_msg\000"
 2170      6700
 2171              	.LASF120:
 2172 05fe 696F6D6F 		.ascii	"iomode_t\000"
 2172      64655F74 
 2172      00
 2173              	.LASF118:
 2174 0607 50414C43 		.ascii	"PALConfig\000"
 2174      6F6E6669 
 2174      6700
 2175              	.LASF105:
 2176 0611 6D5F6F77 		.ascii	"m_owner\000"
 2176      6E657200 
 2177              	.LASF32:
 2178 0619 705F6374 		.ascii	"p_ctx\000"
 2178      7800
 2179              	.LASF61:
 2180 061f 76745F66 		.ascii	"vt_func\000"
 2180      756E6300 
 2181              	.LASF82:
 2182 0627 41484245 		.ascii	"AHBENR\000"
 2182      4E5200
ARM GAS  /tmp/ccb2B0P1.s 			page 44


 2183              		.ident	"GCC: (GNU Tools for ARM Embedded Processors) 4.9.3 20150529 (release) [ARM/embedded-4_9-br
ARM GAS  /tmp/ccb2B0P1.s 			page 45


DEFINED SYMBOLS
                            *ABS*:00000000 pal_lld.c
     /tmp/ccb2B0P1.s:19     .text._pal_lld_init:00000000 $t
     /tmp/ccb2B0P1.s:25     .text._pal_lld_init:00000000 _pal_lld_init
     /tmp/ccb2B0P1.s:145    .text._pal_lld_init:0000007c $d
     /tmp/ccb2B0P1.s:155    .text._pal_lld_setgroupmode:00000000 $t
     /tmp/ccb2B0P1.s:161    .text._pal_lld_setgroupmode:00000000 _pal_lld_setgroupmode
     /tmp/ccb2B0P1.s:259    .text._pal_lld_setgroupmode:00000064 $d
     /tmp/ccb2B0P1.s:264    .rodata.cfgtab.7063:00000000 $d
     /tmp/ccb2B0P1.s:268    .rodata.cfgtab.7063:00000000 cfgtab.7063
                     .debug_frame:00000010 $d

NO UNDEFINED SYMBOLS
