ARM GAS  /tmp/cc9MJEZf.s 			page 1


   1              		.syntax unified
   2              		.cpu cortex-m3
   3              		.fpu softvfp
   4              		.eabi_attribute 20, 1
   5              		.eabi_attribute 21, 1
   6              		.eabi_attribute 23, 3
   7              		.eabi_attribute 24, 1
   8              		.eabi_attribute 25, 1
   9              		.eabi_attribute 26, 1
  10              		.eabi_attribute 30, 2
  11              		.eabi_attribute 34, 1
  12              		.eabi_attribute 18, 4
  13              		.thumb
  14              		.file	"pwm.c"
  15              		.text
  16              	.Ltext0:
  17              		.cfi_sections	.debug_frame
  18              		.section	.text.pwmInit,"ax",%progbits
  19              		.align	2
  20              		.p2align 4,,15
  21              		.global	pwmInit
  22              		.thumb
  23              		.thumb_func
  24              		.type	pwmInit, %function
  25              	pwmInit:
  26              	.LFB207:
  27              		.file 1 "/home/maciek/ChibiOS_16.1.5/os/hal/src/pwm.c"
  28              		.loc 1 56 0
  29              		.cfi_startproc
  30              		@ args = 0, pretend = 0, frame = 0
  31              		@ frame_needed = 0, uses_anonymous_args = 0
  32              		@ link register save eliminated.
  33              		.loc 1 58 0
  34 0000 FFF7FEBF 		b	pwm_lld_init
  35              	.LVL0:
  36              		.cfi_endproc
  37              	.LFE207:
  38              		.size	pwmInit, .-pwmInit
  39              		.section	.text.pwmObjectInit,"ax",%progbits
  40              		.align	2
  41              		.p2align 4,,15
  42              		.global	pwmObjectInit
  43              		.thumb
  44              		.thumb_func
  45              		.type	pwmObjectInit, %function
  46              	pwmObjectInit:
  47              	.LFB208:
  48              		.loc 1 68 0
  49              		.cfi_startproc
  50              		@ args = 0, pretend = 0, frame = 0
  51              		@ frame_needed = 0, uses_anonymous_args = 0
  52              		@ link register save eliminated.
  53              	.LVL1:
  54              		.loc 1 71 0
  55 0000 0023     		movs	r3, #0
  56              		.loc 1 70 0
  57 0002 0122     		movs	r2, #1
ARM GAS  /tmp/cc9MJEZf.s 			page 2


  58 0004 0270     		strb	r2, [r0]
  59              		.loc 1 71 0
  60 0006 4360     		str	r3, [r0, #4]
  61              		.loc 1 72 0
  62 0008 C360     		str	r3, [r0, #12]
  63              		.loc 1 73 0
  64 000a 0374     		strb	r3, [r0, #16]
  65 000c 7047     		bx	lr
  66              		.cfi_endproc
  67              	.LFE208:
  68              		.size	pwmObjectInit, .-pwmObjectInit
  69 000e 00BF     		.section	.text.pwmStart,"ax",%progbits
  70              		.align	2
  71              		.p2align 4,,15
  72              		.global	pwmStart
  73              		.thumb
  74              		.thumb_func
  75              		.type	pwmStart, %function
  76              	pwmStart:
  77              	.LFB209:
  78              		.loc 1 89 0
  79              		.cfi_startproc
  80              		@ args = 0, pretend = 0, frame = 0
  81              		@ frame_needed = 0, uses_anonymous_args = 0
  82              	.LVL2:
  83 0000 10B5     		push	{r4, lr}
  84              		.cfi_def_cfa_offset 8
  85              		.cfi_offset 4, -8
  86              		.cfi_offset 14, -4
  87              	.LBB141:
  88              	.LBB142:
  89              	.LBB143:
  90              	.LBB144:
  91              	.LBB145:
  92              		.file 2 "/home/maciek/ChibiOS_16.1.5/os/ext/CMSIS/include/core_cmFunc.h"
  93              		.loc 2 548 0
  94 0002 2023     		movs	r3, #32
  95              	.LBE145:
  96              	.LBE144:
  97              	.LBE143:
  98              	.LBE142:
  99              	.LBE141:
 100              		.loc 1 89 0
 101 0004 0446     		mov	r4, r0
 102              	.LBB150:
 103              	.LBB149:
 104              	.LBB148:
 105              	.LBB147:
 106              	.LBB146:
 107              		.loc 2 548 0
 108              	@ 548 "/home/maciek/ChibiOS_16.1.5/os/ext/CMSIS/include/core_cmFunc.h" 1
 109 0006 83F31188 		MSR basepri, r3
 110              	@ 0 "" 2
 111              		.thumb
 112              	.LBE146:
 113              	.LBE147:
 114              	.LBE148:
ARM GAS  /tmp/cc9MJEZf.s 			page 3


 115              	.LBE149:
 116              	.LBE150:
 117              		.loc 1 97 0
 118 000a 4B68     		ldr	r3, [r1, #4]
 119              		.loc 1 96 0
 120 000c 4160     		str	r1, [r0, #4]
 121              		.loc 1 97 0
 122 000e 8360     		str	r3, [r0, #8]
 123              		.loc 1 98 0
 124 0010 FFF7FEFF 		bl	pwm_lld_start
 125              	.LVL3:
 126              		.loc 1 100 0
 127 0014 0222     		movs	r2, #2
 128              		.loc 1 99 0
 129 0016 0023     		movs	r3, #0
 130              		.loc 1 100 0
 131 0018 2270     		strb	r2, [r4]
 132              	.LVL4:
 133              		.loc 1 99 0
 134 001a E360     		str	r3, [r4, #12]
 135              	.LBB151:
 136              	.LBB152:
 137              	.LBB153:
 138              	.LBB154:
 139              	.LBB155:
 140              	.LBB156:
 141              		.loc 2 548 0
 142              	@ 548 "/home/maciek/ChibiOS_16.1.5/os/ext/CMSIS/include/core_cmFunc.h" 1
 143 001c 83F31188 		MSR basepri, r3
 144              	@ 0 "" 2
 145              		.thumb
 146 0020 10BD     		pop	{r4, pc}
 147              	.LBE156:
 148              	.LBE155:
 149              	.LBE154:
 150              	.LBE153:
 151              	.LBE152:
 152              	.LBE151:
 153              		.cfi_endproc
 154              	.LFE209:
 155              		.size	pwmStart, .-pwmStart
 156 0022 00BF     		.section	.text.pwmStop,"ax",%progbits
 157              		.align	2
 158              		.p2align 4,,15
 159              		.global	pwmStop
 160              		.thumb
 161              		.thumb_func
 162              		.type	pwmStop, %function
 163              	pwmStop:
 164              	.LFB210:
 165              		.loc 1 111 0
 166              		.cfi_startproc
 167              		@ args = 0, pretend = 0, frame = 0
 168              		@ frame_needed = 0, uses_anonymous_args = 0
 169              	.LVL5:
 170 0000 10B5     		push	{r4, lr}
 171              		.cfi_def_cfa_offset 8
ARM GAS  /tmp/cc9MJEZf.s 			page 4


 172              		.cfi_offset 4, -8
 173              		.cfi_offset 14, -4
 174              	.LBB157:
 175              	.LBB158:
 176              	.LBB159:
 177              	.LBB160:
 178              	.LBB161:
 179              		.loc 2 548 0
 180 0002 2023     		movs	r3, #32
 181              	.LBE161:
 182              	.LBE160:
 183              	.LBE159:
 184              	.LBE158:
 185              	.LBE157:
 186              		.loc 1 111 0
 187 0004 0446     		mov	r4, r0
 188              	.LBB166:
 189              	.LBB165:
 190              	.LBB164:
 191              	.LBB163:
 192              	.LBB162:
 193              		.loc 2 548 0
 194              	@ 548 "/home/maciek/ChibiOS_16.1.5/os/ext/CMSIS/include/core_cmFunc.h" 1
 195 0006 83F31188 		MSR basepri, r3
 196              	@ 0 "" 2
 197              		.thumb
 198              	.LBE162:
 199              	.LBE163:
 200              	.LBE164:
 201              	.LBE165:
 202              	.LBE166:
 203              		.loc 1 118 0
 204 000a FFF7FEFF 		bl	pwm_lld_stop
 205              	.LVL6:
 206              		.loc 1 120 0
 207 000e 0122     		movs	r2, #1
 208              		.loc 1 119 0
 209 0010 0023     		movs	r3, #0
 210              		.loc 1 120 0
 211 0012 2270     		strb	r2, [r4]
 212              	.LVL7:
 213              		.loc 1 119 0
 214 0014 E360     		str	r3, [r4, #12]
 215              	.LBB167:
 216              	.LBB168:
 217              	.LBB169:
 218              	.LBB170:
 219              	.LBB171:
 220              	.LBB172:
 221              		.loc 2 548 0
 222              	@ 548 "/home/maciek/ChibiOS_16.1.5/os/ext/CMSIS/include/core_cmFunc.h" 1
 223 0016 83F31188 		MSR basepri, r3
 224              	@ 0 "" 2
 225              		.thumb
 226 001a 10BD     		pop	{r4, pc}
 227              	.LBE172:
 228              	.LBE171:
ARM GAS  /tmp/cc9MJEZf.s 			page 5


 229              	.LBE170:
 230              	.LBE169:
 231              	.LBE168:
 232              	.LBE167:
 233              		.cfi_endproc
 234              	.LFE210:
 235              		.size	pwmStop, .-pwmStop
 236              		.section	.text.pwmChangePeriod,"ax",%progbits
 237              		.align	2
 238              		.p2align 4,,15
 239              		.global	pwmChangePeriod
 240              		.thumb
 241              		.thumb_func
 242              		.type	pwmChangePeriod, %function
 243              	pwmChangePeriod:
 244              	.LFB211:
 245              		.loc 1 139 0
 246              		.cfi_startproc
 247              		@ args = 0, pretend = 0, frame = 0
 248              		@ frame_needed = 0, uses_anonymous_args = 0
 249              		@ link register save eliminated.
 250              	.LVL8:
 251 0000 10B4     		push	{r4}
 252              		.cfi_def_cfa_offset 4
 253              		.cfi_offset 4, -4
 254              	.LBB173:
 255              	.LBB174:
 256              	.LBB175:
 257              	.LBB176:
 258              	.LBB177:
 259              		.loc 2 548 0
 260 0002 2023     		movs	r3, #32
 261              	@ 548 "/home/maciek/ChibiOS_16.1.5/os/ext/CMSIS/include/core_cmFunc.h" 1
 262 0004 83F31188 		MSR basepri, r3
 263              	@ 0 "" 2
 264              		.thumb
 265              	.LBE177:
 266              	.LBE176:
 267              	.LBE175:
 268              	.LBE174:
 269              	.LBE173:
 270              		.loc 1 145 0
 271 0008 8269     		ldr	r2, [r0, #24]
 272 000a 4C1E     		subs	r4, r1, #1
 273 000c 8160     		str	r1, [r0, #8]
 274              	.LBB178:
 275              	.LBB179:
 276              	.LBB180:
 277              	.LBB181:
 278              	.LBB182:
 279              	.LBB183:
 280              		.loc 2 548 0
 281 000e 0023     		movs	r3, #0
 282              	.LBE183:
 283              	.LBE182:
 284              	.LBE181:
 285              	.LBE180:
ARM GAS  /tmp/cc9MJEZf.s 			page 6


 286              	.LBE179:
 287              	.LBE178:
 288              		.loc 1 145 0
 289 0010 D462     		str	r4, [r2, #44]
 290              	.LVL9:
 291              	.LBB189:
 292              	.LBB188:
 293              	.LBB187:
 294              	.LBB186:
 295              	.LBB185:
 296              	.LBB184:
 297              		.loc 2 548 0
 298              	@ 548 "/home/maciek/ChibiOS_16.1.5/os/ext/CMSIS/include/core_cmFunc.h" 1
 299 0012 83F31188 		MSR basepri, r3
 300              	@ 0 "" 2
 301              		.thumb
 302              	.LBE184:
 303              	.LBE185:
 304              	.LBE186:
 305              	.LBE187:
 306              	.LBE188:
 307              	.LBE189:
 308              		.loc 1 147 0
 309 0016 5DF8044B 		ldr	r4, [sp], #4
 310              		.cfi_restore 4
 311              		.cfi_def_cfa_offset 0
 312 001a 7047     		bx	lr
 313              		.cfi_endproc
 314              	.LFE211:
 315              		.size	pwmChangePeriod, .-pwmChangePeriod
 316              		.section	.text.pwmEnableChannel,"ax",%progbits
 317              		.align	2
 318              		.p2align 4,,15
 319              		.global	pwmEnableChannel
 320              		.thumb
 321              		.thumb_func
 322              		.type	pwmEnableChannel, %function
 323              	pwmEnableChannel:
 324              	.LFB212:
 325              		.loc 1 165 0
 326              		.cfi_startproc
 327              		@ args = 0, pretend = 0, frame = 0
 328              		@ frame_needed = 0, uses_anonymous_args = 0
 329              	.LVL10:
 330 0000 70B5     		push	{r4, r5, r6, lr}
 331              		.cfi_def_cfa_offset 16
 332              		.cfi_offset 4, -16
 333              		.cfi_offset 5, -12
 334              		.cfi_offset 6, -8
 335              		.cfi_offset 14, -4
 336              	.LBB190:
 337              	.LBB191:
 338              	.LBB192:
 339              	.LBB193:
 340              	.LBB194:
 341              		.loc 2 548 0
 342 0002 2023     		movs	r3, #32
ARM GAS  /tmp/cc9MJEZf.s 			page 7


 343              	@ 548 "/home/maciek/ChibiOS_16.1.5/os/ext/CMSIS/include/core_cmFunc.h" 1
 344 0004 83F31188 		MSR basepri, r3
 345              	@ 0 "" 2
 346              		.thumb
 347              	.LBE194:
 348              	.LBE193:
 349              	.LBE192:
 350              	.LBE191:
 351              	.LBE190:
 352              		.loc 1 173 0
 353 0008 0123     		movs	r3, #1
 354 000a C568     		ldr	r5, [r0, #12]
 355 000c 8B40     		lsls	r3, r3, r1
 356 000e 2B43     		orrs	r3, r3, r5
 357 0010 C360     		str	r3, [r0, #12]
 358 0012 FFF7FEFF 		bl	pwm_lld_enable_channel
 359              	.LVL11:
 360              	.LBB195:
 361              	.LBB196:
 362              	.LBB197:
 363              	.LBB198:
 364              	.LBB199:
 365              	.LBB200:
 366              		.loc 2 548 0
 367 0016 0023     		movs	r3, #0
 368              	@ 548 "/home/maciek/ChibiOS_16.1.5/os/ext/CMSIS/include/core_cmFunc.h" 1
 369 0018 83F31188 		MSR basepri, r3
 370              	@ 0 "" 2
 371              		.thumb
 372 001c 70BD     		pop	{r4, r5, r6, pc}
 373              	.LBE200:
 374              	.LBE199:
 375              	.LBE198:
 376              	.LBE197:
 377              	.LBE196:
 378              	.LBE195:
 379              		.cfi_endproc
 380              	.LFE212:
 381              		.size	pwmEnableChannel, .-pwmEnableChannel
 382 001e 00BF     		.section	.text.pwmDisableChannel,"ax",%progbits
 383              		.align	2
 384              		.p2align 4,,15
 385              		.global	pwmDisableChannel
 386              		.thumb
 387              		.thumb_func
 388              		.type	pwmDisableChannel, %function
 389              	pwmDisableChannel:
 390              	.LFB213:
 391              		.loc 1 192 0
 392              		.cfi_startproc
 393              		@ args = 0, pretend = 0, frame = 0
 394              		@ frame_needed = 0, uses_anonymous_args = 0
 395              	.LVL12:
 396 0000 38B5     		push	{r3, r4, r5, lr}
 397              		.cfi_def_cfa_offset 16
 398              		.cfi_offset 3, -16
 399              		.cfi_offset 4, -12
ARM GAS  /tmp/cc9MJEZf.s 			page 8


 400              		.cfi_offset 5, -8
 401              		.cfi_offset 14, -4
 402              	.LBB201:
 403              	.LBB202:
 404              	.LBB203:
 405              	.LBB204:
 406              	.LBB205:
 407              		.loc 2 548 0
 408 0002 2023     		movs	r3, #32
 409              	@ 548 "/home/maciek/ChibiOS_16.1.5/os/ext/CMSIS/include/core_cmFunc.h" 1
 410 0004 83F31188 		MSR basepri, r3
 411              	@ 0 "" 2
 412              		.thumb
 413              	.LBE205:
 414              	.LBE204:
 415              	.LBE203:
 416              	.LBE202:
 417              	.LBE201:
 418              		.loc 1 200 0
 419 0008 0122     		movs	r2, #1
 420 000a C368     		ldr	r3, [r0, #12]
 421 000c 8A40     		lsls	r2, r2, r1
 422 000e 23EA0203 		bic	r3, r3, r2
 423 0012 C360     		str	r3, [r0, #12]
 424 0014 FFF7FEFF 		bl	pwm_lld_disable_channel
 425              	.LVL13:
 426              	.LBB206:
 427              	.LBB207:
 428              	.LBB208:
 429              	.LBB209:
 430              	.LBB210:
 431              	.LBB211:
 432              		.loc 2 548 0
 433 0018 0023     		movs	r3, #0
 434              	@ 548 "/home/maciek/ChibiOS_16.1.5/os/ext/CMSIS/include/core_cmFunc.h" 1
 435 001a 83F31188 		MSR basepri, r3
 436              	@ 0 "" 2
 437              		.thumb
 438 001e 38BD     		pop	{r3, r4, r5, pc}
 439              	.LBE211:
 440              	.LBE210:
 441              	.LBE209:
 442              	.LBE208:
 443              	.LBE207:
 444              	.LBE206:
 445              		.cfi_endproc
 446              	.LFE213:
 447              		.size	pwmDisableChannel, .-pwmDisableChannel
 448              		.section	.text.pwmEnablePeriodicNotification,"ax",%progbits
 449              		.align	2
 450              		.p2align 4,,15
 451              		.global	pwmEnablePeriodicNotification
 452              		.thumb
 453              		.thumb_func
 454              		.type	pwmEnablePeriodicNotification, %function
 455              	pwmEnablePeriodicNotification:
 456              	.LFB214:
ARM GAS  /tmp/cc9MJEZf.s 			page 9


 457              		.loc 1 214 0
 458              		.cfi_startproc
 459              		@ args = 0, pretend = 0, frame = 0
 460              		@ frame_needed = 0, uses_anonymous_args = 0
 461              	.LVL14:
 462 0000 08B5     		push	{r3, lr}
 463              		.cfi_def_cfa_offset 8
 464              		.cfi_offset 3, -8
 465              		.cfi_offset 14, -4
 466              	.LBB212:
 467              	.LBB213:
 468              	.LBB214:
 469              	.LBB215:
 470              	.LBB216:
 471              		.loc 2 548 0
 472 0002 2023     		movs	r3, #32
 473              	@ 548 "/home/maciek/ChibiOS_16.1.5/os/ext/CMSIS/include/core_cmFunc.h" 1
 474 0004 83F31188 		MSR basepri, r3
 475              	@ 0 "" 2
 476              		.thumb
 477              	.LBE216:
 478              	.LBE215:
 479              	.LBE214:
 480              	.LBE213:
 481              	.LBE212:
 482              		.loc 1 223 0
 483 0008 FFF7FEFF 		bl	pwm_lld_enable_periodic_notification
 484              	.LVL15:
 485              	.LBB217:
 486              	.LBB218:
 487              	.LBB219:
 488              	.LBB220:
 489              	.LBB221:
 490              	.LBB222:
 491              		.loc 2 548 0
 492 000c 0023     		movs	r3, #0
 493              	@ 548 "/home/maciek/ChibiOS_16.1.5/os/ext/CMSIS/include/core_cmFunc.h" 1
 494 000e 83F31188 		MSR basepri, r3
 495              	@ 0 "" 2
 496              		.thumb
 497 0012 08BD     		pop	{r3, pc}
 498              	.LBE222:
 499              	.LBE221:
 500              	.LBE220:
 501              	.LBE219:
 502              	.LBE218:
 503              	.LBE217:
 504              		.cfi_endproc
 505              	.LFE214:
 506              		.size	pwmEnablePeriodicNotification, .-pwmEnablePeriodicNotification
 507              		.section	.text.pwmDisablePeriodicNotification,"ax",%progbits
 508              		.align	2
 509              		.p2align 4,,15
 510              		.global	pwmDisablePeriodicNotification
 511              		.thumb
 512              		.thumb_func
 513              		.type	pwmDisablePeriodicNotification, %function
ARM GAS  /tmp/cc9MJEZf.s 			page 10


 514              	pwmDisablePeriodicNotification:
 515              	.LFB215:
 516              		.loc 1 237 0
 517              		.cfi_startproc
 518              		@ args = 0, pretend = 0, frame = 0
 519              		@ frame_needed = 0, uses_anonymous_args = 0
 520              	.LVL16:
 521 0000 08B5     		push	{r3, lr}
 522              		.cfi_def_cfa_offset 8
 523              		.cfi_offset 3, -8
 524              		.cfi_offset 14, -4
 525              	.LBB223:
 526              	.LBB224:
 527              	.LBB225:
 528              	.LBB226:
 529              	.LBB227:
 530              		.loc 2 548 0
 531 0002 2023     		movs	r3, #32
 532              	@ 548 "/home/maciek/ChibiOS_16.1.5/os/ext/CMSIS/include/core_cmFunc.h" 1
 533 0004 83F31188 		MSR basepri, r3
 534              	@ 0 "" 2
 535              		.thumb
 536              	.LBE227:
 537              	.LBE226:
 538              	.LBE225:
 539              	.LBE224:
 540              	.LBE223:
 541              		.loc 1 246 0
 542 0008 FFF7FEFF 		bl	pwm_lld_disable_periodic_notification
 543              	.LVL17:
 544              	.LBB228:
 545              	.LBB229:
 546              	.LBB230:
 547              	.LBB231:
 548              	.LBB232:
 549              	.LBB233:
 550              		.loc 2 548 0
 551 000c 0023     		movs	r3, #0
 552              	@ 548 "/home/maciek/ChibiOS_16.1.5/os/ext/CMSIS/include/core_cmFunc.h" 1
 553 000e 83F31188 		MSR basepri, r3
 554              	@ 0 "" 2
 555              		.thumb
 556 0012 08BD     		pop	{r3, pc}
 557              	.LBE233:
 558              	.LBE232:
 559              	.LBE231:
 560              	.LBE230:
 561              	.LBE229:
 562              	.LBE228:
 563              		.cfi_endproc
 564              	.LFE215:
 565              		.size	pwmDisablePeriodicNotification, .-pwmDisablePeriodicNotification
 566              		.section	.text.pwmEnableChannelNotification,"ax",%progbits
 567              		.align	2
 568              		.p2align 4,,15
 569              		.global	pwmEnableChannelNotification
 570              		.thumb
ARM GAS  /tmp/cc9MJEZf.s 			page 11


 571              		.thumb_func
 572              		.type	pwmEnableChannelNotification, %function
 573              	pwmEnableChannelNotification:
 574              	.LFB216:
 575              		.loc 1 262 0
 576              		.cfi_startproc
 577              		@ args = 0, pretend = 0, frame = 0
 578              		@ frame_needed = 0, uses_anonymous_args = 0
 579              	.LVL18:
 580 0000 08B5     		push	{r3, lr}
 581              		.cfi_def_cfa_offset 8
 582              		.cfi_offset 3, -8
 583              		.cfi_offset 14, -4
 584              	.LBB234:
 585              	.LBB235:
 586              	.LBB236:
 587              	.LBB237:
 588              	.LBB238:
 589              		.loc 2 548 0
 590 0002 2023     		movs	r3, #32
 591              	@ 548 "/home/maciek/ChibiOS_16.1.5/os/ext/CMSIS/include/core_cmFunc.h" 1
 592 0004 83F31188 		MSR basepri, r3
 593              	@ 0 "" 2
 594              		.thumb
 595              	.LBE238:
 596              	.LBE237:
 597              	.LBE236:
 598              	.LBE235:
 599              	.LBE234:
 600              		.loc 1 274 0
 601 0008 FFF7FEFF 		bl	pwm_lld_enable_channel_notification
 602              	.LVL19:
 603              	.LBB239:
 604              	.LBB240:
 605              	.LBB241:
 606              	.LBB242:
 607              	.LBB243:
 608              	.LBB244:
 609              		.loc 2 548 0
 610 000c 0023     		movs	r3, #0
 611              	@ 548 "/home/maciek/ChibiOS_16.1.5/os/ext/CMSIS/include/core_cmFunc.h" 1
 612 000e 83F31188 		MSR basepri, r3
 613              	@ 0 "" 2
 614              		.thumb
 615 0012 08BD     		pop	{r3, pc}
 616              	.LBE244:
 617              	.LBE243:
 618              	.LBE242:
 619              	.LBE241:
 620              	.LBE240:
 621              	.LBE239:
 622              		.cfi_endproc
 623              	.LFE216:
 624              		.size	pwmEnableChannelNotification, .-pwmEnableChannelNotification
 625              		.section	.text.pwmDisableChannelNotification,"ax",%progbits
 626              		.align	2
 627              		.p2align 4,,15
ARM GAS  /tmp/cc9MJEZf.s 			page 12


 628              		.global	pwmDisableChannelNotification
 629              		.thumb
 630              		.thumb_func
 631              		.type	pwmDisableChannelNotification, %function
 632              	pwmDisableChannelNotification:
 633              	.LFB217:
 634              		.loc 1 290 0
 635              		.cfi_startproc
 636              		@ args = 0, pretend = 0, frame = 0
 637              		@ frame_needed = 0, uses_anonymous_args = 0
 638              	.LVL20:
 639 0000 08B5     		push	{r3, lr}
 640              		.cfi_def_cfa_offset 8
 641              		.cfi_offset 3, -8
 642              		.cfi_offset 14, -4
 643              	.LBB245:
 644              	.LBB246:
 645              	.LBB247:
 646              	.LBB248:
 647              	.LBB249:
 648              		.loc 2 548 0
 649 0002 2023     		movs	r3, #32
 650              	@ 548 "/home/maciek/ChibiOS_16.1.5/os/ext/CMSIS/include/core_cmFunc.h" 1
 651 0004 83F31188 		MSR basepri, r3
 652              	@ 0 "" 2
 653              		.thumb
 654              	.LBE249:
 655              	.LBE248:
 656              	.LBE247:
 657              	.LBE246:
 658              	.LBE245:
 659              		.loc 1 302 0
 660 0008 FFF7FEFF 		bl	pwm_lld_disable_channel_notification
 661              	.LVL21:
 662              	.LBB250:
 663              	.LBB251:
 664              	.LBB252:
 665              	.LBB253:
 666              	.LBB254:
 667              	.LBB255:
 668              		.loc 2 548 0
 669 000c 0023     		movs	r3, #0
 670              	@ 548 "/home/maciek/ChibiOS_16.1.5/os/ext/CMSIS/include/core_cmFunc.h" 1
 671 000e 83F31188 		MSR basepri, r3
 672              	@ 0 "" 2
 673              		.thumb
 674 0012 08BD     		pop	{r3, pc}
 675              	.LBE255:
 676              	.LBE254:
 677              	.LBE253:
 678              	.LBE252:
 679              	.LBE251:
 680              	.LBE250:
 681              		.cfi_endproc
 682              	.LFE217:
 683              		.size	pwmDisableChannelNotification, .-pwmDisableChannelNotification
 684              		.text
ARM GAS  /tmp/cc9MJEZf.s 			page 13


 685              	.Letext0:
 686              		.file 3 "/opt/stm32/gcc/gcc-arm-none-eabi-4_9-2015q2/arm-none-eabi/include/machine/_default_types.
 687              		.file 4 "/opt/stm32/gcc/gcc-arm-none-eabi-4_9-2015q2/arm-none-eabi/include/sys/_stdint.h"
 688              		.file 5 "/home/maciek/ChibiOS_16.1.5/os/rt/ports/ARMCMx/compilers/GCC/chtypes.h"
 689              		.file 6 "/home/maciek/ChibiOS_16.1.5/os/rt/include/chsystypes.h"
 690              		.file 7 "/home/maciek/ChibiOS_16.1.5/os/rt/include/chschd.h"
 691              		.file 8 "/home/maciek/ChibiOS_16.1.5/os/rt/ports/ARMCMx/chcore.h"
 692              		.file 9 "/home/maciek/ChibiOS_16.1.5/os/rt/ports/ARMCMx/chcore_v7m.h"
 693              		.file 10 "/home/maciek/ChibiOS_16.1.5/os/rt/include/chtm.h"
 694              		.file 11 "/home/maciek/ChibiOS_16.1.5/os/rt/include/chsem.h"
 695              		.file 12 "/home/maciek/ChibiOS_16.1.5/os/rt/include/chmtx.h"
 696              		.file 13 "/home/maciek/ChibiOS_16.1.5/os/hal/include/pwm.h"
 697              		.file 14 "/home/maciek/ChibiOS_16.1.5/os/hal/ports/STM32/LLD/TIMv1/pwm_lld.h"
 698              		.file 15 "/home/maciek/ChibiOS_16.1.5/os/hal/ports/STM32/LLD/TIMv1/stm32_tim.h"
 699              		.file 16 "/home/maciek/ChibiOS_16.1.5/os/rt/include/chsys.h"
 700              		.file 17 "/home/maciek/ChibiOS_16.1.5/os/hal/osal/rt/osal.h"
 701              		.file 18 "/home/maciek/ChibiOS_16.1.5/os/ext/CMSIS/include/core_cm3.h"