ARM GAS  /tmp/cc9MJEZf.s 			page 1


   1              		.syntax unified
   2              		.cpu cortex-m3
   3              		.fpu softvfp
   4              		.eabi_attribute 20, 1
   5              		.eabi_attribute 21, 1
   6              		.eabi_attribute 23, 3
   7              		.eabi_attribute 24, 1
   8              		.eabi_attribute 25, 1
   9              		.eabi_attribute 26, 1
  10              		.eabi_attribute 30, 2
  11              		.eabi_attribute 34, 1
  12              		.eabi_attribute 18, 4
  13              		.thumb
  14              		.file	"pwm.c"
  15              		.text
  16              	.Ltext0:
  17              		.cfi_sections	.debug_frame
  18              		.section	.text.pwmInit,"ax",%progbits
  19              		.align	2
  20              		.p2align 4,,15
  21              		.global	pwmInit
  22              		.thumb
  23              		.thumb_func
  24              		.type	pwmInit, %function
  25              	pwmInit:
  26              	.LFB207:
  27              		.file 1 "/home/maciek/ChibiOS_16.1.5/os/hal/src/pwm.c"
  28              		.loc 1 56 0
  29              		.cfi_startproc
  30              		@ args = 0, pretend = 0, frame = 0
  31              		@ frame_needed = 0, uses_anonymous_args = 0
  32              		@ link register save eliminated.
  33              		.loc 1 58 0
  34 0000 FFF7FEBF 		b	pwm_lld_init
  35              	.LVL0:
  36              		.cfi_endproc
  37              	.LFE207:
  38              		.size	pwmInit, .-pwmInit
  39              		.section	.text.pwmObjectInit,"ax",%progbits
  40              		.align	2
  41              		.p2align 4,,15
  42              		.global	pwmObjectInit
  43              		.thumb
  44              		.thumb_func
  45              		.type	pwmObjectInit, %function
  46              	pwmObjectInit:
  47              	.LFB208:
  48              		.loc 1 68 0
  49              		.cfi_startproc
  50              		@ args = 0, pretend = 0, frame = 0
  51              		@ frame_needed = 0, uses_anonymous_args = 0
  52              		@ link register save eliminated.
  53              	.LVL1:
  54              		.loc 1 71 0
  55 0000 0023     		movs	r3, #0
  56              		.loc 1 70 0
  57 0002 0122     		movs	r2, #1
ARM GAS  /tmp/cc9MJEZf.s 			page 2


  58 0004 0270     		strb	r2, [r0]
  59              		.loc 1 71 0
  60 0006 4360     		str	r3, [r0, #4]
  61              		.loc 1 72 0
  62 0008 C360     		str	r3, [r0, #12]
  63              		.loc 1 73 0
  64 000a 0374     		strb	r3, [r0, #16]
  65 000c 7047     		bx	lr
  66              		.cfi_endproc
  67              	.LFE208:
  68              		.size	pwmObjectInit, .-pwmObjectInit
  69 000e 00BF     		.section	.text.pwmStart,"ax",%progbits
  70              		.align	2
  71              		.p2align 4,,15
  72              		.global	pwmStart
  73              		.thumb
  74              		.thumb_func
  75              		.type	pwmStart, %function
  76              	pwmStart:
  77              	.LFB209:
  78              		.loc 1 89 0
  79              		.cfi_startproc
  80              		@ args = 0, pretend = 0, frame = 0
  81              		@ frame_needed = 0, uses_anonymous_args = 0
  82              	.LVL2:
  83 0000 10B5     		push	{r4, lr}
  84              		.cfi_def_cfa_offset 8
  85              		.cfi_offset 4, -8
  86              		.cfi_offset 14, -4
  87              	.LBB141:
  88              	.LBB142:
  89              	.LBB143:
  90              	.LBB144:
  91              	.LBB145:
  92              		.file 2 "/home/maciek/ChibiOS_16.1.5/os/ext/CMSIS/include/core_cmFunc.h"
  93              		.loc 2 548 0
  94 0002 2023     		movs	r3, #32
  95              	.LBE145:
  96              	.LBE144:
  97              	.LBE143:
  98              	.LBE142:
  99              	.LBE141:
 100              		.loc 1 89 0
 101 0004 0446     		mov	r4, r0
 102              	.LBB150:
 103              	.LBB149:
 104              	.LBB148:
 105              	.LBB147:
 106              	.LBB146:
 107              		.loc 2 548 0
 108              	@ 548 "/home/maciek/ChibiOS_16.1.5/os/ext/CMSIS/include/core_cmFunc.h" 1
 109 0006 83F31188 		MSR basepri, r3
 110              	@ 0 "" 2
 111              		.thumb
 112              	.LBE146:
 113              	.LBE147:
 114              	.LBE148:
ARM GAS  /tmp/cc9MJEZf.s 			page 3


 115              	.LBE149:
 116              	.LBE150:
 117              		.loc 1 97 0
 118 000a 4B68     		ldr	r3, [r1, #4]
 119              		.loc 1 96 0
 120 000c 4160     		str	r1, [r0, #4]
 121              		.loc 1 97 0
 122 000e 8360     		str	r3, [r0, #8]
 123              		.loc 1 98 0
 124 0010 FFF7FEFF 		bl	pwm_lld_start
 125              	.LVL3:
 126              		.loc 1 100 0
 127 0014 0222     		movs	r2, #2
 128              		.loc 1 99 0
 129 0016 0023     		movs	r3, #0
 130              		.loc 1 100 0
 131 0018 2270     		strb	r2, [r4]
 132              	.LVL4:
 133              		.loc 1 99 0
 134 001a E360     		str	r3, [r4, #12]
 135              	.LBB151:
 136              	.LBB152:
 137              	.LBB153:
 138              	.LBB154:
 139              	.LBB155:
 140              	.LBB156:
 141              		.loc 2 548 0
 142              	@ 548 "/home/maciek/ChibiOS_16.1.5/os/ext/CMSIS/include/core_cmFunc.h" 1
 143 001c 83F31188 		MSR basepri, r3
 144              	@ 0 "" 2
 145              		.thumb
 146 0020 10BD     		pop	{r4, pc}
 147              	.LBE156:
 148              	.LBE155:
 149              	.LBE154:
 150              	.LBE153:
 151              	.LBE152:
 152              	.LBE151:
 153              		.cfi_endproc
 154              	.LFE209:
 155              		.size	pwmStart, .-pwmStart
 156 0022 00BF     		.section	.text.pwmStop,"ax",%progbits
 157              		.align	2
 158              		.p2align 4,,15
 159              		.global	pwmStop
 160              		.thumb
 161              		.thumb_func
 162              		.type	pwmStop, %function
 163              	pwmStop:
 164              	.LFB210:
 165              		.loc 1 111 0
 166              		.cfi_startproc
 167              		@ args = 0, pretend = 0, frame = 0
 168              		@ frame_needed = 0, uses_anonymous_args = 0
 169              	.LVL5:
 170 0000 10B5     		push	{r4, lr}
 171              		.cfi_def_cfa_offset 8
ARM GAS  /tmp/cc9MJEZf.s 			page 4


 172              		.cfi_offset 4, -8
 173              		.cfi_offset 14, -4
 174              	.LBB157:
 175              	.LBB158:
 176              	.LBB159:
 177              	.LBB160:
 178              	.LBB161:
 179              		.loc 2 548 0
 180 0002 2023     		movs	r3, #32
 181              	.LBE161:
 182              	.LBE160:
 183              	.LBE159:
 184              	.LBE158:
 185              	.LBE157:
 186              		.loc 1 111 0
 187 0004 0446     		mov	r4, r0
 188              	.LBB166:
 189              	.LBB165:
 190              	.LBB164:
 191              	.LBB163:
 192              	.LBB162:
 193              		.loc 2 548 0
 194              	@ 548 "/home/maciek/ChibiOS_16.1.5/os/ext/CMSIS/include/core_cmFunc.h" 1
 195 0006 83F31188 		MSR basepri, r3
 196              	@ 0 "" 2
 197              		.thumb
 198              	.LBE162:
 199              	.LBE163:
 200              	.LBE164:
 201              	.LBE165:
 202              	.LBE166:
 203              		.loc 1 118 0
 204 000a FFF7FEFF 		bl	pwm_lld_stop
 205              	.LVL6:
 206              		.loc 1 120 0
 207 000e 0122     		movs	r2, #1
 208              		.loc 1 119 0
 209 0010 0023     		movs	r3, #0
 210              		.loc 1 120 0
 211 0012 2270     		strb	r2, [r4]
 212              	.LVL7:
 213              		.loc 1 119 0
 214 0014 E360     		str	r3, [r4, #12]
 215              	.LBB167:
 216              	.LBB168:
 217              	.LBB169:
 218              	.LBB170:
 219              	.LBB171:
 220              	.LBB172:
 221              		.loc 2 548 0
 222              	@ 548 "/home/maciek/ChibiOS_16.1.5/os/ext/CMSIS/include/core_cmFunc.h" 1
 223 0016 83F31188 		MSR basepri, r3
 224              	@ 0 "" 2
 225              		.thumb
 226 001a 10BD     		pop	{r4, pc}
 227              	.LBE172:
 228              	.LBE171:
ARM GAS  /tmp/cc9MJEZf.s 			page 5


 229              	.LBE170:
 230              	.LBE169:
 231              	.LBE168:
 232              	.LBE167:
 233              		.cfi_endproc
 234              	.LFE210:
 235              		.size	pwmStop, .-pwmStop
 236              		.section	.text.pwmChangePeriod,"ax",%progbits
 237              		.align	2
 238              		.p2align 4,,15
 239              		.global	pwmChangePeriod
 240              		.thumb
 241              		.thumb_func
 242              		.type	pwmChangePeriod, %function
 243              	pwmChangePeriod:
 244              	.LFB211:
 245              		.loc 1 139 0
 246              		.cfi_startproc
 247              		@ args = 0, pretend = 0, frame = 0
 248              		@ frame_needed = 0, uses_anonymous_args = 0
 249              		@ link register save eliminated.
 250              	.LVL8:
 251 0000 10B4     		push	{r4}
 252              		.cfi_def_cfa_offset 4
 253              		.cfi_offset 4, -4
 254              	.LBB173:
 255              	.LBB174:
 256              	.LBB175:
 257              	.LBB176:
 258              	.LBB177:
 259              		.loc 2 548 0
 260 0002 2023     		movs	r3, #32
 261              	@ 548 "/home/maciek/ChibiOS_16.1.5/os/ext/CMSIS/include/core_cmFunc.h" 1
 262 0004 83F31188 		MSR basepri, r3
 263              	@ 0 "" 2
 264              		.thumb
 265              	.LBE177:
 266              	.LBE176:
 267              	.LBE175:
 268              	.LBE174:
 269              	.LBE173:
 270              		.loc 1 145 0
 271 0008 8269     		ldr	r2, [r0, #24]
 272 000a 4C1E     		subs	r4, r1, #1
 273 000c 8160     		str	r1, [r0, #8]
 274              	.LBB178:
 275              	.LBB179:
 276              	.LBB180:
 277              	.LBB181:
 278              	.LBB182:
 279              	.LBB183:
 280              		.loc 2 548 0
 281 000e 0023     		movs	r3, #0
 282              	.LBE183:
 283              	.LBE182:
 284              	.LBE181:
 285              	.LBE180:
ARM GAS  /tmp/cc9MJEZf.s 			page 6


 286              	.LBE179:
 287              	.LBE178:
 288              		.loc 1 145 0
 289 0010 D462     		str	r4, [r2, #44]
 290              	.LVL9:
 291              	.LBB189:
 292              	.LBB188:
 293              	.LBB187:
 294              	.LBB186:
 295              	.LBB185:
 296              	.LBB184:
 297              		.loc 2 548 0
 298              	@ 548 "/home/maciek/ChibiOS_16.1.5/os/ext/CMSIS/include/core_cmFunc.h" 1
 299 0012 83F31188 		MSR basepri, r3
 300              	@ 0 "" 2
 301              		.thumb
 302              	.LBE184:
 303              	.LBE185:
 304              	.LBE186:
 305              	.LBE187:
 306              	.LBE188:
 307              	.LBE189:
 308              		.loc 1 147 0
 309 0016 5DF8044B 		ldr	r4, [sp], #4
 310              		.cfi_restore 4
 311              		.cfi_def_cfa_offset 0
 312 001a 7047     		bx	lr
 313              		.cfi_endproc
 314              	.LFE211:
 315              		.size	pwmChangePeriod, .-pwmChangePeriod
 316              		.section	.text.pwmEnableChannel,"ax",%progbits
 317              		.align	2
 318              		.p2align 4,,15
 319              		.global	pwmEnableChannel
 320              		.thumb
 321              		.thumb_func
 322              		.type	pwmEnableChannel, %function
 323              	pwmEnableChannel:
 324              	.LFB212:
 325              		.loc 1 165 0
 326              		.cfi_startproc
 327              		@ args = 0, pretend = 0, frame = 0
 328              		@ frame_needed = 0, uses_anonymous_args = 0
 329              	.LVL10:
 330 0000 70B5     		push	{r4, r5, r6, lr}
 331              		.cfi_def_cfa_offset 16
 332              		.cfi_offset 4, -16
 333              		.cfi_offset 5, -12
 334              		.cfi_offset 6, -8
 335              		.cfi_offset 14, -4
 336              	.LBB190:
 337              	.LBB191:
 338              	.LBB192:
 339              	.LBB193:
 340              	.LBB194:
 341              		.loc 2 548 0
 342 0002 2023     		movs	r3, #32
ARM GAS  /tmp/cc9MJEZf.s 			page 7


 343              	@ 548 "/home/maciek/ChibiOS_16.1.5/os/ext/CMSIS/include/core_cmFunc.h" 1
 344 0004 83F31188 		MSR basepri, r3
 345              	@ 0 "" 2
 346              		.thumb
 347              	.LBE194:
 348              	.LBE193:
 349              	.LBE192:
 350              	.LBE191:
 351              	.LBE190:
 352              		.loc 1 173 0
 353 0008 0123     		movs	r3, #1
 354 000a C568     		ldr	r5, [r0, #12]
 355 000c 8B40     		lsls	r3, r3, r1
 356 000e 2B43     		orrs	r3, r3, r5
 357 0010 C360     		str	r3, [r0, #12]
 358 0012 FFF7FEFF 		bl	pwm_lld_enable_channel
 359              	.LVL11:
 360              	.LBB195:
 361              	.LBB196:
 362              	.LBB197:
 363              	.LBB198:
 364              	.LBB199:
 365              	.LBB200:
 366              		.loc 2 548 0
 367 0016 0023     		movs	r3, #0
 368              	@ 548 "/home/maciek/ChibiOS_16.1.5/os/ext/CMSIS/include/core_cmFunc.h" 1
 369 0018 83F31188 		MSR basepri, r3
 370              	@ 0 "" 2
 371              		.thumb
 372 001c 70BD     		pop	{r4, r5, r6, pc}
 373              	.LBE200:
 374              	.LBE199:
 375              	.LBE198:
 376              	.LBE197:
 377              	.LBE196:
 378              	.LBE195:
 379              		.cfi_endproc
 380              	.LFE212:
 381              		.size	pwmEnableChannel, .-pwmEnableChannel
 382 001e 00BF     		.section	.text.pwmDisableChannel,"ax",%progbits
 383              		.align	2
 384              		.p2align 4,,15
 385              		.global	pwmDisableChannel
 386              		.thumb
 387              		.thumb_func
 388              		.type	pwmDisableChannel, %function
 389              	pwmDisableChannel:
 390              	.LFB213:
 391              		.loc 1 192 0
 392              		.cfi_startproc
 393              		@ args = 0, pretend = 0, frame = 0
 394              		@ frame_needed = 0, uses_anonymous_args = 0
 395              	.LVL12:
 396 0000 38B5     		push	{r3, r4, r5, lr}
 397              		.cfi_def_cfa_offset 16
 398              		.cfi_offset 3, -16
 399              		.cfi_offset 4, -12
ARM GAS  /tmp/cc9MJEZf.s 			page 8


 400              		.cfi_offset 5, -8
 401              		.cfi_offset 14, -4
 402              	.LBB201:
 403              	.LBB202:
 404              	.LBB203:
 405              	.LBB204:
 406              	.LBB205:
 407              		.loc 2 548 0
 408 0002 2023     		movs	r3, #32
 409              	@ 548 "/home/maciek/ChibiOS_16.1.5/os/ext/CMSIS/include/core_cmFunc.h" 1
 410 0004 83F31188 		MSR basepri, r3
 411              	@ 0 "" 2
 412              		.thumb
 413              	.LBE205:
 414              	.LBE204:
 415              	.LBE203:
 416              	.LBE202:
 417              	.LBE201:
 418              		.loc 1 200 0
 419 0008 0122     		movs	r2, #1
 420 000a C368     		ldr	r3, [r0, #12]
 421 000c 8A40     		lsls	r2, r2, r1
 422 000e 23EA0203 		bic	r3, r3, r2
 423 0012 C360     		str	r3, [r0, #12]
 424 0014 FFF7FEFF 		bl	pwm_lld_disable_channel
 425              	.LVL13:
 426              	.LBB206:
 427              	.LBB207:
 428              	.LBB208:
 429              	.LBB209:
 430              	.LBB210:
 431              	.LBB211:
 432              		.loc 2 548 0
 433 0018 0023     		movs	r3, #0
 434              	@ 548 "/home/maciek/ChibiOS_16.1.5/os/ext/CMSIS/include/core_cmFunc.h" 1
 435 001a 83F31188 		MSR basepri, r3
 436              	@ 0 "" 2
 437              		.thumb
 438 001e 38BD     		pop	{r3, r4, r5, pc}
 439              	.LBE211:
 440              	.LBE210:
 441              	.LBE209:
 442              	.LBE208:
 443              	.LBE207:
 444              	.LBE206:
 445              		.cfi_endproc
 446              	.LFE213:
 447              		.size	pwmDisableChannel, .-pwmDisableChannel
 448              		.section	.text.pwmEnablePeriodicNotification,"ax",%progbits
 449              		.align	2
 450              		.p2align 4,,15
 451              		.global	pwmEnablePeriodicNotification
 452              		.thumb
 453              		.thumb_func
 454              		.type	pwmEnablePeriodicNotification, %function
 455              	pwmEnablePeriodicNotification:
 456              	.LFB214:
ARM GAS  /tmp/cc9MJEZf.s 			page 9


 457              		.loc 1 214 0
 458              		.cfi_startproc
 459              		@ args = 0, pretend = 0, frame = 0
 460              		@ frame_needed = 0, uses_anonymous_args = 0
 461              	.LVL14:
 462 0000 08B5     		push	{r3, lr}
 463              		.cfi_def_cfa_offset 8
 464              		.cfi_offset 3, -8
 465              		.cfi_offset 14, -4
 466              	.LBB212:
 467              	.LBB213:
 468              	.LBB214:
 469              	.LBB215:
 470              	.LBB216:
 471              		.loc 2 548 0
 472 0002 2023     		movs	r3, #32
 473              	@ 548 "/home/maciek/ChibiOS_16.1.5/os/ext/CMSIS/include/core_cmFunc.h" 1
 474 0004 83F31188 		MSR basepri, r3
 475              	@ 0 "" 2
 476              		.thumb
 477              	.LBE216:
 478              	.LBE215:
 479              	.LBE214:
 480              	.LBE213:
 481              	.LBE212:
 482              		.loc 1 223 0
 483 0008 FFF7FEFF 		bl	pwm_lld_enable_periodic_notification
 484              	.LVL15:
 485              	.LBB217:
 486              	.LBB218:
 487              	.LBB219:
 488              	.LBB220:
 489              	.LBB221:
 490              	.LBB222:
 491              		.loc 2 548 0
 492 000c 0023     		movs	r3, #0
 493              	@ 548 "/home/maciek/ChibiOS_16.1.5/os/ext/CMSIS/include/core_cmFunc.h" 1
 494 000e 83F31188 		MSR basepri, r3
 495              	@ 0 "" 2
 496              		.thumb
 497 0012 08BD     		pop	{r3, pc}
 498              	.LBE222:
 499              	.LBE221:
 500              	.LBE220:
 501              	.LBE219:
 502              	.LBE218:
 503              	.LBE217:
 504              		.cfi_endproc
 505              	.LFE214:
 506              		.size	pwmEnablePeriodicNotification, .-pwmEnablePeriodicNotification
 507              		.section	.text.pwmDisablePeriodicNotification,"ax",%progbits
 508              		.align	2
 509              		.p2align 4,,15
 510              		.global	pwmDisablePeriodicNotification
 511              		.thumb
 512              		.thumb_func
 513              		.type	pwmDisablePeriodicNotification, %function
ARM GAS  /tmp/cc9MJEZf.s 			page 10


 514              	pwmDisablePeriodicNotification:
 515              	.LFB215:
 516              		.loc 1 237 0
 517              		.cfi_startproc
 518              		@ args = 0, pretend = 0, frame = 0
 519              		@ frame_needed = 0, uses_anonymous_args = 0
 520              	.LVL16:
 521 0000 08B5     		push	{r3, lr}
 522              		.cfi_def_cfa_offset 8
 523              		.cfi_offset 3, -8
 524              		.cfi_offset 14, -4
 525              	.LBB223:
 526              	.LBB224:
 527              	.LBB225:
 528              	.LBB226:
 529              	.LBB227:
 530              		.loc 2 548 0
 531 0002 2023     		movs	r3, #32
 532              	@ 548 "/home/maciek/ChibiOS_16.1.5/os/ext/CMSIS/include/core_cmFunc.h" 1
 533 0004 83F31188 		MSR basepri, r3
 534              	@ 0 "" 2
 535              		.thumb
 536              	.LBE227:
 537              	.LBE226:
 538              	.LBE225:
 539              	.LBE224:
 540              	.LBE223:
 541              		.loc 1 246 0
 542 0008 FFF7FEFF 		bl	pwm_lld_disable_periodic_notification
 543              	.LVL17:
 544              	.LBB228:
 545              	.LBB229:
 546              	.LBB230:
 547              	.LBB231:
 548              	.LBB232:
 549              	.LBB233:
 550              		.loc 2 548 0
 551 000c 0023     		movs	r3, #0
 552              	@ 548 "/home/maciek/ChibiOS_16.1.5/os/ext/CMSIS/include/core_cmFunc.h" 1
 553 000e 83F31188 		MSR basepri, r3
 554              	@ 0 "" 2
 555              		.thumb
 556 0012 08BD     		pop	{r3, pc}
 557              	.LBE233:
 558              	.LBE232:
 559              	.LBE231:
 560              	.LBE230:
 561              	.LBE229:
 562              	.LBE228:
 563              		.cfi_endproc
 564              	.LFE215:
 565              		.size	pwmDisablePeriodicNotification, .-pwmDisablePeriodicNotification
 566              		.section	.text.pwmEnableChannelNotification,"ax",%progbits
 567              		.align	2
 568              		.p2align 4,,15
 569              		.global	pwmEnableChannelNotification
 570              		.thumb
ARM GAS  /tmp/cc9MJEZf.s 			page 11


 571              		.thumb_func
 572              		.type	pwmEnableChannelNotification, %function
 573              	pwmEnableChannelNotification:
 574              	.LFB216:
 575              		.loc 1 262 0
 576              		.cfi_startproc
 577              		@ args = 0, pretend = 0, frame = 0
 578              		@ frame_needed = 0, uses_anonymous_args = 0
 579              	.LVL18:
 580 0000 08B5     		push	{r3, lr}
 581              		.cfi_def_cfa_offset 8
 582              		.cfi_offset 3, -8
 583              		.cfi_offset 14, -4
 584              	.LBB234:
 585              	.LBB235:
 586              	.LBB236:
 587              	.LBB237:
 588              	.LBB238:
 589              		.loc 2 548 0
 590 0002 2023     		movs	r3, #32
 591              	@ 548 "/home/maciek/ChibiOS_16.1.5/os/ext/CMSIS/include/core_cmFunc.h" 1
 592 0004 83F31188 		MSR basepri, r3
 593              	@ 0 "" 2
 594              		.thumb
 595              	.LBE238:
 596              	.LBE237:
 597              	.LBE236:
 598              	.LBE235:
 599              	.LBE234:
 600              		.loc 1 274 0
 601 0008 FFF7FEFF 		bl	pwm_lld_enable_channel_notification
 602              	.LVL19:
 603              	.LBB239:
 604              	.LBB240:
 605              	.LBB241:
 606              	.LBB242:
 607              	.LBB243:
 608              	.LBB244:
 609              		.loc 2 548 0
 610 000c 0023     		movs	r3, #0
 611              	@ 548 "/home/maciek/ChibiOS_16.1.5/os/ext/CMSIS/include/core_cmFunc.h" 1
 612 000e 83F31188 		MSR basepri, r3
 613              	@ 0 "" 2
 614              		.thumb
 615 0012 08BD     		pop	{r3, pc}
 616              	.LBE244:
 617              	.LBE243:
 618              	.LBE242:
 619              	.LBE241:
 620              	.LBE240:
 621              	.LBE239:
 622              		.cfi_endproc
 623              	.LFE216:
 624              		.size	pwmEnableChannelNotification, .-pwmEnableChannelNotification
 625              		.section	.text.pwmDisableChannelNotification,"ax",%progbits
 626              		.align	2
 627              		.p2align 4,,15
ARM GAS  /tmp/cc9MJEZf.s 			page 12


 628              		.global	pwmDisableChannelNotification
 629              		.thumb
 630              		.thumb_func
 631              		.type	pwmDisableChannelNotification, %function
 632              	pwmDisableChannelNotification:
 633              	.LFB217:
 634              		.loc 1 290 0
 635              		.cfi_startproc
 636              		@ args = 0, pretend = 0, frame = 0
 637              		@ frame_needed = 0, uses_anonymous_args = 0
 638              	.LVL20:
 639 0000 08B5     		push	{r3, lr}
 640              		.cfi_def_cfa_offset 8
 641              		.cfi_offset 3, -8
 642              		.cfi_offset 14, -4
 643              	.LBB245:
 644              	.LBB246:
 645              	.LBB247:
 646              	.LBB248:
 647              	.LBB249:
 648              		.loc 2 548 0
 649 0002 2023     		movs	r3, #32
 650              	@ 548 "/home/maciek/ChibiOS_16.1.5/os/ext/CMSIS/include/core_cmFunc.h" 1
 651 0004 83F31188 		MSR basepri, r3
 652              	@ 0 "" 2
 653              		.thumb
 654              	.LBE249:
 655              	.LBE248:
 656              	.LBE247:
 657              	.LBE246:
 658              	.LBE245:
 659              		.loc 1 302 0
 660 0008 FFF7FEFF 		bl	pwm_lld_disable_channel_notification
 661              	.LVL21:
 662              	.LBB250:
 663              	.LBB251:
 664              	.LBB252:
 665              	.LBB253:
 666              	.LBB254:
 667              	.LBB255:
 668              		.loc 2 548 0
 669 000c 0023     		movs	r3, #0
 670              	@ 548 "/home/maciek/ChibiOS_16.1.5/os/ext/CMSIS/include/core_cmFunc.h" 1
 671 000e 83F31188 		MSR basepri, r3
 672              	@ 0 "" 2
 673              		.thumb
 674 0012 08BD     		pop	{r3, pc}
 675              	.LBE255:
 676              	.LBE254:
 677              	.LBE253:
 678              	.LBE252:
 679              	.LBE251:
 680              	.LBE250:
 681              		.cfi_endproc
 682              	.LFE217:
 683              		.size	pwmDisableChannelNotification, .-pwmDisableChannelNotification
 684              		.text
ARM GAS  /tmp/cc9MJEZf.s 			page 13


 685              	.Letext0:
 686              		.file 3 "/opt/stm32/gcc/gcc-arm-none-eabi-4_9-2015q2/arm-none-eabi/include/machine/_default_types.
 687              		.file 4 "/opt/stm32/gcc/gcc-arm-none-eabi-4_9-2015q2/arm-none-eabi/include/sys/_stdint.h"
 688              		.file 5 "/home/maciek/ChibiOS_16.1.5/os/rt/ports/ARMCMx/compilers/GCC/chtypes.h"
 689              		.file 6 "/home/maciek/ChibiOS_16.1.5/os/rt/include/chsystypes.h"
 690              		.file 7 "/home/maciek/ChibiOS_16.1.5/os/rt/include/chschd.h"
 691              		.file 8 "/home/maciek/ChibiOS_16.1.5/os/rt/ports/ARMCMx/chcore.h"
 692              		.file 9 "/home/maciek/ChibiOS_16.1.5/os/rt/ports/ARMCMx/chcore_v7m.h"
 693              		.file 10 "/home/maciek/ChibiOS_16.1.5/os/rt/include/chtm.h"
 694              		.file 11 "/home/maciek/ChibiOS_16.1.5/os/rt/include/chsem.h"
 695              		.file 12 "/home/maciek/ChibiOS_16.1.5/os/rt/include/chmtx.h"
 696              		.file 13 "/home/maciek/ChibiOS_16.1.5/os/hal/include/pwm.h"
 697              		.file 14 "/home/maciek/ChibiOS_16.1.5/os/hal/ports/STM32/LLD/TIMv1/pwm_lld.h"
 698              		.file 15 "/home/maciek/ChibiOS_16.1.5/os/hal/ports/STM32/LLD/TIMv1/stm32_tim.h"
 699              		.file 16 "/home/maciek/ChibiOS_16.1.5/os/rt/include/chsys.h"
 700              		.file 17 "/home/maciek/ChibiOS_16.1.5/os/hal/osal/rt/osal.h"
 701              		.file 18 "/home/maciek/ChibiOS_16.1.5/os/ext/CMSIS/include/core_cm3.h"
 702              		.section	.debug_info,"",%progbits
 703              	.Ldebug_info0:
 704 0000 8D130000 		.4byte	0x138d
 705 0004 0400     		.2byte	0x4
 706 0006 00000000 		.4byte	.Ldebug_abbrev0
 707 000a 04       		.byte	0x4
 708 000b 01       		.uleb128 0x1
 709 000c 4C010000 		.4byte	.LASF161
 710 0010 01       		.byte	0x1
 711 0011 59060000 		.4byte	.LASF162
 712 0015 48000000 		.4byte	.Ldebug_ranges0+0x48
 713 0019 00000000 		.4byte	0
 714 001d 00000000 		.4byte	.Ldebug_line0
 715 0021 02       		.uleb128 0x2
 716 0022 04       		.byte	0x4
 717 0023 05       		.byte	0x5
 718 0024 696E7400 		.ascii	"int\000"
 719 0028 03       		.uleb128 0x3
 720 0029 04       		.byte	0x4
 721 002a 07       		.byte	0x7
 722 002b 2C030000 		.4byte	.LASF0
 723 002f 03       		.uleb128 0x3
 724 0030 01       		.byte	0x1
 725 0031 06       		.byte	0x6
 726 0032 26010000 		.4byte	.LASF1
 727 0036 04       		.uleb128 0x4
 728 0037 35000000 		.4byte	.LASF4
 729 003b 03       		.byte	0x3
 730 003c 1D       		.byte	0x1d
 731 003d 41000000 		.4byte	0x41
 732 0041 03       		.uleb128 0x3
 733 0042 01       		.byte	0x1
 734 0043 08       		.byte	0x8
 735 0044 5F050000 		.4byte	.LASF2
 736 0048 03       		.uleb128 0x3
 737 0049 02       		.byte	0x2
 738 004a 05       		.byte	0x5
 739 004b 92050000 		.4byte	.LASF3
 740 004f 04       		.uleb128 0x4
 741 0050 BD060000 		.4byte	.LASF5
ARM GAS  /tmp/cc9MJEZf.s 			page 14


 742 0054 03       		.byte	0x3
 743 0055 2B       		.byte	0x2b
 744 0056 5A000000 		.4byte	0x5a
 745 005a 03       		.uleb128 0x3
 746 005b 02       		.byte	0x2
 747 005c 07       		.byte	0x7
 748 005d BF020000 		.4byte	.LASF6
 749 0061 04       		.uleb128 0x4
 750 0062 15040000 		.4byte	.LASF7
 751 0066 03       		.byte	0x3
 752 0067 3F       		.byte	0x3f
 753 0068 6C000000 		.4byte	0x6c
 754 006c 03       		.uleb128 0x3
 755 006d 04       		.byte	0x4
 756 006e 05       		.byte	0x5
 757 006f 41020000 		.4byte	.LASF8
 758 0073 04       		.uleb128 0x4
 759 0074 D2020000 		.4byte	.LASF9
 760 0078 03       		.byte	0x3
 761 0079 41       		.byte	0x41
 762 007a 7E000000 		.4byte	0x7e
 763 007e 03       		.uleb128 0x3
 764 007f 04       		.byte	0x4
 765 0080 07       		.byte	0x7
 766 0081 86060000 		.4byte	.LASF10
 767 0085 03       		.uleb128 0x3
 768 0086 08       		.byte	0x8
 769 0087 05       		.byte	0x5
 770 0088 92020000 		.4byte	.LASF11
 771 008c 04       		.uleb128 0x4
 772 008d E9040000 		.4byte	.LASF12
 773 0091 03       		.byte	0x3
 774 0092 5B       		.byte	0x5b
 775 0093 97000000 		.4byte	0x97
 776 0097 03       		.uleb128 0x3
 777 0098 08       		.byte	0x8
 778 0099 07       		.byte	0x7
 779 009a 92000000 		.4byte	.LASF13
 780 009e 04       		.uleb128 0x4
 781 009f A3070000 		.4byte	.LASF14
 782 00a3 04       		.byte	0x4
 783 00a4 14       		.byte	0x14
 784 00a5 36000000 		.4byte	0x36
 785 00a9 04       		.uleb128 0x4
 786 00aa A0020000 		.4byte	.LASF15
 787 00ae 04       		.byte	0x4
 788 00af 1A       		.byte	0x1a
 789 00b0 4F000000 		.4byte	0x4f
 790 00b4 04       		.uleb128 0x4
 791 00b5 57050000 		.4byte	.LASF16
 792 00b9 04       		.byte	0x4
 793 00ba 1F       		.byte	0x1f
 794 00bb 61000000 		.4byte	0x61
 795 00bf 04       		.uleb128 0x4
 796 00c0 30060000 		.4byte	.LASF17
 797 00c4 04       		.byte	0x4
 798 00c5 20       		.byte	0x20
ARM GAS  /tmp/cc9MJEZf.s 			page 15


 799 00c6 73000000 		.4byte	0x73
 800 00ca 04       		.uleb128 0x4
 801 00cb 2C000000 		.4byte	.LASF18
 802 00cf 04       		.byte	0x4
 803 00d0 26       		.byte	0x26
 804 00d1 8C000000 		.4byte	0x8c
 805 00d5 04       		.uleb128 0x4
 806 00d6 64070000 		.4byte	.LASF19
 807 00da 05       		.byte	0x5
 808 00db 39       		.byte	0x39
 809 00dc BF000000 		.4byte	0xbf
 810 00e0 04       		.uleb128 0x4
 811 00e1 F9070000 		.4byte	.LASF20
 812 00e5 05       		.byte	0x5
 813 00e6 3C       		.byte	0x3c
 814 00e7 9E000000 		.4byte	0x9e
 815 00eb 04       		.uleb128 0x4
 816 00ec 7C020000 		.4byte	.LASF21
 817 00f0 05       		.byte	0x5
 818 00f1 3D       		.byte	0x3d
 819 00f2 9E000000 		.4byte	0x9e
 820 00f6 04       		.uleb128 0x4
 821 00f7 1A050000 		.4byte	.LASF22
 822 00fb 05       		.byte	0x5
 823 00fc 3E       		.byte	0x3e
 824 00fd 9E000000 		.4byte	0x9e
 825 0101 04       		.uleb128 0x4
 826 0102 39050000 		.4byte	.LASF23
 827 0106 05       		.byte	0x5
 828 0107 40       		.byte	0x40
 829 0108 BF000000 		.4byte	0xbf
 830 010c 04       		.uleb128 0x4
 831 010d 8D030000 		.4byte	.LASF24
 832 0111 05       		.byte	0x5
 833 0112 41       		.byte	0x41
 834 0113 B4000000 		.4byte	0xb4
 835 0117 04       		.uleb128 0x4
 836 0118 E4030000 		.4byte	.LASF25
 837 011c 05       		.byte	0x5
 838 011d 43       		.byte	0x43
 839 011e BF000000 		.4byte	0xbf
 840 0122 04       		.uleb128 0x4
 841 0123 26030000 		.4byte	.LASF26
 842 0127 05       		.byte	0x5
 843 0128 45       		.byte	0x45
 844 0129 B4000000 		.4byte	0xb4
 845 012d 04       		.uleb128 0x4
 846 012e E9060000 		.4byte	.LASF27
 847 0132 06       		.byte	0x6
 848 0133 35       		.byte	0x35
 849 0134 A9000000 		.4byte	0xa9
 850 0138 04       		.uleb128 0x4
 851 0139 D9060000 		.4byte	.LASF28
 852 013d 06       		.byte	0x6
 853 013e 3F       		.byte	0x3f
 854 013f 43010000 		.4byte	0x143
 855 0143 05       		.uleb128 0x5
ARM GAS  /tmp/cc9MJEZf.s 			page 16


 856 0144 78030000 		.4byte	.LASF45
 857 0148 38       		.byte	0x38
 858 0149 07       		.byte	0x7
 859 014a C2       		.byte	0xc2
 860 014b 0C020000 		.4byte	0x20c
 861 014f 06       		.uleb128 0x6
 862 0150 B2050000 		.4byte	.LASF29
 863 0154 07       		.byte	0x7
 864 0155 C3       		.byte	0xc3
 865 0156 17020000 		.4byte	0x217
 866 015a 00       		.byte	0
 867 015b 06       		.uleb128 0x6
 868 015c 32050000 		.4byte	.LASF30
 869 0160 07       		.byte	0x7
 870 0161 C5       		.byte	0xc5
 871 0162 17020000 		.4byte	0x217
 872 0166 04       		.byte	0x4
 873 0167 06       		.uleb128 0x6
 874 0168 FA000000 		.4byte	.LASF31
 875 016c 07       		.byte	0x7
 876 016d C7       		.byte	0xc7
 877 016e 01010000 		.4byte	0x101
 878 0172 08       		.byte	0x8
 879 0173 06       		.uleb128 0x6
 880 0174 3D080000 		.4byte	.LASF32
 881 0178 07       		.byte	0x7
 882 0179 C8       		.byte	0xc8
 883 017a 52040000 		.4byte	0x452
 884 017e 0C       		.byte	0xc
 885 017f 06       		.uleb128 0x6
 886 0180 9C050000 		.4byte	.LASF33
 887 0184 07       		.byte	0x7
 888 0185 DD       		.byte	0xdd
 889 0186 EB000000 		.4byte	0xeb
 890 018a 10       		.byte	0x10
 891 018b 06       		.uleb128 0x6
 892 018c C5050000 		.4byte	.LASF34
 893 0190 07       		.byte	0x7
 894 0191 E1       		.byte	0xe1
 895 0192 E0000000 		.4byte	0xe0
 896 0196 11       		.byte	0x11
 897 0197 06       		.uleb128 0x6
 898 0198 96070000 		.4byte	.LASF35
 899 019c 07       		.byte	0x7
 900 019d E6       		.byte	0xe6
 901 019e F6000000 		.4byte	0xf6
 902 01a2 12       		.byte	0x12
 903 01a3 07       		.uleb128 0x7
 904 01a4 705F7500 		.ascii	"p_u\000"
 905 01a8 07       		.byte	0x7
 906 01a9 3101     		.2byte	0x131
 907 01ab 0C050000 		.4byte	0x50c
 908 01af 14       		.byte	0x14
 909 01b0 08       		.uleb128 0x8
 910 01b1 3E040000 		.4byte	.LASF36
 911 01b5 07       		.byte	0x7
 912 01b6 3601     		.2byte	0x136
ARM GAS  /tmp/cc9MJEZf.s 			page 17


 913 01b8 1D020000 		.4byte	0x21d
 914 01bc 18       		.byte	0x18
 915 01bd 08       		.uleb128 0x8
 916 01be 48030000 		.4byte	.LASF37
 917 01c2 07       		.byte	0x7
 918 01c3 3C01     		.2byte	0x13c
 919 01c5 41020000 		.4byte	0x241
 920 01c9 1C       		.byte	0x1c
 921 01ca 08       		.uleb128 0x8
 922 01cb 0D080000 		.4byte	.LASF38
 923 01cf 07       		.byte	0x7
 924 01d0 4001     		.2byte	0x140
 925 01d2 0C010000 		.4byte	0x10c
 926 01d6 24       		.byte	0x24
 927 01d7 08       		.uleb128 0x8
 928 01d8 B0040000 		.4byte	.LASF39
 929 01dc 07       		.byte	0x7
 930 01dd 4601     		.2byte	0x146
 931 01df 17010000 		.4byte	0x117
 932 01e3 28       		.byte	0x28
 933 01e4 08       		.uleb128 0x8
 934 01e5 88050000 		.4byte	.LASF40
 935 01e9 07       		.byte	0x7
 936 01ea 4D01     		.2byte	0x14d
 937 01ec CB050000 		.4byte	0x5cb
 938 01f0 2C       		.byte	0x2c
 939 01f1 08       		.uleb128 0x8
 940 01f2 F3060000 		.4byte	.LASF41
 941 01f6 07       		.byte	0x7
 942 01f7 5101     		.2byte	0x151
 943 01f9 01010000 		.4byte	0x101
 944 01fd 30       		.byte	0x30
 945 01fe 08       		.uleb128 0x8
 946 01ff DD020000 		.4byte	.LASF42
 947 0203 07       		.byte	0x7
 948 0204 5801     		.2byte	0x158
 949 0206 DA020000 		.4byte	0x2da
 950 020a 34       		.byte	0x34
 951 020b 00       		.byte	0
 952 020c 04       		.uleb128 0x4
 953 020d 59040000 		.4byte	.LASF43
 954 0211 06       		.byte	0x6
 955 0212 44       		.byte	0x44
 956 0213 17020000 		.4byte	0x217
 957 0217 09       		.uleb128 0x9
 958 0218 04       		.byte	0x4
 959 0219 38010000 		.4byte	0x138
 960 021d 04       		.uleb128 0x4
 961 021e 2F040000 		.4byte	.LASF44
 962 0222 06       		.byte	0x6
 963 0223 49       		.byte	0x49
 964 0224 28020000 		.4byte	0x228
 965 0228 05       		.uleb128 0x5
 966 0229 93030000 		.4byte	.LASF46
 967 022d 04       		.byte	0x4
 968 022e 07       		.byte	0x7
 969 022f B0       		.byte	0xb0
ARM GAS  /tmp/cc9MJEZf.s 			page 18


 970 0230 41020000 		.4byte	0x241
 971 0234 06       		.uleb128 0x6
 972 0235 B2050000 		.4byte	.LASF29
 973 0239 07       		.byte	0x7
 974 023a B1       		.byte	0xb1
 975 023b 17020000 		.4byte	0x217
 976 023f 00       		.byte	0
 977 0240 00       		.byte	0
 978 0241 04       		.uleb128 0x4
 979 0242 7D070000 		.4byte	.LASF47
 980 0246 06       		.byte	0x6
 981 0247 50       		.byte	0x50
 982 0248 4C020000 		.4byte	0x24c
 983 024c 05       		.uleb128 0x5
 984 024d 4B000000 		.4byte	.LASF48
 985 0251 08       		.byte	0x8
 986 0252 07       		.byte	0x7
 987 0253 B7       		.byte	0xb7
 988 0254 71020000 		.4byte	0x271
 989 0258 06       		.uleb128 0x6
 990 0259 B2050000 		.4byte	.LASF29
 991 025d 07       		.byte	0x7
 992 025e B8       		.byte	0xb8
 993 025f 17020000 		.4byte	0x217
 994 0263 00       		.byte	0
 995 0264 06       		.uleb128 0x6
 996 0265 32050000 		.4byte	.LASF30
 997 0269 07       		.byte	0x7
 998 026a B9       		.byte	0xb9
 999 026b 17020000 		.4byte	0x217
 1000 026f 04       		.byte	0x4
 1001 0270 00       		.byte	0
 1002 0271 04       		.uleb128 0x4
 1003 0272 0D000000 		.4byte	.LASF49
 1004 0276 06       		.byte	0x6
 1005 0277 57       		.byte	0x57
 1006 0278 7C020000 		.4byte	0x27c
 1007 027c 0A       		.uleb128 0xa
 1008 027d D6030000 		.4byte	.LASF50
 1009 0281 14       		.byte	0x14
 1010 0282 07       		.byte	0x7
 1011 0283 9001     		.2byte	0x190
 1012 0285 BE020000 		.4byte	0x2be
 1013 0289 08       		.uleb128 0x8
 1014 028a 40060000 		.4byte	.LASF51
 1015 028e 07       		.byte	0x7
 1016 028f 9101     		.2byte	0x191
 1017 0291 41020000 		.4byte	0x241
 1018 0295 00       		.byte	0
 1019 0296 08       		.uleb128 0x8
 1020 0297 A4050000 		.4byte	.LASF52
 1021 029b 07       		.byte	0x7
 1022 029c 9201     		.2byte	0x192
 1023 029e 01010000 		.4byte	0x101
 1024 02a2 08       		.byte	0x8
 1025 02a3 08       		.uleb128 0x8
 1026 02a4 C8040000 		.4byte	.LASF53
ARM GAS  /tmp/cc9MJEZf.s 			page 19


 1027 02a8 07       		.byte	0x7
 1028 02a9 9401     		.2byte	0x194
 1029 02ab 52040000 		.4byte	0x452
 1030 02af 0C       		.byte	0xc
 1031 02b0 08       		.uleb128 0x8
 1032 02b1 DF040000 		.4byte	.LASF54
 1033 02b5 07       		.byte	0x7
 1034 02b6 9B01     		.2byte	0x19b
 1035 02b8 17020000 		.4byte	0x217
 1036 02bc 10       		.byte	0x10
 1037 02bd 00       		.byte	0
 1038 02be 04       		.uleb128 0x4
 1039 02bf FE060000 		.4byte	.LASF55
 1040 02c3 06       		.byte	0x6
 1041 02c4 5C       		.byte	0x5c
 1042 02c5 C9020000 		.4byte	0x2c9
 1043 02c9 09       		.uleb128 0x9
 1044 02ca 04       		.byte	0x4
 1045 02cb CF020000 		.4byte	0x2cf
 1046 02cf 0B       		.uleb128 0xb
 1047 02d0 DA020000 		.4byte	0x2da
 1048 02d4 0C       		.uleb128 0xc
 1049 02d5 DA020000 		.4byte	0x2da
 1050 02d9 00       		.byte	0
 1051 02da 0D       		.uleb128 0xd
 1052 02db 04       		.byte	0x4
 1053 02dc 04       		.uleb128 0x4
 1054 02dd 22050000 		.4byte	.LASF56
 1055 02e1 06       		.byte	0x6
 1056 02e2 61       		.byte	0x61
 1057 02e3 E7020000 		.4byte	0x2e7
 1058 02e7 0A       		.uleb128 0xa
 1059 02e8 00060000 		.4byte	.LASF57
 1060 02ec 14       		.byte	0x14
 1061 02ed 07       		.byte	0x7
 1062 02ee 6B01     		.2byte	0x16b
 1063 02f0 36030000 		.4byte	0x336
 1064 02f4 08       		.uleb128 0x8
 1065 02f5 39030000 		.4byte	.LASF58
 1066 02f9 07       		.byte	0x7
 1067 02fa 6C01     		.2byte	0x16c
 1068 02fc D1050000 		.4byte	0x5d1
 1069 0300 00       		.byte	0
 1070 0301 08       		.uleb128 0x8
 1071 0302 EE020000 		.4byte	.LASF59
 1072 0306 07       		.byte	0x7
 1073 0307 6D01     		.2byte	0x16d
 1074 0309 D1050000 		.4byte	0x5d1
 1075 030d 04       		.byte	0x4
 1076 030e 08       		.uleb128 0x8
 1077 030f 48060000 		.4byte	.LASF60
 1078 0313 07       		.byte	0x7
 1079 0314 6E01     		.2byte	0x16e
 1080 0316 2D010000 		.4byte	0x12d
 1081 031a 08       		.byte	0x8
 1082 031b 08       		.uleb128 0x8
 1083 031c 43080000 		.4byte	.LASF61
ARM GAS  /tmp/cc9MJEZf.s 			page 20


 1084 0320 07       		.byte	0x7
 1085 0321 6F01     		.2byte	0x16f
 1086 0323 BE020000 		.4byte	0x2be
 1087 0327 0C       		.byte	0xc
 1088 0328 08       		.uleb128 0x8
 1089 0329 6C070000 		.4byte	.LASF62
 1090 032d 07       		.byte	0x7
 1091 032e 7101     		.2byte	0x171
 1092 0330 DA020000 		.4byte	0x2da
 1093 0334 10       		.byte	0x10
 1094 0335 00       		.byte	0
 1095 0336 04       		.uleb128 0x4
 1096 0337 BD000000 		.4byte	.LASF63
 1097 033b 06       		.byte	0x6
 1098 033c 66       		.byte	0x66
 1099 033d 41030000 		.4byte	0x341
 1100 0341 0A       		.uleb128 0xa
 1101 0342 6C040000 		.4byte	.LASF64
 1102 0346 0C       		.byte	0xc
 1103 0347 07       		.byte	0x7
 1104 0348 7B01     		.2byte	0x17b
 1105 034a 83030000 		.4byte	0x383
 1106 034e 08       		.uleb128 0x8
 1107 034f 39030000 		.4byte	.LASF58
 1108 0353 07       		.byte	0x7
 1109 0354 7C01     		.2byte	0x17c
 1110 0356 D1050000 		.4byte	0x5d1
 1111 035a 00       		.byte	0
 1112 035b 08       		.uleb128 0x8
 1113 035c EE020000 		.4byte	.LASF59
 1114 0360 07       		.byte	0x7
 1115 0361 7E01     		.2byte	0x17e
 1116 0363 D1050000 		.4byte	0x5d1
 1117 0367 04       		.byte	0x4
 1118 0368 08       		.uleb128 0x8
 1119 0369 48060000 		.4byte	.LASF60
 1120 036d 07       		.byte	0x7
 1121 036e 8001     		.2byte	0x180
 1122 0370 2D010000 		.4byte	0x12d
 1123 0374 08       		.byte	0x8
 1124 0375 08       		.uleb128 0x8
 1125 0376 EE070000 		.4byte	.LASF65
 1126 037a 07       		.byte	0x7
 1127 037b 8201     		.2byte	0x182
 1128 037d D7050000 		.4byte	0x5d7
 1129 0381 0A       		.byte	0xa
 1130 0382 00       		.byte	0
 1131 0383 04       		.uleb128 0x4
 1132 0384 5C000000 		.4byte	.LASF66
 1133 0388 06       		.byte	0x6
 1134 0389 6B       		.byte	0x6b
 1135 038a 8E030000 		.4byte	0x38e
 1136 038e 0A       		.uleb128 0xa
 1137 038f 41050000 		.4byte	.LASF67
 1138 0393 04       		.byte	0x4
 1139 0394 07       		.byte	0x7
 1140 0395 A201     		.2byte	0x1a2
ARM GAS  /tmp/cc9MJEZf.s 			page 21


 1141 0397 A9030000 		.4byte	0x3a9
 1142 039b 08       		.uleb128 0x8
 1143 039c 3A070000 		.4byte	.LASF68
 1144 03a0 07       		.byte	0x7
 1145 03a1 AA01     		.2byte	0x1aa
 1146 03a3 DC050000 		.4byte	0x5dc
 1147 03a7 00       		.byte	0
 1148 03a8 00       		.byte	0
 1149 03a9 04       		.uleb128 0x4
 1150 03aa B5030000 		.4byte	.LASF69
 1151 03ae 06       		.byte	0x6
 1152 03af 70       		.byte	0x70
 1153 03b0 B4030000 		.4byte	0x3b4
 1154 03b4 0E       		.uleb128 0xe
 1155 03b5 E0050000 		.4byte	.LASF70
 1156 03b9 3001     		.2byte	0x130
 1157 03bb 07       		.byte	0x7
 1158 03bc C201     		.2byte	0x1c2
 1159 03be 10040000 		.4byte	0x410
 1160 03c2 08       		.uleb128 0x8
 1161 03c3 9D070000 		.4byte	.LASF71
 1162 03c7 07       		.byte	0x7
 1163 03c8 C601     		.2byte	0x1c6
 1164 03ca 71020000 		.4byte	0x271
 1165 03ce 00       		.byte	0
 1166 03cf 08       		.uleb128 0x8
 1167 03d0 F6020000 		.4byte	.LASF72
 1168 03d4 07       		.byte	0x7
 1169 03d5 CA01     		.2byte	0x1ca
 1170 03d7 36030000 		.4byte	0x336
 1171 03db 14       		.byte	0x14
 1172 03dc 07       		.uleb128 0x7
 1173 03dd 64626700 		.ascii	"dbg\000"
 1174 03e1 07       		.byte	0x7
 1175 03e2 CE01     		.2byte	0x1ce
 1176 03e4 83030000 		.4byte	0x383
 1177 03e8 20       		.byte	0x20
 1178 03e9 08       		.uleb128 0x8
 1179 03ea B2000000 		.4byte	.LASF73
 1180 03ee 07       		.byte	0x7
 1181 03ef D201     		.2byte	0x1d2
 1182 03f1 38010000 		.4byte	0x138
 1183 03f5 24       		.byte	0x24
 1184 03f6 07       		.uleb128 0x7
 1185 03f7 746D00   		.ascii	"tm\000"
 1186 03fa 07       		.byte	0x7
 1187 03fb D701     		.2byte	0x1d7
 1188 03fd 01050000 		.4byte	0x501
 1189 0401 5C       		.byte	0x5c
 1190 0402 08       		.uleb128 0x8
 1191 0403 17030000 		.4byte	.LASF74
 1192 0407 07       		.byte	0x7
 1193 0408 E301     		.2byte	0x1e3
 1194 040a F3050000 		.4byte	0x5f3
 1195 040e 60       		.byte	0x60
 1196 040f 00       		.byte	0
 1197 0410 03       		.uleb128 0x3
ARM GAS  /tmp/cc9MJEZf.s 			page 22


 1198 0411 04       		.byte	0x4
 1199 0412 07       		.byte	0x7
 1200 0413 50040000 		.4byte	.LASF75
 1201 0417 0F       		.uleb128 0xf
 1202 0418 BF000000 		.4byte	0xbf
 1203 041c 10       		.uleb128 0x10
 1204 041d BF000000 		.4byte	0xbf
 1205 0421 2C040000 		.4byte	0x42c
 1206 0425 11       		.uleb128 0x11
 1207 0426 10040000 		.4byte	0x410
 1208 042a 01       		.byte	0x1
 1209 042b 00       		.byte	0
 1210 042c 10       		.uleb128 0x10
 1211 042d BF000000 		.4byte	0xbf
 1212 0431 3C040000 		.4byte	0x43c
 1213 0435 11       		.uleb128 0x11
 1214 0436 10040000 		.4byte	0x410
 1215 043a 03       		.byte	0x3
 1216 043b 00       		.byte	0
 1217 043c 04       		.uleb128 0x4
 1218 043d E5020000 		.4byte	.LASF76
 1219 0441 08       		.byte	0x8
 1220 0442 65       		.byte	0x65
 1221 0443 DA020000 		.4byte	0x2da
 1222 0447 04       		.uleb128 0x4
 1223 0448 24040000 		.4byte	.LASF77
 1224 044c 08       		.byte	0x8
 1225 044d 6D       		.byte	0x6d
 1226 044e CA000000 		.4byte	0xca
 1227 0452 05       		.uleb128 0x5
 1228 0453 4B070000 		.4byte	.LASF78
 1229 0457 04       		.byte	0x4
 1230 0458 08       		.byte	0x8
 1231 0459 89       		.byte	0x89
 1232 045a 6B040000 		.4byte	0x46b
 1233 045e 12       		.uleb128 0x12
 1234 045f 72313300 		.ascii	"r13\000"
 1235 0463 08       		.byte	0x8
 1236 0464 8A       		.byte	0x8a
 1237 0465 E6040000 		.4byte	0x4e6
 1238 0469 00       		.byte	0
 1239 046a 00       		.byte	0
 1240 046b 05       		.uleb128 0x5
 1241 046c 3F000000 		.4byte	.LASF79
 1242 0470 24       		.byte	0x24
 1243 0471 09       		.byte	0x9
 1244 0472 FD       		.byte	0xfd
 1245 0473 E6040000 		.4byte	0x4e6
 1246 0477 07       		.uleb128 0x7
 1247 0478 723400   		.ascii	"r4\000"
 1248 047b 09       		.byte	0x9
 1249 047c 1001     		.2byte	0x110
 1250 047e 3C040000 		.4byte	0x43c
 1251 0482 00       		.byte	0
 1252 0483 07       		.uleb128 0x7
 1253 0484 723500   		.ascii	"r5\000"
 1254 0487 09       		.byte	0x9
ARM GAS  /tmp/cc9MJEZf.s 			page 23


 1255 0488 1101     		.2byte	0x111
 1256 048a 3C040000 		.4byte	0x43c
 1257 048e 04       		.byte	0x4
 1258 048f 07       		.uleb128 0x7
 1259 0490 723600   		.ascii	"r6\000"
 1260 0493 09       		.byte	0x9
 1261 0494 1201     		.2byte	0x112
 1262 0496 3C040000 		.4byte	0x43c
 1263 049a 08       		.byte	0x8
 1264 049b 07       		.uleb128 0x7
 1265 049c 723700   		.ascii	"r7\000"
 1266 049f 09       		.byte	0x9
 1267 04a0 1301     		.2byte	0x113
 1268 04a2 3C040000 		.4byte	0x43c
 1269 04a6 0C       		.byte	0xc
 1270 04a7 07       		.uleb128 0x7
 1271 04a8 723800   		.ascii	"r8\000"
 1272 04ab 09       		.byte	0x9
 1273 04ac 1401     		.2byte	0x114
 1274 04ae 3C040000 		.4byte	0x43c
 1275 04b2 10       		.byte	0x10
 1276 04b3 07       		.uleb128 0x7
 1277 04b4 723900   		.ascii	"r9\000"
 1278 04b7 09       		.byte	0x9
 1279 04b8 1501     		.2byte	0x115
 1280 04ba 3C040000 		.4byte	0x43c
 1281 04be 14       		.byte	0x14
 1282 04bf 07       		.uleb128 0x7
 1283 04c0 72313000 		.ascii	"r10\000"
 1284 04c4 09       		.byte	0x9
 1285 04c5 1601     		.2byte	0x116
 1286 04c7 3C040000 		.4byte	0x43c
 1287 04cb 18       		.byte	0x18
 1288 04cc 07       		.uleb128 0x7
 1289 04cd 72313100 		.ascii	"r11\000"
 1290 04d1 09       		.byte	0x9
 1291 04d2 1701     		.2byte	0x117
 1292 04d4 3C040000 		.4byte	0x43c
 1293 04d8 1C       		.byte	0x1c
 1294 04d9 07       		.uleb128 0x7
 1295 04da 6C7200   		.ascii	"lr\000"
 1296 04dd 09       		.byte	0x9
 1297 04de 1801     		.2byte	0x118
 1298 04e0 3C040000 		.4byte	0x43c
 1299 04e4 20       		.byte	0x20
 1300 04e5 00       		.byte	0
 1301 04e6 09       		.uleb128 0x9
 1302 04e7 04       		.byte	0x4
 1303 04e8 6B040000 		.4byte	0x46b
 1304 04ec 13       		.uleb128 0x13
 1305 04ed 04       		.byte	0x4
 1306 04ee 0A       		.byte	0xa
 1307 04ef 38       		.byte	0x38
 1308 04f0 01050000 		.4byte	0x501
 1309 04f4 06       		.uleb128 0x6
 1310 04f5 44070000 		.4byte	.LASF80
 1311 04f9 0A       		.byte	0xa
ARM GAS  /tmp/cc9MJEZf.s 			page 24


 1312 04fa 3C       		.byte	0x3c
 1313 04fb D5000000 		.4byte	0xd5
 1314 04ff 00       		.byte	0
 1315 0500 00       		.byte	0
 1316 0501 04       		.uleb128 0x4
 1317 0502 CE040000 		.4byte	.LASF81
 1318 0506 0A       		.byte	0xa
 1319 0507 3D       		.byte	0x3d
 1320 0508 EC040000 		.4byte	0x4ec
 1321 050c 14       		.uleb128 0x14
 1322 050d 04       		.byte	0x4
 1323 050e 07       		.byte	0x7
 1324 050f FA       		.byte	0xfa
 1325 0510 69050000 		.4byte	0x569
 1326 0514 15       		.uleb128 0x15
 1327 0515 25000000 		.4byte	.LASF82
 1328 0519 07       		.byte	0x7
 1329 051a 0101     		.2byte	0x101
 1330 051c 0C010000 		.4byte	0x10c
 1331 0520 15       		.uleb128 0x15
 1332 0521 A9000000 		.4byte	.LASF83
 1333 0525 07       		.byte	0x7
 1334 0526 0801     		.2byte	0x108
 1335 0528 0C010000 		.4byte	0x10c
 1336 052c 15       		.uleb128 0x15
 1337 052d E7070000 		.4byte	.LASF84
 1338 0531 07       		.byte	0x7
 1339 0532 0F01     		.2byte	0x10f
 1340 0534 DA020000 		.4byte	0x2da
 1341 0538 15       		.uleb128 0x15
 1342 0539 1F000000 		.4byte	.LASF85
 1343 053d 07       		.byte	0x7
 1344 053e 1601     		.2byte	0x116
 1345 0540 69050000 		.4byte	0x569
 1346 0544 15       		.uleb128 0x15
 1347 0545 41030000 		.4byte	.LASF86
 1348 0549 07       		.byte	0x7
 1349 054a 1E01     		.2byte	0x11e
 1350 054c 94050000 		.4byte	0x594
 1351 0550 15       		.uleb128 0x15
 1352 0551 39060000 		.4byte	.LASF87
 1353 0555 07       		.byte	0x7
 1354 0556 2701     		.2byte	0x127
 1355 0558 CB050000 		.4byte	0x5cb
 1356 055c 15       		.uleb128 0x15
 1357 055d AB050000 		.4byte	.LASF88
 1358 0561 07       		.byte	0x7
 1359 0562 2F01     		.2byte	0x12f
 1360 0564 17010000 		.4byte	0x117
 1361 0568 00       		.byte	0
 1362 0569 09       		.uleb128 0x9
 1363 056a 04       		.byte	0x4
 1364 056b 0C020000 		.4byte	0x20c
 1365 056f 05       		.uleb128 0x5
 1366 0570 11060000 		.4byte	.LASF89
 1367 0574 0C       		.byte	0xc
 1368 0575 0B       		.byte	0xb
ARM GAS  /tmp/cc9MJEZf.s 			page 25


 1369 0576 34       		.byte	0x34
 1370 0577 94050000 		.4byte	0x594
 1371 057b 06       		.uleb128 0x6
 1372 057c B7020000 		.4byte	.LASF90
 1373 0580 0B       		.byte	0xb
 1374 0581 35       		.byte	0x35
 1375 0582 41020000 		.4byte	0x241
 1376 0586 00       		.byte	0
 1377 0587 06       		.uleb128 0x6
 1378 0588 82050000 		.4byte	.LASF91
 1379 058c 0B       		.byte	0xb
 1380 058d 37       		.byte	0x37
 1381 058e 22010000 		.4byte	0x122
 1382 0592 08       		.byte	0x8
 1383 0593 00       		.byte	0
 1384 0594 09       		.uleb128 0x9
 1385 0595 04       		.byte	0x4
 1386 0596 6F050000 		.4byte	0x56f
 1387 059a 05       		.uleb128 0x5
 1388 059b 8D070000 		.4byte	.LASF92
 1389 059f 10       		.byte	0x10
 1390 05a0 0C       		.byte	0xc
 1391 05a1 39       		.byte	0x39
 1392 05a2 CB050000 		.4byte	0x5cb
 1393 05a6 06       		.uleb128 0x6
 1394 05a7 6D050000 		.4byte	.LASF93
 1395 05ab 0C       		.byte	0xc
 1396 05ac 3A       		.byte	0x3a
 1397 05ad 41020000 		.4byte	0x241
 1398 05b1 00       		.byte	0
 1399 05b2 06       		.uleb128 0x6
 1400 05b3 24080000 		.4byte	.LASF94
 1401 05b7 0C       		.byte	0xc
 1402 05b8 3C       		.byte	0x3c
 1403 05b9 17020000 		.4byte	0x217
 1404 05bd 08       		.byte	0x8
 1405 05be 06       		.uleb128 0x6
 1406 05bf E2060000 		.4byte	.LASF95
 1407 05c3 0C       		.byte	0xc
 1408 05c4 3E       		.byte	0x3e
 1409 05c5 0E060000 		.4byte	0x60e
 1410 05c9 0C       		.byte	0xc
 1411 05ca 00       		.byte	0
 1412 05cb 09       		.uleb128 0x9
 1413 05cc 04       		.byte	0x4
 1414 05cd 9A050000 		.4byte	0x59a
 1415 05d1 09       		.uleb128 0x9
 1416 05d2 04       		.byte	0x4
 1417 05d3 DC020000 		.4byte	0x2dc
 1418 05d7 0F       		.uleb128 0xf
 1419 05d8 2D010000 		.4byte	0x12d
 1420 05dc 0F       		.uleb128 0xf
 1421 05dd E1050000 		.4byte	0x5e1
 1422 05e1 09       		.uleb128 0x9
 1423 05e2 04       		.byte	0x4
 1424 05e3 E7050000 		.4byte	0x5e7
 1425 05e7 16       		.uleb128 0x16
ARM GAS  /tmp/cc9MJEZf.s 			page 26


 1426 05e8 EC050000 		.4byte	0x5ec
 1427 05ec 03       		.uleb128 0x3
 1428 05ed 01       		.byte	0x1
 1429 05ee 08       		.byte	0x8
 1430 05ef B8060000 		.4byte	.LASF96
 1431 05f3 10       		.uleb128 0x10
 1432 05f4 47040000 		.4byte	0x447
 1433 05f8 03060000 		.4byte	0x603
 1434 05fc 11       		.uleb128 0x11
 1435 05fd 10040000 		.4byte	0x410
 1436 0601 19       		.byte	0x19
 1437 0602 00       		.byte	0
 1438 0603 04       		.uleb128 0x4
 1439 0604 09030000 		.4byte	.LASF97
 1440 0608 0C       		.byte	0xc
 1441 0609 34       		.byte	0x34
 1442 060a 9A050000 		.4byte	0x59a
 1443 060e 09       		.uleb128 0x9
 1444 060f 04       		.byte	0x4
 1445 0610 03060000 		.4byte	0x603
 1446 0614 03       		.uleb128 0x3
 1447 0615 01       		.byte	0x1
 1448 0616 02       		.byte	0x2
 1449 0617 51050000 		.4byte	.LASF98
 1450 061b 17       		.uleb128 0x17
 1451 061c 01       		.byte	0x1
 1452 061d 0D       		.byte	0xd
 1453 061e 4A       		.byte	0x4a
 1454 061f 36060000 		.4byte	0x636
 1455 0623 18       		.uleb128 0x18
 1456 0624 19080000 		.4byte	.LASF99
 1457 0628 00       		.sleb128 0
 1458 0629 18       		.uleb128 0x18
 1459 062a AF060000 		.4byte	.LASF100
 1460 062e 01       		.sleb128 1
 1461 062f 18       		.uleb128 0x18
 1462 0630 01010000 		.4byte	.LASF101
 1463 0634 02       		.sleb128 2
 1464 0635 00       		.byte	0
 1465 0636 04       		.uleb128 0x4
 1466 0637 D3070000 		.4byte	.LASF102
 1467 063b 0D       		.byte	0xd
 1468 063c 4E       		.byte	0x4e
 1469 063d 1B060000 		.4byte	0x61b
 1470 0641 04       		.uleb128 0x4
 1471 0642 C9070000 		.4byte	.LASF103
 1472 0646 0D       		.byte	0xd
 1473 0647 53       		.byte	0x53
 1474 0648 4C060000 		.4byte	0x64c
 1475 064c 0A       		.uleb128 0xa
 1476 064d C9070000 		.4byte	.LASF103
 1477 0651 1C       		.byte	0x1c
 1478 0652 0E       		.byte	0xe
 1479 0653 B301     		.2byte	0x1b3
 1480 0655 B5060000 		.4byte	0x6b5
 1481 0659 08       		.uleb128 0x8
 1482 065a 32020000 		.4byte	.LASF104
ARM GAS  /tmp/cc9MJEZf.s 			page 27


 1483 065e 0E       		.byte	0xe
 1484 065f B701     		.2byte	0x1b7
 1485 0661 36060000 		.4byte	0x636
 1486 0665 00       		.byte	0
 1487 0666 08       		.uleb128 0x8
 1488 0667 CD060000 		.4byte	.LASF105
 1489 066b 0E       		.byte	0xe
 1490 066c BB01     		.2byte	0x1bb
 1491 066e CD080000 		.4byte	0x8cd
 1492 0672 04       		.byte	0x4
 1493 0673 08       		.uleb128 0x8
 1494 0674 33070000 		.4byte	.LASF106
 1495 0678 0E       		.byte	0xe
 1496 0679 BF01     		.2byte	0x1bf
 1497 067b 1D080000 		.4byte	0x81d
 1498 067f 08       		.byte	0x8
 1499 0680 08       		.uleb128 0x8
 1500 0681 51060000 		.4byte	.LASF107
 1501 0685 0E       		.byte	0xe
 1502 0686 C301     		.2byte	0x1c3
 1503 0688 11080000 		.4byte	0x811
 1504 068c 0C       		.byte	0xc
 1505 068d 08       		.uleb128 0x8
 1506 068e 38020000 		.4byte	.LASF108
 1507 0692 0E       		.byte	0xe
 1508 0693 C701     		.2byte	0x1c7
 1509 0695 05080000 		.4byte	0x805
 1510 0699 10       		.byte	0x10
 1511 069a 08       		.uleb128 0x8
 1512 069b 13080000 		.4byte	.LASF109
 1513 069f 0E       		.byte	0xe
 1514 06a0 CF01     		.2byte	0x1cf
 1515 06a2 BF000000 		.4byte	0xbf
 1516 06a6 14       		.byte	0x14
 1517 06a7 07       		.uleb128 0x7
 1518 06a8 74696D00 		.ascii	"tim\000"
 1519 06ac 0E       		.byte	0xe
 1520 06ad D301     		.2byte	0x1d3
 1521 06af D8080000 		.4byte	0x8d8
 1522 06b3 18       		.byte	0x18
 1523 06b4 00       		.byte	0
 1524 06b5 04       		.uleb128 0x4
 1525 06b6 A9020000 		.4byte	.LASF110
 1526 06ba 0D       		.byte	0xd
 1527 06bb 5A       		.byte	0x5a
 1528 06bc C0060000 		.4byte	0x6c0
 1529 06c0 09       		.uleb128 0x9
 1530 06c1 04       		.byte	0x4
 1531 06c2 C6060000 		.4byte	0x6c6
 1532 06c6 0B       		.uleb128 0xb
 1533 06c7 D1060000 		.4byte	0x6d1
 1534 06cb 0C       		.uleb128 0xc
 1535 06cc D1060000 		.4byte	0x6d1
 1536 06d0 00       		.byte	0
 1537 06d1 09       		.uleb128 0x9
 1538 06d2 04       		.byte	0x4
 1539 06d3 41060000 		.4byte	0x641
ARM GAS  /tmp/cc9MJEZf.s 			page 28


 1540 06d7 19       		.uleb128 0x19
 1541 06d8 60       		.byte	0x60
 1542 06d9 0F       		.byte	0xf
 1543 06da A101     		.2byte	0x1a1
 1544 06dc E3070000 		.4byte	0x7e3
 1545 06e0 07       		.uleb128 0x7
 1546 06e1 43523100 		.ascii	"CR1\000"
 1547 06e5 0F       		.byte	0xf
 1548 06e6 A201     		.2byte	0x1a2
 1549 06e8 17040000 		.4byte	0x417
 1550 06ec 00       		.byte	0
 1551 06ed 07       		.uleb128 0x7
 1552 06ee 43523200 		.ascii	"CR2\000"
 1553 06f2 0F       		.byte	0xf
 1554 06f3 A301     		.2byte	0x1a3
 1555 06f5 17040000 		.4byte	0x417
 1556 06f9 04       		.byte	0x4
 1557 06fa 08       		.uleb128 0x8
 1558 06fb 88030000 		.4byte	.LASF111
 1559 06ff 0F       		.byte	0xf
 1560 0700 A401     		.2byte	0x1a4
 1561 0702 17040000 		.4byte	0x417
 1562 0706 08       		.byte	0x8
 1563 0707 08       		.uleb128 0x8
 1564 0708 1A000000 		.4byte	.LASF112
 1565 070c 0F       		.byte	0xf
 1566 070d A501     		.2byte	0x1a5
 1567 070f 17040000 		.4byte	0x417
 1568 0713 0C       		.byte	0xc
 1569 0714 07       		.uleb128 0x7
 1570 0715 535200   		.ascii	"SR\000"
 1571 0718 0F       		.byte	0xf
 1572 0719 A601     		.2byte	0x1a6
 1573 071b 17040000 		.4byte	0x417
 1574 071f 10       		.byte	0x10
 1575 0720 07       		.uleb128 0x7
 1576 0721 45475200 		.ascii	"EGR\000"
 1577 0725 0F       		.byte	0xf
 1578 0726 A701     		.2byte	0x1a7
 1579 0728 17040000 		.4byte	0x417
 1580 072c 14       		.byte	0x14
 1581 072d 08       		.uleb128 0x8
 1582 072e 14010000 		.4byte	.LASF113
 1583 0732 0F       		.byte	0xf
 1584 0733 A801     		.2byte	0x1a8
 1585 0735 17040000 		.4byte	0x417
 1586 0739 18       		.byte	0x18
 1587 073a 08       		.uleb128 0x8
 1588 073b 1A010000 		.4byte	.LASF114
 1589 073f 0F       		.byte	0xf
 1590 0740 A901     		.2byte	0x1a9
 1591 0742 17040000 		.4byte	0x417
 1592 0746 1C       		.byte	0x1c
 1593 0747 08       		.uleb128 0x8
 1594 0748 8D020000 		.4byte	.LASF115
 1595 074c 0F       		.byte	0xf
 1596 074d AA01     		.2byte	0x1aa
ARM GAS  /tmp/cc9MJEZf.s 			page 29


 1597 074f 17040000 		.4byte	0x417
 1598 0753 20       		.byte	0x20
 1599 0754 07       		.uleb128 0x7
 1600 0755 434E5400 		.ascii	"CNT\000"
 1601 0759 0F       		.byte	0xf
 1602 075a AB01     		.2byte	0x1ab
 1603 075c 17040000 		.4byte	0x417
 1604 0760 24       		.byte	0x24
 1605 0761 07       		.uleb128 0x7
 1606 0762 50534300 		.ascii	"PSC\000"
 1607 0766 0F       		.byte	0xf
 1608 0767 AC01     		.2byte	0x1ac
 1609 0769 17040000 		.4byte	0x417
 1610 076d 28       		.byte	0x28
 1611 076e 07       		.uleb128 0x7
 1612 076f 41525200 		.ascii	"ARR\000"
 1613 0773 0F       		.byte	0xf
 1614 0774 AD01     		.2byte	0x1ad
 1615 0776 17040000 		.4byte	0x417
 1616 077a 2C       		.byte	0x2c
 1617 077b 07       		.uleb128 0x7
 1618 077c 52435200 		.ascii	"RCR\000"
 1619 0780 0F       		.byte	0xf
 1620 0781 AE01     		.2byte	0x1ae
 1621 0783 17040000 		.4byte	0x417
 1622 0787 30       		.byte	0x30
 1623 0788 07       		.uleb128 0x7
 1624 0789 43435200 		.ascii	"CCR\000"
 1625 078d 0F       		.byte	0xf
 1626 078e AF01     		.2byte	0x1af
 1627 0790 E3070000 		.4byte	0x7e3
 1628 0794 34       		.byte	0x34
 1629 0795 08       		.uleb128 0x8
 1630 0796 EB000000 		.4byte	.LASF116
 1631 079a 0F       		.byte	0xf
 1632 079b B001     		.2byte	0x1b0
 1633 079d 17040000 		.4byte	0x417
 1634 07a1 44       		.byte	0x44
 1635 07a2 07       		.uleb128 0x7
 1636 07a3 44435200 		.ascii	"DCR\000"
 1637 07a7 0F       		.byte	0xf
 1638 07a8 B101     		.2byte	0x1b1
 1639 07aa 17040000 		.4byte	0x417
 1640 07ae 48       		.byte	0x48
 1641 07af 08       		.uleb128 0x8
 1642 07b0 D4060000 		.4byte	.LASF117
 1643 07b4 0F       		.byte	0xf
 1644 07b5 B201     		.2byte	0x1b2
 1645 07b7 17040000 		.4byte	0x417
 1646 07bb 4C       		.byte	0x4c
 1647 07bc 07       		.uleb128 0x7
 1648 07bd 4F5200   		.ascii	"OR\000"
 1649 07c0 0F       		.byte	0xf
 1650 07c1 B301     		.2byte	0x1b3
 1651 07c3 17040000 		.4byte	0x417
 1652 07c7 50       		.byte	0x50
 1653 07c8 08       		.uleb128 0x8
ARM GAS  /tmp/cc9MJEZf.s 			page 30


 1654 07c9 20010000 		.4byte	.LASF118
 1655 07cd 0F       		.byte	0xf
 1656 07ce B401     		.2byte	0x1b4
 1657 07d0 17040000 		.4byte	0x417
 1658 07d4 54       		.byte	0x54
 1659 07d5 08       		.uleb128 0x8
 1660 07d6 1E060000 		.4byte	.LASF119
 1661 07da 0F       		.byte	0xf
 1662 07db B501     		.2byte	0x1b5
 1663 07dd E8070000 		.4byte	0x7e8
 1664 07e1 58       		.byte	0x58
 1665 07e2 00       		.byte	0
 1666 07e3 0F       		.uleb128 0xf
 1667 07e4 2C040000 		.4byte	0x42c
 1668 07e8 0F       		.uleb128 0xf
 1669 07e9 1C040000 		.4byte	0x41c
 1670 07ed 1A       		.uleb128 0x1a
 1671 07ee CA030000 		.4byte	.LASF120
 1672 07f2 0F       		.byte	0xf
 1673 07f3 B601     		.2byte	0x1b6
 1674 07f5 D7060000 		.4byte	0x6d7
 1675 07f9 1A       		.uleb128 0x1a
 1676 07fa 42010000 		.4byte	.LASF121
 1677 07fe 0E       		.byte	0xe
 1678 07ff 5F01     		.2byte	0x15f
 1679 0801 BF000000 		.4byte	0xbf
 1680 0805 1A       		.uleb128 0x1a
 1681 0806 00000000 		.4byte	.LASF122
 1682 080a 0E       		.byte	0xe
 1683 080b 6401     		.2byte	0x164
 1684 080d 9E000000 		.4byte	0x9e
 1685 0811 1A       		.uleb128 0x1a
 1686 0812 B9050000 		.4byte	.LASF123
 1687 0816 0E       		.byte	0xe
 1688 0817 6901     		.2byte	0x169
 1689 0819 BF000000 		.4byte	0xbf
 1690 081d 1A       		.uleb128 0x1a
 1691 081e DE070000 		.4byte	.LASF124
 1692 0822 0E       		.byte	0xe
 1693 0823 6E01     		.2byte	0x16e
 1694 0825 BF000000 		.4byte	0xbf
 1695 0829 19       		.uleb128 0x19
 1696 082a 08       		.byte	0x8
 1697 082b 0E       		.byte	0xe
 1698 082c 7301     		.2byte	0x173
 1699 082e 4D080000 		.4byte	0x84d
 1700 0832 08       		.uleb128 0x8
 1701 0833 C8060000 		.4byte	.LASF125
 1702 0837 0E       		.byte	0xe
 1703 0838 7701     		.2byte	0x177
 1704 083a F9070000 		.4byte	0x7f9
 1705 083e 00       		.byte	0
 1706 083f 08       		.uleb128 0x8
 1707 0840 C1030000 		.4byte	.LASF126
 1708 0844 0E       		.byte	0xe
 1709 0845 7D01     		.2byte	0x17d
 1710 0847 B5060000 		.4byte	0x6b5
ARM GAS  /tmp/cc9MJEZf.s 			page 31


 1711 084b 04       		.byte	0x4
 1712 084c 00       		.byte	0
 1713 084d 1A       		.uleb128 0x1a
 1714 084e 53070000 		.4byte	.LASF127
 1715 0852 0E       		.byte	0xe
 1716 0853 7F01     		.2byte	0x17f
 1717 0855 29080000 		.4byte	0x829
 1718 0859 19       		.uleb128 0x19
 1719 085a 34       		.byte	0x34
 1720 085b 0E       		.byte	0xe
 1721 085c 8401     		.2byte	0x184
 1722 085e B1080000 		.4byte	0x8b1
 1723 0862 08       		.uleb128 0x8
 1724 0863 F0000000 		.4byte	.LASF128
 1725 0867 0E       		.byte	0xe
 1726 0868 8A01     		.2byte	0x18a
 1727 086a BF000000 		.4byte	0xbf
 1728 086e 00       		.byte	0
 1729 086f 08       		.uleb128 0x8
 1730 0870 33070000 		.4byte	.LASF106
 1731 0874 0E       		.byte	0xe
 1732 0875 9001     		.2byte	0x190
 1733 0877 1D080000 		.4byte	0x81d
 1734 087b 04       		.byte	0x4
 1735 087c 08       		.uleb128 0x8
 1736 087d C1030000 		.4byte	.LASF126
 1737 0881 0E       		.byte	0xe
 1738 0882 9601     		.2byte	0x196
 1739 0884 B5060000 		.4byte	0x6b5
 1740 0888 08       		.byte	0x8
 1741 0889 08       		.uleb128 0x8
 1742 088a 38020000 		.4byte	.LASF108
 1743 088e 0E       		.byte	0xe
 1744 088f 9A01     		.2byte	0x19a
 1745 0891 B1080000 		.4byte	0x8b1
 1746 0895 0C       		.byte	0xc
 1747 0896 07       		.uleb128 0x7
 1748 0897 63723200 		.ascii	"cr2\000"
 1749 089b 0E       		.byte	0xe
 1750 089c A001     		.2byte	0x1a0
 1751 089e BF000000 		.4byte	0xbf
 1752 08a2 2C       		.byte	0x2c
 1753 08a3 08       		.uleb128 0x8
 1754 08a4 4B080000 		.4byte	.LASF129
 1755 08a8 0E       		.byte	0xe
 1756 08a9 AD01     		.2byte	0x1ad
 1757 08ab BF000000 		.4byte	0xbf
 1758 08af 30       		.byte	0x30
 1759 08b0 00       		.byte	0
 1760 08b1 10       		.uleb128 0x10
 1761 08b2 4D080000 		.4byte	0x84d
 1762 08b6 C1080000 		.4byte	0x8c1
 1763 08ba 11       		.uleb128 0x11
 1764 08bb 10040000 		.4byte	0x410
 1765 08bf 03       		.byte	0x3
 1766 08c0 00       		.byte	0
 1767 08c1 1A       		.uleb128 0x1a
ARM GAS  /tmp/cc9MJEZf.s 			page 32


 1768 08c2 73070000 		.4byte	.LASF130
 1769 08c6 0E       		.byte	0xe
 1770 08c7 AE01     		.2byte	0x1ae
 1771 08c9 59080000 		.4byte	0x859
 1772 08cd 09       		.uleb128 0x9
 1773 08ce 04       		.byte	0x4
 1774 08cf D3080000 		.4byte	0x8d3
 1775 08d3 16       		.uleb128 0x16
 1776 08d4 C1080000 		.4byte	0x8c1
 1777 08d8 09       		.uleb128 0x9
 1778 08d9 04       		.byte	0x4
 1779 08da ED070000 		.4byte	0x7ed
 1780 08de 1B       		.uleb128 0x1b
 1781 08df 07070000 		.4byte	.LASF134
 1782 08e3 02       		.byte	0x2
 1783 08e4 2202     		.2byte	0x222
 1784 08e6 03       		.byte	0x3
 1785 08e7 F8080000 		.4byte	0x8f8
 1786 08eb 1C       		.uleb128 0x1c
 1787 08ec 11030000 		.4byte	.LASF163
 1788 08f0 02       		.byte	0x2
 1789 08f1 2202     		.2byte	0x222
 1790 08f3 BF000000 		.4byte	0xbf
 1791 08f7 00       		.byte	0
 1792 08f8 1D       		.uleb128 0x1d
 1793 08f9 6B000000 		.4byte	.LASF131
 1794 08fd 09       		.byte	0x9
 1795 08fe C801     		.2byte	0x1c8
 1796 0900 03       		.byte	0x3
 1797 0901 1D       		.uleb128 0x1d
 1798 0902 26020000 		.4byte	.LASF132
 1799 0906 09       		.byte	0x9
 1800 0907 E001     		.2byte	0x1e0
 1801 0909 03       		.byte	0x3
 1802 090a 1D       		.uleb128 0x1d
 1803 090b D6050000 		.4byte	.LASF133
 1804 090f 10       		.byte	0x10
 1805 0910 5A01     		.2byte	0x15a
 1806 0912 03       		.byte	0x3
 1807 0913 1B       		.uleb128 0x1b
 1808 0914 01080000 		.4byte	.LASF135
 1809 0918 10       		.byte	0x10
 1810 0919 6601     		.2byte	0x166
 1811 091b 03       		.byte	0x3
 1812 091c 2E090000 		.4byte	0x92e
 1813 0920 1E       		.uleb128 0x1e
 1814 0921 CD050000 		.4byte	.LASF143
 1815 0925 3E090000 		.4byte	0x93e
 1816 0929 01080000 		.4byte	.LASF135
 1817 092d 00       		.byte	0
 1818 092e 10       		.uleb128 0x10
 1819 092f EC050000 		.4byte	0x5ec
 1820 0933 3E090000 		.4byte	0x93e
 1821 0937 11       		.uleb128 0x11
 1822 0938 10040000 		.4byte	0x410
 1823 093c 0B       		.byte	0xb
 1824 093d 00       		.byte	0
ARM GAS  /tmp/cc9MJEZf.s 			page 33


 1825 093e 16       		.uleb128 0x16
 1826 093f 2E090000 		.4byte	0x92e
 1827 0943 1D       		.uleb128 0x1d
 1828 0944 FD020000 		.4byte	.LASF136
 1829 0948 11       		.byte	0x11
 1830 0949 EB01     		.2byte	0x1eb
 1831 094b 03       		.byte	0x3
 1832 094c 1D       		.uleb128 0x1d
 1833 094d EA050000 		.4byte	.LASF137
 1834 0951 11       		.byte	0x11
 1835 0952 F601     		.2byte	0x1f6
 1836 0954 03       		.byte	0x3
 1837 0955 1F       		.uleb128 0x1f
 1838 0956 85020000 		.4byte	.LASF138
 1839 095a 01       		.byte	0x1
 1840 095b 38       		.byte	0x38
 1841 095c 00000000 		.4byte	.LFB207
 1842 0960 04000000 		.4byte	.LFE207-.LFB207
 1843 0964 01       		.uleb128 0x1
 1844 0965 9C       		.byte	0x9c
 1845 0966 74090000 		.4byte	0x974
 1846 096a 20       		.uleb128 0x20
 1847 096b 04000000 		.4byte	.LVL0
 1848 096f E3120000 		.4byte	0x12e3
 1849 0973 00       		.byte	0
 1850 0974 1F       		.uleb128 0x1f
 1851 0975 A2040000 		.4byte	.LASF139
 1852 0979 01       		.byte	0x1
 1853 097a 44       		.byte	0x44
 1854 097b 00000000 		.4byte	.LFB208
 1855 097f 0E000000 		.4byte	.LFE208-.LFB208
 1856 0983 01       		.uleb128 0x1
 1857 0984 9C       		.byte	0x9c
 1858 0985 97090000 		.4byte	0x997
 1859 0989 21       		.uleb128 0x21
 1860 098a 1F040000 		.4byte	.LASF141
 1861 098e 01       		.byte	0x1
 1862 098f 44       		.byte	0x44
 1863 0990 D1060000 		.4byte	0x6d1
 1864 0994 01       		.uleb128 0x1
 1865 0995 50       		.byte	0x50
 1866 0996 00       		.byte	0
 1867 0997 1F       		.uleb128 0x1f
 1868 0998 0B010000 		.4byte	.LASF140
 1869 099c 01       		.byte	0x1
 1870 099d 59       		.byte	0x59
 1871 099e 00000000 		.4byte	.LFB209
 1872 09a2 22000000 		.4byte	.LFE209-.LFB209
 1873 09a6 01       		.uleb128 0x1
 1874 09a7 9C       		.byte	0x9c
 1875 09a8 8D0A0000 		.4byte	0xa8d
 1876 09ac 22       		.uleb128 0x22
 1877 09ad 1F040000 		.4byte	.LASF141
 1878 09b1 01       		.byte	0x1
 1879 09b2 59       		.byte	0x59
 1880 09b3 D1060000 		.4byte	0x6d1
 1881 09b7 00000000 		.4byte	.LLST0
ARM GAS  /tmp/cc9MJEZf.s 			page 34


 1882 09bb 22       		.uleb128 0x22
 1883 09bc CD060000 		.4byte	.LASF105
 1884 09c0 01       		.byte	0x1
 1885 09c1 59       		.byte	0x59
 1886 09c2 CD080000 		.4byte	0x8cd
 1887 09c6 1E000000 		.4byte	.LLST1
 1888 09ca 23       		.uleb128 0x23
 1889 09cb CD050000 		.4byte	.LASF143
 1890 09cf 9D0A0000 		.4byte	0xa9d
 1891 09d3 24       		.uleb128 0x24
 1892 09d4 43090000 		.4byte	0x943
 1893 09d8 02000000 		.4byte	.LBB141
 1894 09dc 00000000 		.4byte	.Ldebug_ranges0+0
 1895 09e0 01       		.byte	0x1
 1896 09e1 5D       		.byte	0x5d
 1897 09e2 200A0000 		.4byte	0xa20
 1898 09e6 25       		.uleb128 0x25
 1899 09e7 0A090000 		.4byte	0x90a
 1900 09eb 02000000 		.4byte	.LBB142
 1901 09ef 00000000 		.4byte	.Ldebug_ranges0+0
 1902 09f3 11       		.byte	0x11
 1903 09f4 ED01     		.2byte	0x1ed
 1904 09f6 25       		.uleb128 0x25
 1905 09f7 F8080000 		.4byte	0x8f8
 1906 09fb 02000000 		.4byte	.LBB143
 1907 09ff 00000000 		.4byte	.Ldebug_ranges0+0
 1908 0a03 10       		.byte	0x10
 1909 0a04 5C01     		.2byte	0x15c
 1910 0a06 25       		.uleb128 0x25
 1911 0a07 DE080000 		.4byte	0x8de
 1912 0a0b 02000000 		.4byte	.LBB144
 1913 0a0f 00000000 		.4byte	.Ldebug_ranges0+0
 1914 0a13 09       		.byte	0x9
 1915 0a14 D001     		.2byte	0x1d0
 1916 0a16 26       		.uleb128 0x26
 1917 0a17 EB080000 		.4byte	0x8eb
 1918 0a1b 20       		.byte	0x20
 1919 0a1c 00       		.byte	0
 1920 0a1d 00       		.byte	0
 1921 0a1e 00       		.byte	0
 1922 0a1f 00       		.byte	0
 1923 0a20 27       		.uleb128 0x27
 1924 0a21 4C090000 		.4byte	0x94c
 1925 0a25 1C000000 		.4byte	.LBB151
 1926 0a29 06000000 		.4byte	.LBE151-.LBB151
 1927 0a2d 01       		.byte	0x1
 1928 0a2e 65       		.byte	0x65
 1929 0a2f 7C0A0000 		.4byte	0xa7c
 1930 0a33 28       		.uleb128 0x28
 1931 0a34 13090000 		.4byte	0x913
 1932 0a38 1C000000 		.4byte	.LBB152
 1933 0a3c 06000000 		.4byte	.LBE152-.LBB152
 1934 0a40 11       		.byte	0x11
 1935 0a41 F801     		.2byte	0x1f8
 1936 0a43 29       		.uleb128 0x29
 1937 0a44 1C000000 		.4byte	.LBB153
 1938 0a48 06000000 		.4byte	.LBE153-.LBB153
ARM GAS  /tmp/cc9MJEZf.s 			page 35


 1939 0a4c 2A       		.uleb128 0x2a
 1940 0a4d 20090000 		.4byte	0x920
 1941 0a51 28       		.uleb128 0x28
 1942 0a52 01090000 		.4byte	0x901
 1943 0a56 1C000000 		.4byte	.LBB154
 1944 0a5a 06000000 		.4byte	.LBE154-.LBB154
 1945 0a5e 10       		.byte	0x10
 1946 0a5f 7301     		.2byte	0x173
 1947 0a61 28       		.uleb128 0x28
 1948 0a62 DE080000 		.4byte	0x8de
 1949 0a66 1C000000 		.4byte	.LBB155
 1950 0a6a 06000000 		.4byte	.LBE155-.LBB155
 1951 0a6e 09       		.byte	0x9
 1952 0a6f E301     		.2byte	0x1e3
 1953 0a71 26       		.uleb128 0x26
 1954 0a72 EB080000 		.4byte	0x8eb
 1955 0a76 00       		.byte	0
 1956 0a77 00       		.byte	0
 1957 0a78 00       		.byte	0
 1958 0a79 00       		.byte	0
 1959 0a7a 00       		.byte	0
 1960 0a7b 00       		.byte	0
 1961 0a7c 2B       		.uleb128 0x2b
 1962 0a7d 14000000 		.4byte	.LVL3
 1963 0a81 EB120000 		.4byte	0x12eb
 1964 0a85 2C       		.uleb128 0x2c
 1965 0a86 01       		.uleb128 0x1
 1966 0a87 50       		.byte	0x50
 1967 0a88 02       		.uleb128 0x2
 1968 0a89 74       		.byte	0x74
 1969 0a8a 00       		.sleb128 0
 1970 0a8b 00       		.byte	0
 1971 0a8c 00       		.byte	0
 1972 0a8d 10       		.uleb128 0x10
 1973 0a8e EC050000 		.4byte	0x5ec
 1974 0a92 9D0A0000 		.4byte	0xa9d
 1975 0a96 11       		.uleb128 0x11
 1976 0a97 10040000 		.4byte	0x410
 1977 0a9b 08       		.byte	0x8
 1978 0a9c 00       		.byte	0
 1979 0a9d 16       		.uleb128 0x16
 1980 0a9e 8D0A0000 		.4byte	0xa8d
 1981 0aa2 1F       		.uleb128 0x1f
 1982 0aa3 48040000 		.4byte	.LASF142
 1983 0aa7 01       		.byte	0x1
 1984 0aa8 6F       		.byte	0x6f
 1985 0aa9 00000000 		.4byte	.LFB210
 1986 0aad 1C000000 		.4byte	.LFE210-.LFB210
 1987 0ab1 01       		.uleb128 0x1
 1988 0ab2 9C       		.byte	0x9c
 1989 0ab3 890B0000 		.4byte	0xb89
 1990 0ab7 22       		.uleb128 0x22
 1991 0ab8 1F040000 		.4byte	.LASF141
 1992 0abc 01       		.byte	0x1
 1993 0abd 6F       		.byte	0x6f
 1994 0abe D1060000 		.4byte	0x6d1
 1995 0ac2 3F000000 		.4byte	.LLST2
ARM GAS  /tmp/cc9MJEZf.s 			page 36


 1996 0ac6 23       		.uleb128 0x23
 1997 0ac7 CD050000 		.4byte	.LASF143
 1998 0acb 990B0000 		.4byte	0xb99
 1999 0acf 24       		.uleb128 0x24
 2000 0ad0 43090000 		.4byte	0x943
 2001 0ad4 02000000 		.4byte	.LBB157
 2002 0ad8 18000000 		.4byte	.Ldebug_ranges0+0x18
 2003 0adc 01       		.byte	0x1
 2004 0add 73       		.byte	0x73
 2005 0ade 1C0B0000 		.4byte	0xb1c
 2006 0ae2 25       		.uleb128 0x25
 2007 0ae3 0A090000 		.4byte	0x90a
 2008 0ae7 02000000 		.4byte	.LBB158
 2009 0aeb 18000000 		.4byte	.Ldebug_ranges0+0x18
 2010 0aef 11       		.byte	0x11
 2011 0af0 ED01     		.2byte	0x1ed
 2012 0af2 25       		.uleb128 0x25
 2013 0af3 F8080000 		.4byte	0x8f8
 2014 0af7 02000000 		.4byte	.LBB159
 2015 0afb 18000000 		.4byte	.Ldebug_ranges0+0x18
 2016 0aff 10       		.byte	0x10
 2017 0b00 5C01     		.2byte	0x15c
 2018 0b02 25       		.uleb128 0x25
 2019 0b03 DE080000 		.4byte	0x8de
 2020 0b07 02000000 		.4byte	.LBB160
 2021 0b0b 18000000 		.4byte	.Ldebug_ranges0+0x18
 2022 0b0f 09       		.byte	0x9
 2023 0b10 D001     		.2byte	0x1d0
 2024 0b12 26       		.uleb128 0x26
 2025 0b13 EB080000 		.4byte	0x8eb
 2026 0b17 20       		.byte	0x20
 2027 0b18 00       		.byte	0
 2028 0b19 00       		.byte	0
 2029 0b1a 00       		.byte	0
 2030 0b1b 00       		.byte	0
 2031 0b1c 27       		.uleb128 0x27
 2032 0b1d 4C090000 		.4byte	0x94c
 2033 0b21 16000000 		.4byte	.LBB167
 2034 0b25 06000000 		.4byte	.LBE167-.LBB167
 2035 0b29 01       		.byte	0x1
 2036 0b2a 79       		.byte	0x79
 2037 0b2b 780B0000 		.4byte	0xb78
 2038 0b2f 28       		.uleb128 0x28
 2039 0b30 13090000 		.4byte	0x913
 2040 0b34 16000000 		.4byte	.LBB168
 2041 0b38 06000000 		.4byte	.LBE168-.LBB168
 2042 0b3c 11       		.byte	0x11
 2043 0b3d F801     		.2byte	0x1f8
 2044 0b3f 29       		.uleb128 0x29
 2045 0b40 16000000 		.4byte	.LBB169
 2046 0b44 06000000 		.4byte	.LBE169-.LBB169
 2047 0b48 2A       		.uleb128 0x2a
 2048 0b49 20090000 		.4byte	0x920
 2049 0b4d 28       		.uleb128 0x28
 2050 0b4e 01090000 		.4byte	0x901
 2051 0b52 16000000 		.4byte	.LBB170
 2052 0b56 06000000 		.4byte	.LBE170-.LBB170
ARM GAS  /tmp/cc9MJEZf.s 			page 37


 2053 0b5a 10       		.byte	0x10
 2054 0b5b 7301     		.2byte	0x173
 2055 0b5d 28       		.uleb128 0x28
 2056 0b5e DE080000 		.4byte	0x8de
 2057 0b62 16000000 		.4byte	.LBB171
 2058 0b66 06000000 		.4byte	.LBE171-.LBB171
 2059 0b6a 09       		.byte	0x9
 2060 0b6b E301     		.2byte	0x1e3
 2061 0b6d 26       		.uleb128 0x26
 2062 0b6e EB080000 		.4byte	0x8eb
 2063 0b72 00       		.byte	0
 2064 0b73 00       		.byte	0
 2065 0b74 00       		.byte	0
 2066 0b75 00       		.byte	0
 2067 0b76 00       		.byte	0
 2068 0b77 00       		.byte	0
 2069 0b78 2B       		.uleb128 0x2b
 2070 0b79 0E000000 		.4byte	.LVL6
 2071 0b7d FD120000 		.4byte	0x12fd
 2072 0b81 2C       		.uleb128 0x2c
 2073 0b82 01       		.uleb128 0x1
 2074 0b83 50       		.byte	0x50
 2075 0b84 02       		.uleb128 0x2
 2076 0b85 74       		.byte	0x74
 2077 0b86 00       		.sleb128 0
 2078 0b87 00       		.byte	0
 2079 0b88 00       		.byte	0
 2080 0b89 10       		.uleb128 0x10
 2081 0b8a EC050000 		.4byte	0x5ec
 2082 0b8e 990B0000 		.4byte	0xb99
 2083 0b92 11       		.uleb128 0x11
 2084 0b93 10040000 		.4byte	0x410
 2085 0b97 07       		.byte	0x7
 2086 0b98 00       		.byte	0
 2087 0b99 16       		.uleb128 0x16
 2088 0b9a 890B0000 		.4byte	0xb89
 2089 0b9e 1F       		.uleb128 0x1f
 2090 0b9f 32010000 		.4byte	.LASF144
 2091 0ba3 01       		.byte	0x1
 2092 0ba4 8B       		.byte	0x8b
 2093 0ba5 00000000 		.4byte	.LFB211
 2094 0ba9 1C000000 		.4byte	.LFE211-.LFB211
 2095 0bad 01       		.uleb128 0x1
 2096 0bae 9C       		.byte	0x9c
 2097 0baf 780C0000 		.4byte	0xc78
 2098 0bb3 21       		.uleb128 0x21
 2099 0bb4 1F040000 		.4byte	.LASF141
 2100 0bb8 01       		.byte	0x1
 2101 0bb9 8B       		.byte	0x8b
 2102 0bba D1060000 		.4byte	0x6d1
 2103 0bbe 01       		.uleb128 0x1
 2104 0bbf 50       		.byte	0x50
 2105 0bc0 21       		.uleb128 0x21
 2106 0bc1 33070000 		.4byte	.LASF106
 2107 0bc5 01       		.byte	0x1
 2108 0bc6 8B       		.byte	0x8b
 2109 0bc7 1D080000 		.4byte	0x81d
ARM GAS  /tmp/cc9MJEZf.s 			page 38


 2110 0bcb 01       		.uleb128 0x1
 2111 0bcc 51       		.byte	0x51
 2112 0bcd 23       		.uleb128 0x23
 2113 0bce CD050000 		.4byte	.LASF143
 2114 0bd2 880C0000 		.4byte	0xc88
 2115 0bd6 27       		.uleb128 0x27
 2116 0bd7 43090000 		.4byte	0x943
 2117 0bdb 02000000 		.4byte	.LBB173
 2118 0bdf 06000000 		.4byte	.LBE173-.LBB173
 2119 0be3 01       		.byte	0x1
 2120 0be4 8F       		.byte	0x8f
 2121 0be5 230C0000 		.4byte	0xc23
 2122 0be9 28       		.uleb128 0x28
 2123 0bea 0A090000 		.4byte	0x90a
 2124 0bee 02000000 		.4byte	.LBB174
 2125 0bf2 06000000 		.4byte	.LBE174-.LBB174
 2126 0bf6 11       		.byte	0x11
 2127 0bf7 ED01     		.2byte	0x1ed
 2128 0bf9 28       		.uleb128 0x28
 2129 0bfa F8080000 		.4byte	0x8f8
 2130 0bfe 02000000 		.4byte	.LBB175
 2131 0c02 06000000 		.4byte	.LBE175-.LBB175
 2132 0c06 10       		.byte	0x10
 2133 0c07 5C01     		.2byte	0x15c
 2134 0c09 28       		.uleb128 0x28
 2135 0c0a DE080000 		.4byte	0x8de
 2136 0c0e 02000000 		.4byte	.LBB176
 2137 0c12 06000000 		.4byte	.LBE176-.LBB176
 2138 0c16 09       		.byte	0x9
 2139 0c17 D001     		.2byte	0x1d0
 2140 0c19 26       		.uleb128 0x26
 2141 0c1a EB080000 		.4byte	0x8eb
 2142 0c1e 20       		.byte	0x20
 2143 0c1f 00       		.byte	0
 2144 0c20 00       		.byte	0
 2145 0c21 00       		.byte	0
 2146 0c22 00       		.byte	0
 2147 0c23 2D       		.uleb128 0x2d
 2148 0c24 4C090000 		.4byte	0x94c
 2149 0c28 0E000000 		.4byte	.LBB178
 2150 0c2c 30000000 		.4byte	.Ldebug_ranges0+0x30
 2151 0c30 01       		.byte	0x1
 2152 0c31 92       		.byte	0x92
 2153 0c32 25       		.uleb128 0x25
 2154 0c33 13090000 		.4byte	0x913
 2155 0c37 0E000000 		.4byte	.LBB179
 2156 0c3b 30000000 		.4byte	.Ldebug_ranges0+0x30
 2157 0c3f 11       		.byte	0x11
 2158 0c40 F801     		.2byte	0x1f8
 2159 0c42 2E       		.uleb128 0x2e
 2160 0c43 30000000 		.4byte	.Ldebug_ranges0+0x30
 2161 0c47 2A       		.uleb128 0x2a
 2162 0c48 20090000 		.4byte	0x920
 2163 0c4c 25       		.uleb128 0x25
 2164 0c4d 01090000 		.4byte	0x901
 2165 0c51 0E000000 		.4byte	.LBB181
 2166 0c55 30000000 		.4byte	.Ldebug_ranges0+0x30
ARM GAS  /tmp/cc9MJEZf.s 			page 39


 2167 0c59 10       		.byte	0x10
 2168 0c5a 7301     		.2byte	0x173
 2169 0c5c 25       		.uleb128 0x25
 2170 0c5d DE080000 		.4byte	0x8de
 2171 0c61 0E000000 		.4byte	.LBB182
 2172 0c65 30000000 		.4byte	.Ldebug_ranges0+0x30
 2173 0c69 09       		.byte	0x9
 2174 0c6a E301     		.2byte	0x1e3
 2175 0c6c 26       		.uleb128 0x26
 2176 0c6d EB080000 		.4byte	0x8eb
 2177 0c71 00       		.byte	0
 2178 0c72 00       		.byte	0
 2179 0c73 00       		.byte	0
 2180 0c74 00       		.byte	0
 2181 0c75 00       		.byte	0
 2182 0c76 00       		.byte	0
 2183 0c77 00       		.byte	0
 2184 0c78 10       		.uleb128 0x10
 2185 0c79 EC050000 		.4byte	0x5ec
 2186 0c7d 880C0000 		.4byte	0xc88
 2187 0c81 11       		.uleb128 0x11
 2188 0c82 10040000 		.4byte	0x410
 2189 0c86 0F       		.byte	0xf
 2190 0c87 00       		.byte	0
 2191 0c88 16       		.uleb128 0x16
 2192 0c89 780C0000 		.4byte	0xc78
 2193 0c8d 1F       		.uleb128 0x1f
 2194 0c8e 2C080000 		.4byte	.LASF145
 2195 0c92 01       		.byte	0x1
 2196 0c93 A3       		.byte	0xa3
 2197 0c94 00000000 		.4byte	.LFB212
 2198 0c98 1E000000 		.4byte	.LFE212-.LFB212
 2199 0c9c 01       		.uleb128 0x1
 2200 0c9d 9C       		.byte	0x9c
 2201 0c9e 9A0D0000 		.4byte	0xd9a
 2202 0ca2 22       		.uleb128 0x22
 2203 0ca3 1F040000 		.4byte	.LASF141
 2204 0ca7 01       		.byte	0x1
 2205 0ca8 A3       		.byte	0xa3
 2206 0ca9 D1060000 		.4byte	0x6d1
 2207 0cad 5D000000 		.4byte	.LLST3
 2208 0cb1 22       		.uleb128 0x22
 2209 0cb2 F8050000 		.4byte	.LASF146
 2210 0cb6 01       		.byte	0x1
 2211 0cb7 A4       		.byte	0xa4
 2212 0cb8 05080000 		.4byte	0x805
 2213 0cbc 7E000000 		.4byte	.LLST4
 2214 0cc0 22       		.uleb128 0x22
 2215 0cc1 82030000 		.4byte	.LASF147
 2216 0cc5 01       		.byte	0x1
 2217 0cc6 A5       		.byte	0xa5
 2218 0cc7 1D080000 		.4byte	0x81d
 2219 0ccb 9F000000 		.4byte	.LLST5
 2220 0ccf 23       		.uleb128 0x23
 2221 0cd0 CD050000 		.4byte	.LASF143
 2222 0cd4 AA0D0000 		.4byte	0xdaa
 2223 0cd8 27       		.uleb128 0x27
ARM GAS  /tmp/cc9MJEZf.s 			page 40


 2224 0cd9 43090000 		.4byte	0x943
 2225 0cdd 02000000 		.4byte	.LBB190
 2226 0ce1 06000000 		.4byte	.LBE190-.LBB190
 2227 0ce5 01       		.byte	0x1
 2228 0ce6 A9       		.byte	0xa9
 2229 0ce7 250D0000 		.4byte	0xd25
 2230 0ceb 28       		.uleb128 0x28
 2231 0cec 0A090000 		.4byte	0x90a
 2232 0cf0 02000000 		.4byte	.LBB191
 2233 0cf4 06000000 		.4byte	.LBE191-.LBB191
 2234 0cf8 11       		.byte	0x11
 2235 0cf9 ED01     		.2byte	0x1ed
 2236 0cfb 28       		.uleb128 0x28
 2237 0cfc F8080000 		.4byte	0x8f8
 2238 0d00 02000000 		.4byte	.LBB192
 2239 0d04 06000000 		.4byte	.LBE192-.LBB192
 2240 0d08 10       		.byte	0x10
 2241 0d09 5C01     		.2byte	0x15c
 2242 0d0b 28       		.uleb128 0x28
 2243 0d0c DE080000 		.4byte	0x8de
 2244 0d10 02000000 		.4byte	.LBB193
 2245 0d14 06000000 		.4byte	.LBE193-.LBB193
 2246 0d18 09       		.byte	0x9
 2247 0d19 D001     		.2byte	0x1d0
 2248 0d1b 26       		.uleb128 0x26
 2249 0d1c EB080000 		.4byte	0x8eb
 2250 0d20 20       		.byte	0x20
 2251 0d21 00       		.byte	0
 2252 0d22 00       		.byte	0
 2253 0d23 00       		.byte	0
 2254 0d24 00       		.byte	0
 2255 0d25 27       		.uleb128 0x27
 2256 0d26 4C090000 		.4byte	0x94c
 2257 0d2a 16000000 		.4byte	.LBB195
 2258 0d2e 08000000 		.4byte	.LBE195-.LBB195
 2259 0d32 01       		.byte	0x1
 2260 0d33 AF       		.byte	0xaf
 2261 0d34 810D0000 		.4byte	0xd81
 2262 0d38 28       		.uleb128 0x28
 2263 0d39 13090000 		.4byte	0x913
 2264 0d3d 16000000 		.4byte	.LBB196
 2265 0d41 08000000 		.4byte	.LBE196-.LBB196
 2266 0d45 11       		.byte	0x11
 2267 0d46 F801     		.2byte	0x1f8
 2268 0d48 29       		.uleb128 0x29
 2269 0d49 16000000 		.4byte	.LBB197
 2270 0d4d 08000000 		.4byte	.LBE197-.LBB197
 2271 0d51 2A       		.uleb128 0x2a
 2272 0d52 20090000 		.4byte	0x920
 2273 0d56 28       		.uleb128 0x28
 2274 0d57 01090000 		.4byte	0x901
 2275 0d5b 16000000 		.4byte	.LBB198
 2276 0d5f 08000000 		.4byte	.LBE198-.LBB198
 2277 0d63 10       		.byte	0x10
 2278 0d64 7301     		.2byte	0x173
 2279 0d66 28       		.uleb128 0x28
 2280 0d67 DE080000 		.4byte	0x8de
ARM GAS  /tmp/cc9MJEZf.s 			page 41


 2281 0d6b 16000000 		.4byte	.LBB199
 2282 0d6f 08000000 		.4byte	.LBE199-.LBB199
 2283 0d73 09       		.byte	0x9
 2284 0d74 E301     		.2byte	0x1e3
 2285 0d76 26       		.uleb128 0x26
 2286 0d77 EB080000 		.4byte	0x8eb
 2287 0d7b 00       		.byte	0
 2288 0d7c 00       		.byte	0
 2289 0d7d 00       		.byte	0
 2290 0d7e 00       		.byte	0
 2291 0d7f 00       		.byte	0
 2292 0d80 00       		.byte	0
 2293 0d81 2B       		.uleb128 0x2b
 2294 0d82 16000000 		.4byte	.LVL11
 2295 0d86 0F130000 		.4byte	0x130f
 2296 0d8a 2C       		.uleb128 0x2c
 2297 0d8b 01       		.uleb128 0x1
 2298 0d8c 52       		.byte	0x52
 2299 0d8d 03       		.uleb128 0x3
 2300 0d8e F3       		.byte	0xf3
 2301 0d8f 01       		.uleb128 0x1
 2302 0d90 52       		.byte	0x52
 2303 0d91 2C       		.uleb128 0x2c
 2304 0d92 01       		.uleb128 0x1
 2305 0d93 50       		.byte	0x50
 2306 0d94 03       		.uleb128 0x3
 2307 0d95 F3       		.byte	0xf3
 2308 0d96 01       		.uleb128 0x1
 2309 0d97 50       		.byte	0x50
 2310 0d98 00       		.byte	0
 2311 0d99 00       		.byte	0
 2312 0d9a 10       		.uleb128 0x10
 2313 0d9b EC050000 		.4byte	0x5ec
 2314 0d9f AA0D0000 		.4byte	0xdaa
 2315 0da3 11       		.uleb128 0x11
 2316 0da4 10040000 		.4byte	0x410
 2317 0da8 10       		.byte	0x10
 2318 0da9 00       		.byte	0
 2319 0daa 16       		.uleb128 0x16
 2320 0dab 9A0D0000 		.4byte	0xd9a
 2321 0daf 1F       		.uleb128 0x1f
 2322 0db0 A3030000 		.4byte	.LASF148
 2323 0db4 01       		.byte	0x1
 2324 0db5 C0       		.byte	0xc0
 2325 0db6 00000000 		.4byte	.LFB213
 2326 0dba 20000000 		.4byte	.LFE213-.LFB213
 2327 0dbe 01       		.uleb128 0x1
 2328 0dbf 9C       		.byte	0x9c
 2329 0dc0 A60E0000 		.4byte	0xea6
 2330 0dc4 22       		.uleb128 0x22
 2331 0dc5 1F040000 		.4byte	.LASF141
 2332 0dc9 01       		.byte	0x1
 2333 0dca C0       		.byte	0xc0
 2334 0dcb D1060000 		.4byte	0x6d1
 2335 0dcf C0000000 		.4byte	.LLST6
 2336 0dd3 22       		.uleb128 0x22
 2337 0dd4 F8050000 		.4byte	.LASF146
ARM GAS  /tmp/cc9MJEZf.s 			page 42


 2338 0dd8 01       		.byte	0x1
 2339 0dd9 C0       		.byte	0xc0
 2340 0dda 05080000 		.4byte	0x805
 2341 0dde E1000000 		.4byte	.LLST7
 2342 0de2 23       		.uleb128 0x23
 2343 0de3 CD050000 		.4byte	.LASF143
 2344 0de7 B60E0000 		.4byte	0xeb6
 2345 0deb 27       		.uleb128 0x27
 2346 0dec 43090000 		.4byte	0x943
 2347 0df0 02000000 		.4byte	.LBB201
 2348 0df4 06000000 		.4byte	.LBE201-.LBB201
 2349 0df8 01       		.byte	0x1
 2350 0df9 C4       		.byte	0xc4
 2351 0dfa 380E0000 		.4byte	0xe38
 2352 0dfe 28       		.uleb128 0x28
 2353 0dff 0A090000 		.4byte	0x90a
 2354 0e03 02000000 		.4byte	.LBB202
 2355 0e07 06000000 		.4byte	.LBE202-.LBB202
 2356 0e0b 11       		.byte	0x11
 2357 0e0c ED01     		.2byte	0x1ed
 2358 0e0e 28       		.uleb128 0x28
 2359 0e0f F8080000 		.4byte	0x8f8
 2360 0e13 02000000 		.4byte	.LBB203
 2361 0e17 06000000 		.4byte	.LBE203-.LBB203
 2362 0e1b 10       		.byte	0x10
 2363 0e1c 5C01     		.2byte	0x15c
 2364 0e1e 28       		.uleb128 0x28
 2365 0e1f DE080000 		.4byte	0x8de
 2366 0e23 02000000 		.4byte	.LBB204
 2367 0e27 06000000 		.4byte	.LBE204-.LBB204
 2368 0e2b 09       		.byte	0x9
 2369 0e2c D001     		.2byte	0x1d0
 2370 0e2e 26       		.uleb128 0x26
 2371 0e2f EB080000 		.4byte	0x8eb
 2372 0e33 20       		.byte	0x20
 2373 0e34 00       		.byte	0
 2374 0e35 00       		.byte	0
 2375 0e36 00       		.byte	0
 2376 0e37 00       		.byte	0
 2377 0e38 27       		.uleb128 0x27
 2378 0e39 4C090000 		.4byte	0x94c
 2379 0e3d 18000000 		.4byte	.LBB206
 2380 0e41 08000000 		.4byte	.LBE206-.LBB206
 2381 0e45 01       		.byte	0x1
 2382 0e46 CA       		.byte	0xca
 2383 0e47 940E0000 		.4byte	0xe94
 2384 0e4b 28       		.uleb128 0x28
 2385 0e4c 13090000 		.4byte	0x913
 2386 0e50 18000000 		.4byte	.LBB207
 2387 0e54 08000000 		.4byte	.LBE207-.LBB207
 2388 0e58 11       		.byte	0x11
 2389 0e59 F801     		.2byte	0x1f8
 2390 0e5b 29       		.uleb128 0x29
 2391 0e5c 18000000 		.4byte	.LBB208
 2392 0e60 08000000 		.4byte	.LBE208-.LBB208
 2393 0e64 2A       		.uleb128 0x2a
 2394 0e65 20090000 		.4byte	0x920
ARM GAS  /tmp/cc9MJEZf.s 			page 43


 2395 0e69 28       		.uleb128 0x28
 2396 0e6a 01090000 		.4byte	0x901
 2397 0e6e 18000000 		.4byte	.LBB209
 2398 0e72 08000000 		.4byte	.LBE209-.LBB209
 2399 0e76 10       		.byte	0x10
 2400 0e77 7301     		.2byte	0x173
 2401 0e79 28       		.uleb128 0x28
 2402 0e7a DE080000 		.4byte	0x8de
 2403 0e7e 18000000 		.4byte	.LBB210
 2404 0e82 08000000 		.4byte	.LBE210-.LBB210
 2405 0e86 09       		.byte	0x9
 2406 0e87 E301     		.2byte	0x1e3
 2407 0e89 26       		.uleb128 0x26
 2408 0e8a EB080000 		.4byte	0x8eb
 2409 0e8e 00       		.byte	0
 2410 0e8f 00       		.byte	0
 2411 0e90 00       		.byte	0
 2412 0e91 00       		.byte	0
 2413 0e92 00       		.byte	0
 2414 0e93 00       		.byte	0
 2415 0e94 2B       		.uleb128 0x2b
 2416 0e95 18000000 		.4byte	.LVL13
 2417 0e99 2B130000 		.4byte	0x132b
 2418 0e9d 2C       		.uleb128 0x2c
 2419 0e9e 01       		.uleb128 0x1
 2420 0e9f 50       		.byte	0x50
 2421 0ea0 03       		.uleb128 0x3
 2422 0ea1 F3       		.byte	0xf3
 2423 0ea2 01       		.uleb128 0x1
 2424 0ea3 50       		.byte	0x50
 2425 0ea4 00       		.byte	0
 2426 0ea5 00       		.byte	0
 2427 0ea6 10       		.uleb128 0x10
 2428 0ea7 EC050000 		.4byte	0x5ec
 2429 0eab B60E0000 		.4byte	0xeb6
 2430 0eaf 11       		.uleb128 0x11
 2431 0eb0 10040000 		.4byte	0x410
 2432 0eb4 11       		.byte	0x11
 2433 0eb5 00       		.byte	0
 2434 0eb6 16       		.uleb128 0x16
 2435 0eb7 A60E0000 		.4byte	0xea6
 2436 0ebb 1F       		.uleb128 0x1f
 2437 0ebc 15070000 		.4byte	.LASF149
 2438 0ec0 01       		.byte	0x1
 2439 0ec1 D6       		.byte	0xd6
 2440 0ec2 00000000 		.4byte	.LFB214
 2441 0ec6 14000000 		.4byte	.LFE214-.LFB214
 2442 0eca 01       		.uleb128 0x1
 2443 0ecb 9C       		.byte	0x9c
 2444 0ecc A30F0000 		.4byte	0xfa3
 2445 0ed0 22       		.uleb128 0x22
 2446 0ed1 1F040000 		.4byte	.LASF141
 2447 0ed5 01       		.byte	0x1
 2448 0ed6 D6       		.byte	0xd6
 2449 0ed7 D1060000 		.4byte	0x6d1
 2450 0edb 02010000 		.4byte	.LLST8
 2451 0edf 23       		.uleb128 0x23
ARM GAS  /tmp/cc9MJEZf.s 			page 44


 2452 0ee0 CD050000 		.4byte	.LASF143
 2453 0ee4 B30F0000 		.4byte	0xfb3
 2454 0ee8 27       		.uleb128 0x27
 2455 0ee9 43090000 		.4byte	0x943
 2456 0eed 02000000 		.4byte	.LBB212
 2457 0ef1 06000000 		.4byte	.LBE212-.LBB212
 2458 0ef5 01       		.byte	0x1
 2459 0ef6 DA       		.byte	0xda
 2460 0ef7 350F0000 		.4byte	0xf35
 2461 0efb 28       		.uleb128 0x28
 2462 0efc 0A090000 		.4byte	0x90a
 2463 0f00 02000000 		.4byte	.LBB213
 2464 0f04 06000000 		.4byte	.LBE213-.LBB213
 2465 0f08 11       		.byte	0x11
 2466 0f09 ED01     		.2byte	0x1ed
 2467 0f0b 28       		.uleb128 0x28
 2468 0f0c F8080000 		.4byte	0x8f8
 2469 0f10 02000000 		.4byte	.LBB214
 2470 0f14 06000000 		.4byte	.LBE214-.LBB214
 2471 0f18 10       		.byte	0x10
 2472 0f19 5C01     		.2byte	0x15c
 2473 0f1b 28       		.uleb128 0x28
 2474 0f1c DE080000 		.4byte	0x8de
 2475 0f20 02000000 		.4byte	.LBB215
 2476 0f24 06000000 		.4byte	.LBE215-.LBB215
 2477 0f28 09       		.byte	0x9
 2478 0f29 D001     		.2byte	0x1d0
 2479 0f2b 26       		.uleb128 0x26
 2480 0f2c EB080000 		.4byte	0x8eb
 2481 0f30 20       		.byte	0x20
 2482 0f31 00       		.byte	0
 2483 0f32 00       		.byte	0
 2484 0f33 00       		.byte	0
 2485 0f34 00       		.byte	0
 2486 0f35 27       		.uleb128 0x27
 2487 0f36 4C090000 		.4byte	0x94c
 2488 0f3a 0C000000 		.4byte	.LBB217
 2489 0f3e 08000000 		.4byte	.LBE217-.LBB217
 2490 0f42 01       		.byte	0x1
 2491 0f43 E1       		.byte	0xe1
 2492 0f44 910F0000 		.4byte	0xf91
 2493 0f48 28       		.uleb128 0x28
 2494 0f49 13090000 		.4byte	0x913
 2495 0f4d 0C000000 		.4byte	.LBB218
 2496 0f51 08000000 		.4byte	.LBE218-.LBB218
 2497 0f55 11       		.byte	0x11
 2498 0f56 F801     		.2byte	0x1f8
 2499 0f58 29       		.uleb128 0x29
 2500 0f59 0C000000 		.4byte	.LBB219
 2501 0f5d 08000000 		.4byte	.LBE219-.LBB219
 2502 0f61 2A       		.uleb128 0x2a
 2503 0f62 20090000 		.4byte	0x920
 2504 0f66 28       		.uleb128 0x28
 2505 0f67 01090000 		.4byte	0x901
 2506 0f6b 0C000000 		.4byte	.LBB220
 2507 0f6f 08000000 		.4byte	.LBE220-.LBB220
 2508 0f73 10       		.byte	0x10
ARM GAS  /tmp/cc9MJEZf.s 			page 45


 2509 0f74 7301     		.2byte	0x173
 2510 0f76 28       		.uleb128 0x28
 2511 0f77 DE080000 		.4byte	0x8de
 2512 0f7b 0C000000 		.4byte	.LBB221
 2513 0f7f 08000000 		.4byte	.LBE221-.LBB221
 2514 0f83 09       		.byte	0x9
 2515 0f84 E301     		.2byte	0x1e3
 2516 0f86 26       		.uleb128 0x26
 2517 0f87 EB080000 		.4byte	0x8eb
 2518 0f8b 00       		.byte	0
 2519 0f8c 00       		.byte	0
 2520 0f8d 00       		.byte	0
 2521 0f8e 00       		.byte	0
 2522 0f8f 00       		.byte	0
 2523 0f90 00       		.byte	0
 2524 0f91 2B       		.uleb128 0x2b
 2525 0f92 0C000000 		.4byte	.LVL15
 2526 0f96 42130000 		.4byte	0x1342
 2527 0f9a 2C       		.uleb128 0x2c
 2528 0f9b 01       		.uleb128 0x1
 2529 0f9c 50       		.byte	0x50
 2530 0f9d 03       		.uleb128 0x3
 2531 0f9e F3       		.byte	0xf3
 2532 0f9f 01       		.uleb128 0x1
 2533 0fa0 50       		.byte	0x50
 2534 0fa1 00       		.byte	0
 2535 0fa2 00       		.byte	0
 2536 0fa3 10       		.uleb128 0x10
 2537 0fa4 EC050000 		.4byte	0x5ec
 2538 0fa8 B30F0000 		.4byte	0xfb3
 2539 0fac 11       		.uleb128 0x11
 2540 0fad 10040000 		.4byte	0x410
 2541 0fb1 1D       		.byte	0x1d
 2542 0fb2 00       		.byte	0
 2543 0fb3 16       		.uleb128 0x16
 2544 0fb4 A30F0000 		.4byte	0xfa3
 2545 0fb8 1F       		.uleb128 0x1f
 2546 0fb9 83040000 		.4byte	.LASF150
 2547 0fbd 01       		.byte	0x1
 2548 0fbe ED       		.byte	0xed
 2549 0fbf 00000000 		.4byte	.LFB215
 2550 0fc3 14000000 		.4byte	.LFE215-.LFB215
 2551 0fc7 01       		.uleb128 0x1
 2552 0fc8 9C       		.byte	0x9c
 2553 0fc9 A0100000 		.4byte	0x10a0
 2554 0fcd 22       		.uleb128 0x22
 2555 0fce 1F040000 		.4byte	.LASF141
 2556 0fd2 01       		.byte	0x1
 2557 0fd3 ED       		.byte	0xed
 2558 0fd4 D1060000 		.4byte	0x6d1
 2559 0fd8 23010000 		.4byte	.LLST9
 2560 0fdc 23       		.uleb128 0x23
 2561 0fdd CD050000 		.4byte	.LASF143
 2562 0fe1 B0100000 		.4byte	0x10b0
 2563 0fe5 27       		.uleb128 0x27
 2564 0fe6 43090000 		.4byte	0x943
 2565 0fea 02000000 		.4byte	.LBB223
ARM GAS  /tmp/cc9MJEZf.s 			page 46


 2566 0fee 06000000 		.4byte	.LBE223-.LBB223
 2567 0ff2 01       		.byte	0x1
 2568 0ff3 F1       		.byte	0xf1
 2569 0ff4 32100000 		.4byte	0x1032
 2570 0ff8 28       		.uleb128 0x28
 2571 0ff9 0A090000 		.4byte	0x90a
 2572 0ffd 02000000 		.4byte	.LBB224
 2573 1001 06000000 		.4byte	.LBE224-.LBB224
 2574 1005 11       		.byte	0x11
 2575 1006 ED01     		.2byte	0x1ed
 2576 1008 28       		.uleb128 0x28
 2577 1009 F8080000 		.4byte	0x8f8
 2578 100d 02000000 		.4byte	.LBB225
 2579 1011 06000000 		.4byte	.LBE225-.LBB225
 2580 1015 10       		.byte	0x10
 2581 1016 5C01     		.2byte	0x15c
 2582 1018 28       		.uleb128 0x28
 2583 1019 DE080000 		.4byte	0x8de
 2584 101d 02000000 		.4byte	.LBB226
 2585 1021 06000000 		.4byte	.LBE226-.LBB226
 2586 1025 09       		.byte	0x9
 2587 1026 D001     		.2byte	0x1d0
 2588 1028 26       		.uleb128 0x26
 2589 1029 EB080000 		.4byte	0x8eb
 2590 102d 20       		.byte	0x20
 2591 102e 00       		.byte	0
 2592 102f 00       		.byte	0
 2593 1030 00       		.byte	0
 2594 1031 00       		.byte	0
 2595 1032 27       		.uleb128 0x27
 2596 1033 4C090000 		.4byte	0x94c
 2597 1037 0C000000 		.4byte	.LBB228
 2598 103b 08000000 		.4byte	.LBE228-.LBB228
 2599 103f 01       		.byte	0x1
 2600 1040 F8       		.byte	0xf8
 2601 1041 8E100000 		.4byte	0x108e
 2602 1045 28       		.uleb128 0x28
 2603 1046 13090000 		.4byte	0x913
 2604 104a 0C000000 		.4byte	.LBB229
 2605 104e 08000000 		.4byte	.LBE229-.LBB229
 2606 1052 11       		.byte	0x11
 2607 1053 F801     		.2byte	0x1f8
 2608 1055 29       		.uleb128 0x29
 2609 1056 0C000000 		.4byte	.LBB230
 2610 105a 08000000 		.4byte	.LBE230-.LBB230
 2611 105e 2A       		.uleb128 0x2a
 2612 105f 20090000 		.4byte	0x920
 2613 1063 28       		.uleb128 0x28
 2614 1064 01090000 		.4byte	0x901
 2615 1068 0C000000 		.4byte	.LBB231
 2616 106c 08000000 		.4byte	.LBE231-.LBB231
 2617 1070 10       		.byte	0x10
 2618 1071 7301     		.2byte	0x173
 2619 1073 28       		.uleb128 0x28
 2620 1074 DE080000 		.4byte	0x8de
 2621 1078 0C000000 		.4byte	.LBB232
 2622 107c 08000000 		.4byte	.LBE232-.LBB232
ARM GAS  /tmp/cc9MJEZf.s 			page 47


 2623 1080 09       		.byte	0x9
 2624 1081 E301     		.2byte	0x1e3
 2625 1083 26       		.uleb128 0x26
 2626 1084 EB080000 		.4byte	0x8eb
 2627 1088 00       		.byte	0
 2628 1089 00       		.byte	0
 2629 108a 00       		.byte	0
 2630 108b 00       		.byte	0
 2631 108c 00       		.byte	0
 2632 108d 00       		.byte	0
 2633 108e 2B       		.uleb128 0x2b
 2634 108f 0C000000 		.4byte	.LVL17
 2635 1093 54130000 		.4byte	0x1354
 2636 1097 2C       		.uleb128 0x2c
 2637 1098 01       		.uleb128 0x1
 2638 1099 50       		.byte	0x50
 2639 109a 03       		.uleb128 0x3
 2640 109b F3       		.byte	0xf3
 2641 109c 01       		.uleb128 0x1
 2642 109d 50       		.byte	0x50
 2643 109e 00       		.byte	0
 2644 109f 00       		.byte	0
 2645 10a0 10       		.uleb128 0x10
 2646 10a1 EC050000 		.4byte	0x5ec
 2647 10a5 B0100000 		.4byte	0x10b0
 2648 10a9 11       		.uleb128 0x11
 2649 10aa 10040000 		.4byte	0x410
 2650 10ae 1E       		.byte	0x1e
 2651 10af 00       		.byte	0
 2652 10b0 16       		.uleb128 0x16
 2653 10b1 A0100000 		.4byte	0x10a0
 2654 10b5 2F       		.uleb128 0x2f
 2655 10b6 75000000 		.4byte	.LASF151
 2656 10ba 01       		.byte	0x1
 2657 10bb 0601     		.2byte	0x106
 2658 10bd 00000000 		.4byte	.LFB216
 2659 10c1 14000000 		.4byte	.LFE216-.LFB216
 2660 10c5 01       		.uleb128 0x1
 2661 10c6 9C       		.byte	0x9c
 2662 10c7 B1110000 		.4byte	0x11b1
 2663 10cb 30       		.uleb128 0x30
 2664 10cc 1F040000 		.4byte	.LASF141
 2665 10d0 01       		.byte	0x1
 2666 10d1 0601     		.2byte	0x106
 2667 10d3 D1060000 		.4byte	0x6d1
 2668 10d7 44010000 		.4byte	.LLST10
 2669 10db 30       		.uleb128 0x30
 2670 10dc F8050000 		.4byte	.LASF146
 2671 10e0 01       		.byte	0x1
 2672 10e1 0601     		.2byte	0x106
 2673 10e3 05080000 		.4byte	0x805
 2674 10e7 65010000 		.4byte	.LLST11
 2675 10eb 23       		.uleb128 0x23
 2676 10ec CD050000 		.4byte	.LASF143
 2677 10f0 C1110000 		.4byte	0x11c1
 2678 10f4 31       		.uleb128 0x31
 2679 10f5 43090000 		.4byte	0x943
ARM GAS  /tmp/cc9MJEZf.s 			page 48


 2680 10f9 02000000 		.4byte	.LBB234
 2681 10fd 06000000 		.4byte	.LBE234-.LBB234
 2682 1101 01       		.byte	0x1
 2683 1102 0A01     		.2byte	0x10a
 2684 1104 42110000 		.4byte	0x1142
 2685 1108 28       		.uleb128 0x28
 2686 1109 0A090000 		.4byte	0x90a
 2687 110d 02000000 		.4byte	.LBB235
 2688 1111 06000000 		.4byte	.LBE235-.LBB235
 2689 1115 11       		.byte	0x11
 2690 1116 ED01     		.2byte	0x1ed
 2691 1118 28       		.uleb128 0x28
 2692 1119 F8080000 		.4byte	0x8f8
 2693 111d 02000000 		.4byte	.LBB236
 2694 1121 06000000 		.4byte	.LBE236-.LBB236
 2695 1125 10       		.byte	0x10
 2696 1126 5C01     		.2byte	0x15c
 2697 1128 28       		.uleb128 0x28
 2698 1129 DE080000 		.4byte	0x8de
 2699 112d 02000000 		.4byte	.LBB237
 2700 1131 06000000 		.4byte	.LBE237-.LBB237
 2701 1135 09       		.byte	0x9
 2702 1136 D001     		.2byte	0x1d0
 2703 1138 26       		.uleb128 0x26
 2704 1139 EB080000 		.4byte	0x8eb
 2705 113d 20       		.byte	0x20
 2706 113e 00       		.byte	0
 2707 113f 00       		.byte	0
 2708 1140 00       		.byte	0
 2709 1141 00       		.byte	0
 2710 1142 31       		.uleb128 0x31
 2711 1143 4C090000 		.4byte	0x94c
 2712 1147 0C000000 		.4byte	.LBB239
 2713 114b 08000000 		.4byte	.LBE239-.LBB239
 2714 114f 01       		.byte	0x1
 2715 1150 1401     		.2byte	0x114
 2716 1152 9F110000 		.4byte	0x119f
 2717 1156 28       		.uleb128 0x28
 2718 1157 13090000 		.4byte	0x913
 2719 115b 0C000000 		.4byte	.LBB240
 2720 115f 08000000 		.4byte	.LBE240-.LBB240
 2721 1163 11       		.byte	0x11
 2722 1164 F801     		.2byte	0x1f8
 2723 1166 29       		.uleb128 0x29
 2724 1167 0C000000 		.4byte	.LBB241
 2725 116b 08000000 		.4byte	.LBE241-.LBB241
 2726 116f 2A       		.uleb128 0x2a
 2727 1170 20090000 		.4byte	0x920
 2728 1174 28       		.uleb128 0x28
 2729 1175 01090000 		.4byte	0x901
 2730 1179 0C000000 		.4byte	.LBB242
 2731 117d 08000000 		.4byte	.LBE242-.LBB242
 2732 1181 10       		.byte	0x10
 2733 1182 7301     		.2byte	0x173
 2734 1184 28       		.uleb128 0x28
 2735 1185 DE080000 		.4byte	0x8de
 2736 1189 0C000000 		.4byte	.LBB243
ARM GAS  /tmp/cc9MJEZf.s 			page 49


 2737 118d 08000000 		.4byte	.LBE243-.LBB243
 2738 1191 09       		.byte	0x9
 2739 1192 E301     		.2byte	0x1e3
 2740 1194 26       		.uleb128 0x26
 2741 1195 EB080000 		.4byte	0x8eb
 2742 1199 00       		.byte	0
 2743 119a 00       		.byte	0
 2744 119b 00       		.byte	0
 2745 119c 00       		.byte	0
 2746 119d 00       		.byte	0
 2747 119e 00       		.byte	0
 2748 119f 2B       		.uleb128 0x2b
 2749 11a0 0C000000 		.4byte	.LVL19
 2750 11a4 66130000 		.4byte	0x1366
 2751 11a8 2C       		.uleb128 0x2c
 2752 11a9 01       		.uleb128 0x1
 2753 11aa 50       		.byte	0x50
 2754 11ab 03       		.uleb128 0x3
 2755 11ac F3       		.byte	0xf3
 2756 11ad 01       		.uleb128 0x1
 2757 11ae 50       		.byte	0x50
 2758 11af 00       		.byte	0
 2759 11b0 00       		.byte	0
 2760 11b1 10       		.uleb128 0x10
 2761 11b2 EC050000 		.4byte	0x5ec
 2762 11b6 C1110000 		.4byte	0x11c1
 2763 11ba 11       		.uleb128 0x11
 2764 11bb 10040000 		.4byte	0x410
 2765 11bf 1C       		.byte	0x1c
 2766 11c0 00       		.byte	0
 2767 11c1 16       		.uleb128 0x16
 2768 11c2 B1110000 		.4byte	0x11b1
 2769 11c6 2F       		.uleb128 0x2f
 2770 11c7 AB070000 		.4byte	.LASF152
 2771 11cb 01       		.byte	0x1
 2772 11cc 2201     		.2byte	0x122
 2773 11ce 00000000 		.4byte	.LFB217
 2774 11d2 14000000 		.4byte	.LFE217-.LFB217
 2775 11d6 01       		.uleb128 0x1
 2776 11d7 9C       		.byte	0x9c
 2777 11d8 C2120000 		.4byte	0x12c2
 2778 11dc 30       		.uleb128 0x30
 2779 11dd 1F040000 		.4byte	.LASF141
 2780 11e1 01       		.byte	0x1
 2781 11e2 2201     		.2byte	0x122
 2782 11e4 D1060000 		.4byte	0x6d1
 2783 11e8 86010000 		.4byte	.LLST12
 2784 11ec 30       		.uleb128 0x30
 2785 11ed F8050000 		.4byte	.LASF146
 2786 11f1 01       		.byte	0x1
 2787 11f2 2201     		.2byte	0x122
 2788 11f4 05080000 		.4byte	0x805
 2789 11f8 A7010000 		.4byte	.LLST13
 2790 11fc 23       		.uleb128 0x23
 2791 11fd CD050000 		.4byte	.LASF143
 2792 1201 C2120000 		.4byte	0x12c2
 2793 1205 31       		.uleb128 0x31
ARM GAS  /tmp/cc9MJEZf.s 			page 50


 2794 1206 43090000 		.4byte	0x943
 2795 120a 02000000 		.4byte	.LBB245
 2796 120e 06000000 		.4byte	.LBE245-.LBB245
 2797 1212 01       		.byte	0x1
 2798 1213 2601     		.2byte	0x126
 2799 1215 53120000 		.4byte	0x1253
 2800 1219 28       		.uleb128 0x28
 2801 121a 0A090000 		.4byte	0x90a
 2802 121e 02000000 		.4byte	.LBB246
 2803 1222 06000000 		.4byte	.LBE246-.LBB246
 2804 1226 11       		.byte	0x11
 2805 1227 ED01     		.2byte	0x1ed
 2806 1229 28       		.uleb128 0x28
 2807 122a F8080000 		.4byte	0x8f8
 2808 122e 02000000 		.4byte	.LBB247
 2809 1232 06000000 		.4byte	.LBE247-.LBB247
 2810 1236 10       		.byte	0x10
 2811 1237 5C01     		.2byte	0x15c
 2812 1239 28       		.uleb128 0x28
 2813 123a DE080000 		.4byte	0x8de
 2814 123e 02000000 		.4byte	.LBB248
 2815 1242 06000000 		.4byte	.LBE248-.LBB248
 2816 1246 09       		.byte	0x9
 2817 1247 D001     		.2byte	0x1d0
 2818 1249 26       		.uleb128 0x26
 2819 124a EB080000 		.4byte	0x8eb
 2820 124e 20       		.byte	0x20
 2821 124f 00       		.byte	0
 2822 1250 00       		.byte	0
 2823 1251 00       		.byte	0
 2824 1252 00       		.byte	0
 2825 1253 31       		.uleb128 0x31
 2826 1254 4C090000 		.4byte	0x94c
 2827 1258 0C000000 		.4byte	.LBB250
 2828 125c 08000000 		.4byte	.LBE250-.LBB250
 2829 1260 01       		.byte	0x1
 2830 1261 3001     		.2byte	0x130
 2831 1263 B0120000 		.4byte	0x12b0
 2832 1267 28       		.uleb128 0x28
 2833 1268 13090000 		.4byte	0x913
 2834 126c 0C000000 		.4byte	.LBB251
 2835 1270 08000000 		.4byte	.LBE251-.LBB251
 2836 1274 11       		.byte	0x11
 2837 1275 F801     		.2byte	0x1f8
 2838 1277 29       		.uleb128 0x29
 2839 1278 0C000000 		.4byte	.LBB252
 2840 127c 08000000 		.4byte	.LBE252-.LBB252
 2841 1280 2A       		.uleb128 0x2a
 2842 1281 20090000 		.4byte	0x920
 2843 1285 28       		.uleb128 0x28
 2844 1286 01090000 		.4byte	0x901
 2845 128a 0C000000 		.4byte	.LBB253
 2846 128e 08000000 		.4byte	.LBE253-.LBB253
 2847 1292 10       		.byte	0x10
 2848 1293 7301     		.2byte	0x173
 2849 1295 28       		.uleb128 0x28
 2850 1296 DE080000 		.4byte	0x8de
ARM GAS  /tmp/cc9MJEZf.s 			page 51


 2851 129a 0C000000 		.4byte	.LBB254
 2852 129e 08000000 		.4byte	.LBE254-.LBB254
 2853 12a2 09       		.byte	0x9
 2854 12a3 E301     		.2byte	0x1e3
 2855 12a5 26       		.uleb128 0x26
 2856 12a6 EB080000 		.4byte	0x8eb
 2857 12aa 00       		.byte	0
 2858 12ab 00       		.byte	0
 2859 12ac 00       		.byte	0
 2860 12ad 00       		.byte	0
 2861 12ae 00       		.byte	0
 2862 12af 00       		.byte	0
 2863 12b0 2B       		.uleb128 0x2b
 2864 12b1 0C000000 		.4byte	.LVL21
 2865 12b5 7D130000 		.4byte	0x137d
 2866 12b9 2C       		.uleb128 0x2c
 2867 12ba 01       		.uleb128 0x1
 2868 12bb 50       		.byte	0x50
 2869 12bc 03       		.uleb128 0x3
 2870 12bd F3       		.byte	0xf3
 2871 12be 01       		.uleb128 0x1
 2872 12bf 50       		.byte	0x50
 2873 12c0 00       		.byte	0
 2874 12c1 00       		.byte	0
 2875 12c2 16       		.uleb128 0x16
 2876 12c3 A30F0000 		.4byte	0xfa3
 2877 12c7 32       		.uleb128 0x32
 2878 12c8 75050000 		.4byte	.LASF153
 2879 12cc 12       		.byte	0x12
 2880 12cd 5506     		.2byte	0x655
 2881 12cf D3120000 		.4byte	0x12d3
 2882 12d3 0F       		.uleb128 0xf
 2883 12d4 B4000000 		.4byte	0xb4
 2884 12d8 33       		.uleb128 0x33
 2885 12d9 636800   		.ascii	"ch\000"
 2886 12dc 07       		.byte	0x7
 2887 12dd 0902     		.2byte	0x209
 2888 12df A9030000 		.4byte	0x3a9
 2889 12e3 34       		.uleb128 0x34
 2890 12e4 BB040000 		.4byte	.LASF164
 2891 12e8 0E       		.byte	0xe
 2892 12e9 1002     		.2byte	0x210
 2893 12eb 35       		.uleb128 0x35
 2894 12ec 4A020000 		.4byte	.LASF154
 2895 12f0 0E       		.byte	0xe
 2896 12f1 1102     		.2byte	0x211
 2897 12f3 FD120000 		.4byte	0x12fd
 2898 12f7 0C       		.uleb128 0xc
 2899 12f8 D1060000 		.4byte	0x6d1
 2900 12fc 00       		.byte	0
 2901 12fd 35       		.uleb128 0x35
 2902 12fe 23060000 		.4byte	.LASF155
 2903 1302 0E       		.byte	0xe
 2904 1303 1202     		.2byte	0x212
 2905 1305 0F130000 		.4byte	0x130f
 2906 1309 0C       		.uleb128 0xc
 2907 130a D1060000 		.4byte	0x6d1
ARM GAS  /tmp/cc9MJEZf.s 			page 52


 2908 130e 00       		.byte	0
 2909 130f 35       		.uleb128 0x35
 2910 1310 98060000 		.4byte	.LASF156
 2911 1314 0E       		.byte	0xe
 2912 1315 1302     		.2byte	0x213
 2913 1317 2B130000 		.4byte	0x132b
 2914 131b 0C       		.uleb128 0xc
 2915 131c D1060000 		.4byte	0x6d1
 2916 1320 0C       		.uleb128 0xc
 2917 1321 05080000 		.4byte	0x805
 2918 1325 0C       		.uleb128 0xc
 2919 1326 1D080000 		.4byte	0x81d
 2920 132a 00       		.byte	0
 2921 132b 35       		.uleb128 0x35
 2922 132c D3000000 		.4byte	.LASF157
 2923 1330 0E       		.byte	0xe
 2924 1331 1602     		.2byte	0x216
 2925 1333 42130000 		.4byte	0x1342
 2926 1337 0C       		.uleb128 0xc
 2927 1338 D1060000 		.4byte	0x6d1
 2928 133c 0C       		.uleb128 0xc
 2929 133d 05080000 		.4byte	0x805
 2930 1341 00       		.byte	0
 2931 1342 35       		.uleb128 0x35
 2932 1343 53030000 		.4byte	.LASF158
 2933 1347 0E       		.byte	0xe
 2934 1348 1702     		.2byte	0x217
 2935 134a 54130000 		.4byte	0x1354
 2936 134e 0C       		.uleb128 0xc
 2937 134f D1060000 		.4byte	0x6d1
 2938 1353 00       		.byte	0
 2939 1354 35       		.uleb128 0x35
 2940 1355 F4040000 		.4byte	.LASF159
 2941 1359 0E       		.byte	0xe
 2942 135a 1802     		.2byte	0x218
 2943 135c 66130000 		.4byte	0x1366
 2944 1360 0C       		.uleb128 0xc
 2945 1361 D1060000 		.4byte	0x6d1
 2946 1365 00       		.byte	0
 2947 1366 35       		.uleb128 0x35
 2948 1367 58020000 		.4byte	.LASF160
 2949 136b 0E       		.byte	0xe
 2950 136c 1902     		.2byte	0x219
 2951 136e 7D130000 		.4byte	0x137d
 2952 1372 0C       		.uleb128 0xc
 2953 1373 D1060000 		.4byte	0x6d1
 2954 1377 0C       		.uleb128 0xc
 2955 1378 05080000 		.4byte	0x805
 2956 137c 00       		.byte	0
 2957 137d 36       		.uleb128 0x36
 2958 137e F0030000 		.4byte	.LASF165
 2959 1382 0E       		.byte	0xe
 2960 1383 1B02     		.2byte	0x21b
 2961 1385 0C       		.uleb128 0xc
 2962 1386 D1060000 		.4byte	0x6d1
 2963 138a 0C       		.uleb128 0xc
 2964 138b 05080000 		.4byte	0x805
ARM GAS  /tmp/cc9MJEZf.s 			page 53


 2965 138f 00       		.byte	0
 2966 1390 00       		.byte	0
 2967              		.section	.debug_abbrev,"",%progbits
 2968              	.Ldebug_abbrev0:
 2969 0000 01       		.uleb128 0x1
 2970 0001 11       		.uleb128 0x11
 2971 0002 01       		.byte	0x1
 2972 0003 25       		.uleb128 0x25
 2973 0004 0E       		.uleb128 0xe
 2974 0005 13       		.uleb128 0x13
 2975 0006 0B       		.uleb128 0xb
 2976 0007 03       		.uleb128 0x3
 2977 0008 0E       		.uleb128 0xe
 2978 0009 55       		.uleb128 0x55
 2979 000a 17       		.uleb128 0x17
 2980 000b 11       		.uleb128 0x11
 2981 000c 01       		.uleb128 0x1
 2982 000d 10       		.uleb128 0x10
 2983 000e 17       		.uleb128 0x17
 2984 000f 00       		.byte	0
 2985 0010 00       		.byte	0
 2986 0011 02       		.uleb128 0x2
 2987 0012 24       		.uleb128 0x24
 2988 0013 00       		.byte	0
 2989 0014 0B       		.uleb128 0xb
 2990 0015 0B       		.uleb128 0xb
 2991 0016 3E       		.uleb128 0x3e
 2992 0017 0B       		.uleb128 0xb
 2993 0018 03       		.uleb128 0x3
 2994 0019 08       		.uleb128 0x8
 2995 001a 00       		.byte	0
 2996 001b 00       		.byte	0
 2997 001c 03       		.uleb128 0x3
 2998 001d 24       		.uleb128 0x24
 2999 001e 00       		.byte	0
 3000 001f 0B       		.uleb128 0xb
 3001 0020 0B       		.uleb128 0xb
 3002 0021 3E       		.uleb128 0x3e
 3003 0022 0B       		.uleb128 0xb
 3004 0023 03       		.uleb128 0x3
 3005 0024 0E       		.uleb128 0xe
 3006 0025 00       		.byte	0
 3007 0026 00       		.byte	0
 3008 0027 04       		.uleb128 0x4
 3009 0028 16       		.uleb128 0x16
 3010 0029 00       		.byte	0
 3011 002a 03       		.uleb128 0x3
 3012 002b 0E       		.uleb128 0xe
 3013 002c 3A       		.uleb128 0x3a
 3014 002d 0B       		.uleb128 0xb
 3015 002e 3B       		.uleb128 0x3b
 3016 002f 0B       		.uleb128 0xb
 3017 0030 49       		.uleb128 0x49
 3018 0031 13       		.uleb128 0x13
 3019 0032 00       		.byte	0
 3020 0033 00       		.byte	0
 3021 0034 05       		.uleb128 0x5
ARM GAS  /tmp/cc9MJEZf.s 			page 54


 3022 0035 13       		.uleb128 0x13
 3023 0036 01       		.byte	0x1
 3024 0037 03       		.uleb128 0x3
 3025 0038 0E       		.uleb128 0xe
 3026 0039 0B       		.uleb128 0xb
 3027 003a 0B       		.uleb128 0xb
 3028 003b 3A       		.uleb128 0x3a
 3029 003c 0B       		.uleb128 0xb
 3030 003d 3B       		.uleb128 0x3b
 3031 003e 0B       		.uleb128 0xb
 3032 003f 01       		.uleb128 0x1
 3033 0040 13       		.uleb128 0x13
 3034 0041 00       		.byte	0
 3035 0042 00       		.byte	0
 3036 0043 06       		.uleb128 0x6
 3037 0044 0D       		.uleb128 0xd
 3038 0045 00       		.byte	0
 3039 0046 03       		.uleb128 0x3
 3040 0047 0E       		.uleb128 0xe
 3041 0048 3A       		.uleb128 0x3a
 3042 0049 0B       		.uleb128 0xb
 3043 004a 3B       		.uleb128 0x3b
 3044 004b 0B       		.uleb128 0xb
 3045 004c 49       		.uleb128 0x49
 3046 004d 13       		.uleb128 0x13
 3047 004e 38       		.uleb128 0x38
 3048 004f 0B       		.uleb128 0xb
 3049 0050 00       		.byte	0
 3050 0051 00       		.byte	0
 3051 0052 07       		.uleb128 0x7
 3052 0053 0D       		.uleb128 0xd
 3053 0054 00       		.byte	0
 3054 0055 03       		.uleb128 0x3
 3055 0056 08       		.uleb128 0x8
 3056 0057 3A       		.uleb128 0x3a
 3057 0058 0B       		.uleb128 0xb
 3058 0059 3B       		.uleb128 0x3b
 3059 005a 05       		.uleb128 0x5
 3060 005b 49       		.uleb128 0x49
 3061 005c 13       		.uleb128 0x13
 3062 005d 38       		.uleb128 0x38
 3063 005e 0B       		.uleb128 0xb
 3064 005f 00       		.byte	0
 3065 0060 00       		.byte	0
 3066 0061 08       		.uleb128 0x8
 3067 0062 0D       		.uleb128 0xd
 3068 0063 00       		.byte	0
 3069 0064 03       		.uleb128 0x3
 3070 0065 0E       		.uleb128 0xe
 3071 0066 3A       		.uleb128 0x3a
 3072 0067 0B       		.uleb128 0xb
 3073 0068 3B       		.uleb128 0x3b
 3074 0069 05       		.uleb128 0x5
 3075 006a 49       		.uleb128 0x49
 3076 006b 13       		.uleb128 0x13
 3077 006c 38       		.uleb128 0x38
 3078 006d 0B       		.uleb128 0xb
ARM GAS  /tmp/cc9MJEZf.s 			page 55


 3079 006e 00       		.byte	0
 3080 006f 00       		.byte	0
 3081 0070 09       		.uleb128 0x9
 3082 0071 0F       		.uleb128 0xf
 3083 0072 00       		.byte	0
 3084 0073 0B       		.uleb128 0xb
 3085 0074 0B       		.uleb128 0xb
 3086 0075 49       		.uleb128 0x49
 3087 0076 13       		.uleb128 0x13
 3088 0077 00       		.byte	0
 3089 0078 00       		.byte	0
 3090 0079 0A       		.uleb128 0xa
 3091 007a 13       		.uleb128 0x13
 3092 007b 01       		.byte	0x1
 3093 007c 03       		.uleb128 0x3
 3094 007d 0E       		.uleb128 0xe
 3095 007e 0B       		.uleb128 0xb
 3096 007f 0B       		.uleb128 0xb
 3097 0080 3A       		.uleb128 0x3a
 3098 0081 0B       		.uleb128 0xb
 3099 0082 3B       		.uleb128 0x3b
 3100 0083 05       		.uleb128 0x5
 3101 0084 01       		.uleb128 0x1
 3102 0085 13       		.uleb128 0x13
 3103 0086 00       		.byte	0
 3104 0087 00       		.byte	0
 3105 0088 0B       		.uleb128 0xb
 3106 0089 15       		.uleb128 0x15
 3107 008a 01       		.byte	0x1
 3108 008b 27       		.uleb128 0x27
 3109 008c 19       		.uleb128 0x19
 3110 008d 01       		.uleb128 0x1
 3111 008e 13       		.uleb128 0x13
 3112 008f 00       		.byte	0
 3113 0090 00       		.byte	0
 3114 0091 0C       		.uleb128 0xc
 3115 0092 05       		.uleb128 0x5
 3116 0093 00       		.byte	0
 3117 0094 49       		.uleb128 0x49
 3118 0095 13       		.uleb128 0x13
 3119 0096 00       		.byte	0
 3120 0097 00       		.byte	0
 3121 0098 0D       		.uleb128 0xd
 3122 0099 0F       		.uleb128 0xf
 3123 009a 00       		.byte	0
 3124 009b 0B       		.uleb128 0xb
 3125 009c 0B       		.uleb128 0xb
 3126 009d 00       		.byte	0
 3127 009e 00       		.byte	0
 3128 009f 0E       		.uleb128 0xe
 3129 00a0 13       		.uleb128 0x13
 3130 00a1 01       		.byte	0x1
 3131 00a2 03       		.uleb128 0x3
 3132 00a3 0E       		.uleb128 0xe
 3133 00a4 0B       		.uleb128 0xb
 3134 00a5 05       		.uleb128 0x5
 3135 00a6 3A       		.uleb128 0x3a
ARM GAS  /tmp/cc9MJEZf.s 			page 56


 3136 00a7 0B       		.uleb128 0xb
 3137 00a8 3B       		.uleb128 0x3b
 3138 00a9 05       		.uleb128 0x5
 3139 00aa 01       		.uleb128 0x1
 3140 00ab 13       		.uleb128 0x13
 3141 00ac 00       		.byte	0
 3142 00ad 00       		.byte	0
 3143 00ae 0F       		.uleb128 0xf
 3144 00af 35       		.uleb128 0x35
 3145 00b0 00       		.byte	0
 3146 00b1 49       		.uleb128 0x49
 3147 00b2 13       		.uleb128 0x13
 3148 00b3 00       		.byte	0
 3149 00b4 00       		.byte	0
 3150 00b5 10       		.uleb128 0x10
 3151 00b6 01       		.uleb128 0x1
 3152 00b7 01       		.byte	0x1
 3153 00b8 49       		.uleb128 0x49
 3154 00b9 13       		.uleb128 0x13
 3155 00ba 01       		.uleb128 0x1
 3156 00bb 13       		.uleb128 0x13
 3157 00bc 00       		.byte	0
 3158 00bd 00       		.byte	0
 3159 00be 11       		.uleb128 0x11
 3160 00bf 21       		.uleb128 0x21
 3161 00c0 00       		.byte	0
 3162 00c1 49       		.uleb128 0x49
 3163 00c2 13       		.uleb128 0x13
 3164 00c3 2F       		.uleb128 0x2f
 3165 00c4 0B       		.uleb128 0xb
 3166 00c5 00       		.byte	0
 3167 00c6 00       		.byte	0
 3168 00c7 12       		.uleb128 0x12
 3169 00c8 0D       		.uleb128 0xd
 3170 00c9 00       		.byte	0
 3171 00ca 03       		.uleb128 0x3
 3172 00cb 08       		.uleb128 0x8
 3173 00cc 3A       		.uleb128 0x3a
 3174 00cd 0B       		.uleb128 0xb
 3175 00ce 3B       		.uleb128 0x3b
 3176 00cf 0B       		.uleb128 0xb
 3177 00d0 49       		.uleb128 0x49
 3178 00d1 13       		.uleb128 0x13
 3179 00d2 38       		.uleb128 0x38
 3180 00d3 0B       		.uleb128 0xb
 3181 00d4 00       		.byte	0
 3182 00d5 00       		.byte	0
 3183 00d6 13       		.uleb128 0x13
 3184 00d7 13       		.uleb128 0x13
 3185 00d8 01       		.byte	0x1
 3186 00d9 0B       		.uleb128 0xb
 3187 00da 0B       		.uleb128 0xb
 3188 00db 3A       		.uleb128 0x3a
 3189 00dc 0B       		.uleb128 0xb
 3190 00dd 3B       		.uleb128 0x3b
 3191 00de 0B       		.uleb128 0xb
 3192 00df 01       		.uleb128 0x1
ARM GAS  /tmp/cc9MJEZf.s 			page 57


 3193 00e0 13       		.uleb128 0x13
 3194 00e1 00       		.byte	0
 3195 00e2 00       		.byte	0
 3196 00e3 14       		.uleb128 0x14
 3197 00e4 17       		.uleb128 0x17
 3198 00e5 01       		.byte	0x1
 3199 00e6 0B       		.uleb128 0xb
 3200 00e7 0B       		.uleb128 0xb
 3201 00e8 3A       		.uleb128 0x3a
 3202 00e9 0B       		.uleb128 0xb
 3203 00ea 3B       		.uleb128 0x3b
 3204 00eb 0B       		.uleb128 0xb
 3205 00ec 01       		.uleb128 0x1
 3206 00ed 13       		.uleb128 0x13
 3207 00ee 00       		.byte	0
 3208 00ef 00       		.byte	0
 3209 00f0 15       		.uleb128 0x15
 3210 00f1 0D       		.uleb128 0xd
 3211 00f2 00       		.byte	0
 3212 00f3 03       		.uleb128 0x3
 3213 00f4 0E       		.uleb128 0xe
 3214 00f5 3A       		.uleb128 0x3a
 3215 00f6 0B       		.uleb128 0xb
 3216 00f7 3B       		.uleb128 0x3b
 3217 00f8 05       		.uleb128 0x5
 3218 00f9 49       		.uleb128 0x49
 3219 00fa 13       		.uleb128 0x13
 3220 00fb 00       		.byte	0
 3221 00fc 00       		.byte	0
 3222 00fd 16       		.uleb128 0x16
 3223 00fe 26       		.uleb128 0x26
 3224 00ff 00       		.byte	0
 3225 0100 49       		.uleb128 0x49
 3226 0101 13       		.uleb128 0x13
 3227 0102 00       		.byte	0
 3228 0103 00       		.byte	0
 3229 0104 17       		.uleb128 0x17
 3230 0105 04       		.uleb128 0x4
 3231 0106 01       		.byte	0x1
 3232 0107 0B       		.uleb128 0xb
 3233 0108 0B       		.uleb128 0xb
 3234 0109 3A       		.uleb128 0x3a
 3235 010a 0B       		.uleb128 0xb
 3236 010b 3B       		.uleb128 0x3b
 3237 010c 0B       		.uleb128 0xb
 3238 010d 01       		.uleb128 0x1
 3239 010e 13       		.uleb128 0x13
 3240 010f 00       		.byte	0
 3241 0110 00       		.byte	0
 3242 0111 18       		.uleb128 0x18
 3243 0112 28       		.uleb128 0x28
 3244 0113 00       		.byte	0
 3245 0114 03       		.uleb128 0x3
 3246 0115 0E       		.uleb128 0xe
 3247 0116 1C       		.uleb128 0x1c
 3248 0117 0D       		.uleb128 0xd
 3249 0118 00       		.byte	0
ARM GAS  /tmp/cc9MJEZf.s 			page 58


 3250 0119 00       		.byte	0
 3251 011a 19       		.uleb128 0x19
 3252 011b 13       		.uleb128 0x13
 3253 011c 01       		.byte	0x1
 3254 011d 0B       		.uleb128 0xb
 3255 011e 0B       		.uleb128 0xb
 3256 011f 3A       		.uleb128 0x3a
 3257 0120 0B       		.uleb128 0xb
 3258 0121 3B       		.uleb128 0x3b
 3259 0122 05       		.uleb128 0x5
 3260 0123 01       		.uleb128 0x1
 3261 0124 13       		.uleb128 0x13
 3262 0125 00       		.byte	0
 3263 0126 00       		.byte	0
 3264 0127 1A       		.uleb128 0x1a
 3265 0128 16       		.uleb128 0x16
 3266 0129 00       		.byte	0
 3267 012a 03       		.uleb128 0x3
 3268 012b 0E       		.uleb128 0xe
 3269 012c 3A       		.uleb128 0x3a
 3270 012d 0B       		.uleb128 0xb
 3271 012e 3B       		.uleb128 0x3b
 3272 012f 05       		.uleb128 0x5
 3273 0130 49       		.uleb128 0x49
 3274 0131 13       		.uleb128 0x13
 3275 0132 00       		.byte	0
 3276 0133 00       		.byte	0
 3277 0134 1B       		.uleb128 0x1b
 3278 0135 2E       		.uleb128 0x2e
 3279 0136 01       		.byte	0x1
 3280 0137 03       		.uleb128 0x3
 3281 0138 0E       		.uleb128 0xe
 3282 0139 3A       		.uleb128 0x3a
 3283 013a 0B       		.uleb128 0xb
 3284 013b 3B       		.uleb128 0x3b
 3285 013c 05       		.uleb128 0x5
 3286 013d 27       		.uleb128 0x27
 3287 013e 19       		.uleb128 0x19
 3288 013f 20       		.uleb128 0x20
 3289 0140 0B       		.uleb128 0xb
 3290 0141 01       		.uleb128 0x1
 3291 0142 13       		.uleb128 0x13
 3292 0143 00       		.byte	0
 3293 0144 00       		.byte	0
 3294 0145 1C       		.uleb128 0x1c
 3295 0146 05       		.uleb128 0x5
 3296 0147 00       		.byte	0
 3297 0148 03       		.uleb128 0x3
 3298 0149 0E       		.uleb128 0xe
 3299 014a 3A       		.uleb128 0x3a
 3300 014b 0B       		.uleb128 0xb
 3301 014c 3B       		.uleb128 0x3b
 3302 014d 05       		.uleb128 0x5
 3303 014e 49       		.uleb128 0x49
 3304 014f 13       		.uleb128 0x13
 3305 0150 00       		.byte	0
 3306 0151 00       		.byte	0
ARM GAS  /tmp/cc9MJEZf.s 			page 59


 3307 0152 1D       		.uleb128 0x1d
 3308 0153 2E       		.uleb128 0x2e
 3309 0154 00       		.byte	0
 3310 0155 03       		.uleb128 0x3
 3311 0156 0E       		.uleb128 0xe
 3312 0157 3A       		.uleb128 0x3a
 3313 0158 0B       		.uleb128 0xb
 3314 0159 3B       		.uleb128 0x3b
 3315 015a 05       		.uleb128 0x5
 3316 015b 27       		.uleb128 0x27
 3317 015c 19       		.uleb128 0x19
 3318 015d 20       		.uleb128 0x20
 3319 015e 0B       		.uleb128 0xb
 3320 015f 00       		.byte	0
 3321 0160 00       		.byte	0
 3322 0161 1E       		.uleb128 0x1e
 3323 0162 34       		.uleb128 0x34
 3324 0163 00       		.byte	0
 3325 0164 03       		.uleb128 0x3
 3326 0165 0E       		.uleb128 0xe
 3327 0166 49       		.uleb128 0x49
 3328 0167 13       		.uleb128 0x13
 3329 0168 34       		.uleb128 0x34
 3330 0169 19       		.uleb128 0x19
 3331 016a 1C       		.uleb128 0x1c
 3332 016b 0E       		.uleb128 0xe
 3333 016c 00       		.byte	0
 3334 016d 00       		.byte	0
 3335 016e 1F       		.uleb128 0x1f
 3336 016f 2E       		.uleb128 0x2e
 3337 0170 01       		.byte	0x1
 3338 0171 3F       		.uleb128 0x3f
 3339 0172 19       		.uleb128 0x19
 3340 0173 03       		.uleb128 0x3
 3341 0174 0E       		.uleb128 0xe
 3342 0175 3A       		.uleb128 0x3a
 3343 0176 0B       		.uleb128 0xb
 3344 0177 3B       		.uleb128 0x3b
 3345 0178 0B       		.uleb128 0xb
 3346 0179 27       		.uleb128 0x27
 3347 017a 19       		.uleb128 0x19
 3348 017b 11       		.uleb128 0x11
 3349 017c 01       		.uleb128 0x1
 3350 017d 12       		.uleb128 0x12
 3351 017e 06       		.uleb128 0x6
 3352 017f 40       		.uleb128 0x40
 3353 0180 18       		.uleb128 0x18
 3354 0181 9742     		.uleb128 0x2117
 3355 0183 19       		.uleb128 0x19
 3356 0184 01       		.uleb128 0x1
 3357 0185 13       		.uleb128 0x13
 3358 0186 00       		.byte	0
 3359 0187 00       		.byte	0
 3360 0188 20       		.uleb128 0x20
 3361 0189 898201   		.uleb128 0x4109
 3362 018c 00       		.byte	0
 3363 018d 11       		.uleb128 0x11
ARM GAS  /tmp/cc9MJEZf.s 			page 60


 3364 018e 01       		.uleb128 0x1
 3365 018f 9542     		.uleb128 0x2115
 3366 0191 19       		.uleb128 0x19
 3367 0192 31       		.uleb128 0x31
 3368 0193 13       		.uleb128 0x13
 3369 0194 00       		.byte	0
 3370 0195 00       		.byte	0
 3371 0196 21       		.uleb128 0x21
 3372 0197 05       		.uleb128 0x5
 3373 0198 00       		.byte	0
 3374 0199 03       		.uleb128 0x3
 3375 019a 0E       		.uleb128 0xe
 3376 019b 3A       		.uleb128 0x3a
 3377 019c 0B       		.uleb128 0xb
 3378 019d 3B       		.uleb128 0x3b
 3379 019e 0B       		.uleb128 0xb
 3380 019f 49       		.uleb128 0x49
 3381 01a0 13       		.uleb128 0x13
 3382 01a1 02       		.uleb128 0x2
 3383 01a2 18       		.uleb128 0x18
 3384 01a3 00       		.byte	0
 3385 01a4 00       		.byte	0
 3386 01a5 22       		.uleb128 0x22
 3387 01a6 05       		.uleb128 0x5
 3388 01a7 00       		.byte	0
 3389 01a8 03       		.uleb128 0x3
 3390 01a9 0E       		.uleb128 0xe
 3391 01aa 3A       		.uleb128 0x3a
 3392 01ab 0B       		.uleb128 0xb
 3393 01ac 3B       		.uleb128 0x3b
 3394 01ad 0B       		.uleb128 0xb
 3395 01ae 49       		.uleb128 0x49
 3396 01af 13       		.uleb128 0x13
 3397 01b0 02       		.uleb128 0x2
 3398 01b1 17       		.uleb128 0x17
 3399 01b2 00       		.byte	0
 3400 01b3 00       		.byte	0
 3401 01b4 23       		.uleb128 0x23
 3402 01b5 34       		.uleb128 0x34
 3403 01b6 00       		.byte	0
 3404 01b7 03       		.uleb128 0x3
 3405 01b8 0E       		.uleb128 0xe
 3406 01b9 49       		.uleb128 0x49
 3407 01ba 13       		.uleb128 0x13
 3408 01bb 34       		.uleb128 0x34
 3409 01bc 19       		.uleb128 0x19
 3410 01bd 00       		.byte	0
 3411 01be 00       		.byte	0
 3412 01bf 24       		.uleb128 0x24
 3413 01c0 1D       		.uleb128 0x1d
 3414 01c1 01       		.byte	0x1
 3415 01c2 31       		.uleb128 0x31
 3416 01c3 13       		.uleb128 0x13
 3417 01c4 52       		.uleb128 0x52
 3418 01c5 01       		.uleb128 0x1
 3419 01c6 55       		.uleb128 0x55
 3420 01c7 17       		.uleb128 0x17
ARM GAS  /tmp/cc9MJEZf.s 			page 61


 3421 01c8 58       		.uleb128 0x58
 3422 01c9 0B       		.uleb128 0xb
 3423 01ca 59       		.uleb128 0x59
 3424 01cb 0B       		.uleb128 0xb
 3425 01cc 01       		.uleb128 0x1
 3426 01cd 13       		.uleb128 0x13
 3427 01ce 00       		.byte	0
 3428 01cf 00       		.byte	0
 3429 01d0 25       		.uleb128 0x25
 3430 01d1 1D       		.uleb128 0x1d
 3431 01d2 01       		.byte	0x1
 3432 01d3 31       		.uleb128 0x31
 3433 01d4 13       		.uleb128 0x13
 3434 01d5 52       		.uleb128 0x52
 3435 01d6 01       		.uleb128 0x1
 3436 01d7 55       		.uleb128 0x55
 3437 01d8 17       		.uleb128 0x17
 3438 01d9 58       		.uleb128 0x58
 3439 01da 0B       		.uleb128 0xb
 3440 01db 59       		.uleb128 0x59
 3441 01dc 05       		.uleb128 0x5
 3442 01dd 00       		.byte	0
 3443 01de 00       		.byte	0
 3444 01df 26       		.uleb128 0x26
 3445 01e0 05       		.uleb128 0x5
 3446 01e1 00       		.byte	0
 3447 01e2 31       		.uleb128 0x31
 3448 01e3 13       		.uleb128 0x13
 3449 01e4 1C       		.uleb128 0x1c
 3450 01e5 0B       		.uleb128 0xb
 3451 01e6 00       		.byte	0
 3452 01e7 00       		.byte	0
 3453 01e8 27       		.uleb128 0x27
 3454 01e9 1D       		.uleb128 0x1d
 3455 01ea 01       		.byte	0x1
 3456 01eb 31       		.uleb128 0x31
 3457 01ec 13       		.uleb128 0x13
 3458 01ed 11       		.uleb128 0x11
 3459 01ee 01       		.uleb128 0x1
 3460 01ef 12       		.uleb128 0x12
 3461 01f0 06       		.uleb128 0x6
 3462 01f1 58       		.uleb128 0x58
 3463 01f2 0B       		.uleb128 0xb
 3464 01f3 59       		.uleb128 0x59
 3465 01f4 0B       		.uleb128 0xb
 3466 01f5 01       		.uleb128 0x1
 3467 01f6 13       		.uleb128 0x13
 3468 01f7 00       		.byte	0
 3469 01f8 00       		.byte	0
 3470 01f9 28       		.uleb128 0x28
 3471 01fa 1D       		.uleb128 0x1d
 3472 01fb 01       		.byte	0x1
 3473 01fc 31       		.uleb128 0x31
 3474 01fd 13       		.uleb128 0x13
 3475 01fe 11       		.uleb128 0x11
 3476 01ff 01       		.uleb128 0x1
 3477 0200 12       		.uleb128 0x12
ARM GAS  /tmp/cc9MJEZf.s 			page 62


 3478 0201 06       		.uleb128 0x6
 3479 0202 58       		.uleb128 0x58
 3480 0203 0B       		.uleb128 0xb
 3481 0204 59       		.uleb128 0x59
 3482 0205 05       		.uleb128 0x5
 3483 0206 00       		.byte	0
 3484 0207 00       		.byte	0
 3485 0208 29       		.uleb128 0x29
 3486 0209 0B       		.uleb128 0xb
 3487 020a 01       		.byte	0x1
 3488 020b 11       		.uleb128 0x11
 3489 020c 01       		.uleb128 0x1
 3490 020d 12       		.uleb128 0x12
 3491 020e 06       		.uleb128 0x6
 3492 020f 00       		.byte	0
 3493 0210 00       		.byte	0
 3494 0211 2A       		.uleb128 0x2a
 3495 0212 34       		.uleb128 0x34
 3496 0213 00       		.byte	0
 3497 0214 31       		.uleb128 0x31
 3498 0215 13       		.uleb128 0x13
 3499 0216 00       		.byte	0
 3500 0217 00       		.byte	0
 3501 0218 2B       		.uleb128 0x2b
 3502 0219 898201   		.uleb128 0x4109
 3503 021c 01       		.byte	0x1
 3504 021d 11       		.uleb128 0x11
 3505 021e 01       		.uleb128 0x1
 3506 021f 31       		.uleb128 0x31
 3507 0220 13       		.uleb128 0x13
 3508 0221 00       		.byte	0
 3509 0222 00       		.byte	0
 3510 0223 2C       		.uleb128 0x2c
 3511 0224 8A8201   		.uleb128 0x410a
 3512 0227 00       		.byte	0
 3513 0228 02       		.uleb128 0x2
 3514 0229 18       		.uleb128 0x18
 3515 022a 9142     		.uleb128 0x2111
 3516 022c 18       		.uleb128 0x18
 3517 022d 00       		.byte	0
 3518 022e 00       		.byte	0
 3519 022f 2D       		.uleb128 0x2d
 3520 0230 1D       		.uleb128 0x1d
 3521 0231 01       		.byte	0x1
 3522 0232 31       		.uleb128 0x31
 3523 0233 13       		.uleb128 0x13
 3524 0234 52       		.uleb128 0x52
 3525 0235 01       		.uleb128 0x1
 3526 0236 55       		.uleb128 0x55
 3527 0237 17       		.uleb128 0x17
 3528 0238 58       		.uleb128 0x58
 3529 0239 0B       		.uleb128 0xb
 3530 023a 59       		.uleb128 0x59
 3531 023b 0B       		.uleb128 0xb
 3532 023c 00       		.byte	0
 3533 023d 00       		.byte	0
 3534 023e 2E       		.uleb128 0x2e
ARM GAS  /tmp/cc9MJEZf.s 			page 63


 3535 023f 0B       		.uleb128 0xb
 3536 0240 01       		.byte	0x1
 3537 0241 55       		.uleb128 0x55
 3538 0242 17       		.uleb128 0x17
 3539 0243 00       		.byte	0
 3540 0244 00       		.byte	0
 3541 0245 2F       		.uleb128 0x2f
 3542 0246 2E       		.uleb128 0x2e
 3543 0247 01       		.byte	0x1
 3544 0248 3F       		.uleb128 0x3f
 3545 0249 19       		.uleb128 0x19
 3546 024a 03       		.uleb128 0x3
 3547 024b 0E       		.uleb128 0xe
 3548 024c 3A       		.uleb128 0x3a
 3549 024d 0B       		.uleb128 0xb
 3550 024e 3B       		.uleb128 0x3b
 3551 024f 05       		.uleb128 0x5
 3552 0250 27       		.uleb128 0x27
 3553 0251 19       		.uleb128 0x19
 3554 0252 11       		.uleb128 0x11
 3555 0253 01       		.uleb128 0x1
 3556 0254 12       		.uleb128 0x12
 3557 0255 06       		.uleb128 0x6
 3558 0256 40       		.uleb128 0x40
 3559 0257 18       		.uleb128 0x18
 3560 0258 9742     		.uleb128 0x2117
 3561 025a 19       		.uleb128 0x19
 3562 025b 01       		.uleb128 0x1
 3563 025c 13       		.uleb128 0x13
 3564 025d 00       		.byte	0
 3565 025e 00       		.byte	0
 3566 025f 30       		.uleb128 0x30
 3567 0260 05       		.uleb128 0x5
 3568 0261 00       		.byte	0
 3569 0262 03       		.uleb128 0x3
 3570 0263 0E       		.uleb128 0xe
 3571 0264 3A       		.uleb128 0x3a
 3572 0265 0B       		.uleb128 0xb
 3573 0266 3B       		.uleb128 0x3b
 3574 0267 05       		.uleb128 0x5
 3575 0268 49       		.uleb128 0x49
 3576 0269 13       		.uleb128 0x13
 3577 026a 02       		.uleb128 0x2
 3578 026b 17       		.uleb128 0x17
 3579 026c 00       		.byte	0
 3580 026d 00       		.byte	0
 3581 026e 31       		.uleb128 0x31
 3582 026f 1D       		.uleb128 0x1d
 3583 0270 01       		.byte	0x1
 3584 0271 31       		.uleb128 0x31
 3585 0272 13       		.uleb128 0x13
 3586 0273 11       		.uleb128 0x11
 3587 0274 01       		.uleb128 0x1
 3588 0275 12       		.uleb128 0x12
 3589 0276 06       		.uleb128 0x6
 3590 0277 58       		.uleb128 0x58
 3591 0278 0B       		.uleb128 0xb
ARM GAS  /tmp/cc9MJEZf.s 			page 64


 3592 0279 59       		.uleb128 0x59
 3593 027a 05       		.uleb128 0x5
 3594 027b 01       		.uleb128 0x1
 3595 027c 13       		.uleb128 0x13
 3596 027d 00       		.byte	0
 3597 027e 00       		.byte	0
 3598 027f 32       		.uleb128 0x32
 3599 0280 34       		.uleb128 0x34
 3600 0281 00       		.byte	0
 3601 0282 03       		.uleb128 0x3
 3602 0283 0E       		.uleb128 0xe
 3603 0284 3A       		.uleb128 0x3a
 3604 0285 0B       		.uleb128 0xb
 3605 0286 3B       		.uleb128 0x3b
 3606 0287 05       		.uleb128 0x5
 3607 0288 49       		.uleb128 0x49
 3608 0289 13       		.uleb128 0x13
 3609 028a 3F       		.uleb128 0x3f
 3610 028b 19       		.uleb128 0x19
 3611 028c 3C       		.uleb128 0x3c
 3612 028d 19       		.uleb128 0x19
 3613 028e 00       		.byte	0
 3614 028f 00       		.byte	0
 3615 0290 33       		.uleb128 0x33
 3616 0291 34       		.uleb128 0x34
 3617 0292 00       		.byte	0
 3618 0293 03       		.uleb128 0x3
 3619 0294 08       		.uleb128 0x8
 3620 0295 3A       		.uleb128 0x3a
 3621 0296 0B       		.uleb128 0xb
 3622 0297 3B       		.uleb128 0x3b
 3623 0298 05       		.uleb128 0x5
 3624 0299 49       		.uleb128 0x49
 3625 029a 13       		.uleb128 0x13
 3626 029b 3F       		.uleb128 0x3f
 3627 029c 19       		.uleb128 0x19
 3628 029d 3C       		.uleb128 0x3c
 3629 029e 19       		.uleb128 0x19
 3630 029f 00       		.byte	0
 3631 02a0 00       		.byte	0
 3632 02a1 34       		.uleb128 0x34
 3633 02a2 2E       		.uleb128 0x2e
 3634 02a3 00       		.byte	0
 3635 02a4 3F       		.uleb128 0x3f
 3636 02a5 19       		.uleb128 0x19
 3637 02a6 03       		.uleb128 0x3
 3638 02a7 0E       		.uleb128 0xe
 3639 02a8 3A       		.uleb128 0x3a
 3640 02a9 0B       		.uleb128 0xb
 3641 02aa 3B       		.uleb128 0x3b
 3642 02ab 05       		.uleb128 0x5
 3643 02ac 27       		.uleb128 0x27
 3644 02ad 19       		.uleb128 0x19
 3645 02ae 3C       		.uleb128 0x3c
 3646 02af 19       		.uleb128 0x19
 3647 02b0 00       		.byte	0
 3648 02b1 00       		.byte	0
ARM GAS  /tmp/cc9MJEZf.s 			page 65


 3649 02b2 35       		.uleb128 0x35
 3650 02b3 2E       		.uleb128 0x2e
 3651 02b4 01       		.byte	0x1
 3652 02b5 3F       		.uleb128 0x3f
 3653 02b6 19       		.uleb128 0x19
 3654 02b7 03       		.uleb128 0x3
 3655 02b8 0E       		.uleb128 0xe
 3656 02b9 3A       		.uleb128 0x3a
 3657 02ba 0B       		.uleb128 0xb
 3658 02bb 3B       		.uleb128 0x3b
 3659 02bc 05       		.uleb128 0x5
 3660 02bd 27       		.uleb128 0x27
 3661 02be 19       		.uleb128 0x19
 3662 02bf 3C       		.uleb128 0x3c
 3663 02c0 19       		.uleb128 0x19
 3664 02c1 01       		.uleb128 0x1
 3665 02c2 13       		.uleb128 0x13
 3666 02c3 00       		.byte	0
 3667 02c4 00       		.byte	0
 3668 02c5 36       		.uleb128 0x36
 3669 02c6 2E       		.uleb128 0x2e
 3670 02c7 01       		.byte	0x1
 3671 02c8 3F       		.uleb128 0x3f
 3672 02c9 19       		.uleb128 0x19
 3673 02ca 03       		.uleb128 0x3
 3674 02cb 0E       		.uleb128 0xe
 3675 02cc 3A       		.uleb128 0x3a
 3676 02cd 0B       		.uleb128 0xb
 3677 02ce 3B       		.uleb128 0x3b
 3678 02cf 05       		.uleb128 0x5
 3679 02d0 27       		.uleb128 0x27
 3680 02d1 19       		.uleb128 0x19
 3681 02d2 3C       		.uleb128 0x3c
 3682 02d3 19       		.uleb128 0x19
 3683 02d4 00       		.byte	0
 3684 02d5 00       		.byte	0
 3685 02d6 00       		.byte	0
 3686              		.section	.debug_loc,"",%progbits
 3687              	.Ldebug_loc0:
 3688              	.LLST0:
 3689 0000 00000000 		.4byte	.LVL2
 3690 0004 13000000 		.4byte	.LVL3-1
 3691 0008 0100     		.2byte	0x1
 3692 000a 50       		.byte	0x50
 3693 000b 13000000 		.4byte	.LVL3-1
 3694 000f 22000000 		.4byte	.LFE209
 3695 0013 0100     		.2byte	0x1
 3696 0015 54       		.byte	0x54
 3697 0016 00000000 		.4byte	0
 3698 001a 00000000 		.4byte	0
 3699              	.LLST1:
 3700 001e 00000000 		.4byte	.LVL2
 3701 0022 13000000 		.4byte	.LVL3-1
 3702 0026 0100     		.2byte	0x1
 3703 0028 51       		.byte	0x51
 3704 0029 13000000 		.4byte	.LVL3-1
 3705 002d 22000000 		.4byte	.LFE209
ARM GAS  /tmp/cc9MJEZf.s 			page 66


 3706 0031 0400     		.2byte	0x4
 3707 0033 F3       		.byte	0xf3
 3708 0034 01       		.uleb128 0x1
 3709 0035 51       		.byte	0x51
 3710 0036 9F       		.byte	0x9f
 3711 0037 00000000 		.4byte	0
 3712 003b 00000000 		.4byte	0
 3713              	.LLST2:
 3714 003f 00000000 		.4byte	.LVL5
 3715 0043 0D000000 		.4byte	.LVL6-1
 3716 0047 0100     		.2byte	0x1
 3717 0049 50       		.byte	0x50
 3718 004a 0D000000 		.4byte	.LVL6-1
 3719 004e 1C000000 		.4byte	.LFE210
 3720 0052 0100     		.2byte	0x1
 3721 0054 54       		.byte	0x54
 3722 0055 00000000 		.4byte	0
 3723 0059 00000000 		.4byte	0
 3724              	.LLST3:
 3725 005d 00000000 		.4byte	.LVL10
 3726 0061 15000000 		.4byte	.LVL11-1
 3727 0065 0100     		.2byte	0x1
 3728 0067 50       		.byte	0x50
 3729 0068 15000000 		.4byte	.LVL11-1
 3730 006c 1E000000 		.4byte	.LFE212
 3731 0070 0400     		.2byte	0x4
 3732 0072 F3       		.byte	0xf3
 3733 0073 01       		.uleb128 0x1
 3734 0074 50       		.byte	0x50
 3735 0075 9F       		.byte	0x9f
 3736 0076 00000000 		.4byte	0
 3737 007a 00000000 		.4byte	0
 3738              	.LLST4:
 3739 007e 00000000 		.4byte	.LVL10
 3740 0082 15000000 		.4byte	.LVL11-1
 3741 0086 0100     		.2byte	0x1
 3742 0088 51       		.byte	0x51
 3743 0089 15000000 		.4byte	.LVL11-1
 3744 008d 1E000000 		.4byte	.LFE212
 3745 0091 0400     		.2byte	0x4
 3746 0093 F3       		.byte	0xf3
 3747 0094 01       		.uleb128 0x1
 3748 0095 51       		.byte	0x51
 3749 0096 9F       		.byte	0x9f
 3750 0097 00000000 		.4byte	0
 3751 009b 00000000 		.4byte	0
 3752              	.LLST5:
 3753 009f 00000000 		.4byte	.LVL10
 3754 00a3 15000000 		.4byte	.LVL11-1
 3755 00a7 0100     		.2byte	0x1
 3756 00a9 52       		.byte	0x52
 3757 00aa 15000000 		.4byte	.LVL11-1
 3758 00ae 1E000000 		.4byte	.LFE212
 3759 00b2 0400     		.2byte	0x4
 3760 00b4 F3       		.byte	0xf3
 3761 00b5 01       		.uleb128 0x1
 3762 00b6 52       		.byte	0x52
ARM GAS  /tmp/cc9MJEZf.s 			page 67


 3763 00b7 9F       		.byte	0x9f
 3764 00b8 00000000 		.4byte	0
 3765 00bc 00000000 		.4byte	0
 3766              	.LLST6:
 3767 00c0 00000000 		.4byte	.LVL12
 3768 00c4 17000000 		.4byte	.LVL13-1
 3769 00c8 0100     		.2byte	0x1
 3770 00ca 50       		.byte	0x50
 3771 00cb 17000000 		.4byte	.LVL13-1
 3772 00cf 20000000 		.4byte	.LFE213
 3773 00d3 0400     		.2byte	0x4
 3774 00d5 F3       		.byte	0xf3
 3775 00d6 01       		.uleb128 0x1
 3776 00d7 50       		.byte	0x50
 3777 00d8 9F       		.byte	0x9f
 3778 00d9 00000000 		.4byte	0
 3779 00dd 00000000 		.4byte	0
 3780              	.LLST7:
 3781 00e1 00000000 		.4byte	.LVL12
 3782 00e5 17000000 		.4byte	.LVL13-1
 3783 00e9 0100     		.2byte	0x1
 3784 00eb 51       		.byte	0x51
 3785 00ec 17000000 		.4byte	.LVL13-1
 3786 00f0 20000000 		.4byte	.LFE213
 3787 00f4 0400     		.2byte	0x4
 3788 00f6 F3       		.byte	0xf3
 3789 00f7 01       		.uleb128 0x1
 3790 00f8 51       		.byte	0x51
 3791 00f9 9F       		.byte	0x9f
 3792 00fa 00000000 		.4byte	0
 3793 00fe 00000000 		.4byte	0
 3794              	.LLST8:
 3795 0102 00000000 		.4byte	.LVL14
 3796 0106 0B000000 		.4byte	.LVL15-1
 3797 010a 0100     		.2byte	0x1
 3798 010c 50       		.byte	0x50
 3799 010d 0B000000 		.4byte	.LVL15-1
 3800 0111 14000000 		.4byte	.LFE214
 3801 0115 0400     		.2byte	0x4
 3802 0117 F3       		.byte	0xf3
 3803 0118 01       		.uleb128 0x1
 3804 0119 50       		.byte	0x50
 3805 011a 9F       		.byte	0x9f
 3806 011b 00000000 		.4byte	0
 3807 011f 00000000 		.4byte	0
 3808              	.LLST9:
 3809 0123 00000000 		.4byte	.LVL16
 3810 0127 0B000000 		.4byte	.LVL17-1
 3811 012b 0100     		.2byte	0x1
 3812 012d 50       		.byte	0x50
 3813 012e 0B000000 		.4byte	.LVL17-1
 3814 0132 14000000 		.4byte	.LFE215
 3815 0136 0400     		.2byte	0x4
 3816 0138 F3       		.byte	0xf3
 3817 0139 01       		.uleb128 0x1
 3818 013a 50       		.byte	0x50
 3819 013b 9F       		.byte	0x9f
ARM GAS  /tmp/cc9MJEZf.s 			page 68


 3820 013c 00000000 		.4byte	0
 3821 0140 00000000 		.4byte	0
 3822              	.LLST10:
 3823 0144 00000000 		.4byte	.LVL18
 3824 0148 0B000000 		.4byte	.LVL19-1
 3825 014c 0100     		.2byte	0x1
 3826 014e 50       		.byte	0x50
 3827 014f 0B000000 		.4byte	.LVL19-1
 3828 0153 14000000 		.4byte	.LFE216
 3829 0157 0400     		.2byte	0x4
 3830 0159 F3       		.byte	0xf3
 3831 015a 01       		.uleb128 0x1
 3832 015b 50       		.byte	0x50
 3833 015c 9F       		.byte	0x9f
 3834 015d 00000000 		.4byte	0
 3835 0161 00000000 		.4byte	0
 3836              	.LLST11:
 3837 0165 00000000 		.4byte	.LVL18
 3838 0169 0B000000 		.4byte	.LVL19-1
 3839 016d 0100     		.2byte	0x1
 3840 016f 51       		.byte	0x51
 3841 0170 0B000000 		.4byte	.LVL19-1
 3842 0174 14000000 		.4byte	.LFE216
 3843 0178 0400     		.2byte	0x4
 3844 017a F3       		.byte	0xf3
 3845 017b 01       		.uleb128 0x1
 3846 017c 51       		.byte	0x51
 3847 017d 9F       		.byte	0x9f
 3848 017e 00000000 		.4byte	0
 3849 0182 00000000 		.4byte	0
 3850              	.LLST12:
 3851 0186 00000000 		.4byte	.LVL20
 3852 018a 0B000000 		.4byte	.LVL21-1
 3853 018e 0100     		.2byte	0x1
 3854 0190 50       		.byte	0x50
 3855 0191 0B000000 		.4byte	.LVL21-1
 3856 0195 14000000 		.4byte	.LFE217
 3857 0199 0400     		.2byte	0x4
 3858 019b F3       		.byte	0xf3
 3859 019c 01       		.uleb128 0x1
 3860 019d 50       		.byte	0x50
 3861 019e 9F       		.byte	0x9f
 3862 019f 00000000 		.4byte	0
 3863 01a3 00000000 		.4byte	0
 3864              	.LLST13:
 3865 01a7 00000000 		.4byte	.LVL20
 3866 01ab 0B000000 		.4byte	.LVL21-1
 3867 01af 0100     		.2byte	0x1
 3868 01b1 51       		.byte	0x51
 3869 01b2 0B000000 		.4byte	.LVL21-1
 3870 01b6 14000000 		.4byte	.LFE217
 3871 01ba 0400     		.2byte	0x4
 3872 01bc F3       		.byte	0xf3
 3873 01bd 01       		.uleb128 0x1
 3874 01be 51       		.byte	0x51
 3875 01bf 9F       		.byte	0x9f
 3876 01c0 00000000 		.4byte	0
ARM GAS  /tmp/cc9MJEZf.s 			page 69


 3877 01c4 00000000 		.4byte	0
 3878              		.section	.debug_aranges,"",%progbits
 3879 0000 6C000000 		.4byte	0x6c
 3880 0004 0200     		.2byte	0x2
 3881 0006 00000000 		.4byte	.Ldebug_info0
 3882 000a 04       		.byte	0x4
 3883 000b 00       		.byte	0
 3884 000c 0000     		.2byte	0
 3885 000e 0000     		.2byte	0
 3886 0010 00000000 		.4byte	.LFB207
 3887 0014 04000000 		.4byte	.LFE207-.LFB207
 3888 0018 00000000 		.4byte	.LFB208
 3889 001c 0E000000 		.4byte	.LFE208-.LFB208
 3890 0020 00000000 		.4byte	.LFB209
 3891 0024 22000000 		.4byte	.LFE209-.LFB209
 3892 0028 00000000 		.4byte	.LFB210
 3893 002c 1C000000 		.4byte	.LFE210-.LFB210
 3894 0030 00000000 		.4byte	.LFB211
 3895 0034 1C000000 		.4byte	.LFE211-.LFB211
 3896 0038 00000000 		.4byte	.LFB212
 3897 003c 1E000000 		.4byte	.LFE212-.LFB212
 3898 0040 00000000 		.4byte	.LFB213
 3899 0044 20000000 		.4byte	.LFE213-.LFB213
 3900 0048 00000000 		.4byte	.LFB214
 3901 004c 14000000 		.4byte	.LFE214-.LFB214
 3902 0050 00000000 		.4byte	.LFB215
 3903 0054 14000000 		.4byte	.LFE215-.LFB215
 3904 0058 00000000 		.4byte	.LFB216
 3905 005c 14000000 		.4byte	.LFE216-.LFB216
 3906 0060 00000000 		.4byte	.LFB217
 3907 0064 14000000 		.4byte	.LFE217-.LFB217
 3908 0068 00000000 		.4byte	0
 3909 006c 00000000 		.4byte	0
 3910              		.section	.debug_ranges,"",%progbits
 3911              	.Ldebug_ranges0:
 3912 0000 02000000 		.4byte	.LBB141
 3913 0004 04000000 		.4byte	.LBE141
 3914 0008 06000000 		.4byte	.LBB150
 3915 000c 0A000000 		.4byte	.LBE150
 3916 0010 00000000 		.4byte	0
 3917 0014 00000000 		.4byte	0
 3918 0018 02000000 		.4byte	.LBB157
 3919 001c 04000000 		.4byte	.LBE157
 3920 0020 06000000 		.4byte	.LBB166
 3921 0024 0A000000 		.4byte	.LBE166
 3922 0028 00000000 		.4byte	0
 3923 002c 00000000 		.4byte	0
 3924 0030 0E000000 		.4byte	.LBB178
 3925 0034 10000000 		.4byte	.LBE178
 3926 0038 12000000 		.4byte	.LBB189
 3927 003c 16000000 		.4byte	.LBE189
 3928 0040 00000000 		.4byte	0
 3929 0044 00000000 		.4byte	0
 3930 0048 00000000 		.4byte	.LFB207
 3931 004c 04000000 		.4byte	.LFE207
 3932 0050 00000000 		.4byte	.LFB208
 3933 0054 0E000000 		.4byte	.LFE208
ARM GAS  /tmp/cc9MJEZf.s 			page 70


 3934 0058 00000000 		.4byte	.LFB209
 3935 005c 22000000 		.4byte	.LFE209
 3936 0060 00000000 		.4byte	.LFB210
 3937 0064 1C000000 		.4byte	.LFE210
 3938 0068 00000000 		.4byte	.LFB211
 3939 006c 1C000000 		.4byte	.LFE211
 3940 0070 00000000 		.4byte	.LFB212
 3941 0074 1E000000 		.4byte	.LFE212
 3942 0078 00000000 		.4byte	.LFB213
 3943 007c 20000000 		.4byte	.LFE213
 3944 0080 00000000 		.4byte	.LFB214
 3945 0084 14000000 		.4byte	.LFE214
 3946 0088 00000000 		.4byte	.LFB215
 3947 008c 14000000 		.4byte	.LFE215
 3948 0090 00000000 		.4byte	.LFB216
 3949 0094 14000000 		.4byte	.LFE216
 3950 0098 00000000 		.4byte	.LFB217
 3951 009c 14000000 		.4byte	.LFE217
 3952 00a0 00000000 		.4byte	0
 3953 00a4 00000000 		.4byte	0
 3954              		.section	.debug_line,"",%progbits
 3955              	.Ldebug_line0:
 3956 0000 9A040000 		.section	.debug_str,"MS",%progbits,1
 3956      02000803 
 3956      00000201 
 3956      FB0E0D00 
 3956      01010101 
 3957              	.LASF122:
 3958 0000 70776D63 		.ascii	"pwmchannel_t\000"
 3958      68616E6E 
 3958      656C5F74 
 3958      00
 3959              	.LASF49:
 3960 000d 72656164 		.ascii	"ready_list_t\000"
 3960      795F6C69 
 3960      73745F74 
 3960      00
 3961              	.LASF112:
 3962 001a 44494552 		.ascii	"DIER\000"
 3962      00
 3963              	.LASF85:
 3964 001f 77747472 		.ascii	"wttrp\000"
 3964      7000
 3965              	.LASF82:
 3966 0025 7264796D 		.ascii	"rdymsg\000"
 3966      736700
 3967              	.LASF18:
 3968 002c 75696E74 		.ascii	"uint64_t\000"
 3968      36345F74 
 3968      00
 3969              	.LASF4:
 3970 0035 5F5F7569 		.ascii	"__uint8_t\000"
 3970      6E74385F 
 3970      7400
 3971              	.LASF79:
 3972 003f 706F7274 		.ascii	"port_intctx\000"
 3972      5F696E74 
ARM GAS  /tmp/cc9MJEZf.s 			page 71


 3972      63747800 
 3973              	.LASF48:
 3974 004b 63685F74 		.ascii	"ch_threads_queue\000"
 3974      68726561 
 3974      64735F71 
 3974      75657565 
 3974      00
 3975              	.LASF66:
 3976 005c 73797374 		.ascii	"system_debug_t\000"
 3976      656D5F64 
 3976      65627567 
 3976      5F7400
 3977              	.LASF131:
 3978 006b 706F7274 		.ascii	"port_lock\000"
 3978      5F6C6F63 
 3978      6B00
 3979              	.LASF151:
 3980 0075 70776D45 		.ascii	"pwmEnableChannelNotification\000"
 3980      6E61626C 
 3980      65436861 
 3980      6E6E656C 
 3980      4E6F7469 
 3981              	.LASF13:
 3982 0092 6C6F6E67 		.ascii	"long long unsigned int\000"
 3982      206C6F6E 
 3982      6720756E 
 3982      7369676E 
 3982      65642069 
 3983              	.LASF83:
 3984 00a9 65786974 		.ascii	"exitcode\000"
 3984      636F6465 
 3984      00
 3985              	.LASF73:
 3986 00b2 6D61696E 		.ascii	"mainthread\000"
 3986      74687265 
 3986      616400
 3987              	.LASF63:
 3988 00bd 76697274 		.ascii	"virtual_timers_list_t\000"
 3988      75616C5F 
 3988      74696D65 
 3988      72735F6C 
 3988      6973745F 
 3989              	.LASF157:
 3990 00d3 70776D5F 		.ascii	"pwm_lld_disable_channel\000"
 3990      6C6C645F 
 3990      64697361 
 3990      626C655F 
 3990      6368616E 
 3991              	.LASF116:
 3992 00eb 42445452 		.ascii	"BDTR\000"
 3992      00
 3993              	.LASF128:
 3994 00f0 66726571 		.ascii	"frequency\000"
 3994      75656E63 
 3994      7900
 3995              	.LASF31:
 3996 00fa 705F7072 		.ascii	"p_prio\000"
ARM GAS  /tmp/cc9MJEZf.s 			page 72


 3996      696F00
 3997              	.LASF101:
 3998 0101 50574D5F 		.ascii	"PWM_READY\000"
 3998      52454144 
 3998      5900
 3999              	.LASF140:
 4000 010b 70776D53 		.ascii	"pwmStart\000"
 4000      74617274 
 4000      00
 4001              	.LASF113:
 4002 0114 43434D52 		.ascii	"CCMR1\000"
 4002      3100
 4003              	.LASF114:
 4004 011a 43434D52 		.ascii	"CCMR2\000"
 4004      3200
 4005              	.LASF118:
 4006 0120 43434D52 		.ascii	"CCMR3\000"
 4006      3300
 4007              	.LASF1:
 4008 0126 7369676E 		.ascii	"signed char\000"
 4008      65642063 
 4008      68617200 
 4009              	.LASF144:
 4010 0132 70776D43 		.ascii	"pwmChangePeriod\000"
 4010      68616E67 
 4010      65506572 
 4010      696F6400 
 4011              	.LASF121:
 4012 0142 70776D6D 		.ascii	"pwmmode_t\000"
 4012      6F64655F 
 4012      7400
 4013              	.LASF161:
 4014 014c 474E5520 		.ascii	"GNU C 4.9.3 20150529 (release) [ARM/embedded-4_9-br"
 4014      4320342E 
 4014      392E3320 
 4014      32303135 
 4014      30353239 
 4015 017f 616E6368 		.ascii	"anch revision 224288] -mcpu=cortex-m3 -mno-thumb-in"
 4015      20726576 
 4015      6973696F 
 4015      6E203232 
 4015      34323838 
 4016 01b2 74657277 		.ascii	"terwork -mthumb -ggdb -O2 -fomit-frame-pointer -fal"
 4016      6F726B20 
 4016      2D6D7468 
 4016      756D6220 
 4016      2D676764 
 4017 01e5 69676E2D 		.ascii	"ign-functions=16 -ffunction-sections -fdata-section"
 4017      66756E63 
 4017      74696F6E 
 4017      733D3136 
 4017      202D6666 
 4018 0218 73202D66 		.ascii	"s -fno-common\000"
 4018      6E6F2D63 
 4018      6F6D6D6F 
 4018      6E00
 4019              	.LASF132:
ARM GAS  /tmp/cc9MJEZf.s 			page 73


 4020 0226 706F7274 		.ascii	"port_unlock\000"
 4020      5F756E6C 
 4020      6F636B00 
 4021              	.LASF104:
 4022 0232 73746174 		.ascii	"state\000"
 4022      6500
 4023              	.LASF108:
 4024 0238 6368616E 		.ascii	"channels\000"
 4024      6E656C73 
 4024      00
 4025              	.LASF8:
 4026 0241 6C6F6E67 		.ascii	"long int\000"
 4026      20696E74 
 4026      00
 4027              	.LASF154:
 4028 024a 70776D5F 		.ascii	"pwm_lld_start\000"
 4028      6C6C645F 
 4028      73746172 
 4028      7400
 4029              	.LASF160:
 4030 0258 70776D5F 		.ascii	"pwm_lld_enable_channel_notification\000"
 4030      6C6C645F 
 4030      656E6162 
 4030      6C655F63 
 4030      68616E6E 
 4031              	.LASF21:
 4032 027c 74737461 		.ascii	"tstate_t\000"
 4032      74655F74 
 4032      00
 4033              	.LASF138:
 4034 0285 70776D49 		.ascii	"pwmInit\000"
 4034      6E697400 
 4035              	.LASF115:
 4036 028d 43434552 		.ascii	"CCER\000"
 4036      00
 4037              	.LASF11:
 4038 0292 6C6F6E67 		.ascii	"long long int\000"
 4038      206C6F6E 
 4038      6720696E 
 4038      7400
 4039              	.LASF15:
 4040 02a0 75696E74 		.ascii	"uint16_t\000"
 4040      31365F74 
 4040      00
 4041              	.LASF110:
 4042 02a9 70776D63 		.ascii	"pwmcallback_t\000"
 4042      616C6C62 
 4042      61636B5F 
 4042      7400
 4043              	.LASF90:
 4044 02b7 735F7175 		.ascii	"s_queue\000"
 4044      65756500 
 4045              	.LASF6:
 4046 02bf 73686F72 		.ascii	"short unsigned int\000"
 4046      7420756E 
 4046      7369676E 
 4046      65642069 
ARM GAS  /tmp/cc9MJEZf.s 			page 74


 4046      6E7400
 4047              	.LASF9:
 4048 02d2 5F5F7569 		.ascii	"__uint32_t\000"
 4048      6E743332 
 4048      5F7400
 4049              	.LASF42:
 4050 02dd 705F6D70 		.ascii	"p_mpool\000"
 4050      6F6F6C00 
 4051              	.LASF76:
 4052 02e5 72656761 		.ascii	"regarm_t\000"
 4052      726D5F74 
 4052      00
 4053              	.LASF59:
 4054 02ee 76745F70 		.ascii	"vt_prev\000"
 4054      72657600 
 4055              	.LASF72:
 4056 02f6 76746C69 		.ascii	"vtlist\000"
 4056      737400
 4057              	.LASF136:
 4058 02fd 6F73616C 		.ascii	"osalSysLock\000"
 4058      5379734C 
 4058      6F636B00 
 4059              	.LASF97:
 4060 0309 6D757465 		.ascii	"mutex_t\000"
 4060      785F7400 
 4061              	.LASF163:
 4062 0311 76616C75 		.ascii	"value\000"
 4062      6500
 4063              	.LASF74:
 4064 0317 69646C65 		.ascii	"idle_thread_wa\000"
 4064      5F746872 
 4064      6561645F 
 4064      776100
 4065              	.LASF26:
 4066 0326 636E745F 		.ascii	"cnt_t\000"
 4066      7400
 4067              	.LASF0:
 4068 032c 756E7369 		.ascii	"unsigned int\000"
 4068      676E6564 
 4068      20696E74 
 4068      00
 4069              	.LASF58:
 4070 0339 76745F6E 		.ascii	"vt_next\000"
 4070      65787400 
 4071              	.LASF86:
 4072 0341 77747365 		.ascii	"wtsemp\000"
 4072      6D7000
 4073              	.LASF37:
 4074 0348 705F6D73 		.ascii	"p_msgqueue\000"
 4074      67717565 
 4074      756500
 4075              	.LASF158:
 4076 0353 70776D5F 		.ascii	"pwm_lld_enable_periodic_notification\000"
 4076      6C6C645F 
 4076      656E6162 
 4076      6C655F70 
 4076      6572696F 
ARM GAS  /tmp/cc9MJEZf.s 			page 75


 4077              	.LASF45:
 4078 0378 63685F74 		.ascii	"ch_thread\000"
 4078      68726561 
 4078      6400
 4079              	.LASF147:
 4080 0382 77696474 		.ascii	"width\000"
 4080      6800
 4081              	.LASF111:
 4082 0388 534D4352 		.ascii	"SMCR\000"
 4082      00
 4083              	.LASF24:
 4084 038d 6D73675F 		.ascii	"msg_t\000"
 4084      7400
 4085              	.LASF46:
 4086 0393 63685F74 		.ascii	"ch_threads_list\000"
 4086      68726561 
 4086      64735F6C 
 4086      69737400 
 4087              	.LASF148:
 4088 03a3 70776D44 		.ascii	"pwmDisableChannel\000"
 4088      69736162 
 4088      6C654368 
 4088      616E6E65 
 4088      6C00
 4089              	.LASF69:
 4090 03b5 63685F73 		.ascii	"ch_system_t\000"
 4090      79737465 
 4090      6D5F7400 
 4091              	.LASF126:
 4092 03c1 63616C6C 		.ascii	"callback\000"
 4092      6261636B 
 4092      00
 4093              	.LASF120:
 4094 03ca 73746D33 		.ascii	"stm32_tim_t\000"
 4094      325F7469 
 4094      6D5F7400 
 4095              	.LASF50:
 4096 03d6 63685F72 		.ascii	"ch_ready_list\000"
 4096      65616479 
 4096      5F6C6973 
 4096      7400
 4097              	.LASF25:
 4098 03e4 6576656E 		.ascii	"eventmask_t\000"
 4098      746D6173 
 4098      6B5F7400 
 4099              	.LASF165:
 4100 03f0 70776D5F 		.ascii	"pwm_lld_disable_channel_notification\000"
 4100      6C6C645F 
 4100      64697361 
 4100      626C655F 
 4100      6368616E 
 4101              	.LASF7:
 4102 0415 5F5F696E 		.ascii	"__int32_t\000"
 4102      7433325F 
 4102      7400
 4103              	.LASF141:
 4104 041f 70776D70 		.ascii	"pwmp\000"
ARM GAS  /tmp/cc9MJEZf.s 			page 76


 4104      00
 4105              	.LASF77:
 4106 0424 73746B61 		.ascii	"stkalign_t\000"
 4106      6C69676E 
 4106      5F7400
 4107              	.LASF44:
 4108 042f 74687265 		.ascii	"threads_list_t\000"
 4108      6164735F 
 4108      6C697374 
 4108      5F7400
 4109              	.LASF36:
 4110 043e 705F7761 		.ascii	"p_waiting\000"
 4110      6974696E 
 4110      6700
 4111              	.LASF142:
 4112 0448 70776D53 		.ascii	"pwmStop\000"
 4112      746F7000 
 4113              	.LASF75:
 4114 0450 73697A65 		.ascii	"sizetype\000"
 4114      74797065 
 4114      00
 4115              	.LASF43:
 4116 0459 74687265 		.ascii	"thread_reference_t\000"
 4116      61645F72 
 4116      65666572 
 4116      656E6365 
 4116      5F7400
 4117              	.LASF64:
 4118 046c 63685F76 		.ascii	"ch_virtual_timers_list\000"
 4118      69727475 
 4118      616C5F74 
 4118      696D6572 
 4118      735F6C69 
 4119              	.LASF150:
 4120 0483 70776D44 		.ascii	"pwmDisablePeriodicNotification\000"
 4120      69736162 
 4120      6C655065 
 4120      72696F64 
 4120      69634E6F 
 4121              	.LASF139:
 4122 04a2 70776D4F 		.ascii	"pwmObjectInit\000"
 4122      626A6563 
 4122      74496E69 
 4122      7400
 4123              	.LASF39:
 4124 04b0 705F6570 		.ascii	"p_epending\000"
 4124      656E6469 
 4124      6E6700
 4125              	.LASF164:
 4126 04bb 70776D5F 		.ascii	"pwm_lld_init\000"
 4126      6C6C645F 
 4126      696E6974 
 4126      00
 4127              	.LASF53:
 4128 04c8 725F6374 		.ascii	"r_ctx\000"
 4128      7800
 4129              	.LASF81:
ARM GAS  /tmp/cc9MJEZf.s 			page 77


 4130 04ce 746D5F63 		.ascii	"tm_calibration_t\000"
 4130      616C6962 
 4130      72617469 
 4130      6F6E5F74 
 4130      00
 4131              	.LASF54:
 4132 04df 725F6375 		.ascii	"r_current\000"
 4132      7272656E 
 4132      7400
 4133              	.LASF12:
 4134 04e9 5F5F7569 		.ascii	"__uint64_t\000"
 4134      6E743634 
 4134      5F7400
 4135              	.LASF159:
 4136 04f4 70776D5F 		.ascii	"pwm_lld_disable_periodic_notification\000"
 4136      6C6C645F 
 4136      64697361 
 4136      626C655F 
 4136      70657269 
 4137              	.LASF22:
 4138 051a 74726566 		.ascii	"trefs_t\000"
 4138      735F7400 
 4139              	.LASF56:
 4140 0522 76697274 		.ascii	"virtual_timer_t\000"
 4140      75616C5F 
 4140      74696D65 
 4140      725F7400 
 4141              	.LASF30:
 4142 0532 705F7072 		.ascii	"p_prev\000"
 4142      657600
 4143              	.LASF23:
 4144 0539 74707269 		.ascii	"tprio_t\000"
 4144      6F5F7400 
 4145              	.LASF67:
 4146 0541 63685F73 		.ascii	"ch_system_debug\000"
 4146      79737465 
 4146      6D5F6465 
 4146      62756700 
 4147              	.LASF98:
 4148 0551 5F426F6F 		.ascii	"_Bool\000"
 4148      6C00
 4149              	.LASF16:
 4150 0557 696E7433 		.ascii	"int32_t\000"
 4150      325F7400 
 4151              	.LASF2:
 4152 055f 756E7369 		.ascii	"unsigned char\000"
 4152      676E6564 
 4152      20636861 
 4152      7200
 4153              	.LASF93:
 4154 056d 6D5F7175 		.ascii	"m_queue\000"
 4154      65756500 
 4155              	.LASF153:
 4156 0575 49544D5F 		.ascii	"ITM_RxBuffer\000"
 4156      52784275 
 4156      66666572 
 4156      00
ARM GAS  /tmp/cc9MJEZf.s 			page 78


 4157              	.LASF91:
 4158 0582 735F636E 		.ascii	"s_cnt\000"
 4158      7400
 4159              	.LASF40:
 4160 0588 705F6D74 		.ascii	"p_mtxlist\000"
 4160      786C6973 
 4160      7400
 4161              	.LASF3:
 4162 0592 73686F72 		.ascii	"short int\000"
 4162      7420696E 
 4162      7400
 4163              	.LASF33:
 4164 059c 705F7374 		.ascii	"p_state\000"
 4164      61746500 
 4165              	.LASF52:
 4166 05a4 725F7072 		.ascii	"r_prio\000"
 4166      696F00
 4167              	.LASF88:
 4168 05ab 65776D61 		.ascii	"ewmask\000"
 4168      736B00
 4169              	.LASF29:
 4170 05b2 705F6E65 		.ascii	"p_next\000"
 4170      787400
 4171              	.LASF123:
 4172 05b9 70776D63 		.ascii	"pwmchnmsk_t\000"
 4172      686E6D73 
 4172      6B5F7400 
 4173              	.LASF34:
 4174 05c5 705F666C 		.ascii	"p_flags\000"
 4174      61677300 
 4175              	.LASF143:
 4176 05cd 5F5F6675 		.ascii	"__func__\000"
 4176      6E635F5F 
 4176      00
 4177              	.LASF133:
 4178 05d6 63685379 		.ascii	"chSysLock\000"
 4178      734C6F63 
 4178      6B00
 4179              	.LASF70:
 4180 05e0 63685F73 		.ascii	"ch_system\000"
 4180      79737465 
 4180      6D00
 4181              	.LASF137:
 4182 05ea 6F73616C 		.ascii	"osalSysUnlock\000"
 4182      53797355 
 4182      6E6C6F63 
 4182      6B00
 4183              	.LASF146:
 4184 05f8 6368616E 		.ascii	"channel\000"
 4184      6E656C00 
 4185              	.LASF57:
 4186 0600 63685F76 		.ascii	"ch_virtual_timer\000"
 4186      69727475 
 4186      616C5F74 
 4186      696D6572 
 4186      00
 4187              	.LASF89:
ARM GAS  /tmp/cc9MJEZf.s 			page 79


 4188 0611 63685F73 		.ascii	"ch_semaphore\000"
 4188      656D6170 
 4188      686F7265 
 4188      00
 4189              	.LASF119:
 4190 061e 43435852 		.ascii	"CCXR\000"
 4190      00
 4191              	.LASF155:
 4192 0623 70776D5F 		.ascii	"pwm_lld_stop\000"
 4192      6C6C645F 
 4192      73746F70 
 4192      00
 4193              	.LASF17:
 4194 0630 75696E74 		.ascii	"uint32_t\000"
 4194      33325F74 
 4194      00
 4195              	.LASF87:
 4196 0639 77746D74 		.ascii	"wtmtxp\000"
 4196      787000
 4197              	.LASF51:
 4198 0640 725F7175 		.ascii	"r_queue\000"
 4198      65756500 
 4199              	.LASF60:
 4200 0648 76745F64 		.ascii	"vt_delta\000"
 4200      656C7461 
 4200      00
 4201              	.LASF107:
 4202 0651 656E6162 		.ascii	"enabled\000"
 4202      6C656400 
 4203              	.LASF162:
 4204 0659 2F686F6D 		.ascii	"/home/maciek/ChibiOS_16.1.5/os/hal/src/pwm.c\000"
 4204      652F6D61 
 4204      6369656B 
 4204      2F436869 
 4204      62694F53 
 4205              	.LASF10:
 4206 0686 6C6F6E67 		.ascii	"long unsigned int\000"
 4206      20756E73 
 4206      69676E65 
 4206      6420696E 
 4206      7400
 4207              	.LASF156:
 4208 0698 70776D5F 		.ascii	"pwm_lld_enable_channel\000"
 4208      6C6C645F 
 4208      656E6162 
 4208      6C655F63 
 4208      68616E6E 
 4209              	.LASF100:
 4210 06af 50574D5F 		.ascii	"PWM_STOP\000"
 4210      53544F50 
 4210      00
 4211              	.LASF96:
 4212 06b8 63686172 		.ascii	"char\000"
 4212      00
 4213              	.LASF5:
 4214 06bd 5F5F7569 		.ascii	"__uint16_t\000"
 4214      6E743136 
ARM GAS  /tmp/cc9MJEZf.s 			page 80


 4214      5F7400
 4215              	.LASF125:
 4216 06c8 6D6F6465 		.ascii	"mode\000"
 4216      00
 4217              	.LASF105:
 4218 06cd 636F6E66 		.ascii	"config\000"
 4218      696700
 4219              	.LASF117:
 4220 06d4 444D4152 		.ascii	"DMAR\000"
 4220      00
 4221              	.LASF28:
 4222 06d9 74687265 		.ascii	"thread_t\000"
 4222      61645F74 
 4222      00
 4223              	.LASF95:
 4224 06e2 6D5F6E65 		.ascii	"m_next\000"
 4224      787400
 4225              	.LASF27:
 4226 06e9 73797374 		.ascii	"systime_t\000"
 4226      696D655F 
 4226      7400
 4227              	.LASF41:
 4228 06f3 705F7265 		.ascii	"p_realprio\000"
 4228      616C7072 
 4228      696F00
 4229              	.LASF55:
 4230 06fe 76746675 		.ascii	"vtfunc_t\000"
 4230      6E635F74 
 4230      00
 4231              	.LASF134:
 4232 0707 5F5F7365 		.ascii	"__set_BASEPRI\000"
 4232      745F4241 
 4232      53455052 
 4232      4900
 4233              	.LASF149:
 4234 0715 70776D45 		.ascii	"pwmEnablePeriodicNotification\000"
 4234      6E61626C 
 4234      65506572 
 4234      696F6469 
 4234      634E6F74 
 4235              	.LASF106:
 4236 0733 70657269 		.ascii	"period\000"
 4236      6F6400
 4237              	.LASF68:
 4238 073a 70616E69 		.ascii	"panic_msg\000"
 4238      635F6D73 
 4238      6700
 4239              	.LASF80:
 4240 0744 6F666673 		.ascii	"offset\000"
 4240      657400
 4241              	.LASF78:
 4242 074b 636F6E74 		.ascii	"context\000"
 4242      65787400 
 4243              	.LASF127:
 4244 0753 50574D43 		.ascii	"PWMChannelConfig\000"
 4244      68616E6E 
 4244      656C436F 
ARM GAS  /tmp/cc9MJEZf.s 			page 81


 4244      6E666967 
 4244      00
 4245              	.LASF19:
 4246 0764 7274636E 		.ascii	"rtcnt_t\000"
 4246      745F7400 
 4247              	.LASF62:
 4248 076c 76745F70 		.ascii	"vt_par\000"
 4248      617200
 4249              	.LASF130:
 4250 0773 50574D43 		.ascii	"PWMConfig\000"
 4250      6F6E6669 
 4250      6700
 4251              	.LASF47:
 4252 077d 74687265 		.ascii	"threads_queue_t\000"
 4252      6164735F 
 4252      71756575 
 4252      655F7400 
 4253              	.LASF92:
 4254 078d 63685F6D 		.ascii	"ch_mutex\000"
 4254      75746578 
 4254      00
 4255              	.LASF35:
 4256 0796 705F7265 		.ascii	"p_refs\000"
 4256      667300
 4257              	.LASF71:
 4258 079d 726C6973 		.ascii	"rlist\000"
 4258      7400
 4259              	.LASF14:
 4260 07a3 75696E74 		.ascii	"uint8_t\000"
 4260      385F7400 
 4261              	.LASF152:
 4262 07ab 70776D44 		.ascii	"pwmDisableChannelNotification\000"
 4262      69736162 
 4262      6C654368 
 4262      616E6E65 
 4262      6C4E6F74 
 4263              	.LASF103:
 4264 07c9 50574D44 		.ascii	"PWMDriver\000"
 4264      72697665 
 4264      7200
 4265              	.LASF102:
 4266 07d3 70776D73 		.ascii	"pwmstate_t\000"
 4266      74617465 
 4266      5F7400
 4267              	.LASF124:
 4268 07de 70776D63 		.ascii	"pwmcnt_t\000"
 4268      6E745F74 
 4268      00
 4269              	.LASF84:
 4270 07e7 77746F62 		.ascii	"wtobjp\000"
 4270      6A7000
 4271              	.LASF65:
 4272 07ee 76745F73 		.ascii	"vt_systime\000"
 4272      79737469 
 4272      6D6500
 4273              	.LASF20:
 4274 07f9 746D6F64 		.ascii	"tmode_t\000"
ARM GAS  /tmp/cc9MJEZf.s 			page 82


 4274      655F7400 
 4275              	.LASF135:
 4276 0801 63685379 		.ascii	"chSysUnlock\000"
 4276      73556E6C 
 4276      6F636B00 
 4277              	.LASF38:
 4278 080d 705F6D73 		.ascii	"p_msg\000"
 4278      6700
 4279              	.LASF109:
 4280 0813 636C6F63 		.ascii	"clock\000"
 4280      6B00
 4281              	.LASF99:
 4282 0819 50574D5F 		.ascii	"PWM_UNINIT\000"
 4282      554E494E 
 4282      495400
 4283              	.LASF94:
 4284 0824 6D5F6F77 		.ascii	"m_owner\000"
 4284      6E657200 
 4285              	.LASF145:
 4286 082c 70776D45 		.ascii	"pwmEnableChannel\000"
 4286      6E61626C 
 4286      65436861 
 4286      6E6E656C 
 4286      00
 4287              	.LASF32:
 4288 083d 705F6374 		.ascii	"p_ctx\000"
 4288      7800
 4289              	.LASF61:
 4290 0843 76745F66 		.ascii	"vt_func\000"
 4290      756E6300 
 4291              	.LASF129:
 4292 084b 64696572 		.ascii	"dier\000"
 4292      00
 4293              		.ident	"GCC: (GNU Tools for ARM Embedded Processors) 4.9.3 20150529 (release) [ARM/embedded-4_9-br
ARM GAS  /tmp/cc9MJEZf.s 			page 83


DEFINED SYMBOLS
                            *ABS*:00000000 pwm.c
     /tmp/cc9MJEZf.s:19     .text.pwmInit:00000000 $t
     /tmp/cc9MJEZf.s:25     .text.pwmInit:00000000 pwmInit
     /tmp/cc9MJEZf.s:40     .text.pwmObjectInit:00000000 $t
     /tmp/cc9MJEZf.s:46     .text.pwmObjectInit:00000000 pwmObjectInit
     /tmp/cc9MJEZf.s:70     .text.pwmStart:00000000 $t
     /tmp/cc9MJEZf.s:76     .text.pwmStart:00000000 pwmStart
     /tmp/cc9MJEZf.s:157    .text.pwmStop:00000000 $t
     /tmp/cc9MJEZf.s:163    .text.pwmStop:00000000 pwmStop
     /tmp/cc9MJEZf.s:237    .text.pwmChangePeriod:00000000 $t
     /tmp/cc9MJEZf.s:243    .text.pwmChangePeriod:00000000 pwmChangePeriod
     /tmp/cc9MJEZf.s:317    .text.pwmEnableChannel:00000000 $t
     /tmp/cc9MJEZf.s:323    .text.pwmEnableChannel:00000000 pwmEnableChannel
     /tmp/cc9MJEZf.s:383    .text.pwmDisableChannel:00000000 $t
     /tmp/cc9MJEZf.s:389    .text.pwmDisableChannel:00000000 pwmDisableChannel
     /tmp/cc9MJEZf.s:449    .text.pwmEnablePeriodicNotification:00000000 $t
     /tmp/cc9MJEZf.s:455    .text.pwmEnablePeriodicNotification:00000000 pwmEnablePeriodicNotification
     /tmp/cc9MJEZf.s:508    .text.pwmDisablePeriodicNotification:00000000 $t
     /tmp/cc9MJEZf.s:514    .text.pwmDisablePeriodicNotification:00000000 pwmDisablePeriodicNotification
     /tmp/cc9MJEZf.s:567    .text.pwmEnableChannelNotification:00000000 $t
     /tmp/cc9MJEZf.s:573    .text.pwmEnableChannelNotification:00000000 pwmEnableChannelNotification
     /tmp/cc9MJEZf.s:626    .text.pwmDisableChannelNotification:00000000 $t
     /tmp/cc9MJEZf.s:632    .text.pwmDisableChannelNotification:00000000 pwmDisableChannelNotification
                     .debug_frame:00000010 $d

UNDEFINED SYMBOLS
pwm_lld_init
pwm_lld_start
pwm_lld_stop
pwm_lld_enable_channel
pwm_lld_disable_channel
pwm_lld_enable_periodic_notification
pwm_lld_disable_periodic_notification
pwm_lld_enable_channel_notification
pwm_lld_disable_channel_notification
