ARM GAS  /tmp/ccf1rdWi.s 			page 1


   1              		.syntax unified
   2              		.cpu cortex-m3
   3              		.fpu softvfp
   4              		.eabi_attribute 20, 1
   5              		.eabi_attribute 21, 1
   6              		.eabi_attribute 23, 3
   7              		.eabi_attribute 24, 1
   8              		.eabi_attribute 25, 1
   9              		.eabi_attribute 26, 1
  10              		.eabi_attribute 30, 2
  11              		.eabi_attribute 34, 1
  12              		.eabi_attribute 18, 4
  13              		.thumb
  14              		.file	"pwmio.c"
  15              		.text
  16              	.Ltext0:
  17              		.cfi_sections	.debug_frame
  18              		.section	.text.pwmOutputUpdateRoll,"ax",%progbits
  19              		.align	2
  20              		.p2align 4,,15
  21              		.thumb
  22              		.thumb_func
  23              		.type	pwmOutputUpdateRoll, %function
  24              	pwmOutputUpdateRoll:
  25              	.LFB212:
  26              		.file 1 "drivers/STORM32_V1_X/pwmio.c"
  27              		.loc 1 409 0
  28              		.cfi_startproc
  29              		@ args = 0, pretend = 0, frame = 0
  30              		@ frame_needed = 0, uses_anonymous_args = 0
  31              		@ link register save eliminated.
  32              		.loc 1 411 0
  33 0000 124B     		ldr	r3, .L5
  34              		.loc 1 412 0
  35 0002 134A     		ldr	r2, .L5+4
  36              		.loc 1 411 0
  37 0004 9B69     		ldr	r3, [r3, #24]
  38              		.loc 1 412 0
  39 0006 9269     		ldr	r2, [r2, #24]
  40              		.loc 1 411 0
  41 0008 1968     		ldr	r1, [r3]
  42              		.loc 1 409 0
  43 000a 10B4     		push	{r4}
  44              		.cfi_def_cfa_offset 4
  45              		.cfi_offset 4, -4
  46              		.loc 1 411 0
  47 000c 41F00201 		orr	r1, r1, #2
  48 0010 1960     		str	r1, [r3]
  49              		.loc 1 412 0
  50 0012 1168     		ldr	r1, [r2]
  51              		.loc 1 415 0
  52 0014 0F48     		ldr	r0, .L5+8
  53              		.loc 1 412 0
  54 0016 41F00201 		orr	r1, r1, #2
  55 001a 1160     		str	r1, [r2]
  56              		.loc 1 415 0
  57 001c 8179     		ldrb	r1, [r0, #6]	@ zero_extendqisi2
ARM GAS  /tmp/ccf1rdWi.s 			page 2


  58 001e 11F0010F 		tst	r1, #1
  59              		.loc 1 416 0
  60 0022 0D49     		ldr	r1, .L5+12
  61              		.loc 1 419 0
  62 0024 06BF     		itte	eq
  63 0026 0C68     		ldreq	r4, [r1]
  64              		.loc 1 420 0
  65 0028 4868     		ldreq	r0, [r1, #4]
  66              		.loc 1 417 0
  67 002a 91E81100 		ldmiane	r1, {r0, r4}
  68              		.loc 1 419 0
  69 002e 5463     		str	r4, [r2, #52]
  70              		.loc 1 420 0
  71 0030 1864     		str	r0, [r3, #64]
  72              		.loc 1 422 0
  73 0032 8968     		ldr	r1, [r1, #8]
  74              		.loc 1 427 0
  75 0034 5DF8044B 		ldr	r4, [sp], #4
  76              		.cfi_restore 4
  77              		.cfi_def_cfa_offset 0
  78              		.loc 1 422 0
  79 0038 D963     		str	r1, [r3, #60]
  80              		.loc 1 425 0
  81 003a 1968     		ldr	r1, [r3]
  82 003c 21F00201 		bic	r1, r1, #2
  83 0040 1960     		str	r1, [r3]
  84              		.loc 1 426 0
  85 0042 1368     		ldr	r3, [r2]
  86 0044 23F00203 		bic	r3, r3, #2
  87 0048 1360     		str	r3, [r2]
  88              		.loc 1 427 0
  89 004a 7047     		bx	lr
  90              	.L6:
  91              		.align	2
  92              	.L5:
  93 004c 00000000 		.word	PWMD2
  94 0050 00000000 		.word	PWMD3
  95 0054 00000000 		.word	.LANCHOR0
  96 0058 00000000 		.word	.LANCHOR1
  97              		.cfi_endproc
  98              	.LFE212:
  99              		.size	pwmOutputUpdateRoll, .-pwmOutputUpdateRoll
 100              		.section	.text.pwmOutputUpdatePitch,"ax",%progbits
 101              		.align	2
 102              		.p2align 4,,15
 103              		.thumb
 104              		.thumb_func
 105              		.type	pwmOutputUpdatePitch, %function
 106              	pwmOutputUpdatePitch:
 107              	.LFB213:
 108              		.loc 1 432 0
 109              		.cfi_startproc
 110              		@ args = 0, pretend = 0, frame = 0
 111              		@ frame_needed = 0, uses_anonymous_args = 0
 112              		@ link register save eliminated.
 113              		.loc 1 434 0
 114 0000 0C4B     		ldr	r3, .L10
ARM GAS  /tmp/ccf1rdWi.s 			page 3


 115              		.loc 1 437 0
 116 0002 0D49     		ldr	r1, .L10+4
 117              		.loc 1 434 0
 118 0004 9B69     		ldr	r3, [r3, #24]
 119 0006 1A68     		ldr	r2, [r3]
 120 0008 42F00202 		orr	r2, r2, #2
 121 000c 1A60     		str	r2, [r3]
 122              		.loc 1 437 0
 123 000e 8A78     		ldrb	r2, [r1, #2]	@ zero_extendqisi2
 124 0010 12F0010F 		tst	r2, #1
 125              		.loc 1 438 0
 126 0014 094A     		ldr	r2, .L10+8
 127 0016 1ABF     		itte	ne
 128 0018 5068     		ldrne	r0, [r2, #4]
 129              		.loc 1 439 0
 130 001a 1168     		ldrne	r1, [r2]
 131              		.loc 1 442 0
 132 001c 92E80300 		ldmiaeq	r2, {r0, r1}
 133              		.loc 1 441 0
 134 0020 1864     		str	r0, [r3, #64]
 135              		.loc 1 442 0
 136 0022 D963     		str	r1, [r3, #60]
 137              		.loc 1 444 0
 138 0024 9268     		ldr	r2, [r2, #8]
 139 0026 9A63     		str	r2, [r3, #56]
 140              		.loc 1 447 0
 141 0028 1A68     		ldr	r2, [r3]
 142 002a 22F00202 		bic	r2, r2, #2
 143 002e 1A60     		str	r2, [r3]
 144 0030 7047     		bx	lr
 145              	.L11:
 146 0032 00BF     		.align	2
 147              	.L10:
 148 0034 00000000 		.word	PWMD3
 149 0038 00000000 		.word	.LANCHOR0
 150 003c 00000000 		.word	.LANCHOR1
 151              		.cfi_endproc
 152              	.LFE213:
 153              		.size	pwmOutputUpdatePitch, .-pwmOutputUpdatePitch
 154              		.section	.text.pwmOutputUpdateYaw,"ax",%progbits
 155              		.align	2
 156              		.p2align 4,,15
 157              		.thumb
 158              		.thumb_func
 159              		.type	pwmOutputUpdateYaw, %function
 160              	pwmOutputUpdateYaw:
 161              	.LFB214:
 162              		.loc 1 453 0
 163              		.cfi_startproc
 164              		@ args = 0, pretend = 0, frame = 0
 165              		@ frame_needed = 0, uses_anonymous_args = 0
 166              		@ link register save eliminated.
 167              	.LVL0:
 168 0000 70B4     		push	{r4, r5, r6}
 169              		.cfi_def_cfa_offset 12
 170              		.cfi_offset 4, -12
 171              		.cfi_offset 5, -8
ARM GAS  /tmp/ccf1rdWi.s 			page 4


 172              		.cfi_offset 6, -4
 173              	.LBB58:
 174              	.LBB59:
 175              	.LBB60:
 176              	.LBB61:
 177              		.file 2 "/home/maciek/ChibiOS_16.1.5/os/ext/CMSIS/include/core_cmFunc.h"
 178              		.loc 2 548 0
 179 0002 2023     		movs	r3, #32
 180              	@ 548 "/home/maciek/ChibiOS_16.1.5/os/ext/CMSIS/include/core_cmFunc.h" 1
 181 0004 83F31188 		MSR basepri, r3
 182              	@ 0 "" 2
 183              		.thumb
 184              	.LBE61:
 185              	.LBE60:
 186              	.LBE59:
 187              	.LBE58:
 188              		.loc 1 456 0
 189 0008 184A     		ldr	r2, .L16
 190              		.loc 1 457 0
 191 000a 194B     		ldr	r3, .L16+4
 192              		.loc 1 456 0
 193 000c 9469     		ldr	r4, [r2, #24]
 194              		.loc 1 457 0
 195 000e 9869     		ldr	r0, [r3, #24]
 196              		.loc 1 456 0
 197 0010 2168     		ldr	r1, [r4]
 198              	.LBB62:
 199              	.LBB63:
 200              	.LBB64:
 201              	.LBB65:
 202              	.LBB66:
 203              		.loc 2 548 0
 204 0012 0025     		movs	r5, #0
 205              	.LBE66:
 206              	.LBE65:
 207              	.LBE64:
 208              	.LBE63:
 209              	.LBE62:
 210              		.loc 1 456 0
 211 0014 41F00201 		orr	r1, r1, #2
 212 0018 2160     		str	r1, [r4]
 213              		.loc 1 457 0
 214 001a 0168     		ldr	r1, [r0]
 215 001c 41F00201 		orr	r1, r1, #2
 216 0020 0160     		str	r1, [r0]
 217              	.LVL1:
 218              	.LBB71:
 219              	.LBB70:
 220              	.LBB69:
 221              	.LBB68:
 222              	.LBB67:
 223              		.loc 2 548 0
 224              	@ 548 "/home/maciek/ChibiOS_16.1.5/os/ext/CMSIS/include/core_cmFunc.h" 1
 225 0022 85F31188 		MSR basepri, r5
 226              	@ 0 "" 2
 227              		.thumb
 228              	.LBE67:
ARM GAS  /tmp/ccf1rdWi.s 			page 5


 229              	.LBE68:
 230              	.LBE69:
 231              	.LBE70:
 232              	.LBE71:
 233              		.loc 1 467 0
 234 0026 1349     		ldr	r1, .L16+8
 235              		.loc 1 468 0
 236 0028 9869     		ldr	r0, [r3, #24]
 237              		.loc 1 467 0
 238 002a 897A     		ldrb	r1, [r1, #10]	@ zero_extendqisi2
 239              		.loc 1 472 0
 240 002c 9469     		ldr	r4, [r2, #24]
 241              		.loc 1 467 0
 242 002e 11F0010F 		tst	r1, #1
 243              		.loc 1 468 0
 244 0032 1149     		ldr	r1, .L16+12
 245              		.loc 1 471 0
 246 0034 06BF     		itte	eq
 247 0036 0E68     		ldreq	r6, [r1]
 248              		.loc 1 472 0
 249 0038 4D68     		ldreq	r5, [r1, #4]
 250              		.loc 1 469 0
 251 003a 91E86000 		ldmiane	r1, {r5, r6}
 252              		.loc 1 471 0
 253 003e 0664     		str	r6, [r0, #64]
 254              		.loc 1 472 0
 255 0040 A563     		str	r5, [r4, #56]
 256              		.loc 1 474 0
 257 0042 8C68     		ldr	r4, [r1, #8]
 258              	.LBB72:
 259              	.LBB73:
 260              	.LBB74:
 261              	.LBB75:
 262              		.loc 2 548 0
 263 0044 2021     		movs	r1, #32
 264              	.LBE75:
 265              	.LBE74:
 266              	.LBE73:
 267              	.LBE72:
 268              		.loc 1 474 0
 269 0046 C463     		str	r4, [r0, #60]
 270              	.LVL2:
 271              	.LBB79:
 272              	.LBB78:
 273              	.LBB77:
 274              	.LBB76:
 275              		.loc 2 548 0
 276              	@ 548 "/home/maciek/ChibiOS_16.1.5/os/ext/CMSIS/include/core_cmFunc.h" 1
 277 0048 81F31188 		MSR basepri, r1
 278              	@ 0 "" 2
 279              		.thumb
 280              	.LBE76:
 281              	.LBE77:
 282              	.LBE78:
 283              	.LBE79:
 284              		.loc 1 478 0
 285 004c 9169     		ldr	r1, [r2, #24]
ARM GAS  /tmp/ccf1rdWi.s 			page 6


 286              		.loc 1 479 0
 287 004e 9A69     		ldr	r2, [r3, #24]
 288              		.loc 1 478 0
 289 0050 0B68     		ldr	r3, [r1]
 290              	.LBB80:
 291              	.LBB81:
 292              	.LBB82:
 293              	.LBB83:
 294              	.LBB84:
 295              		.loc 2 548 0
 296 0052 0020     		movs	r0, #0
 297              	.LBE84:
 298              	.LBE83:
 299              	.LBE82:
 300              	.LBE81:
 301              	.LBE80:
 302              		.loc 1 478 0
 303 0054 23F00203 		bic	r3, r3, #2
 304 0058 0B60     		str	r3, [r1]
 305              		.loc 1 479 0
 306 005a 1368     		ldr	r3, [r2]
 307 005c 23F00203 		bic	r3, r3, #2
 308 0060 1360     		str	r3, [r2]
 309              	.LVL3:
 310              	.LBB89:
 311              	.LBB88:
 312              	.LBB87:
 313              	.LBB86:
 314              	.LBB85:
 315              		.loc 2 548 0
 316              	@ 548 "/home/maciek/ChibiOS_16.1.5/os/ext/CMSIS/include/core_cmFunc.h" 1
 317 0062 80F31188 		MSR basepri, r0
 318              	@ 0 "" 2
 319              		.thumb
 320              	.LBE85:
 321              	.LBE86:
 322              	.LBE87:
 323              	.LBE88:
 324              	.LBE89:
 325              		.loc 1 481 0
 326 0066 70BC     		pop	{r4, r5, r6}
 327              		.cfi_restore 6
 328              		.cfi_restore 5
 329              		.cfi_restore 4
 330              		.cfi_def_cfa_offset 0
 331 0068 7047     		bx	lr
 332              	.L17:
 333 006a 00BF     		.align	2
 334              	.L16:
 335 006c 00000000 		.word	PWMD2
 336 0070 00000000 		.word	PWMD4
 337 0074 00000000 		.word	.LANCHOR0
 338 0078 00000000 		.word	.LANCHOR1
 339              		.cfi_endproc
 340              	.LFE214:
 341              		.size	pwmOutputUpdateYaw, .-pwmOutputUpdateYaw
 342              		.global	__aeabi_i2f
ARM GAS  /tmp/ccf1rdWi.s 			page 7


 343              		.global	__aeabi_fmul
 344              		.global	__aeabi_fdiv
 345              		.global	__aeabi_fadd
 346              		.global	__aeabi_f2uiz
 347              		.global	__aeabi_f2d
 348              		.global	__aeabi_dadd
 349              		.global	__aeabi_d2f
 350              		.global	__aeabi_dsub
 351              		.section	.text.pwmOutputCmdTo3PhasePWM,"ax",%progbits
 352              		.align	2
 353              		.p2align 4,,15
 354              		.thumb
 355              		.thumb_func
 356              		.type	pwmOutputCmdTo3PhasePWM, %function
 357              	pwmOutputCmdTo3PhasePWM:
 358              	.LFB211:
 359              		.loc 1 391 0
 360              		.cfi_startproc
 361              		@ args = 0, pretend = 0, frame = 0
 362              		@ frame_needed = 0, uses_anonymous_args = 0
 363              	.LVL4:
 364 0000 2DE9F843 		push	{r3, r4, r5, r6, r7, r8, r9, lr}
 365              		.cfi_def_cfa_offset 32
 366              		.cfi_offset 3, -32
 367              		.cfi_offset 4, -28
 368              		.cfi_offset 5, -24
 369              		.cfi_offset 6, -20
 370              		.cfi_offset 7, -16
 371              		.cfi_offset 8, -12
 372              		.cfi_offset 9, -8
 373              		.cfi_offset 14, -4
 374              		.loc 1 391 0
 375 0004 1646     		mov	r6, r2
 376              		.loc 1 392 0
 377 0006 01EB8101 		add	r1, r1, r1, lsl #2
 378              	.LVL5:
 379              		.loc 1 391 0
 380 000a 0446     		mov	r4, r0
 381              		.loc 1 392 0
 382 000c 4800     		lsls	r0, r1, #1
 383              	.LVL6:
 384 000e FFF7FEFF 		bl	__aeabi_i2f
 385              	.LVL7:
 386              		.loc 1 393 0
 387 0012 002E     		cmp	r6, #0
 388 0014 3AD1     		bne	.L23
 389 0016 0546     		mov	r5, r0
 390              	.LVL8:
 391              		.loc 1 400 0
 392 0018 2046     		mov	r0, r4
 393 001a FFF7FEFF 		bl	sinf
 394              	.LVL9:
 395 001e 2946     		mov	r1, r5
 396 0020 FFF7FEFF 		bl	__aeabi_fmul
 397              	.LVL10:
 398 0024 4449     		ldr	r1, .L24+8
 399 0026 FFF7FEFF 		bl	__aeabi_fadd
ARM GAS  /tmp/ccf1rdWi.s 			page 8


 400              	.LVL11:
 401 002a FFF7FEFF 		bl	__aeabi_f2uiz
 402              	.LVL12:
 403 002e 434E     		ldr	r6, .L24+12
 404 0030 3060     		str	r0, [r6]
 405              		.loc 1 401 0
 406 0032 2046     		mov	r0, r4
 407 0034 FFF7FEFF 		bl	__aeabi_f2d
 408              	.LVL13:
 409 0038 3DA3     		adr	r3, .L24
 410 003a D3E90023 		ldrd	r2, [r3]
 411 003e 8046     		mov	r8, r0
 412 0040 8946     		mov	r9, r1
 413 0042 FFF7FEFF 		bl	__aeabi_dadd
 414              	.LVL14:
 415 0046 FFF7FEFF 		bl	__aeabi_d2f
 416              	.LVL15:
 417 004a FFF7FEFF 		bl	sinf
 418              	.LVL16:
 419 004e 2946     		mov	r1, r5
 420 0050 FFF7FEFF 		bl	__aeabi_fmul
 421              	.LVL17:
 422 0054 3849     		ldr	r1, .L24+8
 423 0056 FFF7FEFF 		bl	__aeabi_fadd
 424              	.LVL18:
 425 005a FFF7FEFF 		bl	__aeabi_f2uiz
 426              	.LVL19:
 427              		.loc 1 402 0
 428 005e 34A3     		adr	r3, .L24
 429 0060 D3E90023 		ldrd	r2, [r3]
 430              		.loc 1 401 0
 431 0064 7060     		str	r0, [r6, #4]
 432              		.loc 1 402 0
 433 0066 4946     		mov	r1, r9
 434 0068 4046     		mov	r0, r8
 435 006a FFF7FEFF 		bl	__aeabi_dsub
 436              	.LVL20:
 437 006e FFF7FEFF 		bl	__aeabi_d2f
 438              	.LVL21:
 439 0072 FFF7FEFF 		bl	sinf
 440              	.LVL22:
 441 0076 2946     		mov	r1, r5
 442 0078 FFF7FEFF 		bl	__aeabi_fmul
 443              	.LVL23:
 444 007c 2E49     		ldr	r1, .L24+8
 445 007e FFF7FEFF 		bl	__aeabi_fadd
 446              	.LVL24:
 447 0082 FFF7FEFF 		bl	__aeabi_f2uiz
 448              	.LVL25:
 449 0086 B060     		str	r0, [r6, #8]
 450 0088 BDE8F883 		pop	{r3, r4, r5, r6, r7, r8, r9, pc}
 451              	.LVL26:
 452              	.L23:
 453              	.LBB90:
 454              		.loc 1 394 0
 455 008c 2C49     		ldr	r1, .L24+16
 456 008e FFF7FEFF 		bl	__aeabi_fmul
ARM GAS  /tmp/ccf1rdWi.s 			page 9


 457              	.LVL27:
 458              		.loc 1 395 0
 459 0092 2C49     		ldr	r1, .L24+20
 460              		.loc 1 394 0
 461 0094 0646     		mov	r6, r0
 462              	.LVL28:
 463              		.loc 1 395 0
 464 0096 2046     		mov	r0, r4
 465              	.LVL29:
 466 0098 FFF7FEFF 		bl	__aeabi_fmul
 467              	.LVL30:
 468 009c FFF7FEFF 		bl	sinf
 469              	.LVL31:
 470 00a0 2949     		ldr	r1, .L24+24
 471 00a2 FFF7FEFF 		bl	__aeabi_fdiv
 472              	.LVL32:
 473 00a6 0746     		mov	r7, r0
 474              	.LVL33:
 475              		.loc 1 396 0
 476 00a8 2046     		mov	r0, r4
 477              	.LVL34:
 478 00aa FFF7FEFF 		bl	sinf
 479              	.LVL35:
 480 00ae 3946     		mov	r1, r7
 481 00b0 FFF7FEFF 		bl	__aeabi_fadd
 482              	.LVL36:
 483 00b4 3146     		mov	r1, r6
 484 00b6 FFF7FEFF 		bl	__aeabi_fmul
 485              	.LVL37:
 486 00ba 1F49     		ldr	r1, .L24+8
 487 00bc FFF7FEFF 		bl	__aeabi_fadd
 488              	.LVL38:
 489 00c0 FFF7FEFF 		bl	__aeabi_f2uiz
 490              	.LVL39:
 491 00c4 1D4D     		ldr	r5, .L24+12
 492 00c6 2860     		str	r0, [r5]
 493              		.loc 1 397 0
 494 00c8 2046     		mov	r0, r4
 495 00ca FFF7FEFF 		bl	__aeabi_f2d
 496              	.LVL40:
 497 00ce 18A3     		adr	r3, .L24
 498 00d0 D3E90023 		ldrd	r2, [r3]
 499 00d4 8046     		mov	r8, r0
 500 00d6 8946     		mov	r9, r1
 501 00d8 FFF7FEFF 		bl	__aeabi_dadd
 502              	.LVL41:
 503 00dc FFF7FEFF 		bl	__aeabi_d2f
 504              	.LVL42:
 505 00e0 FFF7FEFF 		bl	sinf
 506              	.LVL43:
 507 00e4 3946     		mov	r1, r7
 508 00e6 FFF7FEFF 		bl	__aeabi_fadd
 509              	.LVL44:
 510 00ea 3146     		mov	r1, r6
 511 00ec FFF7FEFF 		bl	__aeabi_fmul
 512              	.LVL45:
 513 00f0 1149     		ldr	r1, .L24+8
ARM GAS  /tmp/ccf1rdWi.s 			page 10


 514 00f2 FFF7FEFF 		bl	__aeabi_fadd
 515              	.LVL46:
 516 00f6 FFF7FEFF 		bl	__aeabi_f2uiz
 517              	.LVL47:
 518              		.loc 1 398 0
 519 00fa 0DA3     		adr	r3, .L24
 520 00fc D3E90023 		ldrd	r2, [r3]
 521              		.loc 1 397 0
 522 0100 6860     		str	r0, [r5, #4]
 523              		.loc 1 398 0
 524 0102 4946     		mov	r1, r9
 525 0104 4046     		mov	r0, r8
 526 0106 FFF7FEFF 		bl	__aeabi_dsub
 527              	.LVL48:
 528 010a FFF7FEFF 		bl	__aeabi_d2f
 529              	.LVL49:
 530 010e FFF7FEFF 		bl	sinf
 531              	.LVL50:
 532 0112 3946     		mov	r1, r7
 533 0114 FFF7FEFF 		bl	__aeabi_fadd
 534              	.LVL51:
 535 0118 3146     		mov	r1, r6
 536 011a FFF7FEFF 		bl	__aeabi_fmul
 537              	.LVL52:
 538 011e 0649     		ldr	r1, .L24+8
 539 0120 FFF7FEFF 		bl	__aeabi_fadd
 540              	.LVL53:
 541 0124 FFF7FEFF 		bl	__aeabi_f2uiz
 542              	.LVL54:
 543 0128 A860     		str	r0, [r5, #8]
 544              	.LBE90:
 545 012a BDE8F883 		pop	{r3, r4, r5, r6, r7, r8, r9, pc}
 546              	.LVL55:
 547              	.L25:
 548 012e 00BF     		.align	3
 549              	.L24:
 550 0130 65732D38 		.word	942502757
 551 0134 52C10040 		.word	1073791314
 552 0138 00007A44 		.word	1148846080
 553 013c 00000000 		.word	.LANCHOR1
 554 0140 3ACD933F 		.word	1066650938
 555 0144 00004040 		.word	1077936128
 556 0148 0000C040 		.word	1086324736
 557              		.cfi_endproc
 558              	.LFE211:
 559              		.size	pwmOutputCmdTo3PhasePWM, .-pwmOutputCmdTo3PhasePWM
 560              		.section	.text.pwmOutputStart,"ax",%progbits
 561              		.align	2
 562              		.p2align 4,,15
 563              		.global	pwmOutputStart
 564              		.thumb
 565              		.thumb_func
 566              		.type	pwmOutputStart, %function
 567              	pwmOutputStart:
 568              	.LFB215:
 569              		.loc 1 490 0
 570              		.cfi_startproc
ARM GAS  /tmp/ccf1rdWi.s 			page 11


 571              		@ args = 0, pretend = 0, frame = 0
 572              		@ frame_needed = 0, uses_anonymous_args = 0
 573 0000 F8B5     		push	{r3, r4, r5, r6, r7, lr}
 574              		.cfi_def_cfa_offset 24
 575              		.cfi_offset 3, -24
 576              		.cfi_offset 4, -20
 577              		.cfi_offset 5, -16
 578              		.cfi_offset 6, -12
 579              		.cfi_offset 7, -8
 580              		.cfi_offset 14, -4
 581              		.loc 1 492 0
 582 0002 224B     		ldr	r3, .L28
 583              		.loc 1 494 0
 584 0004 224C     		ldr	r4, .L28+4
 585              		.loc 1 492 0
 586 0006 1022     		movs	r2, #16
 587              		.loc 1 494 0
 588 0008 1946     		mov	r1, r3
 589 000a 2046     		mov	r0, r4
 590              		.loc 1 492 0
 591 000c DA62     		str	r2, [r3, #44]
 592              		.loc 1 494 0
 593 000e FFF7FEFF 		bl	pwmStart
 594              	.LVL56:
 595              		.loc 1 495 0
 596 0012 A269     		ldr	r2, [r4, #24]
 597              		.loc 1 497 0
 598 0014 1F4F     		ldr	r7, .L28+8
 599              		.loc 1 495 0
 600 0016 1368     		ldr	r3, [r2]
 601              		.loc 1 498 0
 602 0018 1F4E     		ldr	r6, .L28+12
 603              		.loc 1 495 0
 604 001a 23F00103 		bic	r3, r3, #1
 605 001e 1360     		str	r3, [r2]
 606              		.loc 1 499 0
 607 0020 1E4D     		ldr	r5, .L28+16
 608              		.loc 1 497 0
 609 0022 3846     		mov	r0, r7
 610 0024 1E49     		ldr	r1, .L28+20
 611 0026 FFF7FEFF 		bl	pwmStart
 612              	.LVL57:
 613              		.loc 1 498 0
 614 002a 3046     		mov	r0, r6
 615 002c 1D49     		ldr	r1, .L28+24
 616 002e FFF7FEFF 		bl	pwmStart
 617              	.LVL58:
 618              		.loc 1 499 0
 619 0032 2846     		mov	r0, r5
 620 0034 1C49     		ldr	r1, .L28+28
 621 0036 FFF7FEFF 		bl	pwmStart
 622              	.LVL59:
 623              		.loc 1 502 0
 624 003a B969     		ldr	r1, [r7, #24]
 625              		.loc 1 503 0
 626 003c B269     		ldr	r2, [r6, #24]
 627              		.loc 1 502 0
ARM GAS  /tmp/ccf1rdWi.s 			page 12


 628 003e 0868     		ldr	r0, [r1]
 629              		.loc 1 504 0
 630 0040 AB69     		ldr	r3, [r5, #24]
 631              		.loc 1 502 0
 632 0042 20F00100 		bic	r0, r0, #1
 633 0046 0860     		str	r0, [r1]
 634              		.loc 1 503 0
 635 0048 1068     		ldr	r0, [r2]
 636              		.loc 1 505 0
 637 004a 0025     		movs	r5, #0
 638              		.loc 1 503 0
 639 004c 20F00100 		bic	r0, r0, #1
 640 0050 1060     		str	r0, [r2]
 641              		.loc 1 504 0
 642 0052 1E68     		ldr	r6, [r3]
 643              		.loc 1 510 0
 644 0054 0620     		movs	r0, #6
 645              		.loc 1 504 0
 646 0056 26F00106 		bic	r6, r6, #1
 647 005a 1E60     		str	r6, [r3]
 648              		.loc 1 505 0
 649 005c 4D62     		str	r5, [r1, #36]
 650              		.loc 1 506 0
 651 005e 5562     		str	r5, [r2, #36]
 652              		.loc 1 507 0
 653 0060 5D62     		str	r5, [r3, #36]
 654              		.loc 1 510 0
 655 0062 8860     		str	r0, [r1, #8]
 656              		.loc 1 515 0
 657 0064 9060     		str	r0, [r2, #8]
 658              		.loc 1 520 0
 659 0066 9860     		str	r0, [r3, #8]
 660              		.loc 1 525 0
 661 0068 0868     		ldr	r0, [r1]
 662              		.loc 1 529 0
 663 006a A469     		ldr	r4, [r4, #24]
 664              		.loc 1 525 0
 665 006c 40F02000 		orr	r0, r0, #32
 666 0070 0860     		str	r0, [r1]
 667              		.loc 1 526 0
 668 0072 1168     		ldr	r1, [r2]
 669 0074 41F02001 		orr	r1, r1, #32
 670 0078 1160     		str	r1, [r2]
 671              		.loc 1 527 0
 672 007a 1A68     		ldr	r2, [r3]
 673 007c 42F02002 		orr	r2, r2, #32
 674 0080 1A60     		str	r2, [r3]
 675              		.loc 1 529 0
 676 0082 2368     		ldr	r3, [r4]
 677 0084 43F02103 		orr	r3, r3, #33
 678 0088 2360     		str	r3, [r4]
 679 008a F8BD     		pop	{r3, r4, r5, r6, r7, pc}
 680              	.L29:
 681              		.align	2
 682              	.L28:
 683 008c 00000000 		.word	.LANCHOR2
 684 0090 00000000 		.word	PWMD1
ARM GAS  /tmp/ccf1rdWi.s 			page 13


 685 0094 00000000 		.word	PWMD2
 686 0098 00000000 		.word	PWMD3
 687 009c 00000000 		.word	PWMD4
 688 00a0 00000000 		.word	.LANCHOR3
 689 00a4 00000000 		.word	.LANCHOR4
 690 00a8 00000000 		.word	.LANCHOR5
 691              		.cfi_endproc
 692              	.LFE215:
 693              		.size	pwmOutputStart, .-pwmOutputStart
 694              		.section	.text.pwmOutputStop,"ax",%progbits
 695              		.align	2
 696              		.p2align 4,,15
 697              		.global	pwmOutputStop
 698              		.thumb
 699              		.thumb_func
 700              		.type	pwmOutputStop, %function
 701              	pwmOutputStop:
 702              	.LFB216:
 703              		.loc 1 536 0
 704              		.cfi_startproc
 705              		@ args = 0, pretend = 0, frame = 0
 706              		@ frame_needed = 0, uses_anonymous_args = 0
 707 0000 08B5     		push	{r3, lr}
 708              		.cfi_def_cfa_offset 8
 709              		.cfi_offset 3, -8
 710              		.cfi_offset 14, -4
 711              	.LBB91:
 712              	.LBB92:
 713              		.loc 1 590 0
 714 0002 FFF7FEFF 		bl	pwmOutputUpdatePitch
 715              	.LVL60:
 716              		.loc 1 591 0
 717 0006 FFF7FEFF 		bl	pwmOutputUpdateRoll
 718              	.LVL61:
 719              		.loc 1 592 0
 720 000a FFF7FEFF 		bl	pwmOutputUpdateYaw
 721              	.LVL62:
 722              	.LBE92:
 723              	.LBE91:
 724              		.loc 1 538 0
 725 000e 0748     		ldr	r0, .L32
 726 0010 FFF7FEFF 		bl	pwmStop
 727              	.LVL63:
 728              		.loc 1 540 0
 729 0014 0648     		ldr	r0, .L32+4
 730 0016 FFF7FEFF 		bl	pwmStop
 731              	.LVL64:
 732              		.loc 1 541 0
 733 001a 0648     		ldr	r0, .L32+8
 734 001c FFF7FEFF 		bl	pwmStop
 735              	.LVL65:
 736              		.loc 1 543 0
 737 0020 BDE80840 		pop	{r3, lr}
 738              		.cfi_restore 14
 739              		.cfi_restore 3
 740              		.cfi_def_cfa_offset 0
 741              		.loc 1 542 0
ARM GAS  /tmp/ccf1rdWi.s 			page 14


 742 0024 0448     		ldr	r0, .L32+12
 743 0026 FFF7FEBF 		b	pwmStop
 744              	.LVL66:
 745              	.L33:
 746 002a 00BF     		.align	2
 747              	.L32:
 748 002c 00000000 		.word	PWMD1
 749 0030 00000000 		.word	PWMD2
 750 0034 00000000 		.word	PWMD3
 751 0038 00000000 		.word	PWMD4
 752              		.cfi_endproc
 753              	.LFE216:
 754              		.size	pwmOutputStop, .-pwmOutputStop
 755              		.section	.text.pwmOutputUpdate,"ax",%progbits
 756              		.align	2
 757              		.p2align 4,,15
 758              		.global	pwmOutputUpdate
 759              		.thumb
 760              		.thumb_func
 761              		.type	pwmOutputUpdate, %function
 762              	pwmOutputUpdate:
 763              	.LFB217:
 764              		.loc 1 552 0
 765              		.cfi_startproc
 766              		@ args = 0, pretend = 0, frame = 0
 767              		@ frame_needed = 0, uses_anonymous_args = 0
 768              	.LVL67:
 769              		.loc 1 553 0
 770 0000 0128     		cmp	r0, #1
 771              		.loc 1 552 0
 772 0002 70B5     		push	{r4, r5, r6, lr}
 773              		.cfi_def_cfa_offset 16
 774              		.cfi_offset 4, -16
 775              		.cfi_offset 5, -12
 776              		.cfi_offset 6, -8
 777              		.cfi_offset 14, -4
 778              		.loc 1 553 0
 779 0004 25D0     		beq	.L36
 780 0006 13D3     		bcc	.L37
 781 0008 0228     		cmp	r0, #2
 782 000a 10D1     		bne	.L43
 783              		.loc 1 573 0
 784 000c 404C     		ldr	r4, .L47
 785 000e E37A     		ldrb	r3, [r4, #11]	@ zero_extendqisi2
 786 0010 03F00F03 		and	r3, r3, #15
 787 0014 032B     		cmp	r3, #3
 788 0016 55D0     		beq	.L44
 789              		.loc 1 576 0
 790 0018 A27A     		ldrb	r2, [r4, #10]	@ zero_extendqisi2
 791 001a 0846     		mov	r0, r1
 792              	.LVL68:
 793 001c 02F00202 		and	r2, r2, #2
 794 0020 217A     		ldrb	r1, [r4, #8]	@ zero_extendqisi2
 795              	.LVL69:
 796 0022 FFF7FEFF 		bl	pwmOutputCmdTo3PhasePWM
 797              	.LVL70:
 798              		.loc 1 583 0
ARM GAS  /tmp/ccf1rdWi.s 			page 15


 799 0026 BDE87040 		pop	{r4, r5, r6, lr}
 800              		.cfi_remember_state
 801              		.cfi_restore 14
 802              		.cfi_restore 6
 803              		.cfi_restore 5
 804              		.cfi_restore 4
 805              		.cfi_def_cfa_offset 0
 806              		.loc 1 578 0
 807 002a FFF7FEBF 		b	pwmOutputUpdateYaw
 808              	.LVL71:
 809              	.L43:
 810              		.cfi_restore_state
 811 002e 70BD     		pop	{r4, r5, r6, pc}
 812              	.L37:
 813              		.loc 1 555 0
 814 0030 374C     		ldr	r4, .L47
 815 0032 E378     		ldrb	r3, [r4, #3]	@ zero_extendqisi2
 816 0034 03F00F03 		and	r3, r3, #15
 817 0038 032B     		cmp	r3, #3
 818 003a 1BD0     		beq	.L45
 819              		.loc 1 558 0
 820 003c A278     		ldrb	r2, [r4, #2]	@ zero_extendqisi2
 821 003e 0846     		mov	r0, r1
 822              	.LVL72:
 823 0040 02F00202 		and	r2, r2, #2
 824 0044 2178     		ldrb	r1, [r4]	@ zero_extendqisi2
 825              	.LVL73:
 826 0046 FFF7FEFF 		bl	pwmOutputCmdTo3PhasePWM
 827              	.LVL74:
 828              		.loc 1 583 0
 829 004a BDE87040 		pop	{r4, r5, r6, lr}
 830              		.cfi_remember_state
 831              		.cfi_restore 14
 832              		.cfi_restore 6
 833              		.cfi_restore 5
 834              		.cfi_restore 4
 835              		.cfi_def_cfa_offset 0
 836              		.loc 1 560 0
 837 004e FFF7FEBF 		b	pwmOutputUpdatePitch
 838              	.LVL75:
 839              	.L36:
 840              		.cfi_restore_state
 841              		.loc 1 564 0
 842 0052 2F4C     		ldr	r4, .L47
 843 0054 E379     		ldrb	r3, [r4, #7]	@ zero_extendqisi2
 844 0056 03F00F03 		and	r3, r3, #15
 845 005a 032B     		cmp	r3, #3
 846 005c 19D0     		beq	.L46
 847              		.loc 1 567 0
 848 005e A279     		ldrb	r2, [r4, #6]	@ zero_extendqisi2
 849 0060 0846     		mov	r0, r1
 850              	.LVL76:
 851 0062 02F00202 		and	r2, r2, #2
 852 0066 2179     		ldrb	r1, [r4, #4]	@ zero_extendqisi2
 853              	.LVL77:
 854 0068 FFF7FEFF 		bl	pwmOutputCmdTo3PhasePWM
 855              	.LVL78:
ARM GAS  /tmp/ccf1rdWi.s 			page 16


 856              		.loc 1 583 0
 857 006c BDE87040 		pop	{r4, r5, r6, lr}
 858              		.cfi_remember_state
 859              		.cfi_restore 14
 860              		.cfi_restore 6
 861              		.cfi_restore 5
 862              		.cfi_restore 4
 863              		.cfi_def_cfa_offset 0
 864              		.loc 1 569 0
 865 0070 FFF7FEBF 		b	pwmOutputUpdateRoll
 866              	.LVL79:
 867              	.L45:
 868              		.cfi_restore_state
 869              	.LBB117:
 870              	.LBB118:
 871              		.loc 1 352 0
 872 0074 274B     		ldr	r3, .L47+4
 873              		.loc 1 354 0
 874 0076 0022     		movs	r2, #0
 875              		.loc 1 352 0
 876 0078 9B69     		ldr	r3, [r3, #24]
 877 007a 1968     		ldr	r1, [r3]
 878              	.LVL80:
 879 007c 41F00201 		orr	r1, r1, #2
 880 0080 1960     		str	r1, [r3]
 881              		.loc 1 354 0
 882 0082 1A64     		str	r2, [r3, #64]
 883              		.loc 1 355 0
 884 0084 DA63     		str	r2, [r3, #60]
 885              		.loc 1 356 0
 886 0086 9A63     		str	r2, [r3, #56]
 887              		.loc 1 359 0
 888 0088 1A68     		ldr	r2, [r3]
 889 008a 22F00202 		bic	r2, r2, #2
 890 008e 1A60     		str	r2, [r3]
 891 0090 70BD     		pop	{r4, r5, r6, pc}
 892              	.LVL81:
 893              	.L46:
 894              	.LBE118:
 895              	.LBE117:
 896              	.LBB119:
 897              	.LBB120:
 898              		.loc 1 334 0
 899 0092 214B     		ldr	r3, .L47+8
 900              		.loc 1 335 0
 901 0094 1F4A     		ldr	r2, .L47+4
 902              		.loc 1 334 0
 903 0096 9B69     		ldr	r3, [r3, #24]
 904              		.loc 1 335 0
 905 0098 9269     		ldr	r2, [r2, #24]
 906              		.loc 1 334 0
 907 009a 1868     		ldr	r0, [r3]
 908              	.LVL82:
 909              		.loc 1 337 0
 910 009c 0021     		movs	r1, #0
 911              	.LVL83:
 912              		.loc 1 334 0
ARM GAS  /tmp/ccf1rdWi.s 			page 17


 913 009e 40F00200 		orr	r0, r0, #2
 914 00a2 1860     		str	r0, [r3]
 915              		.loc 1 335 0
 916 00a4 1068     		ldr	r0, [r2]
 917 00a6 40F00200 		orr	r0, r0, #2
 918 00aa 1060     		str	r0, [r2]
 919              		.loc 1 337 0
 920 00ac 5163     		str	r1, [r2, #52]
 921              		.loc 1 338 0
 922 00ae 1964     		str	r1, [r3, #64]
 923              		.loc 1 339 0
 924 00b0 D963     		str	r1, [r3, #60]
 925              		.loc 1 342 0
 926 00b2 1968     		ldr	r1, [r3]
 927 00b4 21F00201 		bic	r1, r1, #2
 928 00b8 1960     		str	r1, [r3]
 929              		.loc 1 343 0
 930 00ba 1368     		ldr	r3, [r2]
 931 00bc 23F00203 		bic	r3, r3, #2
 932 00c0 1360     		str	r3, [r2]
 933 00c2 70BD     		pop	{r4, r5, r6, pc}
 934              	.LVL84:
 935              	.L44:
 936              	.LBE120:
 937              	.LBE119:
 938              	.LBB121:
 939              	.LBB122:
 940              	.LBB123:
 941              	.LBB124:
 942              	.LBB125:
 943              	.LBB126:
 944              		.loc 2 548 0
 945 00c4 2024     		movs	r4, #32
 946              	@ 548 "/home/maciek/ChibiOS_16.1.5/os/ext/CMSIS/include/core_cmFunc.h" 1
 947 00c6 84F31188 		MSR basepri, r4
 948              	@ 0 "" 2
 949              		.thumb
 950              	.LBE126:
 951              	.LBE125:
 952              	.LBE124:
 953              	.LBE123:
 954              		.loc 1 369 0
 955 00ca 1349     		ldr	r1, .L47+8
 956              	.LVL85:
 957              		.loc 1 370 0
 958 00cc 134A     		ldr	r2, .L47+12
 959              		.loc 1 369 0
 960 00ce 8E69     		ldr	r6, [r1, #24]
 961              		.loc 1 370 0
 962 00d0 9569     		ldr	r5, [r2, #24]
 963              		.loc 1 369 0
 964 00d2 3068     		ldr	r0, [r6]
 965              	.LVL86:
 966              	.LBB127:
 967              	.LBB128:
 968              	.LBB129:
 969              	.LBB130:
ARM GAS  /tmp/ccf1rdWi.s 			page 18


 970              	.LBB131:
 971              		.loc 2 548 0
 972 00d4 0023     		movs	r3, #0
 973              	.LBE131:
 974              	.LBE130:
 975              	.LBE129:
 976              	.LBE128:
 977              	.LBE127:
 978              		.loc 1 369 0
 979 00d6 40F00200 		orr	r0, r0, #2
 980 00da 3060     		str	r0, [r6]
 981              		.loc 1 370 0
 982 00dc 2868     		ldr	r0, [r5]
 983 00de 40F00200 		orr	r0, r0, #2
 984 00e2 2860     		str	r0, [r5]
 985              	.LVL87:
 986              	.LBB136:
 987              	.LBB135:
 988              	.LBB134:
 989              	.LBB133:
 990              	.LBB132:
 991              		.loc 2 548 0
 992              	@ 548 "/home/maciek/ChibiOS_16.1.5/os/ext/CMSIS/include/core_cmFunc.h" 1
 993 00e4 83F31188 		MSR basepri, r3
 994              	@ 0 "" 2
 995              		.thumb
 996              	.LBE132:
 997              	.LBE133:
 998              	.LBE134:
 999              	.LBE135:
 1000              	.LBE136:
 1001              		.loc 1 373 0
 1002 00e8 9069     		ldr	r0, [r2, #24]
 1003              		.loc 1 374 0
 1004 00ea 8D69     		ldr	r5, [r1, #24]
 1005              		.loc 1 373 0
 1006 00ec 0364     		str	r3, [r0, #64]
 1007              		.loc 1 374 0
 1008 00ee AB63     		str	r3, [r5, #56]
 1009              		.loc 1 375 0
 1010 00f0 C363     		str	r3, [r0, #60]
 1011              	.LVL88:
 1012              	.LBB137:
 1013              	.LBB138:
 1014              	.LBB139:
 1015              	.LBB140:
 1016              		.loc 2 548 0
 1017              	@ 548 "/home/maciek/ChibiOS_16.1.5/os/ext/CMSIS/include/core_cmFunc.h" 1
 1018 00f2 84F31188 		MSR basepri, r4
 1019              	@ 0 "" 2
 1020              		.thumb
 1021              	.LBE140:
 1022              	.LBE139:
 1023              	.LBE138:
 1024              	.LBE137:
 1025              		.loc 1 379 0
 1026 00f6 8869     		ldr	r0, [r1, #24]
ARM GAS  /tmp/ccf1rdWi.s 			page 19


 1027              		.loc 1 380 0
 1028 00f8 9169     		ldr	r1, [r2, #24]
 1029              		.loc 1 379 0
 1030 00fa 0268     		ldr	r2, [r0]
 1031 00fc 22F00202 		bic	r2, r2, #2
 1032 0100 0260     		str	r2, [r0]
 1033              		.loc 1 380 0
 1034 0102 0A68     		ldr	r2, [r1]
 1035 0104 22F00202 		bic	r2, r2, #2
 1036 0108 0A60     		str	r2, [r1]
 1037              	.LVL89:
 1038              	.LBB141:
 1039              	.LBB142:
 1040              	.LBB143:
 1041              	.LBB144:
 1042              	.LBB145:
 1043              		.loc 2 548 0
 1044              	@ 548 "/home/maciek/ChibiOS_16.1.5/os/ext/CMSIS/include/core_cmFunc.h" 1
 1045 010a 83F31188 		MSR basepri, r3
 1046              	@ 0 "" 2
 1047              		.thumb
 1048 010e 70BD     		pop	{r4, r5, r6, pc}
 1049              	.L48:
 1050              		.align	2
 1051              	.L47:
 1052 0110 00000000 		.word	.LANCHOR0
 1053 0114 00000000 		.word	PWMD3
 1054 0118 00000000 		.word	PWMD2
 1055 011c 00000000 		.word	PWMD4
 1056              	.LBE145:
 1057              	.LBE144:
 1058              	.LBE143:
 1059              	.LBE142:
 1060              	.LBE141:
 1061              	.LBE122:
 1062              	.LBE121:
 1063              		.cfi_endproc
 1064              	.LFE217:
 1065              		.size	pwmOutputUpdate, .-pwmOutputUpdate
 1066              		.section	.text.pwmOutputDisableAll,"ax",%progbits
 1067              		.align	2
 1068              		.p2align 4,,15
 1069              		.global	pwmOutputDisableAll
 1070              		.thumb
 1071              		.thumb_func
 1072              		.type	pwmOutputDisableAll, %function
 1073              	pwmOutputDisableAll:
 1074              	.LFB218:
 1075              		.loc 1 589 0
 1076              		.cfi_startproc
 1077              		@ args = 0, pretend = 0, frame = 0
 1078              		@ frame_needed = 0, uses_anonymous_args = 0
 1079 0000 08B5     		push	{r3, lr}
 1080              		.cfi_def_cfa_offset 8
 1081              		.cfi_offset 3, -8
 1082              		.cfi_offset 14, -4
 1083              		.loc 1 590 0
ARM GAS  /tmp/ccf1rdWi.s 			page 20


 1084 0002 FFF7FEFF 		bl	pwmOutputUpdatePitch
 1085              	.LVL90:
 1086              		.loc 1 591 0
 1087 0006 FFF7FEFF 		bl	pwmOutputUpdateRoll
 1088              	.LVL91:
 1089              		.loc 1 593 0
 1090 000a BDE80840 		pop	{r3, lr}
 1091              		.cfi_restore 14
 1092              		.cfi_restore 3
 1093              		.cfi_def_cfa_offset 0
 1094              		.loc 1 592 0
 1095 000e FFF7FEBF 		b	pwmOutputUpdateYaw
 1096              	.LVL92:
 1097              		.cfi_endproc
 1098              	.LFE218:
 1099              		.size	pwmOutputDisableAll, .-pwmOutputDisableAll
 1100 0012 00BF     		.section	.text.pwmOutputSettingsUpdate,"ax",%progbits
 1101              		.align	2
 1102              		.p2align 4,,15
 1103              		.global	pwmOutputSettingsUpdate
 1104              		.thumb
 1105              		.thumb_func
 1106              		.type	pwmOutputSettingsUpdate, %function
 1107              	pwmOutputSettingsUpdate:
 1108              	.LFB219:
 1109              		.loc 1 598 0
 1110              		.cfi_startproc
 1111              		@ args = 0, pretend = 0, frame = 0
 1112              		@ frame_needed = 0, uses_anonymous_args = 0
 1113              		@ link register save eliminated.
 1114              	.LVL93:
 1115              		.loc 1 598 0
 1116 0000 0246     		mov	r2, r0
 1117              		.loc 1 599 0
 1118 0002 034B     		ldr	r3, .L52
 1119 0004 5168     		ldr	r1, [r2, #4]	@ unaligned
 1120 0006 0068     		ldr	r0, [r0]	@ unaligned
 1121              	.LVL94:
 1122 0008 9268     		ldr	r2, [r2, #8]	@ unaligned
 1123              	.LVL95:
 1124 000a 07C3     		stmia	r3!, {r0, r1, r2}
 1125 000c 7047     		bx	lr
 1126              	.L53:
 1127 000e 00BF     		.align	2
 1128              	.L52:
 1129 0010 00000000 		.word	.LANCHOR0
 1130              		.cfi_endproc
 1131              	.LFE219:
 1132              		.size	pwmOutputSettingsUpdate, .-pwmOutputSettingsUpdate
 1133              		.section	.text.mixedInputStart,"ax",%progbits
 1134              		.align	2
 1135              		.p2align 4,,15
 1136              		.global	mixedInputStart
 1137              		.thumb
 1138              		.thumb_func
 1139              		.type	mixedInputStart, %function
 1140              	mixedInputStart:
ARM GAS  /tmp/ccf1rdWi.s 			page 21


 1141              	.LFB220:
 1142              		.loc 1 608 0
 1143              		.cfi_startproc
 1144              		@ args = 0, pretend = 0, frame = 0
 1145              		@ frame_needed = 0, uses_anonymous_args = 0
 1146              		@ link register save eliminated.
 1147 0000 7047     		bx	lr
 1148              		.cfi_endproc
 1149              	.LFE220:
 1150              		.size	mixedInputStart, .-mixedInputStart
 1151 0002 00BF     		.section	.text.mixedInputStop,"ax",%progbits
 1152              		.align	2
 1153              		.p2align 4,,15
 1154              		.global	mixedInputStop
 1155              		.thumb
 1156              		.thumb_func
 1157              		.type	mixedInputStop, %function
 1158              	mixedInputStop:
 1159              	.LFB221:
 1160              		.loc 1 626 0
 1161              		.cfi_startproc
 1162              		@ args = 0, pretend = 0, frame = 0
 1163              		@ frame_needed = 0, uses_anonymous_args = 0
 1164              		@ link register save eliminated.
 1165 0000 7047     		bx	lr
 1166              		.cfi_endproc
 1167              	.LFE221:
 1168              		.size	mixedInputStop, .-mixedInputStop
 1169 0002 00BF     		.section	.text.mixedInputSettingsUpdate,"ax",%progbits
 1170              		.align	2
 1171              		.p2align 4,,15
 1172              		.global	mixedInputSettingsUpdate
 1173              		.thumb
 1174              		.thumb_func
 1175              		.type	mixedInputSettingsUpdate, %function
 1176              	mixedInputSettingsUpdate:
 1177              	.LFB222:
 1178              		.loc 1 635 0
 1179              		.cfi_startproc
 1180              		@ args = 0, pretend = 0, frame = 0
 1181              		@ frame_needed = 0, uses_anonymous_args = 0
 1182              		@ link register save eliminated.
 1183              	.LVL96:
 1184 0000 7047     		bx	lr
 1185              		.cfi_endproc
 1186              	.LFE222:
 1187              		.size	mixedInputSettingsUpdate, .-mixedInputSettingsUpdate
 1188              		.global	g_inputValues
 1189              		.global	g_mixedInput
 1190              		.global	g_pwmOutput
 1191 0002 00BF     		.section	.data.g_pwmOutput,"aw",%progbits
 1192              		.align	2
 1193              		.set	.LANCHOR0,. + 0
 1194              		.type	g_pwmOutput, %object
 1195              		.size	g_pwmOutput, 12
 1196              	g_pwmOutput:
 1197 0000 00       		.byte	0
ARM GAS  /tmp/ccf1rdWi.s 			page 22


 1198 0001 0E       		.byte	14
 1199 0002 00       		.byte	0
 1200 0003 03       		.byte	3
 1201 0004 00       		.byte	0
 1202 0005 0E       		.byte	14
 1203 0006 00       		.byte	0
 1204 0007 03       		.byte	3
 1205 0008 00       		.byte	0
 1206 0009 0E       		.byte	14
 1207 000a 00       		.byte	0
 1208 000b 03       		.byte	3
 1209              		.section	.data.pwmcfg_d1_d8,"aw",%progbits
 1210              		.align	2
 1211              		.set	.LANCHOR2,. + 0
 1212              		.type	pwmcfg_d1_d8, %object
 1213              		.size	pwmcfg_d1_d8, 52
 1214              	pwmcfg_d1_d8:
 1215 0000 00A24A04 		.word	72000000
 1216 0004 D0070000 		.word	2000
 1217 0008 00000000 		.word	0
 1218 000c 11000000 		.word	17
 1219 0010 00000000 		.word	0
 1220 0014 11000000 		.word	17
 1221 0018 00000000 		.word	0
 1222 001c 11000000 		.word	17
 1223 0020 00000000 		.word	0
 1224 0024 00000000 		.word	0
 1225 0028 00000000 		.word	0
 1226 002c 00000000 		.word	0
 1227 0030 00000000 		.word	0
 1228              		.section	.data.g_mixedInput,"aw",%progbits
 1229              		.align	2
 1230              		.type	g_mixedInput, %object
 1231              		.size	g_mixedInput, 21
 1232              	g_mixedInput:
 1233 0000 E803     		.short	1000
 1234 0002 DC05     		.short	1500
 1235 0004 D007     		.short	2000
 1236 0006 05       		.byte	5
 1237 0007 E803     		.2byte	1000
 1238 0009 DC05     		.2byte	1500
 1239 000b D007     		.2byte	2000
 1240 000d 05       		.byte	5
 1241 000e E803     		.short	1000
 1242 0010 DC05     		.short	1500
 1243 0012 D007     		.short	2000
 1244 0014 05       		.byte	5
 1245              		.section	.rodata.pwmcfg_d2,"a",%progbits
 1246              		.align	2
 1247              		.set	.LANCHOR3,. + 0
 1248              		.type	pwmcfg_d2, %object
 1249              		.size	pwmcfg_d2, 52
 1250              	pwmcfg_d2:
 1251 0000 00A24A04 		.word	72000000
 1252 0004 D0070000 		.word	2000
 1253 0008 00000000 		.word	0
 1254 000c 00000000 		.word	0
ARM GAS  /tmp/ccf1rdWi.s 			page 23


 1255 0010 00000000 		.word	0
 1256 0014 01000000 		.word	1
 1257 0018 00000000 		.word	0
 1258 001c 01000000 		.word	1
 1259 0020 00000000 		.word	0
 1260 0024 01000000 		.word	1
 1261 0028 00000000 		.word	0
 1262 002c 00000000 		.word	0
 1263 0030 00000000 		.word	0
 1264              		.section	.rodata.pwmcfg_d3,"a",%progbits
 1265              		.align	2
 1266              		.set	.LANCHOR4,. + 0
 1267              		.type	pwmcfg_d3, %object
 1268              		.size	pwmcfg_d3, 52
 1269              	pwmcfg_d3:
 1270 0000 00A24A04 		.word	72000000
 1271 0004 D0070000 		.word	2000
 1272 0008 00000000 		.word	0
 1273 000c 01000000 		.word	1
 1274 0010 00000000 		.word	0
 1275 0014 01000000 		.word	1
 1276 0018 00000000 		.word	0
 1277 001c 01000000 		.word	1
 1278 0020 00000000 		.word	0
 1279 0024 01000000 		.word	1
 1280 0028 00000000 		.word	0
 1281 002c 00000000 		.word	0
 1282 0030 00000000 		.word	0
 1283              		.section	.rodata.pwmcfg_d4,"a",%progbits
 1284              		.align	2
 1285              		.set	.LANCHOR5,. + 0
 1286              		.type	pwmcfg_d4, %object
 1287              		.size	pwmcfg_d4, 52
 1288              	pwmcfg_d4:
 1289 0000 00A24A04 		.word	72000000
 1290 0004 D0070000 		.word	2000
 1291 0008 00000000 		.word	0
 1292 000c 00000000 		.word	0
 1293 0010 00000000 		.word	0
 1294 0014 00000000 		.word	0
 1295 0018 00000000 		.word	0
 1296 001c 01000000 		.word	1
 1297 0020 00000000 		.word	0
 1298 0024 01000000 		.word	1
 1299 0028 00000000 		.word	0
 1300 002c 00000000 		.word	0
 1301 0030 00000000 		.word	0
 1302              		.section	.bss.pwm3PhaseDrv,"aw",%nobits
 1303              		.align	2
 1304              		.set	.LANCHOR1,. + 0
 1305              		.type	pwm3PhaseDrv, %object
 1306              		.size	pwm3PhaseDrv, 12
 1307              	pwm3PhaseDrv:
 1308 0000 00000000 		.space	12
 1308      00000000 
 1308      00000000 
 1309              		.section	.bss.g_inputValues,"aw",%nobits
ARM GAS  /tmp/ccf1rdWi.s 			page 24


 1310              		.align	2
 1311              		.type	g_inputValues, %object
 1312              		.size	g_inputValues, 10
 1313              	g_inputValues:
 1314 0000 00000000 		.space	10
 1314      00000000 
 1314      0000
 1315              		.text
 1316              	.Letext0:
 1317              		.file 3 "/opt/stm32/gcc/gcc-arm-none-eabi-4_9-2015q2/lib/gcc/arm-none-eabi/4.9.3/include/stddef.h"
 1318              		.file 4 "/opt/stm32/gcc/gcc-arm-none-eabi-4_9-2015q2/arm-none-eabi/include/machine/_default_types.
 1319              		.file 5 "/opt/stm32/gcc/gcc-arm-none-eabi-4_9-2015q2/arm-none-eabi/include/sys/_stdint.h"
 1320              		.file 6 "/home/maciek/ChibiOS_16.1.5/os/rt/ports/ARMCMx/compilers/GCC/chtypes.h"
 1321              		.file 7 "/home/maciek/ChibiOS_16.1.5/os/rt/include/chsystypes.h"
 1322              		.file 8 "/home/maciek/ChibiOS_16.1.5/os/rt/include/chschd.h"
 1323              		.file 9 "/home/maciek/ChibiOS_16.1.5/os/rt/ports/ARMCMx/chcore.h"
 1324              		.file 10 "/home/maciek/ChibiOS_16.1.5/os/rt/ports/ARMCMx/chcore_v7m.h"
 1325              		.file 11 "/home/maciek/ChibiOS_16.1.5/os/rt/include/chtm.h"
 1326              		.file 12 "/home/maciek/ChibiOS_16.1.5/os/rt/include/chsem.h"
 1327              		.file 13 "/home/maciek/ChibiOS_16.1.5/os/rt/include/chmtx.h"
 1328              		.file 14 "/home/maciek/ChibiOS_16.1.5/os/hal/ports/STM32/STM32F1xx/adc_lld.h"
 1329              		.file 15 "/home/maciek/ChibiOS_16.1.5/os/hal/include/pwm.h"
 1330              		.file 16 "/home/maciek/ChibiOS_16.1.5/os/hal/ports/STM32/LLD/TIMv1/pwm_lld.h"
 1331              		.file 17 "/home/maciek/ChibiOS_16.1.5/os/hal/ports/STM32/LLD/TIMv1/stm32_tim.h"
 1332              		.file 18 "drivers/STORM32_V1_X/pwmio.h"
 1333              		.file 19 "/home/maciek/ChibiOS_16.1.5/os/rt/include/chsys.h"
 1334              		.file 20 "/home/maciek/ChibiOS_16.1.5/os/ext/CMSIS/include/core_cm3.h"
 1335              		.file 21 "/opt/stm32/gcc/gcc-arm-none-eabi-4_9-2015q2/arm-none-eabi/include/math.h"