ARM GAS  /tmp/cc5M6nxk.s 			page 1


   1              		.syntax unified
   2              		.cpu cortex-m3
   3              		.fpu softvfp
   4              		.eabi_attribute 20, 1
   5              		.eabi_attribute 21, 1
   6              		.eabi_attribute 23, 3
   7              		.eabi_attribute 24, 1
   8              		.eabi_attribute 25, 1
   9              		.eabi_attribute 26, 1
  10              		.eabi_attribute 30, 2
  11              		.eabi_attribute 34, 1
  12              		.eabi_attribute 18, 4
  13              		.thumb
  14              		.file	"shell.c"
  15              		.text
  16              	.Ltext0:
  17              		.cfi_sections	.debug_frame
  18              		.section	.text.cmd_systime,"ax",%progbits
  19              		.align	2
  20              		.p2align 4,,15
  21              		.thumb
  22              		.thumb_func
  23              		.type	cmd_systime, %function
  24              	cmd_systime:
  25              	.LFB211:
  26              		.file 1 "/home/maciek/ChibiOS_16.1.5/os/various/shell.c"
  27              		.loc 1 99 0
  28              		.cfi_startproc
  29              		@ args = 0, pretend = 0, frame = 0
  30              		@ frame_needed = 0, uses_anonymous_args = 0
  31              		@ link register save eliminated.
  32              	.LVL0:
  33              		.loc 1 102 0
  34 0000 0029     		cmp	r1, #0
  35 0002 03DD     		ble	.L2
  36              	.LVL1:
  37              	.LBB98:
  38              	.LBB99:
  39              		.loc 1 56 0
  40 0004 0749     		ldr	r1, .L4
  41              	.LVL2:
  42 0006 084A     		ldr	r2, .L4+4
  43              	.LVL3:
  44 0008 FFF7FEBF 		b	chprintf
  45              	.LVL4:
  46              	.L2:
  47              	.LBE99:
  48              	.LBE98:
  49              	.LBB100:
  50              	.LBB101:
  51              	.LBB102:
  52              	.LBB103:
  53              	.LBB104:
  54              	.LBB105:
  55              	.LBB106:
  56              	.LBB107:
  57              		.file 2 "/home/maciek/ChibiOS_16.1.5/os/ext/CMSIS/include/core_cmFunc.h"
ARM GAS  /tmp/cc5M6nxk.s 			page 2


  58              		.loc 2 548 0
  59 000c 2023     		movs	r3, #32
  60              	@ 548 "/home/maciek/ChibiOS_16.1.5/os/ext/CMSIS/include/core_cmFunc.h" 1
  61 000e 83F31188 		MSR basepri, r3
  62              	@ 0 "" 2
  63              		.thumb
  64              	.LBE107:
  65              	.LBE106:
  66              	.LBE105:
  67              	.LBE104:
  68              	.LBB108:
  69              	.LBB109:
  70              		.file 3 "/home/maciek/ChibiOS_16.1.5/os/rt/include/chvt.h"
  71              		.loc 3 231 0
  72 0012 064A     		ldr	r2, .L4+8
  73              	.LVL5:
  74              	.LBE109:
  75              	.LBE108:
  76              	.LBB111:
  77              	.LBB112:
  78              	.LBB113:
  79              	.LBB114:
  80              	.LBB115:
  81              		.loc 2 548 0
  82 0014 0023     		movs	r3, #0
  83              	.LBE115:
  84              	.LBE114:
  85              	.LBE113:
  86              	.LBE112:
  87              	.LBE111:
  88              	.LBB120:
  89              	.LBB110:
  90              		.loc 3 231 0
  91 0016 D28B     		ldrh	r2, [r2, #30]
  92 0018 92B2     		uxth	r2, r2
  93              	.LVL6:
  94              	.LBE110:
  95              	.LBE120:
  96              	.LBB121:
  97              	.LBB119:
  98              	.LBB118:
  99              	.LBB117:
 100              	.LBB116:
 101              		.loc 2 548 0
 102              	@ 548 "/home/maciek/ChibiOS_16.1.5/os/ext/CMSIS/include/core_cmFunc.h" 1
 103 001a 83F31188 		MSR basepri, r3
 104              	@ 0 "" 2
 105              		.thumb
 106              	.LBE116:
 107              	.LBE117:
 108              	.LBE118:
 109              	.LBE119:
 110              	.LBE121:
 111              	.LBE103:
 112              	.LBE102:
 113              		.loc 1 106 0
 114 001e 0449     		ldr	r1, .L4+12
ARM GAS  /tmp/cc5M6nxk.s 			page 3


 115              	.LVL7:
 116 0020 FFF7FEBF 		b	chprintf
 117              	.LVL8:
 118              	.L5:
 119              		.align	2
 120              	.L4:
 121 0024 00000000 		.word	.LC0
 122 0028 0C000000 		.word	.LC1
 123 002c 00000000 		.word	ch
 124 0030 14000000 		.word	.LC2
 125              	.LBE101:
 126              	.LBE100:
 127              		.cfi_endproc
 128              	.LFE211:
 129              		.size	cmd_systime, .-cmd_systime
 130              		.section	.text.cmd_info,"ax",%progbits
 131              		.align	2
 132              		.p2align 4,,15
 133              		.thumb
 134              		.thumb_func
 135              		.type	cmd_info, %function
 136              	cmd_info:
 137              	.LFB210:
 138              		.loc 1 67 0
 139              		.cfi_startproc
 140              		@ args = 0, pretend = 0, frame = 0
 141              		@ frame_needed = 0, uses_anonymous_args = 0
 142              	.LVL9:
 143              		.loc 1 70 0
 144 0000 0029     		cmp	r1, #0
 145 0002 03DD     		ble	.L7
 146              	.LVL10:
 147              	.LBB128:
 148              	.LBB129:
 149              		.loc 1 56 0
 150 0004 1949     		ldr	r1, .L9
 151              	.LVL11:
 152 0006 1A4A     		ldr	r2, .L9+4
 153              	.LVL12:
 154 0008 FFF7FEBF 		b	chprintf
 155              	.LVL13:
 156              	.L7:
 157              	.LBE129:
 158              	.LBE128:
 159              		.loc 1 67 0
 160 000c 10B5     		push	{r4, lr}
 161              		.cfi_def_cfa_offset 8
 162              		.cfi_offset 4, -8
 163              		.cfi_offset 14, -4
 164 000e 0446     		mov	r4, r0
 165              	.LVL14:
 166 0010 82B0     		sub	sp, sp, #8
 167              		.cfi_def_cfa_offset 16
 168              	.LBB130:
 169              	.LBB131:
 170              		.loc 1 75 0
 171 0012 1849     		ldr	r1, .L9+8
ARM GAS  /tmp/cc5M6nxk.s 			page 4


 172              	.LVL15:
 173 0014 184A     		ldr	r2, .L9+12
 174              	.LVL16:
 175 0016 FFF7FEFF 		bl	chprintf
 176              	.LVL17:
 177              		.loc 1 77 0
 178 001a 2046     		mov	r0, r4
 179 001c 1749     		ldr	r1, .L9+16
 180 001e 184A     		ldr	r2, .L9+20
 181 0020 FFF7FEFF 		bl	chprintf
 182              	.LVL18:
 183              		.loc 1 79 0
 184 0024 2046     		mov	r0, r4
 185 0026 1749     		ldr	r1, .L9+24
 186 0028 174A     		ldr	r2, .L9+28
 187 002a FFF7FEFF 		bl	chprintf
 188              	.LVL19:
 189              		.loc 1 81 0
 190 002e 2046     		mov	r0, r4
 191 0030 1649     		ldr	r1, .L9+32
 192 0032 174A     		ldr	r2, .L9+36
 193 0034 FFF7FEFF 		bl	chprintf
 194              	.LVL20:
 195              		.loc 1 84 0
 196 0038 2046     		mov	r0, r4
 197 003a 1649     		ldr	r1, .L9+40
 198 003c 164A     		ldr	r2, .L9+44
 199 003e FFF7FEFF 		bl	chprintf
 200              	.LVL21:
 201              		.loc 1 87 0
 202 0042 2046     		mov	r0, r4
 203 0044 1549     		ldr	r1, .L9+48
 204 0046 164A     		ldr	r2, .L9+52
 205 0048 FFF7FEFF 		bl	chprintf
 206              	.LVL22:
 207              		.loc 1 90 0
 208 004c 2046     		mov	r0, r4
 209 004e 1549     		ldr	r1, .L9+56
 210 0050 154A     		ldr	r2, .L9+60
 211 0052 FFF7FEFF 		bl	chprintf
 212              	.LVL23:
 213              		.loc 1 94 0
 214 0056 154B     		ldr	r3, .L9+64
 215 0058 2046     		mov	r0, r4
 216 005a 0093     		str	r3, [sp]
 217 005c 1449     		ldr	r1, .L9+68
 218 005e 154A     		ldr	r2, .L9+72
 219 0060 154B     		ldr	r3, .L9+76
 220 0062 FFF7FEFF 		bl	chprintf
 221              	.LVL24:
 222              	.LBE131:
 223              	.LBE130:
 224              		.loc 1 97 0
 225 0066 02B0     		add	sp, sp, #8
 226              		.cfi_def_cfa_offset 8
 227              		@ sp needed
 228 0068 10BD     		pop	{r4, pc}
ARM GAS  /tmp/cc5M6nxk.s 			page 5


 229              	.LVL25:
 230              	.L10:
 231 006a 00BF     		.align	2
 232              	.L9:
 233 006c 00000000 		.word	.LC0
 234 0070 1C000000 		.word	.LC3
 235 0074 24000000 		.word	.LC4
 236 0078 38000000 		.word	.LC5
 237 007c 40000000 		.word	.LC6
 238 0080 54000000 		.word	.LC7
 239 0084 9C000000 		.word	.LC8
 240 0088 B0000000 		.word	.LC9
 241 008c B8000000 		.word	.LC10
 242 0090 CC000000 		.word	.LC11
 243 0094 D8000000 		.word	.LC12
 244 0098 EC000000 		.word	.LC13
 245 009c 04010000 		.word	.LC14
 246 00a0 18010000 		.word	.LC15
 247 00a4 40010000 		.word	.LC16
 248 00a8 54010000 		.word	.LC17
 249 00ac 8C010000 		.word	.LC21
 250 00b0 64010000 		.word	.LC18
 251 00b4 7C010000 		.word	.LC19
 252 00b8 88010000 		.word	.LC20
 253              		.cfi_endproc
 254              	.LFE210:
 255              		.size	cmd_info, .-cmd_info
 256              		.section	.text._strtok.constprop.3,"ax",%progbits
 257              		.align	2
 258              		.p2align 4,,15
 259              		.thumb
 260              		.thumb_func
 261              		.type	_strtok.constprop.3, %function
 262              	_strtok.constprop.3:
 263              	.LFB222:
 264              		.loc 1 37 0
 265              		.cfi_startproc
 266              		@ args = 0, pretend = 0, frame = 0
 267              		@ frame_needed = 0, uses_anonymous_args = 0
 268              	.LVL26:
 269 0000 38B5     		push	{r3, r4, r5, lr}
 270              		.cfi_def_cfa_offset 16
 271              		.cfi_offset 3, -16
 272              		.cfi_offset 4, -12
 273              		.cfi_offset 5, -8
 274              		.cfi_offset 14, -4
 275              		.loc 1 37 0
 276 0002 0D46     		mov	r5, r1
 277              		.loc 1 39 0
 278 0004 0446     		mov	r4, r0
 279 0006 90B1     		cbz	r0, .L12
 280              		.loc 1 40 0
 281 0008 2860     		str	r0, [r5]
 282              	.LVL27:
 283              	.L13:
 284              		.loc 1 46 0
 285 000a 2046     		mov	r0, r4
ARM GAS  /tmp/cc5M6nxk.s 			page 6


 286              	.LVL28:
 287 000c 0B49     		ldr	r1, .L23
 288              	.LVL29:
 289 000e FFF7FEFF 		bl	strspn
 290              	.LVL30:
 291 0012 0444     		add	r4, r4, r0
 292              	.LVL31:
 293              		.loc 1 47 0
 294 0014 2046     		mov	r0, r4
 295 0016 0949     		ldr	r1, .L23
 296 0018 FFF7FEFF 		bl	strpbrk
 297              	.LVL32:
 298              		.loc 1 48 0
 299 001c 60B1     		cbz	r0, .L22
 300              		.loc 1 49 0
 301 001e 421C     		adds	r2, r0, #1
 302 0020 0023     		movs	r3, #0
 303 0022 2A60     		str	r2, [r5]
 304 0024 0370     		strb	r3, [r0]
 305              	.L16:
 306              		.loc 1 51 0
 307 0026 2378     		ldrb	r3, [r4]	@ zero_extendqisi2
 308 0028 23B1     		cbz	r3, .L17
 309 002a 2046     		mov	r0, r4
 310              		.loc 1 52 0
 311 002c 38BD     		pop	{r3, r4, r5, pc}
 312              	.LVL33:
 313              	.L12:
 314              		.loc 1 41 0
 315 002e 0C68     		ldr	r4, [r1]
 316              	.LVL34:
 317              		.loc 1 43 0
 318 0030 002C     		cmp	r4, #0
 319 0032 EAD1     		bne	.L13
 320              	.LVL35:
 321              	.L17:
 322              		.loc 1 44 0
 323 0034 0020     		movs	r0, #0
 324 0036 38BD     		pop	{r3, r4, r5, pc}
 325              	.LVL36:
 326              	.L22:
 327              		.loc 1 47 0
 328 0038 2860     		str	r0, [r5]
 329 003a F4E7     		b	.L16
 330              	.L24:
 331              		.align	2
 332              	.L23:
 333 003c 98010000 		.word	.LC22
 334              		.cfi_endproc
 335              	.LFE222:
 336              		.size	_strtok.constprop.3, .-_strtok.constprop.3
 337              		.section	.text.shellInit,"ax",%progbits
 338              		.align	2
 339              		.p2align 4,,15
 340              		.global	shellInit
 341              		.thumb
 342              		.thumb_func
ARM GAS  /tmp/cc5M6nxk.s 			page 7


 343              		.type	shellInit, %function
 344              	shellInit:
 345              	.LFB214:
 346              		.loc 1 197 0
 347              		.cfi_startproc
 348              		@ args = 0, pretend = 0, frame = 0
 349              		@ frame_needed = 0, uses_anonymous_args = 0
 350              		@ link register save eliminated.
 351              	.LVL37:
 352              	.LBB132:
 353              	.LBB133:
 354              		.file 4 "/home/maciek/ChibiOS_16.1.5/os/rt/include/chevents.h"
 355              		.loc 4 172 0
 356 0000 014B     		ldr	r3, .L26
 357 0002 1B60     		str	r3, [r3]
 358 0004 7047     		bx	lr
 359              	.L27:
 360 0006 00BF     		.align	2
 361              	.L26:
 362 0008 00000000 		.word	.LANCHOR0
 363              	.LBE133:
 364              	.LBE132:
 365              		.cfi_endproc
 366              	.LFE214:
 367              		.size	shellInit, .-shellInit
 368              		.section	.text.shellExit,"ax",%progbits
 369              		.align	2
 370              		.p2align 4,,15
 371              		.global	shellExit
 372              		.thumb
 373              		.thumb_func
 374              		.type	shellExit, %function
 375              	shellExit:
 376              	.LFB215:
 377              		.loc 1 211 0
 378              		.cfi_startproc
 379              		@ args = 0, pretend = 0, frame = 0
 380              		@ frame_needed = 0, uses_anonymous_args = 0
 381              	.LVL38:
 382 0000 10B5     		push	{r4, lr}
 383              		.cfi_def_cfa_offset 8
 384              		.cfi_offset 4, -8
 385              		.cfi_offset 14, -4
 386              	.LBB134:
 387              	.LBB135:
 388              	.LBB136:
 389              	.LBB137:
 390              		.loc 2 548 0
 391 0002 2023     		movs	r3, #32
 392              	.LBE137:
 393              	.LBE136:
 394              	.LBE135:
 395              	.LBE134:
 396              		.loc 1 211 0
 397 0004 0446     		mov	r4, r0
 398              	.LBB141:
 399              	.LBB140:
ARM GAS  /tmp/cc5M6nxk.s 			page 8


 400              	.LBB139:
 401              	.LBB138:
 402              		.loc 2 548 0
 403              	@ 548 "/home/maciek/ChibiOS_16.1.5/os/ext/CMSIS/include/core_cmFunc.h" 1
 404 0006 83F31188 		MSR basepri, r3
 405              	@ 0 "" 2
 406              	.LVL39:
 407              		.thumb
 408              	.LBE138:
 409              	.LBE139:
 410              	.LBE140:
 411              	.LBE141:
 412              	.LBB142:
 413              	.LBB143:
 414              		.loc 4 256 0
 415 000a 0448     		ldr	r0, .L30
 416              	.LVL40:
 417 000c 0021     		movs	r1, #0
 418 000e FFF7FEFF 		bl	chEvtBroadcastFlagsI
 419              	.LVL41:
 420              	.LBE143:
 421              	.LBE142:
 422              		.loc 1 217 0
 423 0012 2046     		mov	r0, r4
 424              		.loc 1 218 0
 425 0014 BDE81040 		pop	{r4, lr}
 426              		.cfi_restore 14
 427              		.cfi_restore 4
 428              		.cfi_def_cfa_offset 0
 429              	.LVL42:
 430              		.loc 1 217 0
 431 0018 FFF7FEBF 		b	chThdExitS
 432              	.LVL43:
 433              	.L31:
 434              		.align	2
 435              	.L30:
 436 001c 00000000 		.word	.LANCHOR0
 437              		.cfi_endproc
 438              	.LFE215:
 439              		.size	shellExit, .-shellExit
 440              		.section	.text.shellCreate,"ax",%progbits
 441              		.align	2
 442              		.p2align 4,,15
 443              		.global	shellCreate
 444              		.thumb
 445              		.thumb_func
 446              		.type	shellCreate, %function
 447              	shellCreate:
 448              	.LFB216:
 449              		.loc 1 233 0
 450              		.cfi_startproc
 451              		@ args = 0, pretend = 0, frame = 0
 452              		@ frame_needed = 0, uses_anonymous_args = 0
 453              	.LVL44:
 454 0000 00B5     		push	{lr}
 455              		.cfi_def_cfa_offset 4
 456              		.cfi_offset 14, -4
ARM GAS  /tmp/cc5M6nxk.s 			page 9


 457 0002 83B0     		sub	sp, sp, #12
 458              		.cfi_def_cfa_offset 16
 459              		.loc 1 235 0
 460 0004 0090     		str	r0, [sp]
 461 0006 034B     		ldr	r3, .L34
 462 0008 0020     		movs	r0, #0
 463              	.LVL45:
 464 000a FFF7FEFF 		bl	chThdCreateFromHeap
 465              	.LVL46:
 466              		.loc 1 236 0
 467 000e 03B0     		add	sp, sp, #12
 468              		.cfi_def_cfa_offset 4
 469              		@ sp needed
 470 0010 5DF804FB 		ldr	pc, [sp], #4
 471              	.L35:
 472              		.align	2
 473              	.L34:
 474 0014 00000000 		.word	shell_thread
 475              		.cfi_endproc
 476              	.LFE216:
 477              		.size	shellCreate, .-shellCreate
 478              		.section	.text.shellCreateStatic,"ax",%progbits
 479              		.align	2
 480              		.p2align 4,,15
 481              		.global	shellCreateStatic
 482              		.thumb
 483              		.thumb_func
 484              		.type	shellCreateStatic, %function
 485              	shellCreateStatic:
 486              	.LFB217:
 487              		.loc 1 251 0
 488              		.cfi_startproc
 489              		@ args = 0, pretend = 0, frame = 0
 490              		@ frame_needed = 0, uses_anonymous_args = 0
 491              	.LVL47:
 492 0000 00B5     		push	{lr}
 493              		.cfi_def_cfa_offset 4
 494              		.cfi_offset 14, -4
 495 0002 83B0     		sub	sp, sp, #12
 496              		.cfi_def_cfa_offset 16
 497              		.loc 1 253 0
 498 0004 0090     		str	r0, [sp]
 499 0006 0846     		mov	r0, r1
 500              	.LVL48:
 501 0008 1146     		mov	r1, r2
 502              	.LVL49:
 503 000a 1A46     		mov	r2, r3
 504              	.LVL50:
 505 000c 024B     		ldr	r3, .L38
 506              	.LVL51:
 507 000e FFF7FEFF 		bl	chThdCreateStatic
 508              	.LVL52:
 509              		.loc 1 254 0
 510 0012 03B0     		add	sp, sp, #12
 511              		.cfi_def_cfa_offset 4
 512              		@ sp needed
 513 0014 5DF804FB 		ldr	pc, [sp], #4
ARM GAS  /tmp/cc5M6nxk.s 			page 10


 514              	.L39:
 515              		.align	2
 516              	.L38:
 517 0018 00000000 		.word	shell_thread
 518              		.cfi_endproc
 519              	.LFE217:
 520              		.size	shellCreateStatic, .-shellCreateStatic
 521              		.section	.text.shellGetLine,"ax",%progbits
 522              		.align	2
 523              		.p2align 4,,15
 524              		.global	shellGetLine
 525              		.thumb
 526              		.thumb_func
 527              		.type	shellGetLine, %function
 528              	shellGetLine:
 529              	.LFB218:
 530              		.loc 1 268 0
 531              		.cfi_startproc
 532              		@ args = 0, pretend = 0, frame = 8
 533              		@ frame_needed = 0, uses_anonymous_args = 0
 534              	.LVL53:
 535 0000 F0B5     		push	{r4, r5, r6, r7, lr}
 536              		.cfi_def_cfa_offset 20
 537              		.cfi_offset 4, -20
 538              		.cfi_offset 5, -16
 539              		.cfi_offset 6, -12
 540              		.cfi_offset 7, -8
 541              		.cfi_offset 14, -4
 542 0002 0E46     		mov	r6, r1
 543              	.LVL54:
 544 0004 0446     		mov	r4, r0
 545 0006 0D46     		mov	r5, r1
 546              	.LBB144:
 547              		.loc 1 296 0
 548 0008 013A     		subs	r2, r2, #1
 549              	.LVL55:
 550              	.LBE144:
 551              		.loc 1 268 0
 552 000a 83B0     		sub	sp, sp, #12
 553              		.cfi_def_cfa_offset 32
 554              	.LBB145:
 555              		.loc 1 296 0
 556 000c 8F18     		adds	r7, r1, r2
 557              	.LVL56:
 558              	.L41:
 559              		.loc 1 274 0
 560 000e 2368     		ldr	r3, [r4]
 561 0010 2046     		mov	r0, r4
 562 0012 5B68     		ldr	r3, [r3, #4]
 563 0014 0DF10701 		add	r1, sp, #7
 564 0018 0122     		movs	r2, #1
 565 001a 9847     		blx	r3
 566              	.LVL57:
 567 001c 50B3     		cbz	r0, .L50
 568              		.loc 1 276 0
 569 001e 9DF80710 		ldrb	r1, [sp, #7]	@ zero_extendqisi2
 570 0022 0429     		cmp	r1, #4
ARM GAS  /tmp/cc5M6nxk.s 			page 11


 571 0024 29D0     		beq	.L57
 572              		.loc 1 280 0
 573 0026 0829     		cmp	r1, #8
 574 0028 11D0     		beq	.L44
 575              		.loc 1 280 0 is_stmt 0 discriminator 1
 576 002a 7F29     		cmp	r1, #127
 577 002c 0FD0     		beq	.L44
 578              		.loc 1 289 0 is_stmt 1
 579 002e 0D29     		cmp	r1, #13
 580 0030 2AD0     		beq	.L58
 581              		.loc 1 294 0
 582 0032 1F29     		cmp	r1, #31
 583 0034 EBD9     		bls	.L41
 584              		.loc 1 296 0
 585 0036 BD42     		cmp	r5, r7
 586 0038 E9D2     		bcs	.L41
 587              		.loc 1 297 0
 588 003a 2368     		ldr	r3, [r4]
 589 003c 2046     		mov	r0, r4
 590 003e 9B68     		ldr	r3, [r3, #8]
 591 0040 9847     		blx	r3
 592              	.LVL58:
 593              		.loc 1 298 0
 594 0042 9DF80730 		ldrb	r3, [sp, #7]	@ zero_extendqisi2
 595 0046 0135     		adds	r5, r5, #1
 596              	.LVL59:
 597 0048 05F8013C 		strb	r3, [r5, #-1]
 598 004c DFE7     		b	.L41
 599              	.L44:
 600              		.loc 1 281 0
 601 004e B542     		cmp	r5, r6
 602 0050 DDD0     		beq	.L41
 603              		.loc 1 282 0
 604 0052 2368     		ldr	r3, [r4]
 605 0054 2046     		mov	r0, r4
 606 0056 9B68     		ldr	r3, [r3, #8]
 607 0058 9847     		blx	r3
 608              	.LVL60:
 609              		.loc 1 283 0
 610 005a 2368     		ldr	r3, [r4]
 611 005c 2046     		mov	r0, r4
 612 005e 9B68     		ldr	r3, [r3, #8]
 613 0060 2021     		movs	r1, #32
 614 0062 9847     		blx	r3
 615              	.LVL61:
 616              		.loc 1 284 0
 617 0064 2368     		ldr	r3, [r4]
 618 0066 2046     		mov	r0, r4
 619 0068 9B68     		ldr	r3, [r3, #8]
 620 006a 9DF80710 		ldrb	r1, [sp, #7]	@ zero_extendqisi2
 621              		.loc 1 285 0
 622 006e 013D     		subs	r5, r5, #1
 623              	.LVL62:
 624              		.loc 1 284 0
 625 0070 9847     		blx	r3
 626              	.LVL63:
 627 0072 CCE7     		b	.L41
ARM GAS  /tmp/cc5M6nxk.s 			page 12


 628              	.L50:
 629              		.loc 1 275 0
 630 0074 0120     		movs	r0, #1
 631              	.LBE145:
 632              		.loc 1 301 0
 633 0076 03B0     		add	sp, sp, #12
 634              		.cfi_remember_state
 635              		.cfi_def_cfa_offset 20
 636              		@ sp needed
 637 0078 F0BD     		pop	{r4, r5, r6, r7, pc}
 638              	.LVL64:
 639              	.L57:
 640              		.cfi_restore_state
 641              	.LBB146:
 642              		.loc 1 277 0
 643 007a 2046     		mov	r0, r4
 644 007c 0649     		ldr	r1, .L59
 645 007e FFF7FEFF 		bl	chprintf
 646              	.LVL65:
 647              		.loc 1 278 0
 648 0082 0120     		movs	r0, #1
 649              	.LBE146:
 650              		.loc 1 301 0
 651 0084 03B0     		add	sp, sp, #12
 652              		.cfi_remember_state
 653              		.cfi_def_cfa_offset 20
 654              		@ sp needed
 655 0086 F0BD     		pop	{r4, r5, r6, r7, pc}
 656              	.LVL66:
 657              	.L58:
 658              		.cfi_restore_state
 659              	.LBB147:
 660              		.loc 1 290 0
 661 0088 2046     		mov	r0, r4
 662 008a 0449     		ldr	r1, .L59+4
 663 008c FFF7FEFF 		bl	chprintf
 664              	.LVL67:
 665              		.loc 1 291 0
 666 0090 0020     		movs	r0, #0
 667 0092 2870     		strb	r0, [r5]
 668              	.LBE147:
 669              		.loc 1 301 0
 670 0094 03B0     		add	sp, sp, #12
 671              		.cfi_def_cfa_offset 20
 672              		@ sp needed
 673 0096 F0BD     		pop	{r4, r5, r6, r7, pc}
 674              	.LVL68:
 675              	.L60:
 676              		.align	2
 677              	.L59:
 678 0098 9C010000 		.word	.LC23
 679 009c A0010000 		.word	.LC24
 680              		.cfi_endproc
 681              	.LFE218:
 682              		.size	shellGetLine, .-shellGetLine
 683              		.section	.text.shell_thread,"ax",%progbits
 684              		.align	2
ARM GAS  /tmp/cc5M6nxk.s 			page 13


 685              		.p2align 4,,15
 686              		.thumb
 687              		.thumb_func
 688              		.type	shell_thread, %function
 689              	shell_thread:
 690              	.LFB213:
 691              		.loc 1 136 0
 692              		.cfi_startproc
 693              		@ args = 0, pretend = 0, frame = 88
 694              		@ frame_needed = 0, uses_anonymous_args = 0
 695              	.LVL69:
 696 0000 0346     		mov	r3, r0
 697 0002 2DE9F041 		push	{r4, r5, r6, r7, r8, lr}
 698              		.cfi_def_cfa_offset 24
 699              		.cfi_offset 4, -24
 700              		.cfi_offset 5, -20
 701              		.cfi_offset 6, -16
 702              		.cfi_offset 7, -12
 703              		.cfi_offset 8, -8
 704              		.cfi_offset 14, -4
 705              		.loc 1 138 0
 706 0006 0668     		ldr	r6, [r0]
 707              	.LVL70:
 708              		.loc 1 136 0
 709 0008 96B0     		sub	sp, sp, #88
 710              		.cfi_def_cfa_offset 112
 711              		.loc 1 144 0
 712 000a 5349     		ldr	r1, .L114
 713 000c 3046     		mov	r0, r6
 714              	.LVL71:
 715              		.loc 1 139 0
 716 000e D3F80480 		ldr	r8, [r3, #4]
 717              	.LVL72:
 718              		.loc 1 144 0
 719 0012 FFF7FEFF 		bl	chprintf
 720              	.LVL73:
 721              	.L63:
 722              		.loc 1 146 0
 723 0016 5149     		ldr	r1, .L114+4
 724 0018 3046     		mov	r0, r6
 725 001a FFF7FEFF 		bl	chprintf
 726              	.LVL74:
 727              		.loc 1 147 0
 728 001e 3046     		mov	r0, r6
 729 0020 06A9     		add	r1, sp, #24
 730 0022 4022     		movs	r2, #64
 731 0024 FFF7FEFF 		bl	shellGetLine
 732              	.LVL75:
 733 0028 0446     		mov	r4, r0
 734 002a 78BB     		cbnz	r0, .L109
 735              		.loc 1 151 0
 736 002c 6946     		mov	r1, sp
 737 002e 06A8     		add	r0, sp, #24
 738 0030 FFF7FEFF 		bl	_strtok.constprop.3
 739              	.LVL76:
 740              		.loc 1 154 0
 741 0034 6946     		mov	r1, sp
ARM GAS  /tmp/cc5M6nxk.s 			page 14


 742              		.loc 1 151 0
 743 0036 0746     		mov	r7, r0
 744              	.LVL77:
 745              		.loc 1 154 0
 746 0038 0020     		movs	r0, #0
 747              	.LVL78:
 748 003a 01AD     		add	r5, sp, #4
 749 003c FFF7FEFF 		bl	_strtok.constprop.3
 750              	.LVL79:
 751 0040 50B1     		cbz	r0, .L110
 752              	.L69:
 753              		.loc 1 155 0
 754 0042 042C     		cmp	r4, #4
 755 0044 1BD0     		beq	.L111
 756              		.loc 1 160 0
 757 0046 45F8040B 		str	r0, [r5], #4
 758              		.loc 1 154 0
 759 004a 6946     		mov	r1, sp
 760 004c 0020     		movs	r0, #0
 761              	.LVL80:
 762              		.loc 1 160 0
 763 004e 0134     		adds	r4, r4, #1
 764              	.LVL81:
 765              		.loc 1 154 0
 766 0050 FFF7FEFF 		bl	_strtok.constprop.3
 767              	.LVL82:
 768 0054 0028     		cmp	r0, #0
 769 0056 F4D1     		bne	.L69
 770              	.L110:
 771              		.loc 1 162 0
 772 0058 16AB     		add	r3, sp, #88
 773 005a 03EB8403 		add	r3, r3, r4, lsl #2
 774 005e 43F8540C 		str	r0, [r3, #-84]
 775              		.loc 1 163 0
 776 0062 002F     		cmp	r7, #0
 777 0064 D7D0     		beq	.L63
 778              		.loc 1 164 0
 779 0066 3846     		mov	r0, r7
 780              	.LVL83:
 781 0068 3D49     		ldr	r1, .L114+8
 782 006a FFF7FEFF 		bl	strcmp
 783              	.LVL84:
 784 006e B8B9     		cbnz	r0, .L70
 785              		.loc 1 165 0
 786 0070 84B1     		cbz	r4, .L65
 787              	.LVL85:
 788              	.LBB160:
 789              	.LBB161:
 790              		.loc 1 56 0
 791 0072 3046     		mov	r0, r6
 792 0074 3B49     		ldr	r1, .L114+12
 793 0076 3A4A     		ldr	r2, .L114+8
 794 0078 FFF7FEFF 		bl	chprintf
 795              	.LVL86:
 796              	.LBE161:
 797              	.LBE160:
 798              		.loc 1 167 0
ARM GAS  /tmp/cc5M6nxk.s 			page 15


 799 007c CBE7     		b	.L63
 800              	.LVL87:
 801              	.L111:
 802              		.loc 1 156 0
 803 007e 3046     		mov	r0, r6
 804              	.LVL88:
 805 0080 3949     		ldr	r1, .L114+16
 806 0082 FFF7FEFF 		bl	chprintf
 807              	.LVL89:
 808              		.loc 1 162 0
 809 0086 0023     		movs	r3, #0
 810 0088 0593     		str	r3, [sp, #20]
 811 008a C4E7     		b	.L63
 812              	.LVL90:
 813              	.L109:
 814              		.loc 1 148 0
 815 008c 3046     		mov	r0, r6
 816 008e 3749     		ldr	r1, .L114+20
 817 0090 FFF7FEFF 		bl	chprintf
 818              	.LVL91:
 819              	.L65:
 820              		.loc 1 189 0
 821 0094 0020     		movs	r0, #0
 822 0096 FFF7FEFF 		bl	shellExit
 823              	.LVL92:
 824              		.loc 1 190 0
 825 009a 16B0     		add	sp, sp, #88
 826              		.cfi_remember_state
 827              		.cfi_def_cfa_offset 24
 828              		@ sp needed
 829 009c BDE8F081 		pop	{r4, r5, r6, r7, r8, pc}
 830              	.LVL93:
 831              	.L70:
 832              		.cfi_restore_state
 833              		.loc 1 171 0
 834 00a0 3846     		mov	r0, r7
 835 00a2 3349     		ldr	r1, .L114+24
 836 00a4 FFF7FEFF 		bl	strcmp
 837              	.LVL94:
 838 00a8 30B9     		cbnz	r0, .L112
 839              	.LBB162:
 840              	.LBB163:
 841              		.loc 1 56 0
 842 00aa 3046     		mov	r0, r6
 843              	.LBE163:
 844              	.LBE162:
 845              		.loc 1 172 0
 846 00ac B4B1     		cbz	r4, .L75
 847              	.LVL95:
 848              	.LBB165:
 849              	.LBB164:
 850              		.loc 1 56 0
 851 00ae 2D49     		ldr	r1, .L114+12
 852 00b0 2F4A     		ldr	r2, .L114+24
 853 00b2 FFF7FEFF 		bl	chprintf
 854              	.LVL96:
 855              	.LBE164:
ARM GAS  /tmp/cc5M6nxk.s 			page 16


 856              	.LBE165:
 857              		.loc 1 174 0
 858 00b6 AEE7     		b	.L63
 859              	.LVL97:
 860              	.L112:
 861              	.LBB166:
 862              	.LBB167:
 863              		.loc 1 121 0
 864 00b8 2E4D     		ldr	r5, .L114+28
 865 00ba 2868     		ldr	r0, [r5]
 866 00bc 18B9     		cbnz	r0, .L83
 867 00be 30E0     		b	.L74
 868              	.LVL98:
 869              	.L113:
 870 00c0 55F8080F 		ldr	r0, [r5, #8]!
 871              	.LVL99:
 872 00c4 68B3     		cbz	r0, .L74
 873              	.LVL100:
 874              	.L83:
 875              		.loc 1 122 0
 876 00c6 3946     		mov	r1, r7
 877 00c8 FFF7FEFF 		bl	strcmp
 878              	.LVL101:
 879 00cc 0028     		cmp	r0, #0
 880 00ce F7D1     		bne	.L113
 881              	.LVL102:
 882              	.L108:
 883              	.LBE167:
 884              	.LBE166:
 885              	.LBB168:
 886              	.LBB169:
 887              		.loc 1 123 0
 888 00d0 6B68     		ldr	r3, [r5, #4]
 889 00d2 2146     		mov	r1, r4
 890 00d4 3046     		mov	r0, r6
 891 00d6 01AA     		add	r2, sp, #4
 892 00d8 9847     		blx	r3
 893              	.LVL103:
 894 00da 9CE7     		b	.L63
 895              	.LVL104:
 896              	.L75:
 897              	.LBE169:
 898              	.LBE168:
 899              	.LBB171:
 900              	.LBB172:
 901              		.loc 1 61 0
 902 00dc 254D     		ldr	r5, .L114+28
 903              	.LBE172:
 904              	.LBE171:
 905              		.loc 1 176 0
 906 00de 2649     		ldr	r1, .L114+32
 907 00e0 FFF7FEFF 		bl	chprintf
 908              	.LVL105:
 909              	.LBB174:
 910              	.LBB173:
 911              		.loc 1 61 0
 912 00e4 2A68     		ldr	r2, [r5]
ARM GAS  /tmp/cc5M6nxk.s 			page 17


 913 00e6 2C46     		mov	r4, r5
 914              	.LVL106:
 915 00e8 3AB1     		cbz	r2, .L80
 916              	.LVL107:
 917              	.L79:
 918              		.loc 1 62 0
 919 00ea 3046     		mov	r0, r6
 920 00ec 2349     		ldr	r1, .L114+36
 921 00ee FFF7FEFF 		bl	chprintf
 922              	.LVL108:
 923              		.loc 1 61 0
 924 00f2 54F8082F 		ldr	r2, [r4, #8]!
 925              	.LVL109:
 926 00f6 002A     		cmp	r2, #0
 927 00f8 F7D1     		bne	.L79
 928              	.LVL110:
 929              	.L80:
 930              	.LBE173:
 931              	.LBE174:
 932              		.loc 1 178 0
 933 00fa B8F1000F 		cmp	r8, #0
 934 00fe 0BD0     		beq	.L78
 935              	.LVL111:
 936              	.LBB175:
 937              	.LBB176:
 938              		.loc 1 61 0
 939 0100 D8F80020 		ldr	r2, [r8]
 940 0104 42B1     		cbz	r2, .L78
 941 0106 4446     		mov	r4, r8
 942              	.LVL112:
 943              	.L81:
 944              		.loc 1 62 0
 945 0108 3046     		mov	r0, r6
 946 010a 1C49     		ldr	r1, .L114+36
 947 010c FFF7FEFF 		bl	chprintf
 948              	.LVL113:
 949              		.loc 1 61 0
 950 0110 54F8082F 		ldr	r2, [r4, #8]!
 951              	.LVL114:
 952 0114 002A     		cmp	r2, #0
 953 0116 F7D1     		bne	.L81
 954              	.LVL115:
 955              	.L78:
 956              	.LBE176:
 957              	.LBE175:
 958              		.loc 1 180 0
 959 0118 3046     		mov	r0, r6
 960 011a 1949     		ldr	r1, .L114+40
 961 011c FFF7FEFF 		bl	chprintf
 962              	.LVL116:
 963 0120 79E7     		b	.L63
 964              	.LVL117:
 965              	.L74:
 966              		.loc 1 182 0
 967 0122 B8F1000F 		cmp	r8, #0
 968 0126 0DD0     		beq	.L86
 969              	.LVL118:
ARM GAS  /tmp/cc5M6nxk.s 			page 18


 970              	.LBB177:
 971              	.LBB170:
 972              		.loc 1 121 0
 973 0128 D8F80000 		ldr	r0, [r8]
 974 012c 50B1     		cbz	r0, .L86
 975 012e 4546     		mov	r5, r8
 976 0130 02E0     		b	.L85
 977              	.LVL119:
 978              	.L84:
 979 0132 55F8080F 		ldr	r0, [r5, #8]!
 980              	.LVL120:
 981 0136 28B1     		cbz	r0, .L86
 982              	.LVL121:
 983              	.L85:
 984              		.loc 1 122 0
 985 0138 3946     		mov	r1, r7
 986 013a FFF7FEFF 		bl	strcmp
 987              	.LVL122:
 988 013e 0028     		cmp	r0, #0
 989 0140 F7D1     		bne	.L84
 990 0142 C5E7     		b	.L108
 991              	.LVL123:
 992              	.L86:
 993              	.LBE170:
 994              	.LBE177:
 995              		.loc 1 184 0
 996 0144 3A46     		mov	r2, r7
 997 0146 3046     		mov	r0, r6
 998 0148 0E49     		ldr	r1, .L114+44
 999 014a FFF7FEFF 		bl	chprintf
 1000              	.LVL124:
 1001              		.loc 1 185 0
 1002 014e 3046     		mov	r0, r6
 1003 0150 0D49     		ldr	r1, .L114+48
 1004 0152 FFF7FEFF 		bl	chprintf
 1005              	.LVL125:
 1006 0156 5EE7     		b	.L63
 1007              	.L115:
 1008              		.align	2
 1009              	.L114:
 1010 0158 A4010000 		.word	.LC25
 1011 015c BC010000 		.word	.LC26
 1012 0160 E8010000 		.word	.LC29
 1013 0164 00000000 		.word	.LC0
 1014 0168 D0010000 		.word	.LC28
 1015 016c C4010000 		.word	.LC27
 1016 0170 F0010000 		.word	.LC30
 1017 0174 00000000 		.word	.LANCHOR1
 1018 0178 F8010000 		.word	.LC31
 1019 017c 10020000 		.word	.LC32
 1020 0180 A0010000 		.word	.LC24
 1021 0184 14020000 		.word	.LC33
 1022 0188 18020000 		.word	.LC34
 1023              		.cfi_endproc
 1024              	.LFE213:
 1025              		.size	shell_thread, .-shell_thread
 1026              		.global	shell_terminated
ARM GAS  /tmp/cc5M6nxk.s 			page 19


 1027              		.section	.data.local_commands,"aw",%progbits
 1028              		.align	2
 1029              		.set	.LANCHOR1,. + 0
 1030              		.type	local_commands, %object
 1031              		.size	local_commands, 24
 1032              	local_commands:
 1033 0000 1C000000 		.word	.LC3
 1034 0004 00000000 		.word	cmd_info
 1035 0008 0C000000 		.word	.LC1
 1036 000c 00000000 		.word	cmd_systime
 1037 0010 00000000 		.word	0
 1038 0014 00000000 		.word	0
 1039              		.section	.rodata.str1.4,"aMS",%progbits,1
 1040              		.align	2
 1041              	.LC0:
 1042 0000 55736167 		.ascii	"Usage: %s\015\012\000"
 1042      653A2025 
 1042      730D0A00 
 1043              	.LC1:
 1044 000c 73797374 		.ascii	"systime\000"
 1044      696D6500 
 1045              	.LC2:
 1046 0014 256C750D 		.ascii	"%lu\015\012\000"
 1046      0A00
 1047 001a 0000     		.space	2
 1048              	.LC3:
 1049 001c 696E666F 		.ascii	"info\000"
 1049      00
 1050 0021 000000   		.space	3
 1051              	.LC4:
 1052 0024 4B65726E 		.ascii	"Kernel:       %s\015\012\000"
 1052      656C3A20 
 1052      20202020 
 1052      20202573 
 1052      0D0A00
 1053 0037 00       		.space	1
 1054              	.LC5:
 1055 0038 332E312E 		.ascii	"3.1.4\000"
 1055      3400
 1056 003e 0000     		.space	2
 1057              	.LC6:
 1058 0040 436F6D70 		.ascii	"Compiler:     %s\015\012\000"
 1058      696C6572 
 1058      3A202020 
 1058      20202573 
 1058      0D0A00
 1059 0053 00       		.space	1
 1060              	.LC7:
 1061 0054 47434320 		.ascii	"GCC 4.9.3 20150529 (release) [ARM/embedded-4_9-bran"
 1061      342E392E 
 1061      33203230 
 1061      31353035 
 1061      32392028 
 1062 0087 63682072 		.ascii	"ch revision 224288]\000"
 1062      65766973 
 1062      696F6E20 
 1062      32323432 
ARM GAS  /tmp/cc5M6nxk.s 			page 20


 1062      38385D00 
 1063 009b 00       		.space	1
 1064              	.LC8:
 1065 009c 41726368 		.ascii	"Architecture: %s\015\012\000"
 1065      69746563 
 1065      74757265 
 1065      3A202573 
 1065      0D0A00
 1066 00af 00       		.space	1
 1067              	.LC9:
 1068 00b0 41524D76 		.ascii	"ARMv7-M\000"
 1068      372D4D00 
 1069              	.LC10:
 1070 00b8 436F7265 		.ascii	"Core Variant: %s\015\012\000"
 1070      20566172 
 1070      69616E74 
 1070      3A202573 
 1070      0D0A00
 1071 00cb 00       		.space	1
 1072              	.LC11:
 1073 00cc 436F7274 		.ascii	"Cortex-M3\000"
 1073      65782D4D 
 1073      3300
 1074 00d6 0000     		.space	2
 1075              	.LC12:
 1076 00d8 506F7274 		.ascii	"Port Info:    %s\015\012\000"
 1076      20496E66 
 1076      6F3A2020 
 1076      20202573 
 1076      0D0A00
 1077 00eb 00       		.space	1
 1078              	.LC13:
 1079 00ec 41647661 		.ascii	"Advanced kernel mode\000"
 1079      6E636564 
 1079      206B6572 
 1079      6E656C20 
 1079      6D6F6465 
 1080 0101 000000   		.space	3
 1081              	.LC14:
 1082 0104 506C6174 		.ascii	"Platform:     %s\015\012\000"
 1082      666F726D 
 1082      3A202020 
 1082      20202573 
 1082      0D0A00
 1083 0117 00       		.space	1
 1084              	.LC15:
 1085 0118 53544D33 		.ascii	"STM32F10x Performance Line High Density\000"
 1085      32463130 
 1085      78205065 
 1085      72666F72 
 1085      6D616E63 
 1086              	.LC16:
 1087 0140 426F6172 		.ascii	"Board:        %s\015\012\000"
 1087      643A2020 
 1087      20202020 
 1087      20202573 
 1087      0D0A00
ARM GAS  /tmp/cc5M6nxk.s 			page 21


 1088 0153 00       		.space	1
 1089              	.LC17:
 1090 0154 53746F72 		.ascii	"Storm32 v1.31\000"
 1090      6D333220 
 1090      76312E33 
 1090      3100
 1091 0162 0000     		.space	2
 1092              	.LC18:
 1093 0164 4275696C 		.ascii	"Build time:   %s%s%s\015\012\000"
 1093      64207469 
 1093      6D653A20 
 1093      20202573 
 1093      25732573 
 1094 017b 00       		.space	1
 1095              	.LC19:
 1096 017c 4E6F7620 		.ascii	"Nov 10 2016\000"
 1096      31302032 
 1096      30313600 
 1097              	.LC20:
 1098 0188 202D2000 		.ascii	" - \000"
 1099              	.LC21:
 1100 018c 30393A31 		.ascii	"09:17:23\000"
 1100      373A3233 
 1100      00
 1101 0195 000000   		.space	3
 1102              	.LC22:
 1103 0198 200900   		.ascii	" \011\000"
 1104 019b 00       		.space	1
 1105              	.LC23:
 1106 019c 5E4400   		.ascii	"^D\000"
 1107 019f 00       		.space	1
 1108              	.LC24:
 1109 01a0 0D0A00   		.ascii	"\015\012\000"
 1110 01a3 00       		.space	1
 1111              	.LC25:
 1112 01a4 0D0A4368 		.ascii	"\015\012ChibiOS/RT Shell\015\012\000"
 1112      6962694F 
 1112      532F5254 
 1112      20536865 
 1112      6C6C0D0A 
 1113 01b9 000000   		.space	3
 1114              	.LC26:
 1115 01bc 63683E20 		.ascii	"ch> \000"
 1115      00
 1116 01c1 000000   		.space	3
 1117              	.LC27:
 1118 01c4 0D0A6C6F 		.ascii	"\015\012logout\000"
 1118      676F7574 
 1118      00
 1119 01cd 000000   		.space	3
 1120              	.LC28:
 1121 01d0 746F6F20 		.ascii	"too many arguments\015\012\000"
 1121      6D616E79 
 1121      20617267 
 1121      756D656E 
 1121      74730D0A 
 1122 01e5 000000   		.space	3
ARM GAS  /tmp/cc5M6nxk.s 			page 22


 1123              	.LC29:
 1124 01e8 65786974 		.ascii	"exit\000"
 1124      00
 1125 01ed 000000   		.space	3
 1126              	.LC30:
 1127 01f0 68656C70 		.ascii	"help\000"
 1127      00
 1128 01f5 000000   		.space	3
 1129              	.LC31:
 1130 01f8 436F6D6D 		.ascii	"Commands: help exit \000"
 1130      616E6473 
 1130      3A206865 
 1130      6C702065 
 1130      78697420 
 1131 020d 000000   		.space	3
 1132              	.LC32:
 1133 0210 25732000 		.ascii	"%s \000"
 1134              	.LC33:
 1135 0214 257300   		.ascii	"%s\000"
 1136 0217 00       		.space	1
 1137              	.LC34:
 1138 0218 203F0D0A 		.ascii	" ?\015\012\000"
 1138      00
 1139              		.section	.bss.shell_terminated,"aw",%nobits
 1140              		.align	2
 1141              		.set	.LANCHOR0,. + 0
 1142              		.type	shell_terminated, %object
 1143              		.size	shell_terminated, 4
 1144              	shell_terminated:
 1145 0000 00000000 		.space	4
 1146              		.text
 1147              	.Letext0:
 1148              		.file 5 "/opt/stm32/gcc/gcc-arm-none-eabi-4_9-2015q2/lib/gcc/arm-none-eabi/4.9.3/include/stddef.h"
 1149              		.file 6 "/opt/stm32/gcc/gcc-arm-none-eabi-4_9-2015q2/arm-none-eabi/include/machine/_default_types.
 1150              		.file 7 "/opt/stm32/gcc/gcc-arm-none-eabi-4_9-2015q2/arm-none-eabi/include/sys/_stdint.h"
 1151              		.file 8 "/home/maciek/ChibiOS_16.1.5/os/rt/ports/ARMCMx/compilers/GCC/chtypes.h"
 1152              		.file 9 "/home/maciek/ChibiOS_16.1.5/os/rt/include/chsystypes.h"
 1153              		.file 10 "/home/maciek/ChibiOS_16.1.5/os/rt/include/chschd.h"
 1154              		.file 11 "/home/maciek/ChibiOS_16.1.5/os/rt/ports/ARMCMx/chcore.h"
 1155              		.file 12 "/home/maciek/ChibiOS_16.1.5/os/rt/ports/ARMCMx/chcore_v7m.h"
 1156              		.file 13 "/home/maciek/ChibiOS_16.1.5/os/rt/include/chtm.h"
 1157              		.file 14 "/home/maciek/ChibiOS_16.1.5/os/rt/include/chsem.h"
 1158              		.file 15 "/home/maciek/ChibiOS_16.1.5/os/rt/include/chmtx.h"
 1159              		.file 16 "/home/maciek/ChibiOS_16.1.5/os/rt/include/chthreads.h"
 1160              		.file 17 "/home/maciek/ChibiOS_16.1.5/os/rt/include/chmemcore.h"
 1161              		.file 18 "/home/maciek/ChibiOS_16.1.5/os/rt/include/chheap.h"
 1162              		.file 19 "/home/maciek/ChibiOS_16.1.5/os/rt/include/chstreams.h"
 1163              		.file 20 "/home/maciek/ChibiOS_16.1.5/os/various/shell.h"
 1164              		.file 21 "/home/maciek/ChibiOS_16.1.5/os/rt/include/chsys.h"
 1165              		.file 22 "/home/maciek/ChibiOS_16.1.5/os/rt/include/chregistry.h"
 1166              		.file 23 "/home/maciek/ChibiOS_16.1.5/os/ext/CMSIS/include/core_cm3.h"
 1167              		.file 24 "/home/maciek/ChibiOS_16.1.5/os/hal/lib/streams/chprintf.h"
 1168              		.file 25 "/opt/stm32/gcc/gcc-arm-none-eabi-4_9-2015q2/arm-none-eabi/include/string.h"
 1169              		.file 26 "/home/maciek/ChibiOS_16.1.5/os/rt/include/chdynamic.h"