ARM GAS  /tmp/ccRzCiZv.s 			page 1


   1              		.syntax unified
   2              		.cpu cortex-m3
   3              		.fpu softvfp
   4              		.eabi_attribute 20, 1
   5              		.eabi_attribute 21, 1
   6              		.eabi_attribute 23, 3
   7              		.eabi_attribute 24, 1
   8              		.eabi_attribute 25, 1
   9              		.eabi_attribute 26, 1
  10              		.eabi_attribute 30, 2
  11              		.eabi_attribute 34, 1
  12              		.eabi_attribute 18, 4
  13              		.thumb
  14              		.file	"st.c"
  15              		.text
  16              	.Ltext0:
  17              		.cfi_sections	.debug_frame
  18              		.section	.text.stInit,"ax",%progbits
  19              		.align	2
  20              		.p2align 4,,15
  21              		.global	stInit
  22              		.thumb
  23              		.thumb_func
  24              		.type	stInit, %function
  25              	stInit:
  26              	.LFB207:
  27              		.file 1 "/home/maciek/ChibiOS_16.1.5/os/hal/src/st.c"
  28              		.loc 1 60 0
  29              		.cfi_startproc
  30              		@ args = 0, pretend = 0, frame = 0
  31              		@ frame_needed = 0, uses_anonymous_args = 0
  32              		@ link register save eliminated.
  33              		.loc 1 62 0
  34 0000 FFF7FEBF 		b	st_lld_init
  35              	.LVL0:
  36              		.cfi_endproc
  37              	.LFE207:
  38              		.size	stInit, .-stInit
  39              		.section	.text.stStartAlarm,"ax",%progbits
  40              		.align	2
  41              		.p2align 4,,15
  42              		.global	stStartAlarm
  43              		.thumb
  44              		.thumb_func
  45              		.type	stStartAlarm, %function
  46              	stStartAlarm:
  47              	.LFB208:
  48              		.loc 1 77 0
  49              		.cfi_startproc
  50              		@ args = 0, pretend = 0, frame = 0
  51              		@ frame_needed = 0, uses_anonymous_args = 0
  52              		@ link register save eliminated.
  53              	.LVL1:
  54              	.LBB10:
  55              	.LBB11:
  56              		.file 2 "/home/maciek/ChibiOS_16.1.5/os/hal/ports/STM32/LLD/TIMv1/st_lld.h"
  57              		.loc 2 155 0
ARM GAS  /tmp/ccRzCiZv.s 			page 2


  58 0000 4FF08043 		mov	r3, #1073741824
  59              		.loc 2 156 0
  60 0004 0021     		movs	r1, #0
  61              		.loc 2 157 0
  62 0006 0222     		movs	r2, #2
  63              		.loc 2 155 0
  64 0008 5863     		str	r0, [r3, #52]
  65              		.loc 2 156 0
  66 000a 1961     		str	r1, [r3, #16]
  67              		.loc 2 157 0
  68 000c DA60     		str	r2, [r3, #12]
  69 000e 7047     		bx	lr
  70              	.LBE11:
  71              	.LBE10:
  72              		.cfi_endproc
  73              	.LFE208:
  74              		.size	stStartAlarm, .-stStartAlarm
  75              		.section	.text.stStopAlarm,"ax",%progbits
  76              		.align	2
  77              		.p2align 4,,15
  78              		.global	stStopAlarm
  79              		.thumb
  80              		.thumb_func
  81              		.type	stStopAlarm, %function
  82              	stStopAlarm:
  83              	.LFB209:
  84              		.loc 1 91 0
  85              		.cfi_startproc
  86              		@ args = 0, pretend = 0, frame = 0
  87              		@ frame_needed = 0, uses_anonymous_args = 0
  88              		@ link register save eliminated.
  89              	.LBB12:
  90              	.LBB13:
  91              		.loc 2 167 0
  92 0000 4FF08043 		mov	r3, #1073741824
  93 0004 0022     		movs	r2, #0
  94 0006 DA60     		str	r2, [r3, #12]
  95 0008 7047     		bx	lr
  96              	.LBE13:
  97              	.LBE12:
  98              		.cfi_endproc
  99              	.LFE209:
 100              		.size	stStopAlarm, .-stStopAlarm
 101 000a 00BF     		.section	.text.stSetAlarm,"ax",%progbits
 102              		.align	2
 103              		.p2align 4,,15
 104              		.global	stSetAlarm
 105              		.thumb
 106              		.thumb_func
 107              		.type	stSetAlarm, %function
 108              	stSetAlarm:
 109              	.LFB210:
 110              		.loc 1 105 0
 111              		.cfi_startproc
 112              		@ args = 0, pretend = 0, frame = 0
 113              		@ frame_needed = 0, uses_anonymous_args = 0
 114              		@ link register save eliminated.
ARM GAS  /tmp/ccRzCiZv.s 			page 3


 115              	.LVL2:
 116              	.LBB14:
 117              	.LBB15:
 118              		.loc 2 179 0
 119 0000 4FF08043 		mov	r3, #1073741824
 120 0004 5863     		str	r0, [r3, #52]
 121 0006 7047     		bx	lr
 122              	.LBE15:
 123              	.LBE14:
 124              		.cfi_endproc
 125              	.LFE210:
 126              		.size	stSetAlarm, .-stSetAlarm
 127              		.section	.text.stGetAlarm,"ax",%progbits
 128              		.align	2
 129              		.p2align 4,,15
 130              		.global	stGetAlarm
 131              		.thumb
 132              		.thumb_func
 133              		.type	stGetAlarm, %function
 134              	stGetAlarm:
 135              	.LFB211:
 136              		.loc 1 121 0
 137              		.cfi_startproc
 138              		@ args = 0, pretend = 0, frame = 0
 139              		@ frame_needed = 0, uses_anonymous_args = 0
 140              		@ link register save eliminated.
 141              	.LBB16:
 142              	.LBB17:
 143              		.loc 2 191 0
 144 0000 4FF08043 		mov	r3, #1073741824
 145 0004 586B     		ldr	r0, [r3, #52]
 146              	.LBE17:
 147              	.LBE16:
 148              		.loc 1 126 0
 149 0006 80B2     		uxth	r0, r0
 150 0008 7047     		bx	lr
 151              		.cfi_endproc
 152              	.LFE211:
 153              		.size	stGetAlarm, .-stGetAlarm
 154 000a 00BF     		.text
 155              	.Letext0:
 156              		.file 3 "/opt/stm32/gcc/gcc-arm-none-eabi-4_9-2015q2/arm-none-eabi/include/machine/_default_types.
 157              		.file 4 "/opt/stm32/gcc/gcc-arm-none-eabi-4_9-2015q2/arm-none-eabi/include/sys/_stdint.h"
 158              		.file 5 "/home/maciek/ChibiOS_16.1.5/os/rt/ports/ARMCMx/compilers/GCC/chtypes.h"
 159              		.file 6 "/home/maciek/ChibiOS_16.1.5/os/rt/include/chsystypes.h"
 160              		.file 7 "/home/maciek/ChibiOS_16.1.5/os/rt/include/chschd.h"
 161              		.file 8 "/home/maciek/ChibiOS_16.1.5/os/rt/ports/ARMCMx/chcore.h"
 162              		.file 9 "/home/maciek/ChibiOS_16.1.5/os/rt/ports/ARMCMx/chcore_v7m.h"
 163              		.file 10 "/home/maciek/ChibiOS_16.1.5/os/rt/include/chtm.h"
 164              		.file 11 "/home/maciek/ChibiOS_16.1.5/os/rt/include/chsem.h"
 165              		.file 12 "/home/maciek/ChibiOS_16.1.5/os/rt/include/chmtx.h"
 166              		.file 13 "/home/maciek/ChibiOS_16.1.5/os/hal/ports/STM32/LLD/TIMv1/stm32_tim.h"
 167              		.file 14 "/home/maciek/ChibiOS_16.1.5/os/ext/CMSIS/include/core_cm3.h"