ARM GAS  /tmp/cclWvpM8.s 			page 1


   1              		.syntax unified
   2              		.cpu cortex-m3
   3              		.fpu softvfp
   4              		.eabi_attribute 20, 1
   5              		.eabi_attribute 21, 1
   6              		.eabi_attribute 23, 3
   7              		.eabi_attribute 24, 1
   8              		.eabi_attribute 25, 1
   9              		.eabi_attribute 26, 1
  10              		.eabi_attribute 30, 2
  11              		.eabi_attribute 34, 1
  12              		.eabi_attribute 18, 4
  13              		.thumb
  14              		.file	"stm32_dma.c"
  15              		.text
  16              	.Ltext0:
  17              		.cfi_sections	.debug_frame
  18              		.section	.text.Vector6C,"ax",%progbits
  19              		.align	2
  20              		.p2align 4,,15
  21              		.global	Vector6C
  22              		.thumb
  23              		.thumb_func
  24              		.type	Vector6C, %function
  25              	Vector6C:
  26              	.LFB207:
  27              		.file 1 "/home/maciek/ChibiOS_16.1.5/os/hal/ports/STM32/LLD/DMAv1/stm32_dma.c"
  28              		.loc 1 204 0
  29              		.cfi_startproc
  30              		@ args = 0, pretend = 0, frame = 0
  31              		@ frame_needed = 0, uses_anonymous_args = 0
  32              	.LVL0:
  33 0000 08B5     		push	{r3, lr}
  34              		.cfi_def_cfa_offset 8
  35              		.cfi_offset 3, -8
  36              		.cfi_offset 14, -4
  37              	.LBB2:
  38              		.loc 1 208 0
  39 0002 074B     		ldr	r3, .L10
  40 0004 1968     		ldr	r1, [r3]
  41              	.LVL1:
  42 0006 11F00F01 		ands	r1, r1, #15
  43              	.LVL2:
  44 000a 05D0     		beq	.L3
  45              		.loc 1 208 0 is_stmt 0 discriminator 1
  46 000c 054A     		ldr	r2, .L10+4
  47 000e 5960     		str	r1, [r3, #4]
  48 0010 1368     		ldr	r3, [r2]
  49 0012 0BB1     		cbz	r3, .L3
  50              		.loc 1 208 0 discriminator 2
  51 0014 5068     		ldr	r0, [r2, #4]
  52 0016 9847     		blx	r3
  53              	.LVL3:
  54              	.L3:
  55              	.LBE2:
  56              		.loc 1 211 0 is_stmt 1
  57 0018 BDE80840 		pop	{r3, lr}
ARM GAS  /tmp/cclWvpM8.s 			page 2


  58              		.cfi_restore 14
  59              		.cfi_restore 3
  60              		.cfi_def_cfa_offset 0
  61              		.loc 1 210 0
  62 001c FFF7FEBF 		b	_port_irq_epilogue
  63              	.LVL4:
  64              	.L11:
  65              		.align	2
  66              	.L10:
  67 0020 00000240 		.word	1073872896
  68 0024 00000000 		.word	.LANCHOR0
  69              		.cfi_endproc
  70              	.LFE207:
  71              		.size	Vector6C, .-Vector6C
  72              		.section	.text.Vector70,"ax",%progbits
  73              		.align	2
  74              		.p2align 4,,15
  75              		.global	Vector70
  76              		.thumb
  77              		.thumb_func
  78              		.type	Vector70, %function
  79              	Vector70:
  80              	.LFB208:
  81              		.loc 1 220 0
  82              		.cfi_startproc
  83              		@ args = 0, pretend = 0, frame = 0
  84              		@ frame_needed = 0, uses_anonymous_args = 0
  85              	.LVL5:
  86              	.LBB3:
  87              		.loc 1 224 0
  88 0000 094B     		ldr	r3, .L21
  89 0002 1968     		ldr	r1, [r3]
  90 0004 C1F30311 		ubfx	r1, r1, #4, #4
  91              	.LVL6:
  92 0008 59B1     		cbz	r1, .L20
  93              		.loc 1 224 0 is_stmt 0 discriminator 1
  94 000a 0848     		ldr	r0, .L21+4
  95              	.LBE3:
  96              		.loc 1 220 0 is_stmt 1 discriminator 1
  97 000c 10B5     		push	{r4, lr}
  98              		.cfi_def_cfa_offset 8
  99              		.cfi_offset 4, -8
 100              		.cfi_offset 14, -4
 101              	.LBB4:
 102              		.loc 1 224 0 discriminator 1
 103 000e 8468     		ldr	r4, [r0, #8]
 104 0010 0A01     		lsls	r2, r1, #4
 105 0012 5A60     		str	r2, [r3, #4]
 106 0014 0CB1     		cbz	r4, .L14
 107              		.loc 1 224 0 is_stmt 0 discriminator 2
 108 0016 C068     		ldr	r0, [r0, #12]
 109 0018 A047     		blx	r4
 110              	.LVL7:
 111              	.L14:
 112              	.LBE4:
 113              		.loc 1 227 0 is_stmt 1
 114 001a BDE81040 		pop	{r4, lr}
ARM GAS  /tmp/cclWvpM8.s 			page 3


 115              		.cfi_restore 14
 116              		.cfi_restore 4
 117              		.cfi_def_cfa_offset 0
 118              		.loc 1 226 0
 119 001e FFF7FEBF 		b	_port_irq_epilogue
 120              	.LVL8:
 121              	.L20:
 122 0022 FFF7FEBF 		b	_port_irq_epilogue
 123              	.LVL9:
 124              	.L22:
 125 0026 00BF     		.align	2
 126              	.L21:
 127 0028 00000240 		.word	1073872896
 128 002c 00000000 		.word	.LANCHOR0
 129              		.cfi_endproc
 130              	.LFE208:
 131              		.size	Vector70, .-Vector70
 132              		.section	.text.Vector74,"ax",%progbits
 133              		.align	2
 134              		.p2align 4,,15
 135              		.global	Vector74
 136              		.thumb
 137              		.thumb_func
 138              		.type	Vector74, %function
 139              	Vector74:
 140              	.LFB209:
 141              		.loc 1 236 0
 142              		.cfi_startproc
 143              		@ args = 0, pretend = 0, frame = 0
 144              		@ frame_needed = 0, uses_anonymous_args = 0
 145              	.LVL10:
 146              	.LBB5:
 147              		.loc 1 240 0
 148 0000 094B     		ldr	r3, .L32
 149 0002 1968     		ldr	r1, [r3]
 150 0004 C1F30321 		ubfx	r1, r1, #8, #4
 151              	.LVL11:
 152 0008 59B1     		cbz	r1, .L31
 153              		.loc 1 240 0 is_stmt 0 discriminator 1
 154 000a 0848     		ldr	r0, .L32+4
 155              	.LBE5:
 156              		.loc 1 236 0 is_stmt 1 discriminator 1
 157 000c 10B5     		push	{r4, lr}
 158              		.cfi_def_cfa_offset 8
 159              		.cfi_offset 4, -8
 160              		.cfi_offset 14, -4
 161              	.LBB6:
 162              		.loc 1 240 0 discriminator 1
 163 000e 0469     		ldr	r4, [r0, #16]
 164 0010 0A02     		lsls	r2, r1, #8
 165 0012 5A60     		str	r2, [r3, #4]
 166 0014 0CB1     		cbz	r4, .L25
 167              		.loc 1 240 0 is_stmt 0 discriminator 2
 168 0016 4069     		ldr	r0, [r0, #20]
 169 0018 A047     		blx	r4
 170              	.LVL12:
 171              	.L25:
ARM GAS  /tmp/cclWvpM8.s 			page 4


 172              	.LBE6:
 173              		.loc 1 243 0 is_stmt 1
 174 001a BDE81040 		pop	{r4, lr}
 175              		.cfi_restore 14
 176              		.cfi_restore 4
 177              		.cfi_def_cfa_offset 0
 178              		.loc 1 242 0
 179 001e FFF7FEBF 		b	_port_irq_epilogue
 180              	.LVL13:
 181              	.L31:
 182 0022 FFF7FEBF 		b	_port_irq_epilogue
 183              	.LVL14:
 184              	.L33:
 185 0026 00BF     		.align	2
 186              	.L32:
 187 0028 00000240 		.word	1073872896
 188 002c 00000000 		.word	.LANCHOR0
 189              		.cfi_endproc
 190              	.LFE209:
 191              		.size	Vector74, .-Vector74
 192              		.section	.text.Vector78,"ax",%progbits
 193              		.align	2
 194              		.p2align 4,,15
 195              		.global	Vector78
 196              		.thumb
 197              		.thumb_func
 198              		.type	Vector78, %function
 199              	Vector78:
 200              	.LFB210:
 201              		.loc 1 252 0
 202              		.cfi_startproc
 203              		@ args = 0, pretend = 0, frame = 0
 204              		@ frame_needed = 0, uses_anonymous_args = 0
 205              	.LVL15:
 206              	.LBB7:
 207              		.loc 1 256 0
 208 0000 094B     		ldr	r3, .L43
 209 0002 1968     		ldr	r1, [r3]
 210 0004 C1F30331 		ubfx	r1, r1, #12, #4
 211              	.LVL16:
 212 0008 59B1     		cbz	r1, .L42
 213              		.loc 1 256 0 is_stmt 0 discriminator 1
 214 000a 0848     		ldr	r0, .L43+4
 215              	.LBE7:
 216              		.loc 1 252 0 is_stmt 1 discriminator 1
 217 000c 10B5     		push	{r4, lr}
 218              		.cfi_def_cfa_offset 8
 219              		.cfi_offset 4, -8
 220              		.cfi_offset 14, -4
 221              	.LBB8:
 222              		.loc 1 256 0 discriminator 1
 223 000e 8469     		ldr	r4, [r0, #24]
 224 0010 0A03     		lsls	r2, r1, #12
 225 0012 5A60     		str	r2, [r3, #4]
 226 0014 0CB1     		cbz	r4, .L36
 227              		.loc 1 256 0 is_stmt 0 discriminator 2
 228 0016 C069     		ldr	r0, [r0, #28]
ARM GAS  /tmp/cclWvpM8.s 			page 5


 229 0018 A047     		blx	r4
 230              	.LVL17:
 231              	.L36:
 232              	.LBE8:
 233              		.loc 1 259 0 is_stmt 1
 234 001a BDE81040 		pop	{r4, lr}
 235              		.cfi_restore 14
 236              		.cfi_restore 4
 237              		.cfi_def_cfa_offset 0
 238              		.loc 1 258 0
 239 001e FFF7FEBF 		b	_port_irq_epilogue
 240              	.LVL18:
 241              	.L42:
 242 0022 FFF7FEBF 		b	_port_irq_epilogue
 243              	.LVL19:
 244              	.L44:
 245 0026 00BF     		.align	2
 246              	.L43:
 247 0028 00000240 		.word	1073872896
 248 002c 00000000 		.word	.LANCHOR0
 249              		.cfi_endproc
 250              	.LFE210:
 251              		.size	Vector78, .-Vector78
 252              		.section	.text.Vector7C,"ax",%progbits
 253              		.align	2
 254              		.p2align 4,,15
 255              		.global	Vector7C
 256              		.thumb
 257              		.thumb_func
 258              		.type	Vector7C, %function
 259              	Vector7C:
 260              	.LFB211:
 261              		.loc 1 268 0
 262              		.cfi_startproc
 263              		@ args = 0, pretend = 0, frame = 0
 264              		@ frame_needed = 0, uses_anonymous_args = 0
 265              	.LVL20:
 266              	.LBB9:
 267              		.loc 1 272 0
 268 0000 094B     		ldr	r3, .L54
 269 0002 1968     		ldr	r1, [r3]
 270 0004 C1F30341 		ubfx	r1, r1, #16, #4
 271              	.LVL21:
 272 0008 59B1     		cbz	r1, .L53
 273              		.loc 1 272 0 is_stmt 0 discriminator 1
 274 000a 0848     		ldr	r0, .L54+4
 275              	.LBE9:
 276              		.loc 1 268 0 is_stmt 1 discriminator 1
 277 000c 10B5     		push	{r4, lr}
 278              		.cfi_def_cfa_offset 8
 279              		.cfi_offset 4, -8
 280              		.cfi_offset 14, -4
 281              	.LBB10:
 282              		.loc 1 272 0 discriminator 1
 283 000e 046A     		ldr	r4, [r0, #32]
 284 0010 0A04     		lsls	r2, r1, #16
 285 0012 5A60     		str	r2, [r3, #4]
ARM GAS  /tmp/cclWvpM8.s 			page 6


 286 0014 0CB1     		cbz	r4, .L47
 287              		.loc 1 272 0 is_stmt 0 discriminator 2
 288 0016 406A     		ldr	r0, [r0, #36]
 289 0018 A047     		blx	r4
 290              	.LVL22:
 291              	.L47:
 292              	.LBE10:
 293              		.loc 1 275 0 is_stmt 1
 294 001a BDE81040 		pop	{r4, lr}
 295              		.cfi_restore 14
 296              		.cfi_restore 4
 297              		.cfi_def_cfa_offset 0
 298              		.loc 1 274 0
 299 001e FFF7FEBF 		b	_port_irq_epilogue
 300              	.LVL23:
 301              	.L53:
 302 0022 FFF7FEBF 		b	_port_irq_epilogue
 303              	.LVL24:
 304              	.L55:
 305 0026 00BF     		.align	2
 306              	.L54:
 307 0028 00000240 		.word	1073872896
 308 002c 00000000 		.word	.LANCHOR0
 309              		.cfi_endproc
 310              	.LFE211:
 311              		.size	Vector7C, .-Vector7C
 312              		.section	.text.Vector80,"ax",%progbits
 313              		.align	2
 314              		.p2align 4,,15
 315              		.global	Vector80
 316              		.thumb
 317              		.thumb_func
 318              		.type	Vector80, %function
 319              	Vector80:
 320              	.LFB212:
 321              		.loc 1 284 0
 322              		.cfi_startproc
 323              		@ args = 0, pretend = 0, frame = 0
 324              		@ frame_needed = 0, uses_anonymous_args = 0
 325              	.LVL25:
 326              	.LBB11:
 327              		.loc 1 288 0
 328 0000 094B     		ldr	r3, .L65
 329 0002 1968     		ldr	r1, [r3]
 330 0004 C1F30351 		ubfx	r1, r1, #20, #4
 331              	.LVL26:
 332 0008 59B1     		cbz	r1, .L64
 333              		.loc 1 288 0 is_stmt 0 discriminator 1
 334 000a 0848     		ldr	r0, .L65+4
 335              	.LBE11:
 336              		.loc 1 284 0 is_stmt 1 discriminator 1
 337 000c 10B5     		push	{r4, lr}
 338              		.cfi_def_cfa_offset 8
 339              		.cfi_offset 4, -8
 340              		.cfi_offset 14, -4
 341              	.LBB12:
 342              		.loc 1 288 0 discriminator 1
ARM GAS  /tmp/cclWvpM8.s 			page 7


 343 000e 846A     		ldr	r4, [r0, #40]
 344 0010 0A05     		lsls	r2, r1, #20
 345 0012 5A60     		str	r2, [r3, #4]
 346 0014 0CB1     		cbz	r4, .L58
 347              		.loc 1 288 0 is_stmt 0 discriminator 2
 348 0016 C06A     		ldr	r0, [r0, #44]
 349 0018 A047     		blx	r4
 350              	.LVL27:
 351              	.L58:
 352              	.LBE12:
 353              		.loc 1 291 0 is_stmt 1
 354 001a BDE81040 		pop	{r4, lr}
 355              		.cfi_restore 14
 356              		.cfi_restore 4
 357              		.cfi_def_cfa_offset 0
 358              		.loc 1 290 0
 359 001e FFF7FEBF 		b	_port_irq_epilogue
 360              	.LVL28:
 361              	.L64:
 362 0022 FFF7FEBF 		b	_port_irq_epilogue
 363              	.LVL29:
 364              	.L66:
 365 0026 00BF     		.align	2
 366              	.L65:
 367 0028 00000240 		.word	1073872896
 368 002c 00000000 		.word	.LANCHOR0
 369              		.cfi_endproc
 370              	.LFE212:
 371              		.size	Vector80, .-Vector80
 372              		.section	.text.Vector84,"ax",%progbits
 373              		.align	2
 374              		.p2align 4,,15
 375              		.global	Vector84
 376              		.thumb
 377              		.thumb_func
 378              		.type	Vector84, %function
 379              	Vector84:
 380              	.LFB213:
 381              		.loc 1 300 0
 382              		.cfi_startproc
 383              		@ args = 0, pretend = 0, frame = 0
 384              		@ frame_needed = 0, uses_anonymous_args = 0
 385              	.LVL30:
 386              	.LBB13:
 387              		.loc 1 304 0
 388 0000 094B     		ldr	r3, .L76
 389 0002 1968     		ldr	r1, [r3]
 390 0004 C1F30361 		ubfx	r1, r1, #24, #4
 391              	.LVL31:
 392 0008 59B1     		cbz	r1, .L75
 393              		.loc 1 304 0 is_stmt 0 discriminator 1
 394 000a 0848     		ldr	r0, .L76+4
 395              	.LBE13:
 396              		.loc 1 300 0 is_stmt 1 discriminator 1
 397 000c 10B5     		push	{r4, lr}
 398              		.cfi_def_cfa_offset 8
 399              		.cfi_offset 4, -8
ARM GAS  /tmp/cclWvpM8.s 			page 8


 400              		.cfi_offset 14, -4
 401              	.LBB14:
 402              		.loc 1 304 0 discriminator 1
 403 000e 046B     		ldr	r4, [r0, #48]
 404 0010 0A06     		lsls	r2, r1, #24
 405 0012 5A60     		str	r2, [r3, #4]
 406 0014 0CB1     		cbz	r4, .L69
 407              		.loc 1 304 0 is_stmt 0 discriminator 2
 408 0016 406B     		ldr	r0, [r0, #52]
 409 0018 A047     		blx	r4
 410              	.LVL32:
 411              	.L69:
 412              	.LBE14:
 413              		.loc 1 307 0 is_stmt 1
 414 001a BDE81040 		pop	{r4, lr}
 415              		.cfi_restore 14
 416              		.cfi_restore 4
 417              		.cfi_def_cfa_offset 0
 418              		.loc 1 306 0
 419 001e FFF7FEBF 		b	_port_irq_epilogue
 420              	.LVL33:
 421              	.L75:
 422 0022 FFF7FEBF 		b	_port_irq_epilogue
 423              	.LVL34:
 424              	.L77:
 425 0026 00BF     		.align	2
 426              	.L76:
 427 0028 00000240 		.word	1073872896
 428 002c 00000000 		.word	.LANCHOR0
 429              		.cfi_endproc
 430              	.LFE213:
 431              		.size	Vector84, .-Vector84
 432              		.section	.text.Vector120,"ax",%progbits
 433              		.align	2
 434              		.p2align 4,,15
 435              		.global	Vector120
 436              		.thumb
 437              		.thumb_func
 438              		.type	Vector120, %function
 439              	Vector120:
 440              	.LFB214:
 441              		.loc 1 316 0
 442              		.cfi_startproc
 443              		@ args = 0, pretend = 0, frame = 0
 444              		@ frame_needed = 0, uses_anonymous_args = 0
 445              	.LVL35:
 446 0000 08B5     		push	{r3, lr}
 447              		.cfi_def_cfa_offset 8
 448              		.cfi_offset 3, -8
 449              		.cfi_offset 14, -4
 450              	.LBB15:
 451              		.loc 1 320 0
 452 0002 074B     		ldr	r3, .L86
 453 0004 1968     		ldr	r1, [r3]
 454              	.LVL36:
 455 0006 11F00F01 		ands	r1, r1, #15
 456              	.LVL37:
ARM GAS  /tmp/cclWvpM8.s 			page 9


 457 000a 05D0     		beq	.L80
 458              		.loc 1 320 0 is_stmt 0 discriminator 1
 459 000c 054A     		ldr	r2, .L86+4
 460 000e 5960     		str	r1, [r3, #4]
 461 0010 936B     		ldr	r3, [r2, #56]
 462 0012 0BB1     		cbz	r3, .L80
 463              		.loc 1 320 0 discriminator 2
 464 0014 D06B     		ldr	r0, [r2, #60]
 465 0016 9847     		blx	r3
 466              	.LVL38:
 467              	.L80:
 468              	.LBE15:
 469              		.loc 1 323 0 is_stmt 1
 470 0018 BDE80840 		pop	{r3, lr}
 471              		.cfi_restore 14
 472              		.cfi_restore 3
 473              		.cfi_def_cfa_offset 0
 474              		.loc 1 322 0
 475 001c FFF7FEBF 		b	_port_irq_epilogue
 476              	.LVL39:
 477              	.L87:
 478              		.align	2
 479              	.L86:
 480 0020 00040240 		.word	1073873920
 481 0024 00000000 		.word	.LANCHOR0
 482              		.cfi_endproc
 483              	.LFE214:
 484              		.size	Vector120, .-Vector120
 485              		.section	.text.Vector124,"ax",%progbits
 486              		.align	2
 487              		.p2align 4,,15
 488              		.global	Vector124
 489              		.thumb
 490              		.thumb_func
 491              		.type	Vector124, %function
 492              	Vector124:
 493              	.LFB215:
 494              		.loc 1 332 0
 495              		.cfi_startproc
 496              		@ args = 0, pretend = 0, frame = 0
 497              		@ frame_needed = 0, uses_anonymous_args = 0
 498              	.LVL40:
 499              	.LBB16:
 500              		.loc 1 336 0
 501 0000 094B     		ldr	r3, .L97
 502 0002 1968     		ldr	r1, [r3]
 503 0004 C1F30311 		ubfx	r1, r1, #4, #4
 504              	.LVL41:
 505 0008 59B1     		cbz	r1, .L96
 506              		.loc 1 336 0 is_stmt 0 discriminator 1
 507 000a 0848     		ldr	r0, .L97+4
 508              	.LBE16:
 509              		.loc 1 332 0 is_stmt 1 discriminator 1
 510 000c 10B5     		push	{r4, lr}
 511              		.cfi_def_cfa_offset 8
 512              		.cfi_offset 4, -8
 513              		.cfi_offset 14, -4
ARM GAS  /tmp/cclWvpM8.s 			page 10


 514              	.LBB17:
 515              		.loc 1 336 0 discriminator 1
 516 000e 046C     		ldr	r4, [r0, #64]
 517 0010 0A01     		lsls	r2, r1, #4
 518 0012 5A60     		str	r2, [r3, #4]
 519 0014 0CB1     		cbz	r4, .L90
 520              		.loc 1 336 0 is_stmt 0 discriminator 2
 521 0016 406C     		ldr	r0, [r0, #68]
 522 0018 A047     		blx	r4
 523              	.LVL42:
 524              	.L90:
 525              	.LBE17:
 526              		.loc 1 339 0 is_stmt 1
 527 001a BDE81040 		pop	{r4, lr}
 528              		.cfi_restore 14
 529              		.cfi_restore 4
 530              		.cfi_def_cfa_offset 0
 531              		.loc 1 338 0
 532 001e FFF7FEBF 		b	_port_irq_epilogue
 533              	.LVL43:
 534              	.L96:
 535 0022 FFF7FEBF 		b	_port_irq_epilogue
 536              	.LVL44:
 537              	.L98:
 538 0026 00BF     		.align	2
 539              	.L97:
 540 0028 00040240 		.word	1073873920
 541 002c 00000000 		.word	.LANCHOR0
 542              		.cfi_endproc
 543              	.LFE215:
 544              		.size	Vector124, .-Vector124
 545              		.section	.text.Vector128,"ax",%progbits
 546              		.align	2
 547              		.p2align 4,,15
 548              		.global	Vector128
 549              		.thumb
 550              		.thumb_func
 551              		.type	Vector128, %function
 552              	Vector128:
 553              	.LFB216:
 554              		.loc 1 348 0
 555              		.cfi_startproc
 556              		@ args = 0, pretend = 0, frame = 0
 557              		@ frame_needed = 0, uses_anonymous_args = 0
 558              	.LVL45:
 559              	.LBB18:
 560              		.loc 1 352 0
 561 0000 094B     		ldr	r3, .L108
 562 0002 1968     		ldr	r1, [r3]
 563 0004 C1F30321 		ubfx	r1, r1, #8, #4
 564              	.LVL46:
 565 0008 59B1     		cbz	r1, .L107
 566              		.loc 1 352 0 is_stmt 0 discriminator 1
 567 000a 0848     		ldr	r0, .L108+4
 568              	.LBE18:
 569              		.loc 1 348 0 is_stmt 1 discriminator 1
 570 000c 10B5     		push	{r4, lr}
ARM GAS  /tmp/cclWvpM8.s 			page 11


 571              		.cfi_def_cfa_offset 8
 572              		.cfi_offset 4, -8
 573              		.cfi_offset 14, -4
 574              	.LBB19:
 575              		.loc 1 352 0 discriminator 1
 576 000e 846C     		ldr	r4, [r0, #72]
 577 0010 0A02     		lsls	r2, r1, #8
 578 0012 5A60     		str	r2, [r3, #4]
 579 0014 0CB1     		cbz	r4, .L101
 580              		.loc 1 352 0 is_stmt 0 discriminator 2
 581 0016 C06C     		ldr	r0, [r0, #76]
 582 0018 A047     		blx	r4
 583              	.LVL47:
 584              	.L101:
 585              	.LBE19:
 586              		.loc 1 355 0 is_stmt 1
 587 001a BDE81040 		pop	{r4, lr}
 588              		.cfi_restore 14
 589              		.cfi_restore 4
 590              		.cfi_def_cfa_offset 0
 591              		.loc 1 354 0
 592 001e FFF7FEBF 		b	_port_irq_epilogue
 593              	.LVL48:
 594              	.L107:
 595 0022 FFF7FEBF 		b	_port_irq_epilogue
 596              	.LVL49:
 597              	.L109:
 598 0026 00BF     		.align	2
 599              	.L108:
 600 0028 00040240 		.word	1073873920
 601 002c 00000000 		.word	.LANCHOR0
 602              		.cfi_endproc
 603              	.LFE216:
 604              		.size	Vector128, .-Vector128
 605              		.section	.text.dmaInit,"ax",%progbits
 606              		.align	2
 607              		.p2align 4,,15
 608              		.global	dmaInit
 609              		.thumb
 610              		.thumb_func
 611              		.type	dmaInit, %function
 612              	dmaInit:
 613              	.LFB217:
 614              		.loc 1 431 0
 615              		.cfi_startproc
 616              		@ args = 0, pretend = 0, frame = 0
 617              		@ frame_needed = 0, uses_anonymous_args = 0
 618              		@ link register save eliminated.
 619              		.loc 1 434 0
 620 0000 0020     		movs	r0, #0
 621              		.loc 1 435 0
 622 0002 0346     		mov	r3, r0
 623              		.loc 1 436 0
 624 0004 0146     		mov	r1, r0
 625              		.loc 1 431 0
 626 0006 30B4     		push	{r4, r5}
 627              		.cfi_def_cfa_offset 8
ARM GAS  /tmp/cclWvpM8.s 			page 12


 628              		.cfi_offset 4, -8
 629              		.cfi_offset 5, -4
 630              		.loc 1 434 0
 631 0008 094D     		ldr	r5, .L114
 632 000a 0A4A     		ldr	r2, .L114+4
 633 000c 0A4C     		ldr	r4, .L114+8
 634 000e 2860     		str	r0, [r5]
 635              	.LVL50:
 636              	.L111:
 637              		.loc 1 436 0 discriminator 3
 638 0010 5068     		ldr	r0, [r2, #4]
 639 0012 1432     		adds	r2, r2, #20
 640 0014 0160     		str	r1, [r0]
 641              		.loc 1 437 0 discriminator 3
 642 0016 44F83310 		str	r1, [r4, r3, lsl #3]
 643              		.loc 1 435 0 discriminator 3
 644 001a 0133     		adds	r3, r3, #1
 645              	.LVL51:
 646 001c 0C2B     		cmp	r3, #12
 647 001e F7D1     		bne	.L111
 648              		.loc 1 439 0
 649 0020 0649     		ldr	r1, .L114+12
 650              		.loc 1 441 0
 651 0022 074A     		ldr	r2, .L114+16
 652              		.loc 1 439 0
 653 0024 4FF0FF33 		mov	r3, #-1
 654              	.LVL52:
 655 0028 4B60     		str	r3, [r1, #4]
 656              		.loc 1 443 0
 657 002a 30BC     		pop	{r4, r5}
 658              		.cfi_restore 5
 659              		.cfi_restore 4
 660              		.cfi_def_cfa_offset 0
 661              		.loc 1 441 0
 662 002c 5360     		str	r3, [r2, #4]
 663              		.loc 1 443 0
 664 002e 7047     		bx	lr
 665              	.L115:
 666              		.align	2
 667              	.L114:
 668 0030 00000000 		.word	.LANCHOR1
 669 0034 00000000 		.word	.LANCHOR2
 670 0038 00000000 		.word	.LANCHOR0
 671 003c 00000240 		.word	1073872896
 672 0040 00040240 		.word	1073873920
 673              		.cfi_endproc
 674              	.LFE217:
 675              		.size	dmaInit, .-dmaInit
 676              		.section	.text.dmaStreamAllocate,"ax",%progbits
 677              		.align	2
 678              		.p2align 4,,15
 679              		.global	dmaStreamAllocate
 680              		.thumb
 681              		.thumb_func
 682              		.type	dmaStreamAllocate, %function
 683              	dmaStreamAllocate:
 684              	.LFB218:
ARM GAS  /tmp/cclWvpM8.s 			page 13


 685              		.loc 1 472 0
 686              		.cfi_startproc
 687              		@ args = 0, pretend = 0, frame = 0
 688              		@ frame_needed = 0, uses_anonymous_args = 0
 689              	.LVL53:
 690 0000 F8B5     		push	{r3, r4, r5, r6, r7, lr}
 691              		.cfi_def_cfa_offset 24
 692              		.cfi_offset 3, -24
 693              		.cfi_offset 4, -20
 694              		.cfi_offset 5, -16
 695              		.cfi_offset 6, -12
 696              		.cfi_offset 7, -8
 697              		.cfi_offset 14, -4
 698              		.loc 1 477 0
 699 0002 214F     		ldr	r7, .L126
 700 0004 467C     		ldrb	r6, [r0, #17]	@ zero_extendqisi2
 701 0006 0124     		movs	r4, #1
 702 0008 3D68     		ldr	r5, [r7]
 703 000a 04FA06FE 		lsl	lr, r4, r6
 704 000e 1EEA050F 		tst	lr, r5
 705 0012 37D1     		bne	.L121
 706              		.loc 1 481 0
 707 0014 1D4C     		ldr	r4, .L126+4
 708              		.loc 1 482 0
 709 0016 04EBC60E 		add	lr, r4, r6, lsl #3
 710 001a CEF80430 		str	r3, [lr, #4]
 711              		.loc 1 485 0
 712 001e 6B06     		lsls	r3, r5, #25
 713              	.LVL54:
 714              		.loc 1 481 0
 715 0020 44F83620 		str	r2, [r4, r6, lsl #3]
 716              		.loc 1 485 0
 717 0024 04D1     		bne	.L118
 718              		.loc 1 486 0
 719 0026 1A4C     		ldr	r4, .L126+8
 720 0028 6369     		ldr	r3, [r4, #20]
 721 002a 43F00103 		orr	r3, r3, #1
 722 002e 6361     		str	r3, [r4, #20]
 723              	.L118:
 724              		.loc 1 489 0
 725 0030 15F4786F 		tst	r5, #3968
 726 0034 04D1     		bne	.L119
 727              		.loc 1 490 0
 728 0036 164C     		ldr	r4, .L126+8
 729 0038 6369     		ldr	r3, [r4, #20]
 730 003a 43F00203 		orr	r3, r3, #2
 731 003e 6361     		str	r3, [r4, #20]
 732              	.L119:
 733 0040 0446     		mov	r4, r0
 734              		.loc 1 495 0
 735 0042 4368     		ldr	r3, [r0, #4]
 736 0044 D4F800C0 		ldr	ip, [r4]
 737 0048 1E68     		ldr	r6, [r3]
 738 004a 0F20     		movs	r0, #15
 739              	.LVL55:
 740 004c 26F00F06 		bic	r6, r6, #15
 741 0050 1E60     		str	r6, [r3]
ARM GAS  /tmp/cclWvpM8.s 			page 14


 742 0052 94F810E0 		ldrb	lr, [r4, #16]	@ zero_extendqisi2
 743              	.LVL56:
 744              		.loc 1 500 0
 745 0056 A668     		ldr	r6, [r4, #8]
 746              		.loc 1 495 0
 747 0058 00FA0EF0 		lsl	r0, r0, lr
 748              		.loc 1 500 0
 749 005c 3542     		tst	r5, r6
 750              		.loc 1 496 0
 751 005e 4FF0000E 		mov	lr, #0
 752              		.loc 1 495 0
 753 0062 CCF80400 		str	r0, [ip, #4]
 754              		.loc 1 496 0
 755 0066 C3F800E0 		str	lr, [r3]
 756              		.loc 1 500 0
 757 006a 04D1     		bne	.L120
 758              		.loc 1 500 0 is_stmt 0 discriminator 1
 759 006c 1AB1     		cbz	r2, .L120
 760              		.loc 1 502 0 is_stmt 1
 761 006e A07C     		ldrb	r0, [r4, #18]	@ zero_extendqisi2
 762 0070 FFF7FEFF 		bl	nvicEnableVector
 763              	.LVL57:
 764 0074 3D68     		ldr	r5, [r7]
 765              	.L120:
 766              		.loc 1 506 0
 767 0076 627C     		ldrb	r2, [r4, #17]	@ zero_extendqisi2
 768 0078 0123     		movs	r3, #1
 769 007a 9340     		lsls	r3, r3, r2
 770 007c 1D43     		orrs	r5, r5, r3
 771 007e 3D60     		str	r5, [r7]
 772              		.loc 1 508 0
 773 0080 0020     		movs	r0, #0
 774 0082 F8BD     		pop	{r3, r4, r5, r6, r7, pc}
 775              	.LVL58:
 776              	.L121:
 777              		.loc 1 478 0
 778 0084 2046     		mov	r0, r4
 779              	.LVL59:
 780              		.loc 1 509 0
 781 0086 F8BD     		pop	{r3, r4, r5, r6, r7, pc}
 782              	.LVL60:
 783              	.L127:
 784              		.align	2
 785              	.L126:
 786 0088 00000000 		.word	.LANCHOR1
 787 008c 00000000 		.word	.LANCHOR0
 788 0090 00100240 		.word	1073876992
 789              		.cfi_endproc
 790              	.LFE218:
 791              		.size	dmaStreamAllocate, .-dmaStreamAllocate
 792              		.section	.text.dmaStreamRelease,"ax",%progbits
 793              		.align	2
 794              		.p2align 4,,15
 795              		.global	dmaStreamRelease
 796              		.thumb
 797              		.thumb_func
 798              		.type	dmaStreamRelease, %function
ARM GAS  /tmp/cclWvpM8.s 			page 15


 799              	dmaStreamRelease:
 800              	.LFB219:
 801              		.loc 1 524 0
 802              		.cfi_startproc
 803              		@ args = 0, pretend = 0, frame = 0
 804              		@ frame_needed = 0, uses_anonymous_args = 0
 805              	.LVL61:
 806 0000 38B5     		push	{r3, r4, r5, lr}
 807              		.cfi_def_cfa_offset 16
 808              		.cfi_offset 3, -16
 809              		.cfi_offset 4, -12
 810              		.cfi_offset 5, -8
 811              		.cfi_offset 14, -4
 812              		.loc 1 533 0
 813 0002 144D     		ldr	r5, .L134
 814 0004 417C     		ldrb	r1, [r0, #17]	@ zero_extendqisi2
 815 0006 2A68     		ldr	r2, [r5]
 816 0008 0123     		movs	r3, #1
 817 000a 8B40     		lsls	r3, r3, r1
 818              		.loc 1 536 0
 819 000c 8468     		ldr	r4, [r0, #8]
 820              		.loc 1 533 0
 821 000e 22EA0303 		bic	r3, r2, r3
 822              		.loc 1 536 0
 823 0012 2342     		tst	r3, r4
 824              		.loc 1 533 0
 825 0014 2B60     		str	r3, [r5]
 826              		.loc 1 536 0
 827 0016 16D0     		beq	.L133
 828              	.LVL62:
 829              	.L129:
 830              		.loc 1 541 0
 831 0018 0F4A     		ldr	r2, .L134+4
 832 001a 0020     		movs	r0, #0
 833              		.loc 1 542 0
 834 001c 02EBC104 		add	r4, r2, r1, lsl #3
 835              		.loc 1 541 0
 836 0020 42F83100 		str	r0, [r2, r1, lsl #3]
 837              		.loc 1 545 0
 838 0024 5A06     		lsls	r2, r3, #25
 839              		.loc 1 542 0
 840 0026 6060     		str	r0, [r4, #4]
 841              		.loc 1 545 0
 842 0028 04D1     		bne	.L130
 843              		.loc 1 546 0
 844 002a 0C49     		ldr	r1, .L134+8
 845 002c 4A69     		ldr	r2, [r1, #20]
 846 002e 22F00102 		bic	r2, r2, #1
 847 0032 4A61     		str	r2, [r1, #20]
 848              	.L130:
 849              		.loc 1 549 0
 850 0034 13F4786F 		tst	r3, #3968
 851 0038 04D1     		bne	.L128
 852              		.loc 1 550 0
 853 003a 084A     		ldr	r2, .L134+8
 854 003c 5369     		ldr	r3, [r2, #20]
 855 003e 23F00203 		bic	r3, r3, #2
ARM GAS  /tmp/cclWvpM8.s 			page 16


 856 0042 5361     		str	r3, [r2, #20]
 857              	.L128:
 858 0044 38BD     		pop	{r3, r4, r5, pc}
 859              	.LVL63:
 860              	.L133:
 861 0046 0446     		mov	r4, r0
 862              		.loc 1 537 0
 863 0048 807C     		ldrb	r0, [r0, #18]	@ zero_extendqisi2
 864              	.LVL64:
 865 004a FFF7FEFF 		bl	nvicDisableVector
 866              	.LVL65:
 867 004e 617C     		ldrb	r1, [r4, #17]	@ zero_extendqisi2
 868 0050 2B68     		ldr	r3, [r5]
 869 0052 E1E7     		b	.L129
 870              	.L135:
 871              		.align	2
 872              	.L134:
 873 0054 00000000 		.word	.LANCHOR1
 874 0058 00000000 		.word	.LANCHOR0
 875 005c 00100240 		.word	1073876992
 876              		.cfi_endproc
 877              	.LFE219:
 878              		.size	dmaStreamRelease, .-dmaStreamRelease
 879              		.global	_stm32_dma_isr_redir
 880              		.global	_stm32_dma_streams
 881              		.section	.bss._stm32_dma_isr_redir,"aw",%nobits
 882              		.align	2
 883              		.set	.LANCHOR0,. + 0
 884              		.type	_stm32_dma_isr_redir, %object
 885              		.size	_stm32_dma_isr_redir, 96
 886              	_stm32_dma_isr_redir:
 887 0000 00000000 		.space	96
 887      00000000 
 887      00000000 
 887      00000000 
 887      00000000 
 888              		.section	.rodata._stm32_dma_streams,"a",%progbits
 889              		.align	2
 890              		.set	.LANCHOR2,. + 0
 891              		.type	_stm32_dma_streams, %object
 892              		.size	_stm32_dma_streams, 240
 893              	_stm32_dma_streams:
 894 0000 00000240 		.word	1073872896
 895 0004 08000240 		.word	1073872904
 896 0008 01000000 		.word	1
 897 000c 00000000 		.word	0
 898 0010 00       		.byte	0
 899 0011 00       		.byte	0
 900 0012 0B       		.byte	11
 901 0013 00       		.space	1
 902 0014 00000240 		.word	1073872896
 903 0018 1C000240 		.word	1073872924
 904 001c 02000000 		.word	2
 905 0020 00000000 		.word	0
 906 0024 04       		.byte	4
 907 0025 01       		.byte	1
 908 0026 0C       		.byte	12
ARM GAS  /tmp/cclWvpM8.s 			page 17


 909 0027 00       		.space	1
 910 0028 00000240 		.word	1073872896
 911 002c 30000240 		.word	1073872944
 912 0030 04000000 		.word	4
 913 0034 00000000 		.word	0
 914 0038 08       		.byte	8
 915 0039 02       		.byte	2
 916 003a 0D       		.byte	13
 917 003b 00       		.space	1
 918 003c 00000240 		.word	1073872896
 919 0040 44000240 		.word	1073872964
 920 0044 08000000 		.word	8
 921 0048 00000000 		.word	0
 922 004c 0C       		.byte	12
 923 004d 03       		.byte	3
 924 004e 0E       		.byte	14
 925 004f 00       		.space	1
 926 0050 00000240 		.word	1073872896
 927 0054 58000240 		.word	1073872984
 928 0058 10000000 		.word	16
 929 005c 00000000 		.word	0
 930 0060 10       		.byte	16
 931 0061 04       		.byte	4
 932 0062 0F       		.byte	15
 933 0063 00       		.space	1
 934 0064 00000240 		.word	1073872896
 935 0068 6C000240 		.word	1073873004
 936 006c 20000000 		.word	32
 937 0070 00000000 		.word	0
 938 0074 14       		.byte	20
 939 0075 05       		.byte	5
 940 0076 10       		.byte	16
 941 0077 00       		.space	1
 942 0078 00000240 		.word	1073872896
 943 007c 80000240 		.word	1073873024
 944 0080 40000000 		.word	64
 945 0084 00000000 		.word	0
 946 0088 18       		.byte	24
 947 0089 06       		.byte	6
 948 008a 11       		.byte	17
 949 008b 00       		.space	1
 950 008c 00040240 		.word	1073873920
 951 0090 08040240 		.word	1073873928
 952 0094 80000000 		.word	128
 953 0098 00000000 		.word	0
 954 009c 00       		.byte	0
 955 009d 07       		.byte	7
 956 009e 38       		.byte	56
 957 009f 00       		.space	1
 958 00a0 00040240 		.word	1073873920
 959 00a4 1C040240 		.word	1073873948
 960 00a8 00010000 		.word	256
 961 00ac 00000000 		.word	0
 962 00b0 04       		.byte	4
 963 00b1 08       		.byte	8
 964 00b2 39       		.byte	57
 965 00b3 00       		.space	1
ARM GAS  /tmp/cclWvpM8.s 			page 18


 966 00b4 00040240 		.word	1073873920
 967 00b8 30040240 		.word	1073873968
 968 00bc 00020000 		.word	512
 969 00c0 00000000 		.word	0
 970 00c4 08       		.byte	8
 971 00c5 09       		.byte	9
 972 00c6 3A       		.byte	58
 973 00c7 00       		.space	1
 974 00c8 00040240 		.word	1073873920
 975 00cc 44040240 		.word	1073873988
 976 00d0 000C0000 		.word	3072
 977 00d4 00000000 		.word	0
 978 00d8 0C       		.byte	12
 979 00d9 0A       		.byte	10
 980 00da 3B       		.byte	59
 981 00db 00       		.space	1
 982 00dc 00040240 		.word	1073873920
 983 00e0 58040240 		.word	1073874008
 984 00e4 000C0000 		.word	3072
 985 00e8 00000000 		.word	0
 986 00ec 10       		.byte	16
 987 00ed 0B       		.byte	11
 988 00ee 3B       		.byte	59
 989 00ef 00       		.space	1
 990              		.section	.bss.dma_streams_mask,"aw",%nobits
 991              		.align	2
 992              		.set	.LANCHOR1,. + 0
 993              		.type	dma_streams_mask, %object
 994              		.size	dma_streams_mask, 4
 995              	dma_streams_mask:
 996 0000 00000000 		.space	4
 997              		.text
 998              	.Letext0:
 999              		.file 2 "/opt/stm32/gcc/gcc-arm-none-eabi-4_9-2015q2/lib/gcc/arm-none-eabi/4.9.3/include/stddef.h"
 1000              		.file 3 "/opt/stm32/gcc/gcc-arm-none-eabi-4_9-2015q2/arm-none-eabi/include/machine/_default_types.
 1001              		.file 4 "/opt/stm32/gcc/gcc-arm-none-eabi-4_9-2015q2/arm-none-eabi/include/sys/_stdint.h"
 1002              		.file 5 "/home/maciek/ChibiOS_16.1.5/os/rt/ports/ARMCMx/compilers/GCC/chtypes.h"
 1003              		.file 6 "/home/maciek/ChibiOS_16.1.5/os/rt/include/chsystypes.h"
 1004              		.file 7 "/home/maciek/ChibiOS_16.1.5/os/rt/include/chschd.h"
 1005              		.file 8 "/home/maciek/ChibiOS_16.1.5/os/ext/CMSIS/ST/STM32F1xx/stm32f103xe.h"
 1006              		.file 9 "/home/maciek/ChibiOS_16.1.5/os/rt/ports/ARMCMx/chcore.h"
 1007              		.file 10 "/home/maciek/ChibiOS_16.1.5/os/rt/ports/ARMCMx/chcore_v7m.h"
 1008              		.file 11 "/home/maciek/ChibiOS_16.1.5/os/rt/include/chtm.h"
 1009              		.file 12 "/home/maciek/ChibiOS_16.1.5/os/rt/include/chsem.h"
 1010              		.file 13 "/home/maciek/ChibiOS_16.1.5/os/rt/include/chmtx.h"
 1011              		.file 14 "/home/maciek/ChibiOS_16.1.5/os/hal/ports/STM32/LLD/DMAv1/stm32_dma.h"
 1012              		.file 15 "/home/maciek/ChibiOS_16.1.5/os/ext/CMSIS/include/core_cm3.h"
 1013              		.file 16 "/home/maciek/ChibiOS_16.1.5/os/hal/ports/common/ARMCMx/nvic.h"