ARM GAS  /tmp/ccT9ij3Q.s 			page 1


   1              		.syntax unified
   2              		.cpu cortex-m3
   3              		.fpu softvfp
   4              		.eabi_attribute 20, 1
   5              		.eabi_attribute 21, 1
   6              		.eabi_attribute 23, 3
   7              		.eabi_attribute 24, 1
   8              		.eabi_attribute 25, 1
   9              		.eabi_attribute 26, 1
  10              		.eabi_attribute 30, 2
  11              		.eabi_attribute 34, 1
  12              		.eabi_attribute 18, 4
  13              		.thumb
  14              		.file	"storage.c"
  15              		.text
  16              	.Ltext0:
  17              		.cfi_sections	.debug_frame
  18              		.section	.text.saveSettings,"ax",%progbits
  19              		.align	2
  20              		.p2align 4,,15
  21              		.global	saveSettings
  22              		.thumb
  23              		.thumb_func
  24              		.type	saveSettings, %function
  25              	saveSettings:
  26              	.LFB214:
  27              		.file 1 "storage.c"
  28              		.loc 1 93 0
  29              		.cfi_startproc
  30              		@ args = 0, pretend = 0, frame = 8
  31              		@ frame_needed = 0, uses_anonymous_args = 0
  32              		.loc 1 94 0
  33 0000 474A     		ldr	r2, .L6
  34              		.loc 1 93 0
  35 0002 2DE9F04F 		push	{r4, r5, r6, r7, r8, r9, r10, fp, lr}
  36              		.cfi_def_cfa_offset 36
  37              		.cfi_offset 4, -36
  38              		.cfi_offset 5, -32
  39              		.cfi_offset 6, -28
  40              		.cfi_offset 7, -24
  41              		.cfi_offset 8, -20
  42              		.cfi_offset 9, -16
  43              		.cfi_offset 10, -12
  44              		.cfi_offset 11, -8
  45              		.cfi_offset 14, -4
  46              		.loc 1 94 0
  47 0006 1646     		mov	r6, r2
  48              		.loc 1 100 0
  49 0008 464F     		ldr	r7, .L6+4
  50              	.LBB6:
  51              	.LBB7:
  52              		.file 2 "misc.h"
  53              		.loc 2 136 0
  54 000a DFF82C91 		ldr	r9, .L6+24
  55              	.LBE7:
  56              	.LBE6:
  57              		.loc 1 101 0
ARM GAS  /tmp/ccT9ij3Q.s 			page 2


  58 000e BE46     		mov	lr, r7
  59              	.LBB11:
  60              	.LBB8:
  61              		.loc 2 139 0
  62 0010 4B46     		mov	r3, r9
  63              	.LBE8:
  64              	.LBE11:
  65              		.loc 1 94 0
  66 0012 DFF82CA1 		ldr	r10, .L6+32
  67              		.loc 1 96 0
  68 0016 444D     		ldr	r5, .L6+8
  69              		.loc 1 94 0
  70 0018 DAF80000 		ldr	r0, [r10]	@ unaligned
  71 001c DAF80410 		ldr	r1, [r10, #4]	@ unaligned
  72              		.loc 1 97 0
  73 0020 424C     		ldr	r4, .L6+12
  74              		.loc 1 96 0
  75 0022 D5F800C0 		ldr	ip, [r5]	@ unaligned
  76              		.loc 1 94 0
  77 0026 03C6     		stmia	r6!, {r0, r1}
  78              		.loc 1 95 0
  79 0028 DFF81881 		ldr	r8, .L6+36
  80              		.loc 1 97 0
  81 002c 2168     		ldr	r1, [r4]	@ unaligned
  82              		.loc 1 96 0
  83 002e C2F815C0 		str	ip, [r2, #21]	@ unaligned
  84              		.loc 1 94 0
  85 0032 9AF808C0 		ldrb	ip, [r10, #8]	@ zero_extendqisi2
  86              		.loc 1 95 0
  87 0036 D8F800B0 		ldr	fp, [r8]	@ unaligned
  88              		.loc 1 94 0
  89 003a 86F800C0 		strb	ip, [r6]
  90              		.loc 1 95 0
  91 003e D8F804A0 		ldr	r10, [r8, #4]	@ unaligned
  92 0042 D8F80800 		ldr	r0, [r8, #8]	@ unaligned
  93              		.loc 1 96 0
  94 0046 EE68     		ldr	r6, [r5, #12]	@ unaligned
  95 0048 D5F810C0 		ldr	ip, [r5, #16]	@ unaligned
  96 004c D5F80480 		ldr	r8, [r5, #4]	@ unaligned
  97              		.loc 1 97 0
  98 0050 C2F82A10 		str	r1, [r2, #42]	@ unaligned
  99              		.loc 1 96 0
 100 0054 A968     		ldr	r1, [r5, #8]	@ unaligned
 101 0056 2D7D     		ldrb	r5, [r5, #20]	@ zero_extendqisi2
 102              		.loc 1 93 0
 103 0058 83B0     		sub	sp, sp, #12
 104              		.cfi_def_cfa_offset 48
 105              		.loc 1 96 0
 106 005a 0195     		str	r5, [sp, #4]
 107              		.loc 1 95 0
 108 005c C2F80DA0 		str	r10, [r2, #13]	@ unaligned
 109              		.loc 1 97 0
 110 0060 6568     		ldr	r5, [r4, #4]	@ unaligned
 111 0062 D4F808A0 		ldr	r10, [r4, #8]	@ unaligned
 112              		.loc 1 96 0
 113 0066 C2F81D10 		str	r1, [r2, #29]	@ unaligned
 114 006a 9DF80410 		ldrb	r1, [sp, #4]	@ zero_extendqisi2
ARM GAS  /tmp/ccT9ij3Q.s 			page 3


 115              		.loc 1 95 0
 116 006e C2F809B0 		str	fp, [r2, #9]	@ unaligned
 117 0072 C2F81100 		str	r0, [r2, #17]	@ unaligned
 118              		.loc 1 97 0
 119 0076 D4F80CB0 		ldr	fp, [r4, #12]	@ unaligned
 120              		.loc 1 98 0
 121 007a 2D48     		ldr	r0, .L6+16
 122              		.loc 1 96 0
 123 007c C2F82160 		str	r6, [r2, #33]	@ unaligned
 124 0080 C2F825C0 		str	ip, [r2, #37]	@ unaligned
 125 0084 82F82910 		strb	r1, [r2, #41]
 126              		.loc 1 97 0
 127 0088 C2F82E50 		str	r5, [r2, #46]	@ unaligned
 128              		.loc 1 99 0
 129 008c 294E     		ldr	r6, .L6+20
 130              		.loc 1 96 0
 131 008e C2F81980 		str	r8, [r2, #25]	@ unaligned
 132              		.loc 1 97 0
 133 0092 C2F832A0 		str	r10, [r2, #50]	@ unaligned
 134 0096 2169     		ldr	r1, [r4, #16]	@ unaligned
 135 0098 6569     		ldr	r5, [r4, #20]	@ unaligned
 136              		.loc 1 101 0
 137 009a 5EF80C4F 		ldr	r4, [lr, #12]!	@ unaligned
 138              		.loc 1 97 0
 139 009e C2F836B0 		str	fp, [r2, #54]	@ unaligned
 140              		.loc 1 98 0
 141 00a2 B0F800B0 		ldrh	fp, [r0]	@ unaligned
 142 00a6 90F802A0 		ldrb	r10, [r0, #2]	@ zero_extendqisi2
 143              		.loc 1 99 0
 144 00aa D6F800C0 		ldr	ip, [r6]	@ unaligned
 145              		.loc 1 101 0
 146 00ae DEF80400 		ldr	r0, [lr, #4]	@ unaligned
 147              		.loc 1 100 0
 148 00b2 3E68     		ldr	r6, [r7]	@ unaligned
 149              		.loc 1 101 0
 150 00b4 DEF808E0 		ldr	lr, [lr, #8]	@ unaligned
 151              		.loc 1 97 0
 152 00b8 C2F83A10 		str	r1, [r2, #58]	@ unaligned
 153              		.loc 1 100 0
 154 00bc 7968     		ldr	r1, [r7, #4]	@ unaligned
 155 00be BF68     		ldr	r7, [r7, #8]	@ unaligned
 156              		.loc 1 98 0
 157 00c0 A2F842B0 		strh	fp, [r2, #66]	@ unaligned
 158              	.LBB12:
 159              	.LBB9:
 160              		.loc 2 136 0
 161 00c4 4FF0010B 		mov	fp, #1
 162              	.LBE9:
 163              	.LBE12:
 164              		.loc 1 97 0
 165 00c8 C2F83E50 		str	r5, [r2, #62]	@ unaligned
 166              		.loc 1 100 0
 167 00cc C2F84D10 		str	r1, [r2, #77]	@ unaligned
 168              		.loc 1 98 0
 169 00d0 82F844A0 		strb	r10, [r2, #68]
 170              		.loc 1 99 0
 171 00d4 C2F845C0 		str	ip, [r2, #69]	@ unaligned
ARM GAS  /tmp/ccT9ij3Q.s 			page 4


 172              		.loc 1 100 0
 173 00d8 C2F84960 		str	r6, [r2, #73]	@ unaligned
 174              		.loc 1 101 0
 175 00dc C2F85540 		str	r4, [r2, #85]	@ unaligned
 176 00e0 C2F85900 		str	r0, [r2, #89]	@ unaligned
 177 00e4 C2F85DE0 		str	lr, [r2, #93]	@ unaligned
 178              	.LVL0:
 179              		.loc 1 100 0
 180 00e8 C2F85170 		str	r7, [r2, #81]	@ unaligned
 181 00ec 111F     		subs	r1, r2, #4
 182 00ee 02F15C05 		add	r5, r2, #92
 183              	.LBB13:
 184              	.LBB10:
 185              		.loc 2 136 0
 186 00f2 C9F808B0 		str	fp, [r9, #8]
 187              	.LVL1:
 188              	.L2:
 189              		.loc 2 139 0
 190 00f6 51F8040F 		ldr	r0, [r1, #4]!
 191 00fa 0F4C     		ldr	r4, .L6+24
 192              		.loc 2 138 0
 193 00fc A942     		cmp	r1, r5
 194              		.loc 2 139 0
 195 00fe 1860     		str	r0, [r3]
 196              		.loc 2 138 0
 197 0100 F9D1     		bne	.L2
 198              		.loc 2 141 0
 199 0102 2368     		ldr	r3, [r4]
 200              	.LBE10:
 201              	.LBE13:
 202              		.loc 1 104 0
 203 0104 7D20     		movs	r0, #125
 204              		.loc 1 102 0
 205 0106 C2F86130 		str	r3, [r2, #97]	@ unaligned
 206              		.loc 1 104 0
 207 010a FFF7FEFF 		bl	flashPageErase
 208              	.LVL2:
 209              		.loc 1 105 0
 210 010e 0449     		ldr	r1, .L6
 211 0110 6522     		movs	r2, #101
 212 0112 0A48     		ldr	r0, .L6+28
 213 0114 FFF7FEFF 		bl	flashWrite
 214              	.LVL3:
 215              		.loc 1 106 0
 216 0118 C0B2     		uxtb	r0, r0
 217 011a 03B0     		add	sp, sp, #12
 218              		.cfi_def_cfa_offset 36
 219              		@ sp needed
 220 011c BDE8F08F 		pop	{r4, r5, r6, r7, r8, r9, r10, fp, pc}
 221              	.L7:
 222              		.align	2
 223              	.L6:
 224 0120 00000000 		.word	.LANCHOR0
 225 0124 18000000 		.word	g_IMU1+24
 226 0128 00000000 		.word	g_mixedInput
 227 012c 00000000 		.word	g_modeSettings
 228 0130 00000000 		.word	g_sensorSettings
ARM GAS  /tmp/ccT9ij3Q.s 			page 5


 229 0134 00000000 		.word	g_cfSettings
 230 0138 00300240 		.word	1073885184
 231 013c 00E80308 		.word	134473728
 232 0140 00000000 		.word	g_pidSettings
 233 0144 00000000 		.word	g_pwmOutput
 234              		.cfi_endproc
 235              	.LFE214:
 236              		.size	saveSettings, .-saveSettings
 237              		.section	.text.loadSettings,"ax",%progbits
 238              		.align	2
 239              		.p2align 4,,15
 240              		.global	loadSettings
 241              		.thumb
 242              		.thumb_func
 243              		.type	loadSettings, %function
 244              	loadSettings:
 245              	.LFB213:
 246              		.loc 1 67 0
 247              		.cfi_startproc
 248              		@ args = 0, pretend = 0, frame = 0
 249              		@ frame_needed = 0, uses_anonymous_args = 0
 250 0000 70B5     		push	{r4, r5, r6, lr}
 251              		.cfi_def_cfa_offset 16
 252              		.cfi_offset 4, -16
 253              		.cfi_offset 5, -12
 254              		.cfi_offset 6, -8
 255              		.cfi_offset 14, -4
 256              		.loc 1 69 0
 257 0002 1C4C     		ldr	r4, .L13
 258 0004 1C49     		ldr	r1, .L13+4
 259 0006 6522     		movs	r2, #101
 260 0008 2046     		mov	r0, r4
 261 000a FFF7FEFF 		bl	memcpy
 262              	.LVL4:
 263              	.LBB14:
 264              	.LBB15:
 265              		.loc 2 136 0
 266 000e 1B4A     		ldr	r2, .L13+8
 267 0010 0120     		movs	r0, #1
 268              		.loc 2 139 0
 269 0012 1546     		mov	r5, r2
 270              	.LBE15:
 271              	.LBE14:
 272              		.loc 1 71 0
 273 0014 D4F86160 		ldr	r6, [r4, #97]	@ unaligned
 274              	.LVL5:
 275 0018 231F     		subs	r3, r4, #4
 276 001a 04F15C01 		add	r1, r4, #92
 277              	.LBB17:
 278              	.LBB16:
 279              		.loc 2 136 0
 280 001e 9060     		str	r0, [r2, #8]
 281              	.LVL6:
 282              	.L9:
 283              		.loc 2 139 0
 284 0020 53F8042F 		ldr	r2, [r3, #4]!
 285 0024 1548     		ldr	r0, .L13+8
ARM GAS  /tmp/ccT9ij3Q.s 			page 6


 286              		.loc 2 138 0
 287 0026 8B42     		cmp	r3, r1
 288              		.loc 2 139 0
 289 0028 2A60     		str	r2, [r5]
 290              		.loc 2 138 0
 291 002a F9D1     		bne	.L9
 292              		.loc 2 141 0
 293 002c 0368     		ldr	r3, [r0]
 294              	.LBE16:
 295              	.LBE17:
 296              		.loc 1 71 0
 297 002e 9E42     		cmp	r6, r3
 298 0030 03D0     		beq	.L10
 299              		.loc 1 86 0
 300 0032 BDE87040 		pop	{r4, r5, r6, lr}
 301              		.cfi_remember_state
 302              		.cfi_restore 14
 303              		.cfi_restore 6
 304              		.cfi_restore 5
 305              		.cfi_restore 4
 306              		.cfi_def_cfa_offset 0
 307              		.loc 1 73 0
 308 0036 FFF7FEBF 		b	saveSettings
 309              	.LVL7:
 310              	.L10:
 311              		.cfi_restore_state
 312              		.loc 1 75 0
 313 003a 0E48     		ldr	r0, .L13
 314 003c FFF7FEFF 		bl	pidSettingsUpdate
 315              	.LVL8:
 316              		.loc 1 76 0
 317 0040 0F48     		ldr	r0, .L13+12
 318 0042 FFF7FEFF 		bl	pwmOutputSettingsUpdate
 319              	.LVL9:
 320              		.loc 1 77 0
 321 0046 0F48     		ldr	r0, .L13+16
 322 0048 FFF7FEFF 		bl	mixedInputSettingsUpdate
 323              	.LVL10:
 324              		.loc 1 78 0
 325 004c 0E48     		ldr	r0, .L13+20
 326 004e FFF7FEFF 		bl	inputModeSettingsUpdate
 327              	.LVL11:
 328              		.loc 1 79 0
 329 0052 0E48     		ldr	r0, .L13+24
 330 0054 FFF7FEFF 		bl	sensorSettingsUpdate
 331              	.LVL12:
 332              		.loc 1 80 0
 333 0058 0D48     		ldr	r0, .L13+28
 334 005a FFF7FEFF 		bl	cfSettingsUpdate
 335              	.LVL13:
 336              		.loc 1 81 0
 337 005e 0D48     		ldr	r0, .L13+32
 338 0060 0D49     		ldr	r1, .L13+36
 339 0062 FFF7FEFF 		bl	accelBiasUpdate
 340              	.LVL14:
 341              		.loc 1 82 0
 342 0066 0B48     		ldr	r0, .L13+32
ARM GAS  /tmp/ccT9ij3Q.s 			page 7


 343 0068 0C49     		ldr	r1, .L13+40
 344 006a FFF7FEFF 		bl	gyroBiasUpdate
 345              	.LVL15:
 346              		.loc 1 86 0
 347 006e 0120     		movs	r0, #1
 348 0070 70BD     		pop	{r4, r5, r6, pc}
 349              	.L14:
 350 0072 00BF     		.align	2
 351              	.L13:
 352 0074 00000000 		.word	.LANCHOR0
 353 0078 00E80308 		.word	134473728
 354 007c 00300240 		.word	1073885184
 355 0080 09000000 		.word	.LANCHOR0+9
 356 0084 15000000 		.word	.LANCHOR0+21
 357 0088 2A000000 		.word	.LANCHOR0+42
 358 008c 42000000 		.word	.LANCHOR0+66
 359 0090 45000000 		.word	.LANCHOR0+69
 360 0094 00000000 		.word	g_IMU1
 361 0098 49000000 		.word	.LANCHOR0+73
 362 009c 55000000 		.word	.LANCHOR0+85
 363              		.cfi_endproc
 364              	.LFE213:
 365              		.size	loadSettings, .-loadSettings
 366              		.section	.bss.paramsData,"aw",%nobits
 367              		.align	2
 368              		.set	.LANCHOR0,. + 0
 369              		.type	paramsData, %object
 370              		.size	paramsData, 101
 371              	paramsData:
 372 0000 00000000 		.space	101
 372      00000000 
 372      00000000 
 372      00000000 
 372      00000000 
 373              		.text
 374              	.Letext0:
 375              		.file 3 "/opt/stm32/gcc/gcc-arm-none-eabi-4_9-2015q2/lib/gcc/arm-none-eabi/4.9.3/include/stddef.h"
 376              		.file 4 "/opt/stm32/gcc/gcc-arm-none-eabi-4_9-2015q2/arm-none-eabi/include/machine/_default_types.
 377              		.file 5 "/opt/stm32/gcc/gcc-arm-none-eabi-4_9-2015q2/arm-none-eabi/include/sys/_stdint.h"
 378              		.file 6 "/home/maciek/ChibiOS_16.1.5/os/rt/ports/ARMCMx/compilers/GCC/chtypes.h"
 379              		.file 7 "/home/maciek/ChibiOS_16.1.5/os/rt/include/chsystypes.h"
 380              		.file 8 "/home/maciek/ChibiOS_16.1.5/os/rt/include/chschd.h"
 381              		.file 9 "/home/maciek/ChibiOS_16.1.5/os/ext/CMSIS/ST/STM32F1xx/stm32f103xe.h"
 382              		.file 10 "/home/maciek/ChibiOS_16.1.5/os/rt/ports/ARMCMx/chcore.h"
 383              		.file 11 "/home/maciek/ChibiOS_16.1.5/os/rt/ports/ARMCMx/chcore_v7m.h"
 384              		.file 12 "/home/maciek/ChibiOS_16.1.5/os/rt/include/chtm.h"
 385              		.file 13 "/home/maciek/ChibiOS_16.1.5/os/rt/include/chsem.h"
 386              		.file 14 "/home/maciek/ChibiOS_16.1.5/os/rt/include/chmtx.h"
 387              		.file 15 "mpu6050.h"
 388              		.file 16 "drivers/STORM32_V1_X/pwmio.h"
 389              		.file 17 "attitude.h"
 390              		.file 18 "flash/flash.h"
 391              		.file 19 "/home/maciek/ChibiOS_16.1.5/os/ext/CMSIS/include/core_cm3.h"