ARM GAS  /tmp/ccNGnwBv.s 			page 1


   1              		.syntax unified
   2              		.cpu cortex-m3
   3              		.fpu softvfp
   4              		.eabi_attribute 20, 1
   5              		.eabi_attribute 21, 1
   6              		.eabi_attribute 23, 3
   7              		.eabi_attribute 24, 1
   8              		.eabi_attribute 25, 1
   9              		.eabi_attribute 26, 1
  10              		.eabi_attribute 30, 2
  11              		.eabi_attribute 34, 1
  12              		.eabi_attribute 18, 4
  13              		.thumb
  14              		.file	"telemetry.c"
  15              		.text
  16              	.Ltext0:
  17              		.cfi_sections	.debug_frame
  18              		.section	.text.telemetryGetCRC32Checksum,"ax",%progbits
  19              		.align	2
  20              		.p2align 4,,15
  21              		.thumb
  22              		.thumb_func
  23              		.type	telemetryGetCRC32Checksum, %function
  24              	telemetryGetCRC32Checksum:
  25              	.LFB213:
  26              		.file 1 "telemetry.c"
  27              		.loc 1 97 0
  28              		.cfi_startproc
  29              		@ args = 0, pretend = 0, frame = 0
  30              		@ frame_needed = 0, uses_anonymous_args = 0
  31              		@ link register save eliminated.
  32              	.LVL0:
  33              		.loc 1 98 0
  34 0000 8378     		ldrb	r3, [r0, #2]	@ zero_extendqisi2
  35              	.LBB42:
  36              	.LBB43:
  37              		.file 2 "misc.h"
  38              		.loc 2 136 0
  39 0002 0121     		movs	r1, #1
  40              	.LBE43:
  41              	.LBE42:
  42              		.loc 1 98 0
  43 0004 1A1F     		subs	r2, r3, #4
  44              		.loc 1 99 0
  45 0006 13F0030F 		tst	r3, #3
  46              		.loc 1 98 0
  47 000a 4FEA9202 		lsr	r2, r2, #2
  48              	.LVL1:
  49              	.LBB47:
  50              	.LBB44:
  51              		.loc 2 136 0
  52 000e 094B     		ldr	r3, .L9
  53              	.LBE44:
  54              	.LBE47:
  55              		.loc 1 99 0
  56 0010 0CD0     		beq	.L2
  57              		.loc 1 100 0
ARM GAS  /tmp/ccNGnwBv.s 			page 2


  58 0012 0A44     		add	r2, r2, r1
  59              	.LVL2:
  60              	.LBB48:
  61              	.LBB45:
  62              		.loc 2 136 0
  63 0014 9960     		str	r1, [r3, #8]
  64              	.LVL3:
  65              	.L3:
  66              		.loc 2 139 0
  67 0016 0749     		ldr	r1, .L9
  68 0018 00EB8202 		add	r2, r0, r2, lsl #2
  69              	.LVL4:
  70              	.L4:
  71 001c 50F8043B 		ldr	r3, [r0], #4
  72              		.loc 2 138 0
  73 0020 9042     		cmp	r0, r2
  74              		.loc 2 139 0
  75 0022 0B60     		str	r3, [r1]
  76              		.loc 2 138 0
  77 0024 FAD1     		bne	.L4
  78              	.L5:
  79              		.loc 2 141 0
  80 0026 034B     		ldr	r3, .L9
  81 0028 1868     		ldr	r0, [r3]
  82              	.LBE45:
  83              	.LBE48:
  84              		.loc 1 103 0
  85 002a 7047     		bx	lr
  86              	.LVL5:
  87              	.L2:
  88              	.LBB49:
  89              	.LBB46:
  90              		.loc 2 136 0
  91 002c 9960     		str	r1, [r3, #8]
  92              	.LVL6:
  93              		.loc 2 138 0
  94 002e 002A     		cmp	r2, #0
  95 0030 F1D1     		bne	.L3
  96 0032 F8E7     		b	.L5
  97              	.L10:
  98              		.align	2
  99              	.L9:
 100 0034 00300240 		.word	1073885184
 101              	.LBE46:
 102              	.LBE49:
 103              		.cfi_endproc
 104              	.LFE213:
 105              		.size	telemetryGetCRC32Checksum, .-telemetryGetCRC32Checksum
 106              		.section	.text.telemetrySendSerialData,"ax",%progbits
 107              		.align	2
 108              		.p2align 4,,15
 109              		.thumb
 110              		.thumb_func
 111              		.type	telemetrySendSerialData, %function
 112              	telemetrySendSerialData:
 113              	.LFB214:
 114              		.loc 1 110 0
ARM GAS  /tmp/ccNGnwBv.s 			page 3


 115              		.cfi_startproc
 116              		@ args = 0, pretend = 0, frame = 0
 117              		@ frame_needed = 0, uses_anonymous_args = 0
 118              	.LVL7:
 119 0000 70B5     		push	{r4, r5, r6, lr}
 120              		.cfi_def_cfa_offset 16
 121              		.cfi_offset 4, -16
 122              		.cfi_offset 5, -12
 123              		.cfi_offset 6, -8
 124              		.cfi_offset 14, -4
 125              		.loc 1 110 0
 126 0002 0446     		mov	r4, r0
 127              		.loc 1 112 0
 128 0004 084D     		ldr	r5, .L13
 129 0006 8278     		ldrb	r2, [r0, #2]	@ zero_extendqisi2
 130 0008 2868     		ldr	r0, [r5]
 131              	.LVL8:
 132 000a 2146     		mov	r1, r4
 133 000c 0368     		ldr	r3, [r0]
 134 000e 043A     		subs	r2, r2, #4
 135 0010 1B68     		ldr	r3, [r3]
 136 0012 9847     		blx	r3
 137              	.LVL9:
 138              		.loc 1 114 0
 139 0014 2868     		ldr	r0, [r5]
 140 0016 04F18401 		add	r1, r4, #132
 141 001a 0368     		ldr	r3, [r0]
 142 001c 0422     		movs	r2, #4
 143 001e 1B68     		ldr	r3, [r3]
 144              		.loc 1 116 0
 145 0020 BDE87040 		pop	{r4, r5, r6, lr}
 146              		.cfi_restore 14
 147              		.cfi_restore 6
 148              		.cfi_restore 5
 149              		.cfi_restore 4
 150              		.cfi_def_cfa_offset 0
 151              	.LVL10:
 152              		.loc 1 114 0
 153 0024 1847     		bx	r3
 154              	.LVL11:
 155              	.L14:
 156 0026 00BF     		.align	2
 157              	.L13:
 158 0028 00000000 		.word	.LANCHOR0
 159              		.cfi_endproc
 160              	.LFE214:
 161              		.size	telemetrySendSerialData, .-telemetrySendSerialData
 162              		.section	.text.telemetryNegativeResponse.constprop.1,"ax",%progbits
 163              		.align	2
 164              		.p2align 4,,15
 165              		.thumb
 166              		.thumb_func
 167              		.type	telemetryNegativeResponse.constprop.1, %function
 168              	telemetryNegativeResponse.constprop.1:
 169              	.LFB225:
 170              		.loc 1 144 0
 171              		.cfi_startproc
ARM GAS  /tmp/ccNGnwBv.s 			page 4


 172              		@ args = 0, pretend = 0, frame = 0
 173              		@ frame_needed = 0, uses_anonymous_args = 0
 174              	.LVL12:
 175 0000 10B5     		push	{r4, lr}
 176              		.cfi_def_cfa_offset 8
 177              		.cfi_offset 4, -8
 178              		.cfi_offset 14, -4
 179              		.loc 1 145 0
 180 0002 054A     		ldr	r2, .L17
 181 0004 054C     		ldr	r4, .L17+4
 182              		.loc 1 146 0
 183 0006 0C23     		movs	r3, #12
 184              		.loc 1 147 0
 185 0008 2046     		mov	r0, r4
 186              		.loc 1 145 0
 187 000a 6260     		str	r2, [r4, #4]
 188              		.loc 1 146 0
 189 000c A370     		strb	r3, [r4, #2]
 190              		.loc 1 147 0
 191 000e FFF7FEFF 		bl	telemetryGetCRC32Checksum
 192              	.LVL13:
 193 0012 C4F88400 		str	r0, [r4, #132]
 194 0016 10BD     		pop	{r4, pc}
 195              	.L18:
 196              		.align	2
 197              	.L17:
 198 0018 4641494C 		.word	1279869254
 199 001c 00000000 		.word	.LANCHOR1
 200              		.cfi_endproc
 201              	.LFE225:
 202              		.size	telemetryNegativeResponse.constprop.1, .-telemetryNegativeResponse.constprop.1
 203              		.section	.text.telemetryPositiveResponse.constprop.2,"ax",%progbits
 204              		.align	2
 205              		.p2align 4,,15
 206              		.thumb
 207              		.thumb_func
 208              		.type	telemetryPositiveResponse.constprop.2, %function
 209              	telemetryPositiveResponse.constprop.2:
 210              	.LFB224:
 211              		.loc 1 133 0
 212              		.cfi_startproc
 213              		@ args = 0, pretend = 0, frame = 0
 214              		@ frame_needed = 0, uses_anonymous_args = 0
 215              	.LVL14:
 216 0000 10B5     		push	{r4, lr}
 217              		.cfi_def_cfa_offset 8
 218              		.cfi_offset 4, -8
 219              		.cfi_offset 14, -4
 220              		.loc 1 134 0
 221 0002 054A     		ldr	r2, .L21
 222 0004 054C     		ldr	r4, .L21+4
 223              		.loc 1 135 0
 224 0006 0C23     		movs	r3, #12
 225              		.loc 1 136 0
 226 0008 2046     		mov	r0, r4
 227              		.loc 1 134 0
 228 000a 6260     		str	r2, [r4, #4]
ARM GAS  /tmp/ccNGnwBv.s 			page 5


 229              		.loc 1 135 0
 230 000c A370     		strb	r3, [r4, #2]
 231              		.loc 1 136 0
 232 000e FFF7FEFF 		bl	telemetryGetCRC32Checksum
 233              	.LVL15:
 234 0012 C4F88400 		str	r0, [r4, #132]
 235 0016 10BD     		pop	{r4, pc}
 236              	.L22:
 237              		.align	2
 238              	.L21:
 239 0018 5F4F4B5F 		.word	1598771039
 240 001c 00000000 		.word	.LANCHOR1
 241              		.cfi_endproc
 242              	.LFE224:
 243              		.size	telemetryPositiveResponse.constprop.2, .-telemetryPositiveResponse.constprop.2
 244              		.section	.text.telemetryReadSerialDataMS,"ax",%progbits
 245              		.align	2
 246              		.p2align 4,,15
 247              		.global	telemetryReadSerialDataMS
 248              		.thumb
 249              		.thumb_func
 250              		.type	telemetryReadSerialDataMS, %function
 251              	telemetryReadSerialDataMS:
 252              	.LFB220:
 253              		.loc 1 371 0
 254              		.cfi_startproc
 255              		@ args = 0, pretend = 0, frame = 136
 256              		@ frame_needed = 0, uses_anonymous_args = 0
 257 0000 00B5     		push	{lr}
 258              		.cfi_def_cfa_offset 4
 259              		.cfi_offset 14, -4
 260              		.loc 1 374 0
 261 0002 0B4B     		ldr	r3, .L25
 262              		.loc 1 371 0
 263 0004 A3B0     		sub	sp, sp, #140
 264              		.cfi_def_cfa_offset 144
 265              	.LVL16:
 266              		.loc 1 374 0
 267 0006 1A68     		ldr	r2, [r3]
 268              		.loc 1 376 0
 269 0008 6846     		mov	r0, sp
 270              		.loc 1 375 0
 271 000a 0C23     		movs	r3, #12
 272              		.loc 1 374 0
 273 000c 0192     		str	r2, [sp, #4]
 274              		.loc 1 375 0
 275 000e 8DF80230 		strb	r3, [sp, #2]
 276              		.loc 1 376 0
 277 0012 FFF7FEFF 		bl	telemetryGetCRC32Checksum
 278              	.LVL17:
 279              		.loc 1 377 0
 280 0016 BD22     		movs	r2, #189
 281              		.loc 1 376 0
 282 0018 2190     		str	r0, [sp, #132]
 283              		.loc 1 378 0
 284 001a 0023     		movs	r3, #0
 285              		.loc 1 380 0
ARM GAS  /tmp/ccNGnwBv.s 			page 6


 286 001c 6846     		mov	r0, sp
 287              		.loc 1 377 0
 288 001e 8DF80020 		strb	r2, [sp]
 289              		.loc 1 378 0
 290 0022 8DF80330 		strb	r3, [sp, #3]
 291              		.loc 1 380 0
 292 0026 FFF7FEFF 		bl	telemetrySendSerialData
 293              	.LVL18:
 294              		.loc 1 381 0
 295 002a 23B0     		add	sp, sp, #140
 296              		.cfi_def_cfa_offset 4
 297              	.LVL19:
 298              		@ sp needed
 299 002c 5DF804FB 		ldr	pc, [sp], #4
 300              	.LVL20:
 301              	.L26:
 302              		.align	2
 303              	.L25:
 304 0030 00000000 		.word	g_boardStatus
 305              		.cfi_endproc
 306              	.LFE220:
 307              		.size	telemetryReadSerialDataMS, .-telemetryReadSerialDataMS
 308              		.section	.text.telemetryReadSerialData,"ax",%progbits
 309              		.align	2
 310              		.p2align 4,,15
 311              		.global	telemetryReadSerialData
 312              		.thumb
 313              		.thumb_func
 314              		.type	telemetryReadSerialData, %function
 315              	telemetryReadSerialData:
 316              	.LFB221:
 317              		.loc 1 387 0
 318              		.cfi_startproc
 319              		@ args = 0, pretend = 0, frame = 8
 320              		@ frame_needed = 0, uses_anonymous_args = 0
 321              	.LVL21:
 322 0000 2DE9F04F 		push	{r4, r5, r6, r7, r8, r9, r10, fp, lr}
 323              		.cfi_def_cfa_offset 36
 324              		.cfi_offset 4, -36
 325              		.cfi_offset 5, -32
 326              		.cfi_offset 6, -28
 327              		.cfi_offset 7, -24
 328              		.cfi_offset 8, -20
 329              		.cfi_offset 9, -16
 330              		.cfi_offset 10, -12
 331              		.cfi_offset 11, -8
 332              		.cfi_offset 14, -4
 333              	.LBB68:
 334              	.LBB69:
 335              	.LBB70:
 336              	.LBB71:
 337              	.LBB72:
 338              		.file 3 "/home/maciek/ChibiOS_16.1.5/os/ext/CMSIS/include/core_cmFunc.h"
 339              		.loc 3 548 0
 340 0004 2023     		movs	r3, #32
 341              	.LBE72:
 342              	.LBE71:
ARM GAS  /tmp/ccNGnwBv.s 			page 7


 343              	.LBE70:
 344              	.LBE69:
 345              	.LBE68:
 346              		.loc 1 387 0
 347 0006 83B0     		sub	sp, sp, #12
 348              		.cfi_def_cfa_offset 48
 349              	.LBB77:
 350              	.LBB76:
 351              	.LBB75:
 352              	.LBB74:
 353              	.LBB73:
 354              		.loc 3 548 0
 355              	@ 548 "/home/maciek/ChibiOS_16.1.5/os/ext/CMSIS/include/core_cmFunc.h" 1
 356 0008 83F31188 		MSR basepri, r3
 357              	@ 0 "" 2
 358              		.thumb
 359              	.LBE73:
 360              	.LBE74:
 361              	.LBE75:
 362              	.LBE76:
 363              	.LBE77:
 364              		.loc 1 390 0
 365 000c A74F     		ldr	r7, .L93
 366              	.LBB78:
 367              	.LBB79:
 368              	.LBB80:
 369              	.LBB81:
 370              	.LBB82:
 371              	.LBB83:
 372              		.loc 3 548 0
 373 000e 0023     		movs	r3, #0
 374              	.LBE83:
 375              	.LBE82:
 376              	.LBE81:
 377              	.LBE80:
 378              	.LBE79:
 379              	.LBE78:
 380              		.loc 1 390 0
 381 0010 3A68     		ldr	r2, [r7]
 382              	.LVL22:
 383              	.LBB89:
 384              	.LBB90:
 385              		.file 4 "/home/maciek/ChibiOS_16.1.5/os/rt/include/chqueues.h"
 386              		.loc 4 274 0
 387 0012 5669     		ldr	r6, [r2, #20]
 388              	.LVL23:
 389              	.LBE90:
 390              	.LBE89:
 391              	.LBB91:
 392              	.LBB88:
 393              	.LBB87:
 394              	.LBB86:
 395              	.LBB85:
 396              	.LBB84:
 397              		.loc 3 548 0
 398              	@ 548 "/home/maciek/ChibiOS_16.1.5/os/ext/CMSIS/include/core_cmFunc.h" 1
 399 0014 83F31188 		MSR basepri, r3
ARM GAS  /tmp/ccNGnwBv.s 			page 8


 400              	@ 0 "" 2
 401              		.thumb
 402              	.LBE84:
 403              	.LBE85:
 404              	.LBE86:
 405              	.LBE87:
 406              	.LBE88:
 407              	.LBE91:
 408              		.loc 1 394 0
 409 0018 DFF89C82 		ldr	r8, .L93+12
 410 001c 0123     		movs	r3, #1
 411 001e C8F80030 		str	r3, [r8]
 412              	.LVL24:
 413              		.loc 1 396 0
 414 0022 3EB3     		cbz	r6, .L27
 415              	.LBB92:
 416              		.loc 1 414 0
 417 0024 DFF89CB2 		ldr	fp, .L93+24
 418 0028 A14D     		ldr	r5, .L93+4
 419 002a D946     		mov	r9, fp
 420              	.LVL25:
 421              	.L78:
 422              		.loc 1 397 0
 423 002c 3868     		ldr	r0, [r7]
 424 002e 0122     		movs	r2, #1
 425 0030 0368     		ldr	r3, [r0]
 426 0032 A049     		ldr	r1, .L93+8
 427 0034 1B68     		ldr	r3, [r3]
 428 0036 9847     		blx	r3
 429              	.LVL26:
 430              		.loc 1 398 0
 431 0038 D8F80020 		ldr	r2, [r8]
 432              		.loc 1 397 0
 433 003c 9B4B     		ldr	r3, .L93
 434              		.loc 1 398 0
 435 003e B242     		cmp	r2, r6
 436 0040 9D4C     		ldr	r4, .L93+12
 437 0042 7BD8     		bhi	.L30
 438              		.loc 1 399 0
 439 0044 002A     		cmp	r2, #0
 440 0046 67D1     		bne	.L87
 441 0048 2B68     		ldr	r3, [r5]
 442              	.L32:
 443              		.loc 1 415 0
 444 004a 9BF80020 		ldrb	r2, [fp]	@ zero_extendqisi2
 445              		.loc 1 414 0
 446 004e CBEB0303 		rsb	r3, fp, r3
 447              	.LVL27:
 448              		.loc 1 415 0
 449 0052 BD2A     		cmp	r2, #189
 450 0054 11D1     		bne	.L33
 451              		.loc 1 415 0 is_stmt 0 discriminator 1
 452 0056 99F80220 		ldrb	r2, [r9, #2]	@ zero_extendqisi2
 453 005a A2F10801 		sub	r1, r2, #8
 454 005e 7829     		cmp	r1, #120
 455 0060 0BD8     		bhi	.L33
 456              		.loc 1 418 0 is_stmt 1
ARM GAS  /tmp/ccNGnwBv.s 			page 9


 457 0062 042B     		cmp	r3, #4
 458 0064 00F0B380 		beq	.L88
 459              		.loc 1 421 0
 460 0068 D8F80040 		ldr	r4, [r8]
 461 006c 002C     		cmp	r4, #0
 462 006e 74D0     		beq	.L89
 463              	.LBE92:
 464              		.loc 1 396 0
 465 0070 002E     		cmp	r6, #0
 466 0072 DBD1     		bne	.L78
 467              	.LVL28:
 468              	.L27:
 469              		.loc 1 451 0
 470 0074 03B0     		add	sp, sp, #12
 471              		.cfi_remember_state
 472              		.cfi_def_cfa_offset 36
 473              		@ sp needed
 474 0076 BDE8F08F 		pop	{r4, r5, r6, r7, r8, r9, r10, fp, pc}
 475              	.LVL29:
 476              	.L33:
 477              		.cfi_restore_state
 478              	.LBB99:
 479              	.LBB93:
 480              	.LBB94:
 481              		.loc 1 340 0
 482 007a 13F0FF0A 		ands	r10, r3, #255
 483 007e 2CD0     		beq	.L36
 484              	.LVL30:
 485              	.L44:
 486              		.loc 1 341 0
 487 0080 BAF1010F 		cmp	r10, #1
 488 0084 3DD0     		beq	.L80
 489              		.loc 1 342 0
 490 0086 9BF80120 		ldrb	r2, [fp, #1]	@ zero_extendqisi2
 491 008a BD2A     		cmp	r2, #189
 492 008c 3CD0     		beq	.L81
 493 008e 8B4A     		ldr	r2, .L93+16
 494 0090 0124     		movs	r4, #1
 495 0092 03E0     		b	.L37
 496              	.LVL31:
 497              	.L39:
 498 0094 12F8011F 		ldrb	r1, [r2, #1]!	@ zero_extendqisi2
 499 0098 BD29     		cmp	r1, #189
 500 009a 27D0     		beq	.L90
 501              	.LVL32:
 502              	.L37:
 503              		.loc 1 341 0
 504 009c 0134     		adds	r4, r4, #1
 505              	.LVL33:
 506 009e E4B2     		uxtb	r4, r4
 507              	.LVL34:
 508 00a0 5445     		cmp	r4, r10
 509 00a2 F7D1     		bne	.L39
 510              	.LVL35:
 511              	.L40:
 512              		.loc 1 350 0
 513 00a4 C4EB0A03 		rsb	r3, r4, r10
ARM GAS  /tmp/ccNGnwBv.s 			page 10


 514 00a8 5FFA83FA 		uxtb	r10, r3
 515              	.LVL36:
 516              		.loc 1 351 0
 517 00ac 0BEB0A02 		add	r2, fp, r10
 518              		.loc 1 353 0
 519 00b0 BAF1030F 		cmp	r10, #3
 520              		.loc 1 351 0
 521 00b4 2A60     		str	r2, [r5]
 522              		.loc 1 353 0
 523 00b6 2AD9     		bls	.L91
 524              		.loc 1 358 0
 525 00b8 9BF80020 		ldrb	r2, [fp]	@ zero_extendqisi2
 526 00bc BD2A     		cmp	r2, #189
 527 00be DFD1     		bne	.L44
 528 00c0 9BF80220 		ldrb	r2, [fp, #2]	@ zero_extendqisi2
 529 00c4 A2F10801 		sub	r1, r2, #8
 530 00c8 7829     		cmp	r1, #120
 531 00ca D9D8     		bhi	.L44
 532              		.loc 1 359 0
 533 00cc 5245     		cmp	r2, r10
 534              		.loc 1 361 0
 535 00ce 94BF     		ite	ls
 536 00d0 0023     		movls	r3, #0
 537              		.loc 1 363 0
 538 00d2 CAEB0203 		rsbhi	r3, r10, r2
 539 00d6 C8F80030 		str	r3, [r8]
 540              	.LVL37:
 541              	.L36:
 542              	.LBE94:
 543              	.LBE93:
 544              		.loc 1 417 0
 545 00da 3868     		ldr	r0, [r7]
 546 00dc 7849     		ldr	r1, .L93+20
 547 00de 0368     		ldr	r3, [r0]
 548 00e0 0A22     		movs	r2, #10
 549 00e2 1B68     		ldr	r3, [r3]
 550 00e4 9847     		blx	r3
 551              	.LVL38:
 552              	.LBE99:
 553              		.loc 1 396 0
 554 00e6 002E     		cmp	r6, #0
 555 00e8 A0D1     		bne	.L78
 556 00ea C3E7     		b	.L27
 557              	.LVL39:
 558              	.L90:
 559 00ec 2246     		mov	r2, r4
 560              	.LVL40:
 561              	.L38:
 562              	.LBB100:
 563              	.LBB96:
 564              	.LBB95:
 565              		.loc 1 347 0
 566 00ee C2EB0A02 		rsb	r2, r2, r10
 567 00f2 002A     		cmp	r2, #0
 568 00f4 D6DD     		ble	.L40
 569              		.loc 1 348 0
 570 00f6 0BEB0401 		add	r1, fp, r4
ARM GAS  /tmp/ccNGnwBv.s 			page 11


 571 00fa 7248     		ldr	r0, .L93+24
 572 00fc FFF7FEFF 		bl	memmove
 573              	.LVL41:
 574 0100 D0E7     		b	.L40
 575              	.LVL42:
 576              	.L80:
 577              		.loc 1 341 0
 578 0102 5446     		mov	r4, r10
 579 0104 5246     		mov	r2, r10
 580 0106 F2E7     		b	.L38
 581              	.L81:
 582              		.loc 1 342 0
 583 0108 0122     		movs	r2, #1
 584 010a 1446     		mov	r4, r2
 585 010c EFE7     		b	.L38
 586              	.LVL43:
 587              	.L91:
 588              		.loc 1 355 0
 589 010e CAF10403 		rsb	r3, r10, #4
 590 0112 C8F80030 		str	r3, [r8]
 591 0116 E0E7     		b	.L36
 592              	.LVL44:
 593              	.L87:
 594              	.LBE95:
 595              	.LBE96:
 596              		.loc 1 402 0
 597 0118 1868     		ldr	r0, [r3]
 598              		.loc 1 401 0
 599 011a 6B49     		ldr	r1, .L93+28
 600              		.loc 1 402 0
 601 011c 0368     		ldr	r3, [r0]
 602              		.loc 1 401 0
 603 011e 4FF0010E 		mov	lr, #1
 604              		.loc 1 402 0
 605 0122 5B68     		ldr	r3, [r3, #4]
 606              		.loc 1 401 0
 607 0124 81F800E0 		strb	lr, [r1]
 608              		.loc 1 402 0
 609 0128 2968     		ldr	r1, [r5]
 610 012a 9847     		blx	r3
 611              	.LVL45:
 612              		.loc 1 403 0
 613 012c 2268     		ldr	r2, [r4]
 614 012e 2B68     		ldr	r3, [r5]
 615              		.loc 1 405 0
 616 0130 0021     		movs	r1, #0
 617              		.loc 1 403 0
 618 0132 1344     		add	r3, r3, r2
 619              		.loc 1 404 0
 620 0134 B61A     		subs	r6, r6, r2
 621              	.LVL46:
 622              		.loc 1 403 0
 623 0136 2B60     		str	r3, [r5]
 624              		.loc 1 405 0
 625 0138 2160     		str	r1, [r4]
 626 013a 86E7     		b	.L32
 627              	.L30:
ARM GAS  /tmp/ccNGnwBv.s 			page 12


 628              		.loc 1 408 0
 629 013c 1868     		ldr	r0, [r3]
 630 013e 3246     		mov	r2, r6
 631 0140 0368     		ldr	r3, [r0]
 632 0142 2968     		ldr	r1, [r5]
 633 0144 5B68     		ldr	r3, [r3, #4]
 634 0146 9847     		blx	r3
 635              	.LVL47:
 636              		.loc 1 409 0
 637 0148 2A68     		ldr	r2, [r5]
 638              		.loc 1 410 0
 639 014a 2368     		ldr	r3, [r4]
 640              		.loc 1 409 0
 641 014c 3244     		add	r2, r2, r6
 642              		.loc 1 410 0
 643 014e 9B1B     		subs	r3, r3, r6
 644              		.loc 1 409 0
 645 0150 2A60     		str	r2, [r5]
 646              		.loc 1 410 0
 647 0152 2360     		str	r3, [r4]
 648              	.LBE100:
 649              		.loc 1 451 0
 650 0154 03B0     		add	sp, sp, #12
 651              		.cfi_remember_state
 652              		.cfi_def_cfa_offset 36
 653              		@ sp needed
 654 0156 BDE8F08F 		pop	{r4, r5, r6, r7, r8, r9, r10, fp, pc}
 655              	.LVL48:
 656              	.L89:
 657              		.cfi_restore_state
 658              	.LBB101:
 659              		.loc 1 422 0
 660 015a 3868     		ldr	r0, [r7]
 661 015c DFF87CC1 		ldr	ip, .L93+48
 662 0160 0368     		ldr	r3, [r0]
 663              	.LVL49:
 664 0162 6146     		mov	r1, ip
 665 0164 1B68     		ldr	r3, [r3]
 666 0166 0A22     		movs	r2, #10
 667 0168 CDF804C0 		str	ip, [sp, #4]
 668 016c 9847     		blx	r3
 669              	.LVL50:
 670              		.loc 1 425 0
 671 016e 99F80230 		ldrb	r3, [r9, #2]	@ zero_extendqisi2
 672 0172 0422     		movs	r2, #4
 673 0174 191F     		subs	r1, r3, #4
 674 0176 4944     		add	r1, r1, r9
 675 0178 5448     		ldr	r0, .L93+32
 676 017a 0093     		str	r3, [sp]
 677 017c FFF7FEFF 		bl	memmove
 678              	.LVL51:
 679              		.loc 1 428 0
 680 0180 009B     		ldr	r3, [sp]
 681 0182 2146     		mov	r1, r4
 682 0184 09EB0300 		add	r0, r9, r3
 683 0188 C3F18802 		rsb	r2, r3, #136
 684 018c 0438     		subs	r0, r0, #4
ARM GAS  /tmp/ccNGnwBv.s 			page 13


 685 018e FFF7FEFF 		bl	memset
 686              	.LVL52:
 687              		.loc 1 431 0
 688 0192 D9F88430 		ldr	r3, [r9, #132]
 689 0196 4B48     		ldr	r0, .L93+24
 690 0198 0093     		str	r3, [sp]
 691 019a FFF7FEFF 		bl	telemetryGetCRC32Checksum
 692              	.LVL53:
 693 019e 009B     		ldr	r3, [sp]
 694 01a0 DDF804C0 		ldr	ip, [sp, #4]
 695 01a4 8342     		cmp	r3, r0
 696 01a6 1FD0     		beq	.L92
 697              		.loc 1 440 0
 698 01a8 474B     		ldr	r3, .L93+28
 699 01aa 0122     		movs	r2, #1
 700              		.loc 1 441 0
 701 01ac 4FF47A70 		mov	r0, #1000
 702              		.loc 1 440 0
 703 01b0 1A70     		strb	r2, [r3]
 704 01b2 0093     		str	r3, [sp]
 705              		.loc 1 441 0
 706 01b4 FFF7FEFF 		bl	chThdSleep
 707              	.LVL54:
 708              		.loc 1 442 0
 709 01b8 009B     		ldr	r3, [sp]
 710 01ba 1C70     		strb	r4, [r3]
 711              	.L77:
 712              		.loc 1 447 0
 713 01bc 0423     		movs	r3, #4
 714              		.loc 1 448 0
 715 01be C5F800B0 		str	fp, [r5]
 716              		.loc 1 447 0
 717 01c2 C8F80030 		str	r3, [r8]
 718              	.LBE101:
 719              		.loc 1 396 0
 720 01c6 002E     		cmp	r6, #0
 721 01c8 7FF430AF 		bne	.L78
 722 01cc 52E7     		b	.L27
 723              	.LVL55:
 724              	.L88:
 725              	.LBB102:
 726              		.loc 1 420 0
 727 01ce 3868     		ldr	r0, [r7]
 728              		.loc 1 419 0
 729 01d0 131F     		subs	r3, r2, #4
 730              	.LVL56:
 731              		.loc 1 420 0
 732 01d2 0268     		ldr	r2, [r0]
 733 01d4 3E49     		ldr	r1, .L93+36
 734 01d6 1468     		ldr	r4, [r2]
 735 01d8 0A22     		movs	r2, #10
 736              		.loc 1 419 0
 737 01da C8F80030 		str	r3, [r8]
 738              		.loc 1 420 0
 739 01de A047     		blx	r4
 740              	.LVL57:
 741              	.LBE102:
ARM GAS  /tmp/ccNGnwBv.s 			page 14


 742              		.loc 1 396 0
 743 01e0 002E     		cmp	r6, #0
 744 01e2 7FF423AF 		bne	.L78
 745 01e6 45E7     		b	.L27
 746              	.L92:
 747              	.LVL58:
 748              	.LBB103:
 749              	.LBB97:
 750              	.LBB98:
 751              		.loc 1 156 0
 752 01e8 304B     		ldr	r3, .L93
 753 01ea 99F80110 		ldrb	r1, [r9, #1]	@ zero_extendqisi2
 754 01ee 1868     		ldr	r0, [r3]
 755 01f0 6144     		add	r1, r1, ip
 756 01f2 0368     		ldr	r3, [r0]
 757 01f4 1422     		movs	r2, #20
 758 01f6 1B68     		ldr	r3, [r3]
 759 01f8 9847     		blx	r3
 760              	.LVL59:
 761              		.loc 1 158 0
 762 01fa 99F80130 		ldrb	r3, [r9, #1]	@ zero_extendqisi2
 763 01fe 443B     		subs	r3, r3, #68
 764 0200 2F2B     		cmp	r3, #47
 765 0202 31D8     		bhi	.L48
 766 0204 DFE813F0 		tbh	[pc, r3, lsl #1]
 767              	.L50:
 768 0208 AC01     		.2byte	(.L49-.L50)/2
 769 020a 3000     		.2byte	(.L48-.L50)/2
 770 020c A101     		.2byte	(.L51-.L50)/2
 771 020e 3000     		.2byte	(.L48-.L50)/2
 772 0210 3000     		.2byte	(.L48-.L50)/2
 773 0212 9601     		.2byte	(.L52-.L50)/2
 774 0214 3000     		.2byte	(.L48-.L50)/2
 775 0216 3000     		.2byte	(.L48-.L50)/2
 776 0218 3000     		.2byte	(.L48-.L50)/2
 777 021a 8B01     		.2byte	(.L53-.L50)/2
 778 021c 3000     		.2byte	(.L48-.L50)/2
 779 021e 8001     		.2byte	(.L54-.L50)/2
 780 0220 3000     		.2byte	(.L48-.L50)/2
 781 0222 3000     		.2byte	(.L48-.L50)/2
 782 0224 3000     		.2byte	(.L48-.L50)/2
 783 0226 7501     		.2byte	(.L55-.L50)/2
 784 0228 3000     		.2byte	(.L48-.L50)/2
 785 022a 3000     		.2byte	(.L48-.L50)/2
 786 022c 3000     		.2byte	(.L48-.L50)/2
 787 022e 3000     		.2byte	(.L48-.L50)/2
 788 0230 6F01     		.2byte	(.L56-.L50)/2
 789 0232 3000     		.2byte	(.L48-.L50)/2
 790 0234 6001     		.2byte	(.L57-.L50)/2
 791 0236 5A01     		.2byte	(.L58-.L50)/2
 792 0238 3000     		.2byte	(.L48-.L50)/2
 793 023a 5601     		.2byte	(.L59-.L50)/2
 794 023c 3000     		.2byte	(.L48-.L50)/2
 795 023e 3000     		.2byte	(.L48-.L50)/2
 796 0240 3000     		.2byte	(.L48-.L50)/2
 797 0242 5401     		.2byte	(.L60-.L50)/2
 798 0244 4701     		.2byte	(.L61-.L50)/2
ARM GAS  /tmp/ccNGnwBv.s 			page 15


 799 0246 3F01     		.2byte	(.L62-.L50)/2
 800 0248 2B01     		.2byte	(.L63-.L50)/2
 801 024a 1C01     		.2byte	(.L64-.L50)/2
 802 024c 0F01     		.2byte	(.L65-.L50)/2
 803 024e 0D01     		.2byte	(.L66-.L50)/2
 804 0250 FF00     		.2byte	(.L67-.L50)/2
 805 0252 E900     		.2byte	(.L68-.L50)/2
 806 0254 3000     		.2byte	(.L48-.L50)/2
 807 0256 3000     		.2byte	(.L48-.L50)/2
 808 0258 D100     		.2byte	(.L69-.L50)/2
 809 025a B500     		.2byte	(.L70-.L50)/2
 810 025c 3000     		.2byte	(.L48-.L50)/2
 811 025e A000     		.2byte	(.L71-.L50)/2
 812 0260 7E00     		.2byte	(.L72-.L50)/2
 813 0262 3000     		.2byte	(.L48-.L50)/2
 814 0264 6C00     		.2byte	(.L73-.L50)/2
 815 0266 3C00     		.2byte	(.L74-.L50)/2
 816              		.p2align 1
 817              	.L48:
 818              		.loc 1 318 0
 819 0268 FFF7FEFF 		bl	telemetryNegativeResponse.constprop.1
 820              	.LVL60:
 821              	.L76:
 822              		.loc 1 320 0
 823 026c BD22     		movs	r2, #189
 824              		.loc 1 321 0
 825 026e 0023     		movs	r3, #0
 826              		.loc 1 322 0
 827 0270 1448     		ldr	r0, .L93+24
 828              		.loc 1 320 0
 829 0272 8BF80020 		strb	r2, [fp]
 830              		.loc 1 321 0
 831 0276 8BF80330 		strb	r3, [fp, #3]
 832              		.loc 1 322 0
 833 027a FFF7FEFF 		bl	telemetrySendSerialData
 834              	.LVL61:
 835 027e 9DE7     		b	.L77
 836              	.L74:
 837              		.loc 1 293 0
 838 0280 0021     		movs	r1, #0
 839 0282 8022     		movs	r2, #128
 840 0284 1348     		ldr	r0, .L93+40
 841 0286 FFF7FEFF 		bl	memset
 842              	.LVL62:
 843              		.loc 1 294 0
 844 028a 134A     		ldr	r2, .L93+44
 845 028c 114B     		ldr	r3, .L93+40
 846 028e 1068     		ldr	r0, [r2]	@ unaligned
 847 0290 5168     		ldr	r1, [r2, #4]	@ unaligned
 848 0292 127A     		ldrb	r2, [r2, #8]	@ zero_extendqisi2
 849 0294 03C3     		stmia	r3!, {r0, r1}
 850 0296 1846     		mov	r0, r3
 851              		.loc 1 295 0
 852 0298 1123     		movs	r3, #17
 853              		.loc 1 294 0
 854 029a 00F80C29 		strb	r2, [r0], #-12
 855              		.loc 1 295 0
ARM GAS  /tmp/ccNGnwBv.s 			page 16


 856 029e 8BF80230 		strb	r3, [fp, #2]
 857              		.loc 1 296 0
 858 02a2 FFF7FEFF 		bl	telemetryGetCRC32Checksum
 859              	.LVL63:
 860 02a6 CBF88400 		str	r0, [fp, #132]
 861 02aa DFE7     		b	.L76
 862              	.L94:
 863              		.align	2
 864              	.L93:
 865 02ac 00000000 		.word	.LANCHOR0
 866 02b0 00000000 		.word	.LANCHOR3
 867 02b4 00000000 		.word	.LC0
 868 02b8 00000000 		.word	.LANCHOR2
 869 02bc 01000000 		.word	.LANCHOR1+1
 870 02c0 04000000 		.word	.LC1
 871 02c4 00000000 		.word	.LANCHOR1
 872 02c8 00000000 		.word	led_b
 873 02cc 84000000 		.word	.LANCHOR1+132
 874 02d0 0C000000 		.word	.LC2
 875 02d4 04000000 		.word	.LANCHOR1+4
 876 02d8 00000000 		.word	g_pidSettings
 877 02dc 14000000 		.word	.LC3
 878              	.L73:
 879              		.loc 1 287 0
 880 02e0 A54B     		ldr	r3, .L95
 881 02e2 A64C     		ldr	r4, .L95+4
 882 02e4 1868     		ldr	r0, [r3]	@ unaligned
 883 02e6 5968     		ldr	r1, [r3, #4]	@ unaligned
 884 02e8 9A68     		ldr	r2, [r3, #8]	@ unaligned
 885 02ea DB68     		ldr	r3, [r3, #12]	@ unaligned
 886              		.loc 1 288 0
 887 02ec 4FF0180E 		mov	lr, #24
 888              		.loc 1 287 0
 889 02f0 0FC4     		stmia	r4!, {r0, r1, r2, r3}
 890              		.loc 1 289 0
 891 02f2 A4F11400 		sub	r0, r4, #20
 892              		.loc 1 288 0
 893 02f6 8BF802E0 		strb	lr, [fp, #2]
 894              		.loc 1 289 0
 895 02fa FFF7FEFF 		bl	telemetryGetCRC32Checksum
 896              	.LVL64:
 897 02fe CBF88400 		str	r0, [fp, #132]
 898 0302 B3E7     		b	.L76
 899              	.L72:
 900              		.loc 1 281 0
 901 0304 0021     		movs	r1, #0
 902 0306 8022     		movs	r2, #128
 903 0308 9C48     		ldr	r0, .L95+4
 904 030a FFF7FEFF 		bl	memset
 905              	.LVL65:
 906              		.loc 1 282 0
 907 030e DFF8A8E2 		ldr	lr, .L95+64
 908 0312 9A4C     		ldr	r4, .L95+4
 909 0314 DEF80000 		ldr	r0, [lr]	@ unaligned
 910 0318 DEF80C30 		ldr	r3, [lr, #12]	@ unaligned
 911 031c DEF80410 		ldr	r1, [lr, #4]	@ unaligned
 912 0320 DEF80820 		ldr	r2, [lr, #8]	@ unaligned
ARM GAS  /tmp/ccNGnwBv.s 			page 17


 913 0324 9EF814C0 		ldrb	ip, [lr, #20]	@ zero_extendqisi2
 914 0328 0FC4     		stmia	r4!, {r0, r1, r2, r3}
 915 032a DEF81000 		ldr	r0, [lr, #16]	@ unaligned
 916              		.loc 1 283 0
 917 032e 1D23     		movs	r3, #29
 918              		.loc 1 282 0
 919 0330 2060     		str	r0, [r4]	@ unaligned
 920 0332 84F804C0 		strb	ip, [r4, #4]
 921              		.loc 1 284 0
 922 0336 A4F11400 		sub	r0, r4, #20
 923              		.loc 1 283 0
 924 033a 8BF80230 		strb	r3, [fp, #2]
 925              		.loc 1 284 0
 926 033e FFF7FEFF 		bl	telemetryGetCRC32Checksum
 927              	.LVL66:
 928 0342 CBF88400 		str	r0, [fp, #132]
 929 0346 91E7     		b	.L76
 930              	.L71:
 931              		.loc 1 274 0
 932 0348 8022     		movs	r2, #128
 933 034a 8C48     		ldr	r0, .L95+4
 934 034c 0021     		movs	r1, #0
 935 034e FFF7FEFF 		bl	memset
 936              	.LVL67:
 937              		.loc 1 275 0
 938 0352 8B4A     		ldr	r2, .L95+8
 939              	.L85:
 940 0354 1068     		ldr	r0, [r2]	@ unaligned
 941 0356 5168     		ldr	r1, [r2, #4]	@ unaligned
 942 0358 884B     		ldr	r3, .L95+4
 943 035a 9268     		ldr	r2, [r2, #8]	@ unaligned
 944              		.loc 1 276 0
 945 035c 1424     		movs	r4, #20
 946              		.loc 1 275 0
 947 035e 07C3     		stmia	r3!, {r0, r1, r2}
 948              		.loc 1 277 0
 949 0360 A3F11000 		sub	r0, r3, #16
 950              		.loc 1 276 0
 951 0364 8BF80240 		strb	r4, [fp, #2]
 952              		.loc 1 277 0
 953 0368 FFF7FEFF 		bl	telemetryGetCRC32Checksum
 954              	.LVL68:
 955 036c CBF88400 		str	r0, [fp, #132]
 956 0370 7CE7     		b	.L76
 957              	.L70:
 958              		.loc 1 268 0
 959 0372 DFF848E2 		ldr	lr, .L95+68
 960 0376 814C     		ldr	r4, .L95+4
 961 0378 DEF80000 		ldr	r0, [lr]	@ unaligned
 962 037c DEF80410 		ldr	r1, [lr, #4]	@ unaligned
 963 0380 DEF80820 		ldr	r2, [lr, #8]	@ unaligned
 964 0384 DEF80C30 		ldr	r3, [lr, #12]	@ unaligned
 965              		.loc 1 269 0
 966 0388 4FF0200C 		mov	ip, #32
 967              		.loc 1 268 0
 968 038c 0FC4     		stmia	r4!, {r0, r1, r2, r3}
 969 038e DEF81000 		ldr	r0, [lr, #16]	@ unaligned
ARM GAS  /tmp/ccNGnwBv.s 			page 18


 970 0392 DEF81410 		ldr	r1, [lr, #20]	@ unaligned
 971              		.loc 1 269 0
 972 0396 8BF802C0 		strb	ip, [fp, #2]
 973              		.loc 1 268 0
 974 039a 03C4     		stmia	r4!, {r0, r1}
 975              		.loc 1 270 0
 976 039c A4F11C00 		sub	r0, r4, #28
 977 03a0 FFF7FEFF 		bl	telemetryGetCRC32Checksum
 978              	.LVL69:
 979 03a4 CBF88400 		str	r0, [fp, #132]
 980 03a8 60E7     		b	.L76
 981              	.L69:
 982              		.loc 1 308 0
 983 03aa 764C     		ldr	r4, .L95+12
 984              		.loc 1 307 0
 985 03ac 0021     		movs	r1, #0
 986 03ae 8022     		movs	r2, #128
 987 03b0 7248     		ldr	r0, .L95+4
 988 03b2 FFF7FEFF 		bl	memset
 989              	.LVL70:
 990              		.loc 1 308 0
 991 03b6 A378     		ldrb	r3, [r4, #2]	@ zero_extendqisi2
 992 03b8 211D     		adds	r1, r4, #4
 993 03ba 1A46     		mov	r2, r3
 994 03bc 6F48     		ldr	r0, .L95+4
 995 03be 0093     		str	r3, [sp]
 996 03c0 FFF7FEFF 		bl	memcpy
 997              	.LVL71:
 998              		.loc 1 309 0
 999 03c4 009B     		ldr	r3, [sp]
 1000              		.loc 1 310 0
 1001 03c6 2046     		mov	r0, r4
 1002              		.loc 1 309 0
 1003 03c8 8BF80230 		strb	r3, [fp, #2]
 1004              		.loc 1 310 0
 1005 03cc FFF7FEFF 		bl	telemetryGetCRC32Checksum
 1006              	.LVL72:
 1007              		.loc 1 311 0
 1008 03d0 0023     		movs	r3, #0
 1009              		.loc 1 310 0
 1010 03d2 CBF88400 		str	r0, [fp, #132]
 1011              		.loc 1 311 0
 1012 03d6 A370     		strb	r3, [r4, #2]
 1013 03d8 48E7     		b	.L76
 1014              	.L68:
 1015              		.loc 1 262 0
 1016 03da 0021     		movs	r1, #0
 1017 03dc 8022     		movs	r2, #128
 1018 03de 6748     		ldr	r0, .L95+4
 1019 03e0 FFF7FEFF 		bl	memset
 1020              	.LVL73:
 1021              		.loc 1 263 0
 1022 03e4 684A     		ldr	r2, .L95+16
 1023 03e6 654B     		ldr	r3, .L95+4
 1024 03e8 1068     		ldr	r0, [r2]	@ unaligned
 1025 03ea 5168     		ldr	r1, [r2, #4]	@ unaligned
 1026 03ec 1289     		ldrh	r2, [r2, #8]	@ unaligned
ARM GAS  /tmp/ccNGnwBv.s 			page 19


 1027 03ee 03C3     		stmia	r3!, {r0, r1}
 1028 03f0 1846     		mov	r0, r3
 1029              		.loc 1 264 0
 1030 03f2 1223     		movs	r3, #18
 1031              		.loc 1 263 0
 1032 03f4 20F80C29 		strh	r2, [r0], #-12	@ unaligned
 1033              		.loc 1 264 0
 1034 03f8 8BF80230 		strb	r3, [fp, #2]
 1035              		.loc 1 265 0
 1036 03fc FFF7FEFF 		bl	telemetryGetCRC32Checksum
 1037              	.LVL74:
 1038 0400 CBF88400 		str	r0, [fp, #132]
 1039 0404 32E7     		b	.L76
 1040              	.L67:
 1041              		.loc 1 256 0
 1042 0406 5D4B     		ldr	r3, .L95+4
 1043 0408 604A     		ldr	r2, .L95+20
 1044              		.loc 1 257 0
 1045 040a 1424     		movs	r4, #20
 1046              		.loc 1 256 0
 1047 040c 07CA     		ldmia	r2, {r0, r1, r2}
 1048 040e 83E80700 		stmia	r3, {r0, r1, r2}
 1049              		.loc 1 258 0
 1050 0412 181F     		subs	r0, r3, #4
 1051              		.loc 1 257 0
 1052 0414 8BF80240 		strb	r4, [fp, #2]
 1053              		.loc 1 258 0
 1054 0418 FFF7FEFF 		bl	telemetryGetCRC32Checksum
 1055              	.LVL75:
 1056 041c CBF88400 		str	r0, [fp, #132]
 1057 0420 24E7     		b	.L76
 1058              	.L66:
 1059              		.loc 1 251 0
 1060 0422 5B4A     		ldr	r2, .L95+24
 1061 0424 96E7     		b	.L85
 1062              	.L65:
 1063              		.loc 1 246 0
 1064 0426 5B4A     		ldr	r2, .L95+28
 1065 0428 544B     		ldr	r3, .L95+4
 1066 042a 1068     		ldr	r0, [r2]	@ unaligned
 1067              		.loc 1 247 0
 1068 042c 0C22     		movs	r2, #12
 1069              		.loc 1 246 0
 1070 042e 1860     		str	r0, [r3]	@ unaligned
 1071              		.loc 1 248 0
 1072 0430 181F     		subs	r0, r3, #4
 1073              		.loc 1 247 0
 1074 0432 8BF80220 		strb	r2, [fp, #2]
 1075              		.loc 1 248 0
 1076 0436 FFF7FEFF 		bl	telemetryGetCRC32Checksum
 1077              	.LVL76:
 1078 043a CBF88400 		str	r0, [fp, #132]
 1079 043e 15E7     		b	.L76
 1080              	.L64:
 1081              		.loc 1 241 0
 1082 0440 554A     		ldr	r2, .L95+32
 1083 0442 4E4B     		ldr	r3, .L95+4
ARM GAS  /tmp/ccNGnwBv.s 			page 20


 1084 0444 1068     		ldr	r0, [r2]	@ unaligned
 1085 0446 5168     		ldr	r1, [r2, #4]	@ unaligned
 1086              		.loc 1 242 0
 1087 0448 1022     		movs	r2, #16
 1088              		.loc 1 241 0
 1089 044a 03C3     		stmia	r3!, {r0, r1}
 1090              		.loc 1 243 0
 1091 044c A3F10C00 		sub	r0, r3, #12
 1092              		.loc 1 242 0
 1093 0450 8BF80220 		strb	r2, [fp, #2]
 1094              		.loc 1 243 0
 1095 0454 FFF7FEFF 		bl	telemetryGetCRC32Checksum
 1096              	.LVL77:
 1097 0458 CBF88400 		str	r0, [fp, #132]
 1098 045c 06E7     		b	.L76
 1099              	.L63:
 1100              		.loc 1 235 0
 1101 045e 474C     		ldr	r4, .L95+4
 1102 0460 0021     		movs	r1, #0
 1103 0462 8022     		movs	r2, #128
 1104 0464 2046     		mov	r0, r4
 1105 0466 FFF7FEFF 		bl	memset
 1106              	.LVL78:
 1107              		.loc 1 236 0
 1108 046a 4C4B     		ldr	r3, .L95+36
 1109              		.loc 1 238 0
 1110 046c 201F     		subs	r0, r4, #4
 1111              		.loc 1 236 0
 1112 046e 1988     		ldrh	r1, [r3]	@ unaligned
 1113 0470 9A78     		ldrb	r2, [r3, #2]	@ zero_extendqisi2
 1114 0472 2180     		strh	r1, [r4]	@ unaligned
 1115              		.loc 1 237 0
 1116 0474 0B23     		movs	r3, #11
 1117              		.loc 1 236 0
 1118 0476 A270     		strb	r2, [r4, #2]
 1119              		.loc 1 237 0
 1120 0478 8BF80230 		strb	r3, [fp, #2]
 1121              		.loc 1 238 0
 1122 047c FFF7FEFF 		bl	telemetryGetCRC32Checksum
 1123              	.LVL79:
 1124 0480 CBF88400 		str	r0, [fp, #132]
 1125 0484 F2E6     		b	.L76
 1126              	.L62:
 1127              		.loc 1 227 0
 1128 0486 FFF7FEFF 		bl	saveSettings
 1129              	.LVL80:
 1130 048a 0128     		cmp	r0, #1
 1131 048c 7FF4ECAE 		bne	.L48
 1132              	.L86:
 1133              		.loc 1 304 0
 1134 0490 FFF7FEFF 		bl	telemetryPositiveResponse.constprop.2
 1135              	.LVL81:
 1136 0494 EAE6     		b	.L76
 1137              	.L61:
 1138              		.loc 1 222 0
 1139 0496 424A     		ldr	r2, .L95+40
 1140              		.loc 1 223 0
ARM GAS  /tmp/ccNGnwBv.s 			page 21


 1141 0498 0C23     		movs	r3, #12
 1142              		.loc 1 222 0
 1143 049a 1268     		ldr	r2, [r2]
 1144              		.loc 1 224 0
 1145 049c 4148     		ldr	r0, .L95+44
 1146              		.loc 1 222 0
 1147 049e CBF80420 		str	r2, [fp, #4]
 1148              		.loc 1 223 0
 1149 04a2 8BF80230 		strb	r3, [fp, #2]
 1150              		.loc 1 224 0
 1151 04a6 FFF7FEFF 		bl	telemetryGetCRC32Checksum
 1152              	.LVL82:
 1153 04aa CBF88400 		str	r0, [fp, #132]
 1154 04ae DDE6     		b	.L76
 1155              	.L60:
 1156              		.loc 1 217 0
 1157 04b0 3D4A     		ldr	r2, .L95+48
 1158 04b2 4FE7     		b	.L85
 1159              	.L59:
 1160              		.loc 1 303 0
 1161 04b4 1020     		movs	r0, #16
 1162 04b6 FFF7FEFF 		bl	imuCalibrationSet
 1163              	.LVL83:
 1164 04ba E9E7     		b	.L86
 1165              	.L58:
 1166              		.loc 1 299 0
 1167 04bc 0820     		movs	r0, #8
 1168 04be FFF7FEFF 		bl	imuCalibrationSet
 1169              	.LVL84:
 1170              		.loc 1 300 0
 1171 04c2 FFF7FEFF 		bl	telemetryPositiveResponse.constprop.2
 1172              	.LVL85:
 1173 04c6 D1E6     		b	.L76
 1174              	.L57:
 1175              		.loc 1 208 0
 1176 04c8 9BF80230 		ldrb	r3, [fp, #2]	@ zero_extendqisi2
 1177 04cc 092B     		cmp	r3, #9
 1178 04ce 7FF4CBAE 		bne	.L48
 1179              		.loc 1 209 0
 1180 04d2 3649     		ldr	r1, .L95+52
 1181 04d4 9BF80400 		ldrb	r0, [fp, #4]	@ zero_extendqisi2
 1182              		.loc 1 210 0
 1183 04d8 354B     		ldr	r3, .L95+56
 1184 04da 0022     		movs	r2, #0
 1185              		.loc 1 209 0
 1186 04dc 0870     		strb	r0, [r1]
 1187              		.loc 1 210 0
 1188 04de 1A70     		strb	r2, [r3]
 1189              		.loc 1 211 0
 1190 04e0 FFF7FEFF 		bl	telemetryPositiveResponse.constprop.2
 1191              	.LVL86:
 1192 04e4 C2E6     		b	.L76
 1193              	.L56:
 1194              		.loc 1 314 0
 1195 04e6 FFF7FEFF 		bl	telemetryPositiveResponse.constprop.2
 1196              	.LVL87:
 1197              		.loc 1 315 0
ARM GAS  /tmp/ccNGnwBv.s 			page 22


 1198 04ea 324B     		ldr	r3, .L95+60
 1199 04ec 0022     		movs	r2, #0
 1200 04ee 1A70     		strb	r2, [r3]
 1201 04f0 BCE6     		b	.L76
 1202              	.L55:
 1203              		.loc 1 200 0
 1204 04f2 9BF80230 		ldrb	r3, [fp, #2]	@ zero_extendqisi2
 1205 04f6 112B     		cmp	r3, #17
 1206 04f8 7FF4B6AE 		bne	.L48
 1207              		.loc 1 201 0
 1208 04fc 1F48     		ldr	r0, .L95+4
 1209 04fe FFF7FEFF 		bl	pidSettingsUpdate
 1210              	.LVL88:
 1211              		.loc 1 202 0
 1212 0502 FFF7FEFF 		bl	telemetryPositiveResponse.constprop.2
 1213              	.LVL89:
 1214 0506 B1E6     		b	.L76
 1215              	.L54:
 1216              		.loc 1 192 0
 1217 0508 9BF80230 		ldrb	r3, [fp, #2]	@ zero_extendqisi2
 1218 050c 142B     		cmp	r3, #20
 1219 050e 7FF4ABAE 		bne	.L48
 1220              		.loc 1 193 0
 1221 0512 1A48     		ldr	r0, .L95+4
 1222 0514 FFF7FEFF 		bl	pwmOutputSettingsUpdate
 1223              	.LVL90:
 1224              		.loc 1 194 0
 1225 0518 FFF7FEFF 		bl	telemetryPositiveResponse.constprop.2
 1226              	.LVL91:
 1227 051c A6E6     		b	.L76
 1228              	.L53:
 1229              		.loc 1 184 0
 1230 051e 9BF80230 		ldrb	r3, [fp, #2]	@ zero_extendqisi2
 1231 0522 202B     		cmp	r3, #32
 1232 0524 7FF4A0AE 		bne	.L48
 1233              		.loc 1 185 0
 1234 0528 1448     		ldr	r0, .L95+4
 1235 052a FFF7FEFF 		bl	inputModeSettingsUpdate
 1236              	.LVL92:
 1237              		.loc 1 186 0
 1238 052e FFF7FEFF 		bl	telemetryPositiveResponse.constprop.2
 1239              	.LVL93:
 1240 0532 9BE6     		b	.L76
 1241              	.L52:
 1242              		.loc 1 176 0
 1243 0534 9BF80230 		ldrb	r3, [fp, #2]	@ zero_extendqisi2
 1244 0538 1D2B     		cmp	r3, #29
 1245 053a 7FF495AE 		bne	.L48
 1246              		.loc 1 177 0
 1247 053e 0F48     		ldr	r0, .L95+4
 1248 0540 FFF7FEFF 		bl	mixedInputSettingsUpdate
 1249              	.LVL94:
 1250              		.loc 1 178 0
 1251 0544 FFF7FEFF 		bl	telemetryPositiveResponse.constprop.2
 1252              	.LVL95:
 1253 0548 90E6     		b	.L76
 1254              	.L51:
ARM GAS  /tmp/ccNGnwBv.s 			page 23


 1255              		.loc 1 168 0
 1256 054a 9BF80230 		ldrb	r3, [fp, #2]	@ zero_extendqisi2
 1257 054e 0C2B     		cmp	r3, #12
 1258 0550 7FF48AAE 		bne	.L48
 1259              		.loc 1 169 0
 1260 0554 0948     		ldr	r0, .L95+4
 1261 0556 FFF7FEFF 		bl	cfSettingsUpdate
 1262              	.LVL96:
 1263              		.loc 1 170 0
 1264 055a FFF7FEFF 		bl	telemetryPositiveResponse.constprop.2
 1265              	.LVL97:
 1266 055e 85E6     		b	.L76
 1267              	.L49:
 1268              		.loc 1 160 0
 1269 0560 9BF80230 		ldrb	r3, [fp, #2]	@ zero_extendqisi2
 1270 0564 0B2B     		cmp	r3, #11
 1271 0566 7FF47FAE 		bne	.L48
 1272              		.loc 1 161 0
 1273 056a 0448     		ldr	r0, .L95+4
 1274 056c FFF7FEFF 		bl	sensorSettingsUpdate
 1275              	.LVL98:
 1276              		.loc 1 162 0
 1277 0570 FFF7FEFF 		bl	telemetryPositiveResponse.constprop.2
 1278              	.LVL99:
 1279 0574 7AE6     		b	.L76
 1280              	.L96:
 1281 0576 00BF     		.align	2
 1282              	.L95:
 1283 0578 48000000 		.word	g_IMU1+72
 1284 057c 04000000 		.word	.LANCHOR1+4
 1285 0580 00000000 		.word	g_pwmOutput
 1286 0584 00000000 		.word	.LANCHOR4
 1287 0588 00000000 		.word	g_inputValues
 1288 058c 00000000 		.word	g_motorOffset
 1289 0590 0C000000 		.word	g_IMU1+12
 1290 0594 00000000 		.word	g_cfSettings
 1291 0598 00000000 		.word	g_i2cErrorInfo
 1292 059c 00000000 		.word	g_sensorSettings
 1293 05a0 00000000 		.word	g_boardStatus
 1294 05a4 00000000 		.word	.LANCHOR1
 1295 05a8 00000000 		.word	g_IMU1
 1296 05ac 00000000 		.word	g_streamDataID
 1297 05b0 00000000 		.word	g_streamIdx
 1298 05b4 00000000 		.word	g_runMain
 1299 05b8 00000000 		.word	g_mixedInput
 1300 05bc 00000000 		.word	g_modeSettings
 1301              	.LBE98:
 1302              	.LBE97:
 1303              	.LBE103:
 1304              		.cfi_endproc
 1305              	.LFE221:
 1306              		.size	telemetryReadSerialData, .-telemetryReadSerialData
 1307              		.section	.text.telemetryWriteStream,"ax",%progbits
 1308              		.align	2
 1309              		.p2align 4,,15
 1310              		.global	telemetryWriteStream
 1311              		.thumb
ARM GAS  /tmp/ccNGnwBv.s 			page 24


 1312              		.thumb_func
 1313              		.type	telemetryWriteStream, %function
 1314              	telemetryWriteStream:
 1315              	.LFB222:
 1316              		.loc 1 456 0
 1317              		.cfi_startproc
 1318              		@ args = 0, pretend = 0, frame = 0
 1319              		@ frame_needed = 0, uses_anonymous_args = 0
 1320              	.LVL100:
 1321 0000 0A46     		mov	r2, r1
 1322 0002 F8B5     		push	{r3, r4, r5, r6, r7, lr}
 1323              		.cfi_def_cfa_offset 24
 1324              		.cfi_offset 3, -24
 1325              		.cfi_offset 4, -20
 1326              		.cfi_offset 5, -16
 1327              		.cfi_offset 6, -12
 1328              		.cfi_offset 7, -8
 1329              		.cfi_offset 14, -4
 1330              		.loc 1 457 0
 1331 0004 0B4C     		ldr	r4, .L99
 1332              		.loc 1 459 0
 1333 0006 02F10807 		add	r7, r2, #8
 1334              		.loc 1 460 0
 1335 000a 0023     		movs	r3, #0
 1336              		.loc 1 456 0
 1337 000c 0146     		mov	r1, r0
 1338              	.LVL101:
 1339              		.loc 1 457 0
 1340 000e BD26     		movs	r6, #189
 1341              		.loc 1 458 0
 1342 0010 7A25     		movs	r5, #122
 1343              		.loc 1 461 0
 1344 0012 201D     		adds	r0, r4, #4
 1345              	.LVL102:
 1346              		.loc 1 460 0
 1347 0014 E370     		strb	r3, [r4, #3]
 1348              		.loc 1 459 0
 1349 0016 A770     		strb	r7, [r4, #2]
 1350              		.loc 1 457 0
 1351 0018 2670     		strb	r6, [r4]
 1352              		.loc 1 458 0
 1353 001a 6570     		strb	r5, [r4, #1]
 1354              		.loc 1 461 0
 1355 001c FFF7FEFF 		bl	memcpy
 1356              	.LVL103:
 1357              		.loc 1 462 0
 1358 0020 2046     		mov	r0, r4
 1359 0022 FFF7FEFF 		bl	telemetryGetCRC32Checksum
 1360              	.LVL104:
 1361 0026 C4F88400 		str	r0, [r4, #132]
 1362              		.loc 1 463 0
 1363 002a 2046     		mov	r0, r4
 1364              		.loc 1 464 0
 1365 002c BDE8F840 		pop	{r3, r4, r5, r6, r7, lr}
 1366              		.cfi_restore 14
 1367              		.cfi_restore 7
 1368              		.cfi_restore 6
ARM GAS  /tmp/ccNGnwBv.s 			page 25


 1369              		.cfi_restore 5
 1370              		.cfi_restore 4
 1371              		.cfi_restore 3
 1372              		.cfi_def_cfa_offset 0
 1373              	.LVL105:
 1374              		.loc 1 463 0
 1375 0030 FFF7FEBF 		b	telemetrySendSerialData
 1376              	.LVL106:
 1377              	.L100:
 1378              		.align	2
 1379              	.L99:
 1380 0034 00000000 		.word	.LANCHOR1
 1381              		.cfi_endproc
 1382              	.LFE222:
 1383              		.size	telemetryWriteStream, .-telemetryWriteStream
 1384              		.section	.text.debugLog,"ax",%progbits
 1385              		.align	2
 1386              		.p2align 4,,15
 1387              		.global	debugLog
 1388              		.thumb
 1389              		.thumb_func
 1390              		.type	debugLog, %function
 1391              	debugLog:
 1392              	.LFB223:
 1393              		.loc 1 469 0
 1394              		.cfi_startproc
 1395              		@ args = 0, pretend = 0, frame = 0
 1396              		@ frame_needed = 0, uses_anonymous_args = 0
 1397              	.LVL107:
 1398 0000 70B5     		push	{r4, r5, r6, lr}
 1399              		.cfi_def_cfa_offset 16
 1400              		.cfi_offset 4, -16
 1401              		.cfi_offset 5, -12
 1402              		.cfi_offset 6, -8
 1403              		.cfi_offset 14, -4
 1404              		.loc 1 469 0
 1405 0002 0646     		mov	r6, r0
 1406              		.loc 1 470 0
 1407 0004 FFF7FEFF 		bl	strlen
 1408              	.LVL108:
 1409 0008 0130     		adds	r0, r0, #1
 1410 000a C4B2     		uxtb	r4, r0
 1411              	.LVL109:
 1412 000c 802C     		cmp	r4, #128
 1413              		.loc 1 475 0
 1414 000e 054D     		ldr	r5, .L103
 1415 0010 28BF     		it	cs
 1416 0012 8024     		movcs	r4, #128
 1417              	.LVL110:
 1418 0014 2246     		mov	r2, r4
 1419 0016 3146     		mov	r1, r6
 1420 0018 281D     		adds	r0, r5, #4
 1421              		.loc 1 476 0
 1422 001a 0834     		adds	r4, r4, #8
 1423              	.LVL111:
 1424              		.loc 1 475 0
 1425 001c FFF7FEFF 		bl	memcpy
ARM GAS  /tmp/ccNGnwBv.s 			page 26


 1426              	.LVL112:
 1427              		.loc 1 476 0
 1428 0020 AC70     		strb	r4, [r5, #2]
 1429 0022 70BD     		pop	{r4, r5, r6, pc}
 1430              	.LVL113:
 1431              	.L104:
 1432              		.align	2
 1433              	.L103:
 1434 0024 00000000 		.word	.LANCHOR4
 1435              		.cfi_endproc
 1436              	.LFE223:
 1437              		.size	debugLog, .-debugLog
 1438              		.global	g_chnp
 1439              		.section	.data.msg,"aw",%progbits
 1440              		.align	2
 1441              		.set	.LANCHOR1,. + 0
 1442              		.type	msg, %object
 1443              		.size	msg, 136
 1444              	msg:
 1445 0000 BD       		.byte	-67
 1446 0001 00       		.byte	0
 1447 0002 08       		.byte	8
 1448 0003 00       		.byte	0
 1449 0004 00       		.byte	0
 1450 0005 00000000 		.space	127
 1450      00000000 
 1450      00000000 
 1450      00000000 
 1450      00000000 
 1451 0084 FFFFFFFF 		.word	-1
 1452              		.section	.data.msgPos,"aw",%progbits
 1453              		.align	2
 1454              		.set	.LANCHOR3,. + 0
 1455              		.type	msgPos, %object
 1456              		.size	msgPos, 4
 1457              	msgPos:
 1458 0000 00000000 		.word	msg
 1459              		.section	.bss.debugMsg,"aw",%nobits
 1460              		.align	2
 1461              		.set	.LANCHOR4,. + 0
 1462              		.type	debugMsg, %object
 1463              		.size	debugMsg, 136
 1464              	debugMsg:
 1465 0000 00000000 		.space	136
 1465      00000000 
 1465      00000000 
 1465      00000000 
 1465      00000000 
 1466              		.section	.rodata.str1.4,"aMS",%progbits,1
 1467              		.align	2
 1468              	.LC0:
 1469 0000 6200     		.ascii	"b\000"
 1470 0002 0000     		.space	2
 1471              	.LC1:
 1472 0004 54796B6F 		.ascii	"Tykoi\000"
 1472      6900
 1473 000a 0000     		.space	2
ARM GAS  /tmp/ccNGnwBv.s 			page 27


 1474              	.LC2:
 1475 000c 4A657A65 		.ascii	"Jezewo\000"
 1475      776F00
 1476 0013 00       		.space	1
 1477              	.LC3:
 1478 0014 6F74727A 		.ascii	"otrzymao\000"
 1478      796D616F 
 1478      00
 1479              		.section	.bss.g_chnp,"aw",%nobits
 1480              		.align	2
 1481              		.set	.LANCHOR0,. + 0
 1482              		.type	g_chnp, %object
 1483              		.size	g_chnp, 4
 1484              	g_chnp:
 1485 0000 00000000 		.space	4
 1486              		.section	.data.bytesRequired,"aw",%progbits
 1487              		.align	2
 1488              		.set	.LANCHOR2,. + 0
 1489              		.type	bytesRequired, %object
 1490              		.size	bytesRequired, 4
 1491              	bytesRequired:
 1492 0000 04000000 		.word	4
 1493              		.text
 1494              	.Letext0:
 1495              		.file 5 "/opt/stm32/gcc/gcc-arm-none-eabi-4_9-2015q2/lib/gcc/arm-none-eabi/4.9.3/include/stddef.h"
 1496              		.file 6 "/opt/stm32/gcc/gcc-arm-none-eabi-4_9-2015q2/arm-none-eabi/include/machine/_default_types.
 1497              		.file 7 "/opt/stm32/gcc/gcc-arm-none-eabi-4_9-2015q2/arm-none-eabi/include/sys/_stdint.h"
 1498              		.file 8 "/home/maciek/ChibiOS_16.1.5/os/rt/ports/ARMCMx/compilers/GCC/chtypes.h"
 1499              		.file 9 "/home/maciek/ChibiOS_16.1.5/os/rt/include/chsystypes.h"
 1500              		.file 10 "/home/maciek/ChibiOS_16.1.5/os/rt/include/chschd.h"
 1501              		.file 11 "/home/maciek/ChibiOS_16.1.5/os/ext/CMSIS/ST/STM32F1xx/stm32f103xe.h"
 1502              		.file 12 "/home/maciek/ChibiOS_16.1.5/os/rt/ports/ARMCMx/chcore.h"
 1503              		.file 13 "/home/maciek/ChibiOS_16.1.5/os/rt/ports/ARMCMx/chcore_v7m.h"
 1504              		.file 14 "/home/maciek/ChibiOS_16.1.5/os/rt/include/chtm.h"
 1505              		.file 15 "/home/maciek/ChibiOS_16.1.5/os/rt/include/chsem.h"
 1506              		.file 16 "/home/maciek/ChibiOS_16.1.5/os/rt/include/chmtx.h"
 1507              		.file 17 "/home/maciek/ChibiOS_16.1.5/os/rt/include/chevents.h"
 1508              		.file 18 "/home/maciek/ChibiOS_16.1.5/os/hal/include/hal_channels.h"
 1509              		.file 19 "/home/maciek/ChibiOS_16.1.5/os/hal/ports/STM32/LLD/I2Cv1/i2c_lld.h"
 1510              		.file 20 "/home/maciek/ChibiOS_16.1.5/os/ext/CMSIS/ST/STM32F1xx/stm32f1xx.h"
 1511              		.file 21 "/home/maciek/ChibiOS_16.1.5/os/hal/include/serial.h"
 1512              		.file 22 "mpu6050.h"
 1513              		.file 23 "drivers/STORM32_V1_X/pwmio.h"
 1514              		.file 24 "attitude.h"
 1515              		.file 25 "/home/maciek/ChibiOS_16.1.5/os/rt/include/chsys.h"
 1516              		.file 26 "/home/maciek/ChibiOS_16.1.5/os/hal/osal/rt/osal.h"
 1517              		.file 27 "/home/maciek/ChibiOS_16.1.5/os/ext/CMSIS/include/core_cm3.h"
 1518              		.file 28 "/home/maciek/ChibiOS_16.1.5/os/rt/include/chthreads.h"
 1519              		.file 29 "/opt/stm32/gcc/gcc-arm-none-eabi-4_9-2015q2/arm-none-eabi/include/string.h"
 1520              		.file 30 "storage.h"