ARM GAS  /tmp/ccb0LqWC.s 			page 1


   1              		.syntax unified
   2              		.cpu cortex-m3
   3              		.fpu softvfp
   4              		.eabi_attribute 20, 1
   5              		.eabi_attribute 21, 1
   6              		.eabi_attribute 23, 3
   7              		.eabi_attribute 24, 1
   8              		.eabi_attribute 25, 1
   9              		.eabi_attribute 26, 1
  10              		.eabi_attribute 30, 2
  11              		.eabi_attribute 34, 1
  12              		.eabi_attribute 18, 4
  13              		.thumb
  14              		.file	"testdyn.c"
  15              		.text
  16              	.Ltext0:
  17              		.cfi_sections	.debug_frame
  18              		.section	.text.dyn1_execute,"ax",%progbits
  19              		.align	2
  20              		.p2align 4,,15
  21              		.thumb
  22              		.thumb_func
  23              		.type	dyn1_execute, %function
  24              	dyn1_execute:
  25              	.LFB172:
  26              		.file 1 "/home/maciek/ChibiOS_16.1.5/test/rt/testdyn.c"
  27              		.loc 1 82 0
  28              		.cfi_startproc
  29              		@ args = 0, pretend = 0, frame = 8
  30              		@ frame_needed = 0, uses_anonymous_args = 0
  31 0000 70B5     		push	{r4, r5, r6, lr}
  32              		.cfi_def_cfa_offset 16
  33              		.cfi_offset 4, -16
  34              		.cfi_offset 5, -12
  35              		.cfi_offset 6, -8
  36              		.cfi_offset 14, -4
  37              	.LBB12:
  38              	.LBB13:
  39              	.LBB14:
  40              	.LBB15:
  41              		.file 2 "/home/maciek/ChibiOS_16.1.5/os/rt/include/chthreads.h"
  42              		.loc 2 176 0
  43 0002 344B     		ldr	r3, .L13
  44              	.LBE15:
  45              	.LBE14:
  46              	.LBE13:
  47              	.LBE12:
  48              		.loc 1 82 0
  49 0004 84B0     		sub	sp, sp, #16
  50              		.cfi_def_cfa_offset 32
  51              	.LBB18:
  52              	.LBB16:
  53              		.loc 2 189 0
  54 0006 1B69     		ldr	r3, [r3, #16]
  55              	.LBE16:
  56              	.LBE18:
  57              		.loc 1 87 0
ARM GAS  /tmp/ccb0LqWC.s 			page 2


  58 0008 03A9     		add	r1, sp, #12
  59 000a 3348     		ldr	r0, .L13+4
  60              	.LBB19:
  61              	.LBB17:
  62              		.loc 2 189 0
  63 000c 9D68     		ldr	r5, [r3, #8]
  64              	.LBE17:
  65              	.LBE19:
  66              		.loc 1 87 0
  67 000e FFF7FEFF 		bl	chHeapStatus
  68              	.LVL0:
  69              		.loc 1 89 0
  70 0012 324B     		ldr	r3, .L13+8
  71 0014 6A1E     		subs	r2, r5, #1
  72 0016 0093     		str	r3, [sp]
  73 0018 4FF4A071 		mov	r1, #320
  74 001c 304B     		ldr	r3, .L13+12
  75 001e 2E48     		ldr	r0, .L13+4
  76 0020 FFF7FEFF 		bl	chThdCreateFromHeap
  77              	.LVL1:
  78 0024 2F4C     		ldr	r4, .L13+16
  79              		.loc 1 92 0
  80 0026 304B     		ldr	r3, .L13+20
  81 0028 AA1E     		subs	r2, r5, #2
  82              		.loc 1 89 0
  83 002a 2060     		str	r0, [r4]
  84              		.loc 1 92 0
  85 002c 0093     		str	r3, [sp]
  86 002e 4FF4A071 		mov	r1, #320
  87 0032 2B4B     		ldr	r3, .L13+12
  88 0034 2848     		ldr	r0, .L13+4
  89 0036 FFF7FEFF 		bl	chThdCreateFromHeap
  90              	.LVL2:
  91              		.loc 1 96 0
  92 003a 02A9     		add	r1, sp, #8
  93              		.loc 1 92 0
  94 003c 6060     		str	r0, [r4, #4]
  95              		.loc 1 96 0
  96 003e 2648     		ldr	r0, .L13+4
  97 0040 FFF7FEFF 		bl	chHeapStatus
  98              	.LVL3:
  99              		.loc 1 97 0
 100 0044 0299     		ldr	r1, [sp, #8]
 101 0046 2448     		ldr	r0, .L13+4
 102 0048 FFF7FEFF 		bl	chHeapAlloc
 103              	.LVL4:
 104              		.loc 1 98 0
 105 004c 274B     		ldr	r3, .L13+24
 106 004e 4FF4A071 		mov	r1, #320
 107              		.loc 1 97 0
 108 0052 0646     		mov	r6, r0
 109              	.LVL5:
 110              		.loc 1 98 0
 111 0054 EA1E     		subs	r2, r5, #3
 112 0056 0093     		str	r3, [sp]
 113 0058 1F48     		ldr	r0, .L13+4
 114              	.LVL6:
ARM GAS  /tmp/ccb0LqWC.s 			page 3


 115 005a 214B     		ldr	r3, .L13+12
 116 005c FFF7FEFF 		bl	chThdCreateFromHeap
 117              	.LVL7:
 118 0060 A060     		str	r0, [r4, #8]
 119              		.loc 1 101 0
 120 0062 3046     		mov	r0, r6
 121 0064 FFF7FEFF 		bl	chHeapFree
 122              	.LVL8:
 123              		.loc 1 103 0
 124 0068 2168     		ldr	r1, [r4]
 125 006a 21B1     		cbz	r1, .L2
 126              		.loc 1 103 0 is_stmt 0 discriminator 1
 127 006c 6168     		ldr	r1, [r4, #4]
 128 006e 11B1     		cbz	r1, .L2
 129              		.loc 1 103 0 discriminator 3
 130 0070 A168     		ldr	r1, [r4, #8]
 131 0072 31B3     		cbz	r1, .L11
 132 0074 0021     		movs	r1, #0
 133              	.L2:
 134              		.loc 1 103 0 discriminator 12
 135 0076 0120     		movs	r0, #1
 136 0078 FFF7FEFF 		bl	_test_assert
 137              	.LVL9:
 138 007c 08B1     		cbz	r0, .L12
 139              	.L1:
 140              		.loc 1 117 0 is_stmt 1
 141 007e 04B0     		add	sp, sp, #16
 142              		.cfi_remember_state
 143              		.cfi_def_cfa_offset 16
 144              		@ sp needed
 145 0080 70BD     		pop	{r4, r5, r6, pc}
 146              	.LVL10:
 147              	.L12:
 148              		.cfi_restore_state
 149              		.loc 1 111 0
 150 0082 FFF7FEFF 		bl	test_wait_threads
 151              	.LVL11:
 152              		.loc 1 112 0
 153 0086 0220     		movs	r0, #2
 154 0088 1949     		ldr	r1, .L13+28
 155 008a FFF7FEFF 		bl	_test_assert_sequence
 156              	.LVL12:
 157 008e 0028     		cmp	r0, #0
 158 0090 F5D1     		bne	.L1
 159              		.loc 1 115 0
 160 0092 02A9     		add	r1, sp, #8
 161 0094 1048     		ldr	r0, .L13+4
 162 0096 FFF7FEFF 		bl	chHeapStatus
 163              	.LVL13:
 164 009a A0F10101 		sub	r1, r0, #1
 165 009e B1FA81F1 		clz	r1, r1
 166 00a2 0320     		movs	r0, #3
 167 00a4 4909     		lsrs	r1, r1, #5
 168 00a6 FFF7FEFF 		bl	_test_assert
 169              	.LVL14:
 170 00aa 0028     		cmp	r0, #0
 171 00ac E7D1     		bne	.L1
ARM GAS  /tmp/ccb0LqWC.s 			page 4


 172              		.loc 1 116 0
 173 00ae 0299     		ldr	r1, [sp, #8]
 174 00b0 039B     		ldr	r3, [sp, #12]
 175 00b2 0420     		movs	r0, #4
 176 00b4 C91A     		subs	r1, r1, r3
 177 00b6 B1FA81F1 		clz	r1, r1
 178 00ba 4909     		lsrs	r1, r1, #5
 179 00bc FFF7FEFF 		bl	_test_assert
 180              	.LVL15:
 181 00c0 DDE7     		b	.L1
 182              	.L11:
 183              		.loc 1 103 0 discriminator 5
 184 00c2 E368     		ldr	r3, [r4, #12]
 185 00c4 002B     		cmp	r3, #0
 186 00c6 D6D1     		bne	.L2
 187              		.loc 1 103 0 is_stmt 0 discriminator 7
 188 00c8 2169     		ldr	r1, [r4, #16]
 189 00ca B1FA81F1 		clz	r1, r1
 190 00ce 4909     		lsrs	r1, r1, #5
 191 00d0 D1E7     		b	.L2
 192              	.L14:
 193 00d2 00BF     		.align	2
 194              	.L13:
 195 00d4 00000000 		.word	ch
 196 00d8 00000000 		.word	.LANCHOR0
 197 00dc 00000000 		.word	.LC0
 198 00e0 00000000 		.word	thread
 199 00e4 00000000 		.word	threads
 200 00e8 04000000 		.word	.LC1
 201 00ec 08000000 		.word	.LC2
 202 00f0 0C000000 		.word	.LC3
 203              		.cfi_endproc
 204              	.LFE172:
 205              		.size	dyn1_execute, .-dyn1_execute
 206              		.section	.text.thread,"ax",%progbits
 207              		.align	2
 208              		.p2align 4,,15
 209              		.thumb
 210              		.thumb_func
 211              		.type	thread, %function
 212              	thread:
 213              	.LFB170:
 214              		.loc 1 71 0 is_stmt 1
 215              		.cfi_startproc
 216              		@ args = 0, pretend = 0, frame = 0
 217              		@ frame_needed = 0, uses_anonymous_args = 0
 218              		@ link register save eliminated.
 219              	.LVL16:
 220              		.loc 1 73 0
 221 0000 0078     		ldrb	r0, [r0]	@ zero_extendqisi2
 222              	.LVL17:
 223 0002 FFF7FEBF 		b	test_emit_token
 224              	.LVL18:
 225              		.cfi_endproc
 226              	.LFE170:
 227              		.size	thread, .-thread
 228 0006 00BF     		.section	.text.dyn1_setup,"ax",%progbits
ARM GAS  /tmp/ccb0LqWC.s 			page 5


 229              		.align	2
 230              		.p2align 4,,15
 231              		.thumb
 232              		.thumb_func
 233              		.type	dyn1_setup, %function
 234              	dyn1_setup:
 235              	.LFB171:
 236              		.loc 1 77 0
 237              		.cfi_startproc
 238              		@ args = 0, pretend = 0, frame = 0
 239              		@ frame_needed = 0, uses_anonymous_args = 0
 240              		@ link register save eliminated.
 241              		.loc 1 79 0
 242 0000 0248     		ldr	r0, .L17
 243 0002 0349     		ldr	r1, .L17+4
 244 0004 4FF4C862 		mov	r2, #1600
 245 0008 FFF7FEBF 		b	chHeapObjectInit
 246              	.LVL19:
 247              	.L18:
 248              		.align	2
 249              	.L17:
 250 000c 00000000 		.word	.LANCHOR0
 251 0010 00000000 		.word	test
 252              		.cfi_endproc
 253              	.LFE171:
 254              		.size	dyn1_setup, .-dyn1_setup
 255              		.section	.text.dyn2_execute,"ax",%progbits
 256              		.align	2
 257              		.p2align 4,,15
 258              		.thumb
 259              		.thumb_func
 260              		.type	dyn2_execute, %function
 261              	dyn2_execute:
 262              	.LFB174:
 263              		.loc 1 143 0
 264              		.cfi_startproc
 265              		@ args = 0, pretend = 0, frame = 0
 266              		@ frame_needed = 0, uses_anonymous_args = 0
 267              	.LBB20:
 268              	.LBB21:
 269              	.LBB22:
 270              	.LBB23:
 271              		.loc 2 176 0
 272 0000 314B     		ldr	r3, .L34
 273              	.LBE23:
 274              	.LBE22:
 275              	.LBE21:
 276              	.LBE20:
 277              		.loc 1 143 0
 278 0002 70B5     		push	{r4, r5, r6, lr}
 279              		.cfi_def_cfa_offset 16
 280              		.cfi_offset 4, -16
 281              		.cfi_offset 5, -12
 282              		.cfi_offset 6, -8
 283              		.cfi_offset 14, -4
 284              	.LBB25:
 285              	.LBB24:
ARM GAS  /tmp/ccb0LqWC.s 			page 6


 286              		.loc 2 189 0
 287 0004 1B69     		ldr	r3, [r3, #16]
 288 0006 314C     		ldr	r4, .L34+4
 289 0008 9D68     		ldr	r5, [r3, #8]
 290              	.LVL20:
 291 000a 04F11006 		add	r6, r4, #16
 292              	.LVL21:
 293              	.L20:
 294              	.LBE24:
 295              	.LBE25:
 296              		.loc 1 149 0 discriminator 3
 297 000e 54F8041B 		ldr	r1, [r4], #4
 298 0012 2F48     		ldr	r0, .L34+8
 299 0014 FFF7FEFF 		bl	chPoolFree
 300              	.LVL22:
 301              		.loc 1 148 0 discriminator 3
 302 0018 B442     		cmp	r4, r6
 303 001a F8D1     		bne	.L20
 304              		.loc 1 152 0
 305 001c 691E     		subs	r1, r5, #1
 306 001e 2D4A     		ldr	r2, .L34+12
 307 0020 2D4B     		ldr	r3, .L34+16
 308 0022 2B48     		ldr	r0, .L34+8
 309 0024 FFF7FEFF 		bl	chThdCreateFromMemoryPool
 310              	.LVL23:
 311 0028 2C4C     		ldr	r4, .L34+20
 312              		.loc 1 153 0
 313 002a A91E     		subs	r1, r5, #2
 314              		.loc 1 152 0
 315 002c 2060     		str	r0, [r4]
 316              		.loc 1 153 0
 317 002e 294A     		ldr	r2, .L34+12
 318 0030 2B4B     		ldr	r3, .L34+24
 319 0032 2748     		ldr	r0, .L34+8
 320 0034 FFF7FEFF 		bl	chThdCreateFromMemoryPool
 321              	.LVL24:
 322              		.loc 1 154 0
 323 0038 E91E     		subs	r1, r5, #3
 324              		.loc 1 153 0
 325 003a 6060     		str	r0, [r4, #4]
 326              		.loc 1 154 0
 327 003c 254A     		ldr	r2, .L34+12
 328 003e 294B     		ldr	r3, .L34+28
 329 0040 2348     		ldr	r0, .L34+8
 330 0042 FFF7FEFF 		bl	chThdCreateFromMemoryPool
 331              	.LVL25:
 332              		.loc 1 155 0
 333 0046 291F     		subs	r1, r5, #4
 334              		.loc 1 154 0
 335 0048 A060     		str	r0, [r4, #8]
 336              		.loc 1 155 0
 337 004a 224A     		ldr	r2, .L34+12
 338 004c 264B     		ldr	r3, .L34+32
 339 004e 2048     		ldr	r0, .L34+8
 340 0050 FFF7FEFF 		bl	chThdCreateFromMemoryPool
 341              	.LVL26:
 342              		.loc 1 156 0
ARM GAS  /tmp/ccb0LqWC.s 			page 7


 343 0054 691F     		subs	r1, r5, #5
 344              		.loc 1 155 0
 345 0056 E060     		str	r0, [r4, #12]
 346              		.loc 1 156 0
 347 0058 1E4A     		ldr	r2, .L34+12
 348 005a 1D48     		ldr	r0, .L34+8
 349 005c 234B     		ldr	r3, .L34+36
 350 005e FFF7FEFF 		bl	chThdCreateFromMemoryPool
 351              	.LVL27:
 352              		.loc 1 158 0
 353 0062 2168     		ldr	r1, [r4]
 354              		.loc 1 156 0
 355 0064 2061     		str	r0, [r4, #16]
 356              		.loc 1 158 0
 357 0066 41B1     		cbz	r1, .L21
 358              		.loc 1 158 0 is_stmt 0 discriminator 1
 359 0068 6168     		ldr	r1, [r4, #4]
 360 006a 31B1     		cbz	r1, .L21
 361              		.loc 1 158 0 discriminator 3
 362 006c A168     		ldr	r1, [r4, #8]
 363 006e 21B1     		cbz	r1, .L21
 364              		.loc 1 158 0 discriminator 5
 365 0070 E168     		ldr	r1, [r4, #12]
 366 0072 11B1     		cbz	r1, .L21
 367              		.loc 1 158 0 discriminator 7
 368 0074 B0FA80F1 		clz	r1, r0
 369 0078 4909     		lsrs	r1, r1, #5
 370              	.L21:
 371              		.loc 1 158 0 discriminator 12
 372 007a 0120     		movs	r0, #1
 373 007c FFF7FEFF 		bl	_test_assert
 374              	.LVL28:
 375 0080 00B1     		cbz	r0, .L33
 376              	.L19:
 377 0082 70BD     		pop	{r4, r5, r6, pc}
 378              	.L33:
 379              		.loc 1 166 0 is_stmt 1
 380 0084 FFF7FEFF 		bl	test_wait_threads
 381              	.LVL29:
 382              		.loc 1 167 0
 383 0088 0220     		movs	r0, #2
 384 008a 1949     		ldr	r1, .L34+40
 385 008c FFF7FEFF 		bl	_test_assert_sequence
 386              	.LVL30:
 387 0090 0028     		cmp	r0, #0
 388 0092 F6D1     		bne	.L19
 389 0094 0424     		movs	r4, #4
 390              	.L25:
 391              	.LVL31:
 392              		.loc 1 171 0
 393 0096 0E48     		ldr	r0, .L34+8
 394 0098 FFF7FEFF 		bl	chPoolAlloc
 395              	.LVL32:
 396 009c 011C     		adds	r1, r0, #0
 397 009e 18BF     		it	ne
 398 00a0 0121     		movne	r1, #1
 399 00a2 0320     		movs	r0, #3
ARM GAS  /tmp/ccb0LqWC.s 			page 8


 400 00a4 FFF7FEFF 		bl	_test_assert
 401              	.LVL33:
 402 00a8 0028     		cmp	r0, #0
 403 00aa EAD1     		bne	.L19
 404              		.loc 1 170 0 discriminator 2
 405 00ac 013C     		subs	r4, r4, #1
 406              	.LVL34:
 407 00ae F2D1     		bne	.L25
 408              		.loc 1 172 0
 409 00b0 0748     		ldr	r0, .L34+8
 410 00b2 FFF7FEFF 		bl	chPoolAlloc
 411              	.LVL35:
 412              		.loc 1 173 0
 413 00b6 BDE87040 		pop	{r4, r5, r6, lr}
 414              		.cfi_restore 14
 415              		.cfi_restore 6
 416              		.cfi_restore 5
 417              		.cfi_restore 4
 418              		.cfi_def_cfa_offset 0
 419              	.LVL36:
 420              		.loc 1 172 0
 421 00ba B0FA80F1 		clz	r1, r0
 422 00be 0420     		movs	r0, #4
 423 00c0 4909     		lsrs	r1, r1, #5
 424 00c2 FFF7FEBF 		b	_test_assert
 425              	.LVL37:
 426              	.L35:
 427 00c6 00BF     		.align	2
 428              	.L34:
 429 00c8 00000000 		.word	ch
 430 00cc 00000000 		.word	wa
 431 00d0 00000000 		.word	.LANCHOR1
 432 00d4 00000000 		.word	thread
 433 00d8 00000000 		.word	.LC0
 434 00dc 00000000 		.word	threads
 435 00e0 04000000 		.word	.LC1
 436 00e4 08000000 		.word	.LC2
 437 00e8 10000000 		.word	.LC4
 438 00ec 14000000 		.word	.LC5
 439 00f0 18000000 		.word	.LC6
 440              		.cfi_endproc
 441              	.LFE174:
 442              		.size	dyn2_execute, .-dyn2_execute
 443              		.section	.text.dyn2_setup,"ax",%progbits
 444              		.align	2
 445              		.p2align 4,,15
 446              		.thumb
 447              		.thumb_func
 448              		.type	dyn2_setup, %function
 449              	dyn2_setup:
 450              	.LFB173:
 451              		.loc 1 138 0
 452              		.cfi_startproc
 453              		@ args = 0, pretend = 0, frame = 0
 454              		@ frame_needed = 0, uses_anonymous_args = 0
 455              		@ link register save eliminated.
 456              		.loc 1 140 0
ARM GAS  /tmp/ccb0LqWC.s 			page 9


 457 0000 0248     		ldr	r0, .L37
 458 0002 4FF4A071 		mov	r1, #320
 459 0006 0022     		movs	r2, #0
 460 0008 FFF7FEBF 		b	chPoolObjectInit
 461              	.LVL38:
 462              	.L38:
 463              		.align	2
 464              	.L37:
 465 000c 00000000 		.word	.LANCHOR1
 466              		.cfi_endproc
 467              	.LFE173:
 468              		.size	dyn2_setup, .-dyn2_setup
 469              		.global	patterndyn
 470              		.global	testdyn2
 471              		.global	testdyn1
 472              		.section	.rodata.testdyn1,"a",%progbits
 473              		.align	2
 474              		.type	testdyn1, %object
 475              		.size	testdyn1, 16
 476              	testdyn1:
 477 0000 50000000 		.word	.LC8
 478 0004 00000000 		.word	dyn1_setup
 479 0008 00000000 		.word	0
 480 000c 00000000 		.word	dyn1_execute
 481              		.section	.rodata.testdyn2,"a",%progbits
 482              		.align	2
 483              		.type	testdyn2, %object
 484              		.size	testdyn2, 16
 485              	testdyn2:
 486 0000 20000000 		.word	.LC7
 487 0004 00000000 		.word	dyn2_setup
 488 0008 00000000 		.word	0
 489 000c 00000000 		.word	dyn2_execute
 490              		.section	.bss.mp1,"aw",%nobits
 491              		.align	2
 492              		.set	.LANCHOR1,. + 0
 493              		.type	mp1, %object
 494              		.size	mp1, 12
 495              	mp1:
 496 0000 00000000 		.space	12
 496      00000000 
 496      00000000 
 497              		.section	.rodata.str1.4,"aMS",%progbits,1
 498              		.align	2
 499              	.LC0:
 500 0000 4100     		.ascii	"A\000"
 501 0002 0000     		.space	2
 502              	.LC1:
 503 0004 4200     		.ascii	"B\000"
 504 0006 0000     		.space	2
 505              	.LC2:
 506 0008 4300     		.ascii	"C\000"
 507 000a 0000     		.space	2
 508              	.LC3:
 509 000c 414200   		.ascii	"AB\000"
 510 000f 00       		.space	1
 511              	.LC4:
ARM GAS  /tmp/ccb0LqWC.s 			page 10


 512 0010 4400     		.ascii	"D\000"
 513 0012 0000     		.space	2
 514              	.LC5:
 515 0014 4500     		.ascii	"E\000"
 516 0016 0000     		.space	2
 517              	.LC6:
 518 0018 41424344 		.ascii	"ABCD\000"
 518      00
 519 001d 000000   		.space	3
 520              	.LC7:
 521 0020 44796E61 		.ascii	"Dynamic APIs, threads creation from memory pool\000"
 521      6D696320 
 521      41504973 
 521      2C207468 
 521      72656164 
 522              	.LC8:
 523 0050 44796E61 		.ascii	"Dynamic APIs, threads creation from heap\000"
 523      6D696320 
 523      41504973 
 523      2C207468 
 523      72656164 
 524              		.section	.rodata.patterndyn,"a",%progbits
 525              		.align	2
 526              		.type	patterndyn, %object
 527              		.size	patterndyn, 12
 528              	patterndyn:
 529 0000 00000000 		.word	testdyn1
 530 0004 00000000 		.word	testdyn2
 531 0008 00000000 		.word	0
 532              		.section	.bss.heap1,"aw",%nobits
 533              		.align	3
 534              		.set	.LANCHOR0,. + 0
 535              		.type	heap1, %object
 536              		.size	heap1, 32
 537              	heap1:
 538 0000 00000000 		.space	32
 538      00000000 
 538      00000000 
 538      00000000 
 538      00000000 
 539              		.text
 540              	.Letext0:
 541              		.file 3 "/opt/stm32/gcc/gcc-arm-none-eabi-4_9-2015q2/lib/gcc/arm-none-eabi/4.9.3/include/stddef.h"
 542              		.file 4 "/opt/stm32/gcc/gcc-arm-none-eabi-4_9-2015q2/arm-none-eabi/include/machine/_default_types.
 543              		.file 5 "/opt/stm32/gcc/gcc-arm-none-eabi-4_9-2015q2/arm-none-eabi/include/sys/_stdint.h"
 544              		.file 6 "/home/maciek/ChibiOS_16.1.5/os/rt/ports/ARMCMx/compilers/GCC/chtypes.h"
 545              		.file 7 "/home/maciek/ChibiOS_16.1.5/os/rt/include/chsystypes.h"
 546              		.file 8 "/home/maciek/ChibiOS_16.1.5/os/rt/include/chschd.h"
 547              		.file 9 "/home/maciek/ChibiOS_16.1.5/os/rt/ports/ARMCMx/chcore.h"
 548              		.file 10 "/home/maciek/ChibiOS_16.1.5/os/rt/ports/ARMCMx/chcore_v7m.h"
 549              		.file 11 "/home/maciek/ChibiOS_16.1.5/os/rt/include/chtm.h"
 550              		.file 12 "/home/maciek/ChibiOS_16.1.5/os/rt/include/chsem.h"
 551              		.file 13 "/home/maciek/ChibiOS_16.1.5/os/rt/include/chmtx.h"
 552              		.file 14 "/home/maciek/ChibiOS_16.1.5/os/rt/include/chmemcore.h"
 553              		.file 15 "/home/maciek/ChibiOS_16.1.5/os/rt/include/chheap.h"
 554              		.file 16 "/home/maciek/ChibiOS_16.1.5/os/rt/include/chmempools.h"
 555              		.file 17 "/home/maciek/ChibiOS_16.1.5/test/rt/test.h"
ARM GAS  /tmp/ccb0LqWC.s 			page 11


 556              		.file 18 "/home/maciek/ChibiOS_16.1.5/os/ext/CMSIS/include/core_cm3.h"
 557              		.file 19 "/home/maciek/ChibiOS_16.1.5/os/rt/include/chdynamic.h"