ARM GAS  /tmp/ccwmX87R.s 			page 1


   1              		.syntax unified
   2              		.cpu cortex-m3
   3              		.fpu softvfp
   4              		.eabi_attribute 20, 1
   5              		.eabi_attribute 21, 1
   6              		.eabi_attribute 23, 3
   7              		.eabi_attribute 24, 1
   8              		.eabi_attribute 25, 1
   9              		.eabi_attribute 26, 1
  10              		.eabi_attribute 30, 2
  11              		.eabi_attribute 34, 1
  12              		.eabi_attribute 18, 4
  13              		.thumb
  14              		.file	"testsem.c"
  15              		.text
  16              	.Ltext0:
  17              		.cfi_sections	.debug_frame
  18              		.section	.text.sem1_execute,"ax",%progbits
  19              		.align	2
  20              		.p2align 4,,15
  21              		.thumb
  22              		.thumb_func
  23              		.type	sem1_execute, %function
  24              	sem1_execute:
  25              	.LFB172:
  26              		.file 1 "/home/maciek/ChibiOS_16.1.5/test/rt/testsem.c"
  27              		.loc 1 83 0
  28              		.cfi_startproc
  29              		@ args = 0, pretend = 0, frame = 0
  30              		@ frame_needed = 0, uses_anonymous_args = 0
  31 0000 2DE9F043 		push	{r4, r5, r6, r7, r8, r9, lr}
  32              		.cfi_def_cfa_offset 28
  33              		.cfi_offset 4, -28
  34              		.cfi_offset 5, -24
  35              		.cfi_offset 6, -20
  36              		.cfi_offset 7, -16
  37              		.cfi_offset 8, -12
  38              		.cfi_offset 9, -8
  39              		.cfi_offset 14, -4
  40              	.LBB275:
  41              	.LBB276:
  42              	.LBB277:
  43              	.LBB278:
  44              		.file 2 "/home/maciek/ChibiOS_16.1.5/os/rt/include/chthreads.h"
  45              		.loc 2 176 0
  46 0004 484E     		ldr	r6, .L8
  47              	.LBE278:
  48              	.LBE277:
  49              	.LBE276:
  50              	.LBE275:
  51              		.loc 1 85 0
  52 0006 494C     		ldr	r4, .L8+4
  53              	.LBB280:
  54              	.LBB279:
  55              		.loc 2 189 0
  56 0008 3369     		ldr	r3, [r6, #16]
  57              	.LBE279:
ARM GAS  /tmp/ccwmX87R.s 			page 2


  58              	.LBE280:
  59              		.loc 1 85 0
  60 000a D4F80090 		ldr	r9, [r4]
  61 000e 9A68     		ldr	r2, [r3, #8]
  62 0010 DFF83C81 		ldr	r8, .L8+40
  63              		.loc 1 83 0
  64 0014 83B0     		sub	sp, sp, #12
  65              		.cfi_def_cfa_offset 40
  66              		.loc 1 85 0
  67 0016 0532     		adds	r2, r2, #5
  68 0018 4FF4A071 		mov	r1, #320
  69 001c 444B     		ldr	r3, .L8+8
  70 001e 4846     		mov	r0, r9
  71 0020 CDF80080 		str	r8, [sp]
  72 0024 FFF7FEFF 		bl	chThdCreateStatic
  73              	.LVL0:
  74              	.LBB281:
  75              	.LBB282:
  76              		.loc 2 189 0
  77 0028 3369     		ldr	r3, [r6, #16]
  78              	.LBE282:
  79              	.LBE281:
  80              		.loc 1 85 0
  81 002a 424D     		ldr	r5, .L8+12
  82              		.loc 1 86 0
  83 002c 9A68     		ldr	r2, [r3, #8]
  84 002e 6168     		ldr	r1, [r4, #4]
  85 0030 414B     		ldr	r3, .L8+16
  86              		.loc 1 85 0
  87 0032 2860     		str	r0, [r5]
  88              		.loc 1 86 0
  89 0034 0132     		adds	r2, r2, #1
  90 0036 0846     		mov	r0, r1
  91 0038 0093     		str	r3, [sp]
  92 003a 4FF4A071 		mov	r1, #320
  93 003e 3C4B     		ldr	r3, .L8+8
  94 0040 FFF7FEFF 		bl	chThdCreateStatic
  95              	.LVL1:
  96              	.LBB283:
  97              	.LBB284:
  98              		.loc 2 189 0
  99 0044 3369     		ldr	r3, [r6, #16]
 100              	.LBE284:
 101              	.LBE283:
 102              		.loc 1 87 0
 103 0046 A168     		ldr	r1, [r4, #8]
 104 0048 9A68     		ldr	r2, [r3, #8]
 105 004a 3C4B     		ldr	r3, .L8+20
 106              		.loc 1 86 0
 107 004c 6860     		str	r0, [r5, #4]
 108              		.loc 1 87 0
 109 004e 0332     		adds	r2, r2, #3
 110 0050 0846     		mov	r0, r1
 111 0052 0093     		str	r3, [sp]
 112 0054 4FF4A071 		mov	r1, #320
 113 0058 354B     		ldr	r3, .L8+8
 114 005a FFF7FEFF 		bl	chThdCreateStatic
ARM GAS  /tmp/ccwmX87R.s 			page 3


 115              	.LVL2:
 116              	.LBB285:
 117              	.LBB286:
 118              		.loc 2 189 0
 119 005e 3369     		ldr	r3, [r6, #16]
 120              	.LBE286:
 121              	.LBE285:
 122              		.loc 1 88 0
 123 0060 E168     		ldr	r1, [r4, #12]
 124 0062 9A68     		ldr	r2, [r3, #8]
 125 0064 364B     		ldr	r3, .L8+24
 126              		.loc 1 87 0
 127 0066 A860     		str	r0, [r5, #8]
 128              		.loc 1 88 0
 129 0068 0432     		adds	r2, r2, #4
 130 006a 0846     		mov	r0, r1
 131 006c 0093     		str	r3, [sp]
 132 006e 4FF4A071 		mov	r1, #320
 133 0072 2F4B     		ldr	r3, .L8+8
 134 0074 FFF7FEFF 		bl	chThdCreateStatic
 135              	.LVL3:
 136              	.LBB287:
 137              	.LBB288:
 138              		.loc 2 189 0
 139 0078 3369     		ldr	r3, [r6, #16]
 140              	.LBE288:
 141              	.LBE287:
 142              		.loc 1 89 0
 143 007a 2169     		ldr	r1, [r4, #16]
 144 007c 9A68     		ldr	r2, [r3, #8]
 145 007e 314B     		ldr	r3, .L8+28
 146 0080 0232     		adds	r2, r2, #2
 147              		.loc 1 88 0
 148 0082 E860     		str	r0, [r5, #12]
 149              		.loc 1 89 0
 150 0084 0093     		str	r3, [sp]
 151 0086 0846     		mov	r0, r1
 152 0088 294B     		ldr	r3, .L8+8
 153 008a 4FF4A071 		mov	r1, #320
 154 008e FFF7FEFF 		bl	chThdCreateStatic
 155              	.LVL4:
 156              		.loc 1 90 0
 157 0092 2D4C     		ldr	r4, .L8+32
 158              		.loc 1 89 0
 159 0094 2861     		str	r0, [r5, #16]
 160              		.loc 1 90 0
 161 0096 2046     		mov	r0, r4
 162 0098 FFF7FEFF 		bl	chSemSignal
 163              	.LVL5:
 164              		.loc 1 91 0
 165 009c 2046     		mov	r0, r4
 166 009e FFF7FEFF 		bl	chSemSignal
 167              	.LVL6:
 168              		.loc 1 92 0
 169 00a2 2046     		mov	r0, r4
 170 00a4 FFF7FEFF 		bl	chSemSignal
 171              	.LVL7:
ARM GAS  /tmp/ccwmX87R.s 			page 4


 172              		.loc 1 93 0
 173 00a8 2046     		mov	r0, r4
 174 00aa FFF7FEFF 		bl	chSemSignal
 175              	.LVL8:
 176              		.loc 1 94 0
 177 00ae 2046     		mov	r0, r4
 178 00b0 FFF7FEFF 		bl	chSemSignal
 179              	.LVL9:
 180              		.loc 1 95 0
 181 00b4 FFF7FEFF 		bl	test_wait_threads
 182              	.LVL10:
 183              		.loc 1 99 0
 184 00b8 0120     		movs	r0, #1
 185 00ba 2449     		ldr	r1, .L8+36
 186 00bc FFF7FEFF 		bl	_test_assert_sequence
 187              	.LVL11:
 188 00c0 0746     		mov	r7, r0
 189 00c2 10B1     		cbz	r0, .L6
 190              		.loc 1 108 0
 191 00c4 03B0     		add	sp, sp, #12
 192              		.cfi_remember_state
 193              		.cfi_def_cfa_offset 28
 194              		@ sp needed
 195 00c6 BDE8F083 		pop	{r4, r5, r6, r7, r8, r9, pc}
 196              	.L6:
 197              		.cfi_restore_state
 198              	.LBB289:
 199              	.LBB290:
 200              		.loc 2 189 0
 201 00ca 3369     		ldr	r3, [r6, #16]
 202              	.LBE290:
 203              	.LBE289:
 204              		.loc 1 101 0
 205 00cc 4846     		mov	r0, r9
 206 00ce 9A68     		ldr	r2, [r3, #8]
 207 00d0 4FF4A071 		mov	r1, #320
 208 00d4 0532     		adds	r2, r2, #5
 209 00d6 CDF80080 		str	r8, [sp]
 210 00da 154B     		ldr	r3, .L8+8
 211 00dc FFF7FEFF 		bl	chThdCreateStatic
 212              	.LVL12:
 213              	.LBB291:
 214              	.LBB292:
 215              	.LBB293:
 216              	.LBB294:
 217              		.file 3 "/home/maciek/ChibiOS_16.1.5/os/ext/CMSIS/include/core_cmFunc.h"
 218              		.loc 3 548 0
 219 00e0 2026     		movs	r6, #32
 220              	.LBE294:
 221              	.LBE293:
 222              	.LBE292:
 223              	.LBE291:
 224              		.loc 1 101 0
 225 00e2 2860     		str	r0, [r5]
 226              	.LVL13:
 227              	.LBB298:
 228              	.LBB297:
ARM GAS  /tmp/ccwmX87R.s 			page 5


 229              	.LBB296:
 230              	.LBB295:
 231              		.loc 3 548 0
 232              	@ 548 "/home/maciek/ChibiOS_16.1.5/os/ext/CMSIS/include/core_cmFunc.h" 1
 233 00e4 86F31188 		MSR basepri, r6
 234              	@ 0 "" 2
 235              		.thumb
 236              	.LBE295:
 237              	.LBE296:
 238              	.LBE297:
 239              	.LBE298:
 240              		.loc 1 103 0
 241 00e8 0221     		movs	r1, #2
 242 00ea 2046     		mov	r0, r4
 243 00ec FFF7FEFF 		bl	chSemAddCounterI
 244              	.LVL14:
 245              		.loc 1 104 0
 246 00f0 FFF7FEFF 		bl	chSchRescheduleS
 247              	.LVL15:
 248              	.LBB299:
 249              	.LBB300:
 250              	.LBB301:
 251              	.LBB302:
 252              	.LBB303:
 253              		.loc 3 548 0
 254              	@ 548 "/home/maciek/ChibiOS_16.1.5/os/ext/CMSIS/include/core_cmFunc.h" 1
 255 00f4 87F31188 		MSR basepri, r7
 256              	@ 0 "" 2
 257              		.thumb
 258              	.LBE303:
 259              	.LBE302:
 260              	.LBE301:
 261              	.LBE300:
 262              	.LBE299:
 263              		.loc 1 106 0
 264 00f8 FFF7FEFF 		bl	test_wait_threads
 265              	.LVL16:
 266              	.LBB304:
 267              	.LBB305:
 268              	.LBB306:
 269              	.LBB307:
 270              		.loc 3 548 0
 271              	@ 548 "/home/maciek/ChibiOS_16.1.5/os/ext/CMSIS/include/core_cmFunc.h" 1
 272 00fc 86F31188 		MSR basepri, r6
 273              	@ 0 "" 2
 274              	.LVL17:
 275              		.thumb
 276              	.LBE307:
 277              	.LBE306:
 278              	.LBE305:
 279              	.LBE304:
 280              		.loc 1 107 0
 281 0100 A168     		ldr	r1, [r4, #8]
 282 0102 0220     		movs	r0, #2
 283 0104 A1F10101 		sub	r1, #1
 284 0108 B1FA81F1 		clz	r1, r1
 285 010c 4909     		lsrs	r1, r1, #5
ARM GAS  /tmp/ccwmX87R.s 			page 6


 286 010e FFF7FEFF 		bl	_test_assert
 287              	.LVL18:
 288 0112 20B9     		cbnz	r0, .L7
 289              	.LVL19:
 290              	.LBB308:
 291              	.LBB309:
 292              	.LBB310:
 293              	.LBB311:
 294              	.LBB312:
 295              		.loc 3 548 0
 296              	@ 548 "/home/maciek/ChibiOS_16.1.5/os/ext/CMSIS/include/core_cmFunc.h" 1
 297 0114 80F31188 		MSR basepri, r0
 298              	@ 0 "" 2
 299              		.thumb
 300              	.LBE312:
 301              	.LBE311:
 302              	.LBE310:
 303              	.LBE309:
 304              	.LBE308:
 305              		.loc 1 108 0
 306 0118 03B0     		add	sp, sp, #12
 307              		.cfi_remember_state
 308              		.cfi_def_cfa_offset 28
 309              		@ sp needed
 310 011a BDE8F083 		pop	{r4, r5, r6, r7, r8, r9, pc}
 311              	.LVL20:
 312              	.L7:
 313              		.cfi_restore_state
 314              	.LBB313:
 315              	.LBB314:
 316              	.LBB315:
 317              	.LBB316:
 318              	.LBB317:
 319              		.loc 3 548 0
 320              	@ 548 "/home/maciek/ChibiOS_16.1.5/os/ext/CMSIS/include/core_cmFunc.h" 1
 321 011e 87F31188 		MSR basepri, r7
 322              	@ 0 "" 2
 323              		.thumb
 324              	.LBE317:
 325              	.LBE316:
 326              	.LBE315:
 327              	.LBE314:
 328              	.LBE313:
 329              		.loc 1 108 0
 330 0122 03B0     		add	sp, sp, #12
 331              		.cfi_def_cfa_offset 28
 332              		@ sp needed
 333 0124 BDE8F083 		pop	{r4, r5, r6, r7, r8, r9, pc}
 334              	.L9:
 335              		.align	2
 336              	.L8:
 337 0128 00000000 		.word	ch
 338 012c 00000000 		.word	wa
 339 0130 00000000 		.word	thread1
 340 0134 00000000 		.word	threads
 341 0138 04000000 		.word	.LC1
 342 013c 08000000 		.word	.LC2
ARM GAS  /tmp/ccwmX87R.s 			page 7


 343 0140 0C000000 		.word	.LC3
 344 0144 10000000 		.word	.LC4
 345 0148 00000000 		.word	.LANCHOR0
 346 014c 14000000 		.word	.LC5
 347 0150 00000000 		.word	.LC0
 348              		.cfi_endproc
 349              	.LFE172:
 350              		.size	sem1_execute, .-sem1_execute
 351              		.section	.text.thread3,"ax",%progbits
 352              		.align	2
 353              		.p2align 4,,15
 354              		.thumb
 355              		.thumb_func
 356              		.type	thread3, %function
 357              	thread3:
 358              	.LFB177:
 359              		.loc 1 207 0
 360              		.cfi_startproc
 361              		@ args = 0, pretend = 0, frame = 0
 362              		@ frame_needed = 0, uses_anonymous_args = 0
 363              	.LVL21:
 364 0000 10B5     		push	{r4, lr}
 365              		.cfi_def_cfa_offset 8
 366              		.cfi_offset 4, -8
 367              		.cfi_offset 14, -4
 368              		.loc 1 210 0
 369 0002 044C     		ldr	r4, .L12
 370 0004 2046     		mov	r0, r4
 371              	.LVL22:
 372 0006 FFF7FEFF 		bl	chSemWait
 373              	.LVL23:
 374              		.loc 1 211 0
 375 000a 2046     		mov	r0, r4
 376              		.loc 1 212 0
 377 000c BDE81040 		pop	{r4, lr}
 378              		.cfi_restore 14
 379              		.cfi_restore 4
 380              		.cfi_def_cfa_offset 0
 381              		.loc 1 211 0
 382 0010 FFF7FEBF 		b	chSemSignal
 383              	.LVL24:
 384              	.L13:
 385              		.align	2
 386              	.L12:
 387 0014 00000000 		.word	.LANCHOR0
 388              		.cfi_endproc
 389              	.LFE177:
 390              		.size	thread3, .-thread3
 391              		.section	.text.thread1,"ax",%progbits
 392              		.align	2
 393              		.p2align 4,,15
 394              		.thumb
 395              		.thumb_func
 396              		.type	thread1, %function
 397              	thread1:
 398              	.LFB171:
 399              		.loc 1 77 0
ARM GAS  /tmp/ccwmX87R.s 			page 8


 400              		.cfi_startproc
 401              		@ args = 0, pretend = 0, frame = 0
 402              		@ frame_needed = 0, uses_anonymous_args = 0
 403              	.LVL25:
 404 0000 10B5     		push	{r4, lr}
 405              		.cfi_def_cfa_offset 8
 406              		.cfi_offset 4, -8
 407              		.cfi_offset 14, -4
 408              		.loc 1 77 0
 409 0002 0446     		mov	r4, r0
 410              		.loc 1 79 0
 411 0004 0348     		ldr	r0, .L16
 412              	.LVL26:
 413 0006 FFF7FEFF 		bl	chSemWait
 414              	.LVL27:
 415              		.loc 1 80 0
 416 000a 2078     		ldrb	r0, [r4]	@ zero_extendqisi2
 417              		.loc 1 81 0
 418 000c BDE81040 		pop	{r4, lr}
 419              		.cfi_restore 14
 420              		.cfi_restore 4
 421              		.cfi_def_cfa_offset 0
 422              	.LVL28:
 423              		.loc 1 80 0
 424 0010 FFF7FEBF 		b	test_emit_token
 425              	.LVL29:
 426              	.L17:
 427              		.align	2
 428              	.L16:
 429 0014 00000000 		.word	.LANCHOR0
 430              		.cfi_endproc
 431              	.LFE171:
 432              		.size	thread1, .-thread1
 433              		.section	.text.sem1_setup,"ax",%progbits
 434              		.align	2
 435              		.p2align 4,,15
 436              		.thumb
 437              		.thumb_func
 438              		.type	sem1_setup, %function
 439              	sem1_setup:
 440              	.LFB170:
 441              		.loc 1 72 0
 442              		.cfi_startproc
 443              		@ args = 0, pretend = 0, frame = 0
 444              		@ frame_needed = 0, uses_anonymous_args = 0
 445              		@ link register save eliminated.
 446              		.loc 1 74 0
 447 0000 0148     		ldr	r0, .L19
 448 0002 0021     		movs	r1, #0
 449 0004 FFF7FEBF 		b	chSemObjectInit
 450              	.LVL30:
 451              	.L20:
 452              		.align	2
 453              	.L19:
 454 0008 00000000 		.word	.LANCHOR0
 455              		.cfi_endproc
 456              	.LFE170:
ARM GAS  /tmp/ccwmX87R.s 			page 9


 457              		.size	sem1_setup, .-sem1_setup
 458              		.section	.text.sem2_setup,"ax",%progbits
 459              		.align	2
 460              		.p2align 4,,15
 461              		.thumb
 462              		.thumb_func
 463              		.type	sem2_setup, %function
 464              	sem2_setup:
 465              	.LFB173:
 466              		.loc 1 128 0
 467              		.cfi_startproc
 468              		@ args = 0, pretend = 0, frame = 0
 469              		@ frame_needed = 0, uses_anonymous_args = 0
 470              		@ link register save eliminated.
 471              		.loc 1 130 0
 472 0000 0148     		ldr	r0, .L22
 473 0002 0021     		movs	r1, #0
 474 0004 FFF7FEBF 		b	chSemObjectInit
 475              	.LVL31:
 476              	.L23:
 477              		.align	2
 478              	.L22:
 479 0008 00000000 		.word	.LANCHOR0
 480              		.cfi_endproc
 481              	.LFE173:
 482              		.size	sem2_setup, .-sem2_setup
 483              		.section	.text.sem3_setup,"ax",%progbits
 484              		.align	2
 485              		.p2align 4,,15
 486              		.thumb
 487              		.thumb_func
 488              		.type	sem3_setup, %function
 489              	sem3_setup:
 490              	.LFB176:
 491              		.loc 1 202 0
 492              		.cfi_startproc
 493              		@ args = 0, pretend = 0, frame = 0
 494              		@ frame_needed = 0, uses_anonymous_args = 0
 495              		@ link register save eliminated.
 496              		.loc 1 204 0
 497 0000 0148     		ldr	r0, .L25
 498 0002 0021     		movs	r1, #0
 499 0004 FFF7FEBF 		b	chSemObjectInit
 500              	.LVL32:
 501              	.L26:
 502              		.align	2
 503              	.L25:
 504 0008 00000000 		.word	.LANCHOR0
 505              		.cfi_endproc
 506              	.LFE176:
 507              		.size	sem3_setup, .-sem3_setup
 508              		.section	.text.thread2,"ax",%progbits
 509              		.align	2
 510              		.p2align 4,,15
 511              		.thumb
 512              		.thumb_func
 513              		.type	thread2, %function
ARM GAS  /tmp/ccwmX87R.s 			page 10


 514              	thread2:
 515              	.LFB174:
 516              		.loc 1 133 0
 517              		.cfi_startproc
 518              		@ args = 0, pretend = 0, frame = 0
 519              		@ frame_needed = 0, uses_anonymous_args = 0
 520              	.LVL33:
 521 0000 08B5     		push	{r3, lr}
 522              		.cfi_def_cfa_offset 8
 523              		.cfi_offset 3, -8
 524              		.cfi_offset 14, -4
 525              		.loc 1 136 0
 526 0002 6420     		movs	r0, #100
 527              	.LVL34:
 528 0004 FFF7FEFF 		bl	chThdSleep
 529              	.LVL35:
 530              	.LBB318:
 531              	.LBB319:
 532              	.LBB320:
 533              	.LBB321:
 534              		.loc 3 548 0
 535 0008 2023     		movs	r3, #32
 536              	@ 548 "/home/maciek/ChibiOS_16.1.5/os/ext/CMSIS/include/core_cmFunc.h" 1
 537 000a 83F31188 		MSR basepri, r3
 538              	@ 0 "" 2
 539              		.thumb
 540              	.LBE321:
 541              	.LBE320:
 542              	.LBE319:
 543              	.LBE318:
 544              		.loc 1 138 0
 545 000e 0448     		ldr	r0, .L29
 546 0010 FFF7FEFF 		bl	chSemSignalI
 547              	.LVL36:
 548              		.loc 1 139 0
 549 0014 FFF7FEFF 		bl	chSchRescheduleS
 550              	.LVL37:
 551              	.LBB322:
 552              	.LBB323:
 553              	.LBB324:
 554              	.LBB325:
 555              	.LBB326:
 556              		.loc 3 548 0
 557 0018 0023     		movs	r3, #0
 558              	@ 548 "/home/maciek/ChibiOS_16.1.5/os/ext/CMSIS/include/core_cmFunc.h" 1
 559 001a 83F31188 		MSR basepri, r3
 560              	@ 0 "" 2
 561              		.thumb
 562 001e 08BD     		pop	{r3, pc}
 563              	.L30:
 564              		.align	2
 565              	.L29:
 566 0020 00000000 		.word	.LANCHOR0
 567              	.LBE326:
 568              	.LBE325:
 569              	.LBE324:
 570              	.LBE323:
ARM GAS  /tmp/ccwmX87R.s 			page 11


 571              	.LBE322:
 572              		.cfi_endproc
 573              	.LFE174:
 574              		.size	thread2, .-thread2
 575              		.section	.text.sem2_execute,"ax",%progbits
 576              		.align	2
 577              		.p2align 4,,15
 578              		.thumb
 579              		.thumb_func
 580              		.type	sem2_execute, %function
 581              	sem2_execute:
 582              	.LFB175:
 583              		.loc 1 143 0
 584              		.cfi_startproc
 585              		@ args = 0, pretend = 0, frame = 0
 586              		@ frame_needed = 0, uses_anonymous_args = 0
 587 0000 F0B5     		push	{r4, r5, r6, r7, lr}
 588              		.cfi_def_cfa_offset 20
 589              		.cfi_offset 4, -20
 590              		.cfi_offset 5, -16
 591              		.cfi_offset 6, -12
 592              		.cfi_offset 7, -8
 593              		.cfi_offset 14, -4
 594              		.loc 1 151 0
 595 0002 4E4C     		ldr	r4, .L39
 596              		.loc 1 143 0
 597 0004 83B0     		sub	sp, sp, #12
 598              		.cfi_def_cfa_offset 32
 599              		.loc 1 151 0
 600 0006 0021     		movs	r1, #0
 601 0008 2046     		mov	r0, r4
 602 000a FFF7FEFF 		bl	chSemWaitTimeout
 603              	.LVL38:
 604              		.loc 1 152 0
 605 000e A0F1FF31 		sub	r1, r0, #-1
 606 0012 B1FA81F1 		clz	r1, r1
 607 0016 0120     		movs	r0, #1
 608              	.LVL39:
 609 0018 4909     		lsrs	r1, r1, #5
 610 001a FFF7FEFF 		bl	_test_assert
 611              	.LVL40:
 612 001e 08B1     		cbz	r0, .L38
 613              	.L31:
 614              		.loc 1 181 0
 615 0020 03B0     		add	sp, sp, #12
 616              		.cfi_remember_state
 617              		.cfi_def_cfa_offset 20
 618              		@ sp needed
 619 0022 F0BD     		pop	{r4, r5, r6, r7, pc}
 620              	.L38:
 621              		.cfi_restore_state
 622              	.LVL41:
 623              	.LBB354:
 624              	.LBB355:
 625              		.file 4 "/home/maciek/ChibiOS_16.1.5/os/rt/include/chschd.h"
 626              		.loc 4 618 0
 627 0024 2168     		ldr	r1, [r4]
ARM GAS  /tmp/ccwmX87R.s 			page 12


 628              	.LBE355:
 629              	.LBE354:
 630              		.loc 1 153 0
 631 0026 0220     		movs	r0, #2
 632 0028 091B     		subs	r1, r1, r4
 633 002a B1FA81F1 		clz	r1, r1
 634 002e 4909     		lsrs	r1, r1, #5
 635 0030 FFF7FEFF 		bl	_test_assert
 636              	.LVL42:
 637 0034 0028     		cmp	r0, #0
 638 0036 F3D1     		bne	.L31
 639              		.loc 1 154 0
 640 0038 A168     		ldr	r1, [r4, #8]
 641 003a 0320     		movs	r0, #3
 642 003c B1FA81F1 		clz	r1, r1
 643 0040 4909     		lsrs	r1, r1, #5
 644 0042 FFF7FEFF 		bl	_test_assert
 645              	.LVL43:
 646 0046 0346     		mov	r3, r0
 647 0048 0028     		cmp	r0, #0
 648 004a E9D1     		bne	.L31
 649              	.LBB356:
 650              	.LBB357:
 651              	.LBB358:
 652              	.LBB359:
 653              	.LBB360:
 654              	.LBB361:
 655              		.loc 2 176 0
 656 004c 3C4D     		ldr	r5, .L39+4
 657              	.LBE361:
 658              	.LBE360:
 659              	.LBE359:
 660              	.LBE358:
 661              		.loc 1 159 0
 662 004e 3D49     		ldr	r1, .L39+8
 663              	.LBB363:
 664              	.LBB362:
 665              		.loc 2 189 0
 666 0050 2A69     		ldr	r2, [r5, #16]
 667              	.LBE362:
 668              	.LBE363:
 669              		.loc 1 159 0
 670 0052 0868     		ldr	r0, [r1]
 671 0054 9268     		ldr	r2, [r2, #8]
 672 0056 4FF4A071 		mov	r1, #320
 673 005a 013A     		subs	r2, r2, #1
 674 005c 0093     		str	r3, [sp]
 675 005e 3A4B     		ldr	r3, .L39+12
 676 0060 FFF7FEFF 		bl	chThdCreateStatic
 677              	.LVL44:
 678 0064 394B     		ldr	r3, .L39+16
 679              		.loc 1 161 0
 680 0066 4FF47A71 		mov	r1, #1000
 681              		.loc 1 159 0
 682 006a 1860     		str	r0, [r3]
 683              		.loc 1 161 0
 684 006c 2046     		mov	r0, r4
ARM GAS  /tmp/ccwmX87R.s 			page 13


 685 006e FFF7FEFF 		bl	chSemWaitTimeout
 686              	.LVL45:
 687 0072 0646     		mov	r6, r0
 688              	.LVL46:
 689              		.loc 1 162 0
 690 0074 FFF7FEFF 		bl	test_wait_threads
 691              	.LVL47:
 692              		.loc 1 163 0
 693 0078 B6FA86F1 		clz	r1, r6
 694 007c 0420     		movs	r0, #4
 695 007e 4909     		lsrs	r1, r1, #5
 696 0080 FFF7FEFF 		bl	_test_assert
 697              	.LVL48:
 698 0084 0028     		cmp	r0, #0
 699 0086 CBD1     		bne	.L31
 700              	.LVL49:
 701              	.LBB364:
 702              	.LBB365:
 703              		.loc 4 618 0
 704 0088 2168     		ldr	r1, [r4]
 705              	.LBE365:
 706              	.LBE364:
 707              		.loc 1 164 0
 708 008a 0520     		movs	r0, #5
 709 008c 091B     		subs	r1, r1, r4
 710 008e B1FA81F1 		clz	r1, r1
 711 0092 4909     		lsrs	r1, r1, #5
 712 0094 FFF7FEFF 		bl	_test_assert
 713              	.LVL50:
 714 0098 0028     		cmp	r0, #0
 715 009a C1D1     		bne	.L31
 716              		.loc 1 165 0
 717 009c A168     		ldr	r1, [r4, #8]
 718 009e 0620     		movs	r0, #6
 719 00a0 B1FA81F1 		clz	r1, r1
 720 00a4 4909     		lsrs	r1, r1, #5
 721 00a6 FFF7FEFF 		bl	_test_assert
 722              	.LVL51:
 723 00aa 0746     		mov	r7, r0
 724 00ac 0028     		cmp	r0, #0
 725 00ae B7D1     		bne	.L31
 726              		.loc 1 170 0
 727 00b0 FFF7FEFF 		bl	test_wait_tick
 728              	.LVL52:
 729              	.LBB366:
 730              	.LBB367:
 731              	.LBB368:
 732              	.LBB369:
 733              	.LBB370:
 734              	.LBB371:
 735              		.loc 3 548 0
 736 00b4 2023     		movs	r3, #32
 737              	@ 548 "/home/maciek/ChibiOS_16.1.5/os/ext/CMSIS/include/core_cmFunc.h" 1
 738 00b6 83F31188 		MSR basepri, r3
 739              	@ 0 "" 2
 740              		.thumb
 741              	.LBE371:
ARM GAS  /tmp/ccwmX87R.s 			page 14


 742              	.LBE370:
 743              	.LBE369:
 744              	.LBE368:
 745              	.LBB372:
 746              	.LBB373:
 747              		.file 5 "/home/maciek/ChibiOS_16.1.5/os/rt/include/chvt.h"
 748              		.loc 5 231 0
 749 00ba EE8B     		ldrh	r6, [r5, #30]
 750              	.LVL53:
 751 00bc B6B2     		uxth	r6, r6
 752              	.LVL54:
 753              	.LBE373:
 754              	.LBE372:
 755              	.LBB374:
 756              	.LBB375:
 757              	.LBB376:
 758              	.LBB377:
 759              	.LBB378:
 760              		.loc 3 548 0
 761              	@ 548 "/home/maciek/ChibiOS_16.1.5/os/ext/CMSIS/include/core_cmFunc.h" 1
 762 00be 87F31188 		MSR basepri, r7
 763              	@ 0 "" 2
 764              	.LVL55:
 765              		.thumb
 766 00c2 4125     		movs	r5, #65
 767              	.LVL56:
 768              	.L35:
 769              	.LBE378:
 770              	.LBE377:
 771              	.LBE376:
 772              	.LBE375:
 773              	.LBE374:
 774              	.LBE367:
 775              	.LBE366:
 776              		.loc 1 173 0
 777 00c4 2846     		mov	r0, r5
 778 00c6 FFF7FEFF 		bl	test_emit_token
 779              	.LVL57:
 780              		.loc 1 174 0
 781 00ca 6421     		movs	r1, #100
 782 00cc 1B48     		ldr	r0, .L39
 783 00ce FFF7FEFF 		bl	chSemWaitTimeout
 784              	.LVL58:
 785              		.loc 1 175 0
 786 00d2 A0F1FF31 		sub	r1, r0, #-1
 787 00d6 B1FA81F1 		clz	r1, r1
 788 00da 0720     		movs	r0, #7
 789              	.LVL59:
 790 00dc 4909     		lsrs	r1, r1, #5
 791 00de FFF7FEFF 		bl	_test_assert
 792              	.LVL60:
 793 00e2 0028     		cmp	r0, #0
 794 00e4 9CD1     		bne	.L31
 795              	.LBB379:
 796              	.LBB380:
 797              		.loc 4 618 0
 798 00e6 2168     		ldr	r1, [r4]
ARM GAS  /tmp/ccwmX87R.s 			page 15


 799              	.LBE380:
 800              	.LBE379:
 801              		.loc 1 176 0
 802 00e8 0820     		movs	r0, #8
 803 00ea 091B     		subs	r1, r1, r4
 804 00ec B1FA81F1 		clz	r1, r1
 805 00f0 4909     		lsrs	r1, r1, #5
 806 00f2 FFF7FEFF 		bl	_test_assert
 807              	.LVL61:
 808 00f6 0028     		cmp	r0, #0
 809 00f8 92D1     		bne	.L31
 810              		.loc 1 177 0
 811 00fa A168     		ldr	r1, [r4, #8]
 812 00fc 0920     		movs	r0, #9
 813 00fe B1FA81F1 		clz	r1, r1
 814 0102 4909     		lsrs	r1, r1, #5
 815 0104 FFF7FEFF 		bl	_test_assert
 816              	.LVL62:
 817 0108 0135     		adds	r5, r5, #1
 818 010a EDB2     		uxtb	r5, r5
 819 010c 0028     		cmp	r0, #0
 820 010e 87D1     		bne	.L31
 821              		.loc 1 172 0
 822 0110 462D     		cmp	r5, #70
 823 0112 D7D1     		bne	.L35
 824              		.loc 1 179 0
 825 0114 0A20     		movs	r0, #10
 826 0116 0E49     		ldr	r1, .L39+20
 827 0118 FFF7FEFF 		bl	_test_assert_sequence
 828              	.LVL63:
 829 011c 0028     		cmp	r0, #0
 830 011e 7FF47FAF 		bne	.L31
 831              		.loc 1 171 0
 832 0122 06F5FA71 		add	r1, r6, #500
 833              		.loc 1 180 0
 834 0126 06F5FC72 		add	r2, r6, #504
 835 012a 89B2     		uxth	r1, r1
 836 012c 92B2     		uxth	r2, r2
 837 012e 0B20     		movs	r0, #11
 838              	.LBE357:
 839              	.LBE356:
 840              		.loc 1 181 0
 841 0130 03B0     		add	sp, sp, #12
 842              		.cfi_def_cfa_offset 20
 843              		@ sp needed
 844 0132 BDE8F040 		pop	{r4, r5, r6, r7, lr}
 845              		.cfi_restore 14
 846              		.cfi_restore 7
 847              		.cfi_restore 6
 848              		.cfi_restore 5
 849              		.cfi_restore 4
 850              		.cfi_def_cfa_offset 0
 851              	.LVL64:
 852              	.LBB382:
 853              	.LBB381:
 854              		.loc 1 180 0
 855 0136 FFF7FEBF 		b	_test_assert_time_window
ARM GAS  /tmp/ccwmX87R.s 			page 16


 856              	.LVL65:
 857              	.L40:
 858 013a 00BF     		.align	2
 859              	.L39:
 860 013c 00000000 		.word	.LANCHOR0
 861 0140 00000000 		.word	ch
 862 0144 00000000 		.word	wa
 863 0148 00000000 		.word	thread2
 864 014c 00000000 		.word	threads
 865 0150 14000000 		.word	.LC5
 866              	.LBE381:
 867              	.LBE382:
 868              		.cfi_endproc
 869              	.LFE175:
 870              		.size	sem2_execute, .-sem2_execute
 871              		.section	.text.sem3_execute,"ax",%progbits
 872              		.align	2
 873              		.p2align 4,,15
 874              		.thumb
 875              		.thumb_func
 876              		.type	sem3_execute, %function
 877              	sem3_execute:
 878              	.LFB178:
 879              		.loc 1 214 0
 880              		.cfi_startproc
 881              		@ args = 0, pretend = 0, frame = 0
 882              		@ frame_needed = 0, uses_anonymous_args = 0
 883 0000 10B5     		push	{r4, lr}
 884              		.cfi_def_cfa_offset 8
 885              		.cfi_offset 4, -8
 886              		.cfi_offset 14, -4
 887              	.LBB399:
 888              	.LBB400:
 889              	.LBB401:
 890              	.LBB402:
 891              		.loc 2 176 0
 892 0002 204B     		ldr	r3, .L47
 893              	.LBE402:
 894              	.LBE401:
 895              	.LBE400:
 896              	.LBE399:
 897              		.loc 1 216 0
 898 0004 204A     		ldr	r2, .L47+4
 899              	.LBB404:
 900              	.LBB403:
 901              		.loc 2 189 0
 902 0006 1B69     		ldr	r3, [r3, #16]
 903              	.LBE403:
 904              	.LBE404:
 905              		.loc 1 216 0
 906 0008 1068     		ldr	r0, [r2]
 907 000a 9A68     		ldr	r2, [r3, #8]
 908              		.loc 1 214 0
 909 000c 82B0     		sub	sp, sp, #8
 910              		.cfi_def_cfa_offset 16
 911              		.loc 1 216 0
 912 000e 0023     		movs	r3, #0
ARM GAS  /tmp/ccwmX87R.s 			page 17


 913 0010 0132     		adds	r2, r2, #1
 914 0012 0093     		str	r3, [sp]
 915 0014 4FF4A071 		mov	r1, #320
 916 0018 1C4B     		ldr	r3, .L47+8
 917 001a FFF7FEFF 		bl	chThdCreateStatic
 918              	.LVL66:
 919              		.loc 1 217 0
 920 001e 1C4C     		ldr	r4, .L47+12
 921              		.loc 1 216 0
 922 0020 1C4B     		ldr	r3, .L47+16
 923              		.loc 1 217 0
 924 0022 2146     		mov	r1, r4
 925              		.loc 1 216 0
 926 0024 1860     		str	r0, [r3]
 927              		.loc 1 217 0
 928 0026 2046     		mov	r0, r4
 929 0028 FFF7FEFF 		bl	chSemSignalWait
 930              	.LVL67:
 931              	.LBB405:
 932              	.LBB406:
 933              		.loc 4 618 0
 934 002c 2168     		ldr	r1, [r4]
 935              	.LBE406:
 936              	.LBE405:
 937              		.loc 1 218 0
 938 002e 0120     		movs	r0, #1
 939 0030 091B     		subs	r1, r1, r4
 940 0032 B1FA81F1 		clz	r1, r1
 941 0036 4909     		lsrs	r1, r1, #5
 942 0038 FFF7FEFF 		bl	_test_assert
 943              	.LVL68:
 944 003c 08B1     		cbz	r0, .L46
 945              	.L41:
 946              		.loc 1 224 0
 947 003e 02B0     		add	sp, sp, #8
 948              		.cfi_remember_state
 949              		.cfi_def_cfa_offset 8
 950              		@ sp needed
 951 0040 10BD     		pop	{r4, pc}
 952              	.L46:
 953              		.cfi_restore_state
 954              		.loc 1 219 0
 955 0042 A168     		ldr	r1, [r4, #8]
 956 0044 0220     		movs	r0, #2
 957 0046 B1FA81F1 		clz	r1, r1
 958 004a 4909     		lsrs	r1, r1, #5
 959 004c FFF7FEFF 		bl	_test_assert
 960              	.LVL69:
 961 0050 0028     		cmp	r0, #0
 962 0052 F4D1     		bne	.L41
 963              	.LBB407:
 964              	.LBB408:
 965              		.loc 1 221 0
 966 0054 2146     		mov	r1, r4
 967 0056 2046     		mov	r0, r4
 968 0058 FFF7FEFF 		bl	chSemSignalWait
 969              	.LVL70:
ARM GAS  /tmp/ccwmX87R.s 			page 18


 970              	.LBB409:
 971              	.LBB410:
 972              		.loc 4 618 0
 973 005c 2168     		ldr	r1, [r4]
 974              	.LBE410:
 975              	.LBE409:
 976              		.loc 1 222 0
 977 005e 0320     		movs	r0, #3
 978 0060 091B     		subs	r1, r1, r4
 979 0062 B1FA81F1 		clz	r1, r1
 980 0066 4909     		lsrs	r1, r1, #5
 981 0068 FFF7FEFF 		bl	_test_assert
 982              	.LVL71:
 983 006c 0028     		cmp	r0, #0
 984 006e E6D1     		bne	.L41
 985              		.loc 1 223 0
 986 0070 A168     		ldr	r1, [r4, #8]
 987 0072 0420     		movs	r0, #4
 988 0074 B1FA81F1 		clz	r1, r1
 989 0078 4909     		lsrs	r1, r1, #5
 990              	.LBE408:
 991              	.LBE407:
 992              		.loc 1 224 0
 993 007a 02B0     		add	sp, sp, #8
 994              		.cfi_def_cfa_offset 8
 995              		@ sp needed
 996 007c BDE81040 		pop	{r4, lr}
 997              		.cfi_restore 14
 998              		.cfi_restore 4
 999              		.cfi_def_cfa_offset 0
 1000              	.LBB412:
 1001              	.LBB411:
 1002              		.loc 1 223 0
 1003 0080 FFF7FEBF 		b	_test_assert
 1004              	.LVL72:
 1005              	.L48:
 1006              		.align	2
 1007              	.L47:
 1008 0084 00000000 		.word	ch
 1009 0088 00000000 		.word	wa
 1010 008c 00000000 		.word	thread3
 1011 0090 00000000 		.word	.LANCHOR0
 1012 0094 00000000 		.word	threads
 1013              	.LBE411:
 1014              	.LBE412:
 1015              		.cfi_endproc
 1016              	.LFE178:
 1017              		.size	sem3_execute, .-sem3_execute
 1018              		.section	.text.thread4,"ax",%progbits
 1019              		.align	2
 1020              		.p2align 4,,15
 1021              		.thumb
 1022              		.thumb_func
 1023              		.type	thread4, %function
 1024              	thread4:
 1025              	.LFB179:
 1026              		.loc 1 241 0
ARM GAS  /tmp/ccwmX87R.s 			page 19


 1027              		.cfi_startproc
 1028              		@ args = 0, pretend = 0, frame = 0
 1029              		@ frame_needed = 0, uses_anonymous_args = 0
 1030              	.LVL73:
 1031 0000 08B5     		push	{r3, lr}
 1032              		.cfi_def_cfa_offset 8
 1033              		.cfi_offset 3, -8
 1034              		.cfi_offset 14, -4
 1035              	.LBB426:
 1036              	.LBB427:
 1037              	.LBB428:
 1038              	.LBB429:
 1039              	.LBB430:
 1040              	.LBB431:
 1041              		.loc 3 548 0
 1042 0002 2022     		movs	r2, #32
 1043              	@ 548 "/home/maciek/ChibiOS_16.1.5/os/ext/CMSIS/include/core_cmFunc.h" 1
 1044 0004 82F31188 		MSR basepri, r2
 1045              	@ 0 "" 2
 1046              	.LVL74:
 1047              		.thumb
 1048              	.LBE431:
 1049              	.LBE430:
 1050              	.LBE429:
 1051              	.LBE428:
 1052              	.LBB432:
 1053              	.LBB433:
 1054              		.file 6 "/home/maciek/ChibiOS_16.1.5/os/rt/include/chbsem.h"
 1055              		.loc 6 270 0
 1056 0008 8368     		ldr	r3, [r0, #8]
 1057 000a 002B     		cmp	r3, #0
 1058 000c 05DD     		ble	.L52
 1059              	.LBE433:
 1060              	.LBE432:
 1061              		.loc 6 286 0
 1062 000e FFF7FEFF 		bl	chSchRescheduleS
 1063              	.LVL75:
 1064              	.LBB435:
 1065              	.LBB436:
 1066              	.LBB437:
 1067              	.LBB438:
 1068              	.LBB439:
 1069              		.loc 3 548 0
 1070 0012 0023     		movs	r3, #0
 1071              	@ 548 "/home/maciek/ChibiOS_16.1.5/os/ext/CMSIS/include/core_cmFunc.h" 1
 1072 0014 83F31188 		MSR basepri, r3
 1073              	@ 0 "" 2
 1074              		.thumb
 1075 0018 08BD     		pop	{r3, pc}
 1076              	.LVL76:
 1077              	.L52:
 1078              	.LBE439:
 1079              	.LBE438:
 1080              	.LBE437:
 1081              	.LBE436:
 1082              	.LBE435:
 1083              	.LBB444:
ARM GAS  /tmp/ccwmX87R.s 			page 20


 1084              	.LBB434:
 1085              		.loc 6 271 0
 1086 001a FFF7FEFF 		bl	chSemSignalI
 1087              	.LVL77:
 1088              	.LBE434:
 1089              	.LBE444:
 1090              		.loc 6 286 0
 1091 001e FFF7FEFF 		bl	chSchRescheduleS
 1092              	.LVL78:
 1093              	.LBB445:
 1094              	.LBB443:
 1095              	.LBB442:
 1096              	.LBB441:
 1097              	.LBB440:
 1098              		.loc 3 548 0
 1099 0022 0023     		movs	r3, #0
 1100              	@ 548 "/home/maciek/ChibiOS_16.1.5/os/ext/CMSIS/include/core_cmFunc.h" 1
 1101 0024 83F31188 		MSR basepri, r3
 1102              	@ 0 "" 2
 1103              		.thumb
 1104 0028 08BD     		pop	{r3, pc}
 1105              	.LBE440:
 1106              	.LBE441:
 1107              	.LBE442:
 1108              	.LBE443:
 1109              	.LBE445:
 1110              	.LBE427:
 1111              	.LBE426:
 1112              		.cfi_endproc
 1113              	.LFE179:
 1114              		.size	thread4, .-thread4
 1115 002a 00BF     		.section	.text.sem4_execute,"ax",%progbits
 1116              		.align	2
 1117              		.p2align 4,,15
 1118              		.thumb
 1119              		.thumb_func
 1120              		.type	sem4_execute, %function
 1121              	sem4_execute:
 1122              	.LFB180:
 1123              		.loc 1 246 0
 1124              		.cfi_startproc
 1125              		@ args = 0, pretend = 0, frame = 16
 1126              		@ frame_needed = 0, uses_anonymous_args = 0
 1127 0000 70B5     		push	{r4, r5, r6, lr}
 1128              		.cfi_def_cfa_offset 16
 1129              		.cfi_offset 4, -16
 1130              		.cfi_offset 5, -12
 1131              		.cfi_offset 6, -8
 1132              		.cfi_offset 14, -4
 1133 0002 86B0     		sub	sp, sp, #24
 1134              		.cfi_def_cfa_offset 40
 1135              	.LVL79:
 1136              	.LBB574:
 1137              	.LBB575:
 1138              		.loc 6 126 0
 1139 0004 03A8     		add	r0, sp, #12
 1140              	.LVL80:
ARM GAS  /tmp/ccwmX87R.s 			page 21


 1141 0006 0021     		movs	r1, #0
 1142 0008 FFF7FEFF 		bl	chSemObjectInit
 1143              	.LVL81:
 1144              	.LBE575:
 1145              	.LBE574:
 1146              	.LBB576:
 1147              	.LBB577:
 1148              		.loc 6 255 0
 1149 000c 03A8     		add	r0, sp, #12
 1150              	.LVL82:
 1151 000e 0021     		movs	r1, #0
 1152 0010 FFF7FEFF 		bl	chSemReset
 1153              	.LVL83:
 1154              	.LBE577:
 1155              	.LBE576:
 1156              	.LBB578:
 1157              	.LBB579:
 1158              	.LBB580:
 1159              	.LBB581:
 1160              		.loc 3 548 0
 1161 0014 2025     		movs	r5, #32
 1162              	@ 548 "/home/maciek/ChibiOS_16.1.5/os/ext/CMSIS/include/core_cmFunc.h" 1
 1163 0016 85F31188 		MSR basepri, r5
 1164              	@ 0 "" 2
 1165              	.LVL84:
 1166              		.thumb
 1167              	.LBE581:
 1168              	.LBE580:
 1169              	.LBE579:
 1170              	.LBE578:
 1171              	.LBB582:
 1172              	.LBB583:
 1173              		.loc 6 304 0
 1174 001a 0599     		ldr	r1, [sp, #20]
 1175              	.LBE583:
 1176              	.LBE582:
 1177              		.loc 1 252 0
 1178 001c 0120     		movs	r0, #1
 1179 001e 0029     		cmp	r1, #0
 1180 0020 CCBF     		ite	gt
 1181 0022 0021     		movgt	r1, #0
 1182 0024 0121     		movle	r1, #1
 1183 0026 FFF7FEFF 		bl	_test_assert
 1184              	.LVL85:
 1185 002a 0446     		mov	r4, r0
 1186 002c 20B1     		cbz	r0, .L54
 1187              	.LVL86:
 1188              	.LBB584:
 1189              	.LBB585:
 1190              	.LBB586:
 1191              	.LBB587:
 1192              	.LBB588:
 1193              		.loc 3 548 0
 1194 002e 0023     		movs	r3, #0
 1195              	@ 548 "/home/maciek/ChibiOS_16.1.5/os/ext/CMSIS/include/core_cmFunc.h" 1
 1196 0030 83F31188 		MSR basepri, r3
 1197              	@ 0 "" 2
ARM GAS  /tmp/ccwmX87R.s 			page 22


 1198              	.LVL87:
 1199              		.thumb
 1200              	.L53:
 1201              	.LBE588:
 1202              	.LBE587:
 1203              	.LBE586:
 1204              	.LBE585:
 1205              	.LBE584:
 1206              		.loc 1 274 0
 1207 0034 06B0     		add	sp, sp, #24
 1208              		.cfi_remember_state
 1209              		.cfi_def_cfa_offset 16
 1210              		@ sp needed
 1211 0036 70BD     		pop	{r4, r5, r6, pc}
 1212              	.LVL88:
 1213              	.L54:
 1214              		.cfi_restore_state
 1215              	.LBB589:
 1216              	.LBB590:
 1217              	.LBB591:
 1218              	.LBB592:
 1219              	.LBB593:
 1220              		.loc 3 548 0
 1221              	@ 548 "/home/maciek/ChibiOS_16.1.5/os/ext/CMSIS/include/core_cmFunc.h" 1
 1222 0038 80F31188 		MSR basepri, r0
 1223              	@ 0 "" 2
 1224              		.thumb
 1225              	.LBE593:
 1226              	.LBE592:
 1227              	.LBE591:
 1228              	.LBE590:
 1229              	.LBE589:
 1230              	.LBB594:
 1231              	.LBB595:
 1232              	.LBB596:
 1233              	.LBB597:
 1234              		.loc 2 176 0
 1235 003c 3F4B     		ldr	r3, .L71
 1236              	.LBE597:
 1237              	.LBE596:
 1238              	.LBE595:
 1239              	.LBE594:
 1240              		.loc 1 255 0
 1241 003e 404A     		ldr	r2, .L71+4
 1242              	.LBB599:
 1243              	.LBB598:
 1244              		.loc 2 189 0
 1245 0040 1B69     		ldr	r3, [r3, #16]
 1246              	.LBE598:
 1247              	.LBE599:
 1248              		.loc 1 255 0
 1249 0042 1068     		ldr	r0, [r2]
 1250 0044 9A68     		ldr	r2, [r3, #8]
 1251 0046 03AB     		add	r3, sp, #12
 1252              	.LVL89:
 1253 0048 013A     		subs	r2, r2, #1
 1254 004a 0093     		str	r3, [sp]
ARM GAS  /tmp/ccwmX87R.s 			page 23


 1255 004c 4FF4A071 		mov	r1, #320
 1256 0050 3C4B     		ldr	r3, .L71+8
 1257              	.LVL90:
 1258 0052 FFF7FEFF 		bl	chThdCreateStatic
 1259              	.LVL91:
 1260 0056 3C4B     		ldr	r3, .L71+12
 1261 0058 1860     		str	r0, [r3]
 1262              	.LVL92:
 1263              	.LBB600:
 1264              	.LBB601:
 1265              		.loc 6 143 0
 1266 005a 03A8     		add	r0, sp, #12
 1267              	.LVL93:
 1268 005c FFF7FEFF 		bl	chSemWait
 1269              	.LVL94:
 1270              	.LBE601:
 1271              	.LBE600:
 1272              	.LBB602:
 1273              	.LBB603:
 1274              	.LBB604:
 1275              	.LBB605:
 1276              		.loc 3 548 0
 1277              	@ 548 "/home/maciek/ChibiOS_16.1.5/os/ext/CMSIS/include/core_cmFunc.h" 1
 1278 0060 85F31188 		MSR basepri, r5
 1279              	@ 0 "" 2
 1280              	.LVL95:
 1281              		.thumb
 1282              	.LBE605:
 1283              	.LBE604:
 1284              	.LBE603:
 1285              	.LBE602:
 1286              	.LBB606:
 1287              	.LBB607:
 1288              		.loc 6 304 0
 1289 0064 0599     		ldr	r1, [sp, #20]
 1290              	.LBE607:
 1291              	.LBE606:
 1292              		.loc 1 262 0
 1293 0066 0220     		movs	r0, #2
 1294 0068 0029     		cmp	r1, #0
 1295 006a CCBF     		ite	gt
 1296 006c 0021     		movgt	r1, #0
 1297 006e 0121     		movle	r1, #1
 1298 0070 FFF7FEFF 		bl	_test_assert
 1299              	.LVL96:
 1300 0074 18B1     		cbz	r0, .L67
 1301              	.L65:
 1302              	.LVL97:
 1303              	.LBB608:
 1304              	.LBB609:
 1305              	.LBB610:
 1306              	.LBB611:
 1307              	.LBB612:
 1308              		.loc 3 548 0
 1309              	@ 548 "/home/maciek/ChibiOS_16.1.5/os/ext/CMSIS/include/core_cmFunc.h" 1
 1310 0076 84F31188 		MSR basepri, r4
 1311              	@ 0 "" 2
ARM GAS  /tmp/ccwmX87R.s 			page 24


 1312              		.thumb
 1313              	.LBE612:
 1314              	.LBE611:
 1315              	.LBE610:
 1316              	.LBE609:
 1317              	.LBE608:
 1318              		.loc 1 274 0
 1319 007a 06B0     		add	sp, sp, #24
 1320              		.cfi_remember_state
 1321              		.cfi_def_cfa_offset 16
 1322              		@ sp needed
 1323 007c 70BD     		pop	{r4, r5, r6, pc}
 1324              	.LVL98:
 1325              	.L67:
 1326              		.cfi_restore_state
 1327              	.LBB613:
 1328              	.LBB614:
 1329              	.LBB615:
 1330              	.LBB616:
 1331              	.LBB617:
 1332              		.loc 3 548 0
 1333              	@ 548 "/home/maciek/ChibiOS_16.1.5/os/ext/CMSIS/include/core_cmFunc.h" 1
 1334 007e 80F31188 		MSR basepri, r0
 1335              	@ 0 "" 2
 1336              	.LVL99:
 1337              		.thumb
 1338              	.LBE617:
 1339              	.LBE616:
 1340              	.LBE615:
 1341              	.LBE614:
 1342              	.LBE613:
 1343              	.LBB618:
 1344              	.LBB619:
 1345              	.LBB620:
 1346              	.LBB621:
 1347              	.LBB622:
 1348              	.LBB623:
 1349              	@ 548 "/home/maciek/ChibiOS_16.1.5/os/ext/CMSIS/include/core_cmFunc.h" 1
 1350 0082 85F31188 		MSR basepri, r5
 1351              	@ 0 "" 2
 1352              	.LVL100:
 1353              		.thumb
 1354              	.LBE623:
 1355              	.LBE622:
 1356              	.LBE621:
 1357              	.LBE620:
 1358              	.LBB624:
 1359              	.LBB625:
 1360              		.loc 6 270 0
 1361 0086 059B     		ldr	r3, [sp, #20]
 1362 0088 002B     		cmp	r3, #0
 1363 008a 23DD     		ble	.L68
 1364              	.L57:
 1365              	.LBE625:
 1366              	.LBE624:
 1367              		.loc 6 286 0
 1368 008c FFF7FEFF 		bl	chSchRescheduleS
ARM GAS  /tmp/ccwmX87R.s 			page 25


 1369              	.LVL101:
 1370              	.LBB627:
 1371              	.LBB628:
 1372              	.LBB629:
 1373              	.LBB630:
 1374              	.LBB631:
 1375              		.loc 3 548 0
 1376 0090 0024     		movs	r4, #0
 1377              	@ 548 "/home/maciek/ChibiOS_16.1.5/os/ext/CMSIS/include/core_cmFunc.h" 1
 1378 0092 84F31188 		MSR basepri, r4
 1379              	@ 0 "" 2
 1380              	.LVL102:
 1381              		.thumb
 1382              	.LBE631:
 1383              	.LBE630:
 1384              	.LBE629:
 1385              	.LBE628:
 1386              	.LBE627:
 1387              	.LBE619:
 1388              	.LBE618:
 1389              	.LBB634:
 1390              	.LBB635:
 1391              	.LBB636:
 1392              	.LBB637:
 1393 0096 2026     		movs	r6, #32
 1394              	@ 548 "/home/maciek/ChibiOS_16.1.5/os/ext/CMSIS/include/core_cmFunc.h" 1
 1395 0098 86F31188 		MSR basepri, r6
 1396              	@ 0 "" 2
 1397              	.LVL103:
 1398              		.thumb
 1399              	.LBE637:
 1400              	.LBE636:
 1401              	.LBE635:
 1402              	.LBE634:
 1403              		.loc 1 267 0
 1404 009c 0599     		ldr	r1, [sp, #20]
 1405 009e 0320     		movs	r0, #3
 1406 00a0 A142     		cmp	r1, r4
 1407 00a2 D4BF     		ite	le
 1408 00a4 0021     		movle	r1, #0
 1409 00a6 0121     		movgt	r1, #1
 1410 00a8 FFF7FEFF 		bl	_test_assert
 1411              	.LVL104:
 1412 00ac 0546     		mov	r5, r0
 1413 00ae 0028     		cmp	r0, #0
 1414 00b0 E1D1     		bne	.L65
 1415              	.LVL105:
 1416              	.LBB638:
 1417              	.LBB639:
 1418              	.LBB640:
 1419              	.LBB641:
 1420              	.LBB642:
 1421              		.loc 3 548 0
 1422              	@ 548 "/home/maciek/ChibiOS_16.1.5/os/ext/CMSIS/include/core_cmFunc.h" 1
 1423 00b2 80F31188 		MSR basepri, r0
 1424              	@ 0 "" 2
 1425              	.LVL106:
ARM GAS  /tmp/ccwmX87R.s 			page 26


 1426              		.thumb
 1427              	.LBE642:
 1428              	.LBE641:
 1429              	.LBE640:
 1430              	.LBE639:
 1431              	.LBE638:
 1432              	.LBB643:
 1433              	.LBB644:
 1434              	.LBB645:
 1435              	.LBB646:
 1436              	@ 548 "/home/maciek/ChibiOS_16.1.5/os/ext/CMSIS/include/core_cmFunc.h" 1
 1437 00b6 86F31188 		MSR basepri, r6
 1438              	@ 0 "" 2
 1439              	.LVL107:
 1440              		.thumb
 1441              	.LBE646:
 1442              	.LBE645:
 1443              	.LBE644:
 1444              	.LBE643:
 1445              		.loc 1 268 0
 1446 00ba 0599     		ldr	r1, [sp, #20]
 1447 00bc 0420     		movs	r0, #4
 1448 00be A1F10101 		sub	r1, #1
 1449 00c2 B1FA81F1 		clz	r1, r1
 1450 00c6 4909     		lsrs	r1, r1, #5
 1451 00c8 FFF7FEFF 		bl	_test_assert
 1452              	.LVL108:
 1453 00cc 30B1     		cbz	r0, .L69
 1454              	.L66:
 1455              	.LVL109:
 1456              	.LBB647:
 1457              	.LBB648:
 1458              	.LBB649:
 1459              	.LBB650:
 1460              	.LBB651:
 1461              		.loc 3 548 0
 1462              	@ 548 "/home/maciek/ChibiOS_16.1.5/os/ext/CMSIS/include/core_cmFunc.h" 1
 1463 00ce 85F31188 		MSR basepri, r5
 1464              	@ 0 "" 2
 1465              		.thumb
 1466 00d2 AFE7     		b	.L53
 1467              	.LVL110:
 1468              	.L68:
 1469              	.LBE651:
 1470              	.LBE650:
 1471              	.LBE649:
 1472              	.LBE648:
 1473              	.LBE647:
 1474              	.LBB652:
 1475              	.LBB633:
 1476              	.LBB632:
 1477              	.LBB626:
 1478              		.loc 6 271 0
 1479 00d4 03A8     		add	r0, sp, #12
 1480              	.LVL111:
 1481 00d6 FFF7FEFF 		bl	chSemSignalI
 1482              	.LVL112:
ARM GAS  /tmp/ccwmX87R.s 			page 27


 1483 00da D7E7     		b	.L57
 1484              	.LVL113:
 1485              	.L69:
 1486              	.LBE626:
 1487              	.LBE632:
 1488              	.LBE633:
 1489              	.LBE652:
 1490              	.LBB653:
 1491              	.LBB654:
 1492              	.LBB655:
 1493              	.LBB656:
 1494              	.LBB657:
 1495              		.loc 3 548 0
 1496              	@ 548 "/home/maciek/ChibiOS_16.1.5/os/ext/CMSIS/include/core_cmFunc.h" 1
 1497 00dc 80F31188 		MSR basepri, r0
 1498              	@ 0 "" 2
 1499              	.LVL114:
 1500              		.thumb
 1501              	.LBE657:
 1502              	.LBE656:
 1503              	.LBE655:
 1504              	.LBE654:
 1505              	.LBE653:
 1506              	.LBB658:
 1507              	.LBB659:
 1508              	.LBB660:
 1509              	.LBB661:
 1510              	.LBB662:
 1511              	.LBB663:
 1512              	@ 548 "/home/maciek/ChibiOS_16.1.5/os/ext/CMSIS/include/core_cmFunc.h" 1
 1513 00e0 86F31188 		MSR basepri, r6
 1514              	@ 0 "" 2
 1515              	.LVL115:
 1516              		.thumb
 1517              	.LBE663:
 1518              	.LBE662:
 1519              	.LBE661:
 1520              	.LBE660:
 1521              	.LBB664:
 1522              	.LBB665:
 1523              		.loc 6 270 0
 1524 00e4 059B     		ldr	r3, [sp, #20]
 1525 00e6 002B     		cmp	r3, #0
 1526 00e8 24DD     		ble	.L70
 1527              	.L60:
 1528              	.LBE665:
 1529              	.LBE664:
 1530              		.loc 6 286 0
 1531 00ea FFF7FEFF 		bl	chSchRescheduleS
 1532              	.LVL116:
 1533              	.LBB667:
 1534              	.LBB668:
 1535              	.LBB669:
 1536              	.LBB670:
 1537              	.LBB671:
 1538              		.loc 3 548 0
 1539 00ee 0024     		movs	r4, #0
ARM GAS  /tmp/ccwmX87R.s 			page 28


 1540              	@ 548 "/home/maciek/ChibiOS_16.1.5/os/ext/CMSIS/include/core_cmFunc.h" 1
 1541 00f0 84F31188 		MSR basepri, r4
 1542              	@ 0 "" 2
 1543              	.LVL117:
 1544              		.thumb
 1545              	.LBE671:
 1546              	.LBE670:
 1547              	.LBE669:
 1548              	.LBE668:
 1549              	.LBE667:
 1550              	.LBE659:
 1551              	.LBE658:
 1552              	.LBB674:
 1553              	.LBB675:
 1554              	.LBB676:
 1555              	.LBB677:
 1556 00f4 2026     		movs	r6, #32
 1557              	@ 548 "/home/maciek/ChibiOS_16.1.5/os/ext/CMSIS/include/core_cmFunc.h" 1
 1558 00f6 86F31188 		MSR basepri, r6
 1559              	@ 0 "" 2
 1560              	.LVL118:
 1561              		.thumb
 1562              	.LBE677:
 1563              	.LBE676:
 1564              	.LBE675:
 1565              	.LBE674:
 1566              		.loc 1 272 0
 1567 00fa 0599     		ldr	r1, [sp, #20]
 1568 00fc 0320     		movs	r0, #3
 1569 00fe A142     		cmp	r1, r4
 1570 0100 D4BF     		ite	le
 1571 0102 0021     		movle	r1, #0
 1572 0104 0121     		movgt	r1, #1
 1573 0106 FFF7FEFF 		bl	_test_assert
 1574              	.LVL119:
 1575 010a 0546     		mov	r5, r0
 1576 010c 0028     		cmp	r0, #0
 1577 010e B2D1     		bne	.L65
 1578              	.LVL120:
 1579              	.LBB678:
 1580              	.LBB679:
 1581              	.LBB680:
 1582              	.LBB681:
 1583              	.LBB682:
 1584              		.loc 3 548 0
 1585              	@ 548 "/home/maciek/ChibiOS_16.1.5/os/ext/CMSIS/include/core_cmFunc.h" 1
 1586 0110 80F31188 		MSR basepri, r0
 1587              	@ 0 "" 2
 1588              	.LVL121:
 1589              		.thumb
 1590              	.LBE682:
 1591              	.LBE681:
 1592              	.LBE680:
 1593              	.LBE679:
 1594              	.LBE678:
 1595              	.LBB683:
 1596              	.LBB684:
ARM GAS  /tmp/ccwmX87R.s 			page 29


 1597              	.LBB685:
 1598              	.LBB686:
 1599              	@ 548 "/home/maciek/ChibiOS_16.1.5/os/ext/CMSIS/include/core_cmFunc.h" 1
 1600 0114 86F31188 		MSR basepri, r6
 1601              	@ 0 "" 2
 1602              	.LVL122:
 1603              		.thumb
 1604              	.LBE686:
 1605              	.LBE685:
 1606              	.LBE684:
 1607              	.LBE683:
 1608              		.loc 1 273 0
 1609 0118 0599     		ldr	r1, [sp, #20]
 1610 011a 0520     		movs	r0, #5
 1611 011c A1F10101 		sub	r1, #1
 1612 0120 B1FA81F1 		clz	r1, r1
 1613 0124 4909     		lsrs	r1, r1, #5
 1614 0126 FFF7FEFF 		bl	_test_assert
 1615              	.LVL123:
 1616 012a 0028     		cmp	r0, #0
 1617 012c CFD1     		bne	.L66
 1618              	.LVL124:
 1619              	.LBB687:
 1620              	.LBB688:
 1621              	.LBB689:
 1622              	.LBB690:
 1623              	.LBB691:
 1624              		.loc 3 548 0
 1625              	@ 548 "/home/maciek/ChibiOS_16.1.5/os/ext/CMSIS/include/core_cmFunc.h" 1
 1626 012e 80F31188 		MSR basepri, r0
 1627              	@ 0 "" 2
 1628              		.thumb
 1629              	.LBE691:
 1630              	.LBE690:
 1631              	.LBE689:
 1632              	.LBE688:
 1633              	.LBE687:
 1634 0132 7FE7     		b	.L53
 1635              	.LVL125:
 1636              	.L70:
 1637              	.LBB692:
 1638              	.LBB673:
 1639              	.LBB672:
 1640              	.LBB666:
 1641              		.loc 6 271 0
 1642 0134 03A8     		add	r0, sp, #12
 1643              	.LVL126:
 1644 0136 FFF7FEFF 		bl	chSemSignalI
 1645              	.LVL127:
 1646 013a D6E7     		b	.L60
 1647              	.L72:
 1648              		.align	2
 1649              	.L71:
 1650 013c 00000000 		.word	ch
 1651 0140 00000000 		.word	wa
 1652 0144 00000000 		.word	thread4
 1653 0148 00000000 		.word	threads
ARM GAS  /tmp/ccwmX87R.s 			page 30


 1654              	.LBE666:
 1655              	.LBE672:
 1656              	.LBE673:
 1657              	.LBE692:
 1658              		.cfi_endproc
 1659              	.LFE180:
 1660              		.size	sem4_execute, .-sem4_execute
 1661              		.global	patternsem
 1662              		.global	testsem4
 1663              		.global	testsem3
 1664              		.global	testsem2
 1665              		.global	testsem1
 1666              		.section	.rodata.testsem1,"a",%progbits
 1667              		.align	2
 1668              		.type	testsem1, %object
 1669              		.size	testsem1, 16
 1670              	testsem1:
 1671 0000 74000000 		.word	.LC9
 1672 0004 00000000 		.word	sem1_setup
 1673 0008 00000000 		.word	0
 1674 000c 00000000 		.word	sem1_execute
 1675              		.section	.rodata.testsem2,"a",%progbits
 1676              		.align	2
 1677              		.type	testsem2, %object
 1678              		.size	testsem2, 16
 1679              	testsem2:
 1680 0000 60000000 		.word	.LC8
 1681 0004 00000000 		.word	sem2_setup
 1682 0008 00000000 		.word	0
 1683 000c 00000000 		.word	sem2_execute
 1684              		.section	.rodata.testsem3,"a",%progbits
 1685              		.align	2
 1686              		.type	testsem3, %object
 1687              		.size	testsem3, 16
 1688              	testsem3:
 1689 0000 40000000 		.word	.LC7
 1690 0004 00000000 		.word	sem3_setup
 1691 0008 00000000 		.word	0
 1692 000c 00000000 		.word	sem3_execute
 1693              		.section	.rodata.testsem4,"a",%progbits
 1694              		.align	2
 1695              		.type	testsem4, %object
 1696              		.size	testsem4, 16
 1697              	testsem4:
 1698 0000 1C000000 		.word	.LC6
 1699 0004 00000000 		.word	0
 1700 0008 00000000 		.word	0
 1701 000c 00000000 		.word	sem4_execute
 1702              		.section	.data.sem1,"aw",%progbits
 1703              		.align	2
 1704              		.set	.LANCHOR0,. + 0
 1705              		.type	sem1, %object
 1706              		.size	sem1, 12
 1707              	sem1:
 1708 0000 00000000 		.word	sem1
 1709 0004 00000000 		.word	sem1
 1710 0008 00000000 		.word	0
ARM GAS  /tmp/ccwmX87R.s 			page 31


 1711              		.section	.rodata.patternsem,"a",%progbits
 1712              		.align	2
 1713              		.type	patternsem, %object
 1714              		.size	patternsem, 20
 1715              	patternsem:
 1716 0000 00000000 		.word	testsem1
 1717 0004 00000000 		.word	testsem2
 1718 0008 00000000 		.word	testsem3
 1719 000c 00000000 		.word	testsem4
 1720 0010 00000000 		.word	0
 1721              		.section	.rodata.str1.4,"aMS",%progbits,1
 1722              		.align	2
 1723              	.LC0:
 1724 0000 4100     		.ascii	"A\000"
 1725 0002 0000     		.space	2
 1726              	.LC1:
 1727 0004 4200     		.ascii	"B\000"
 1728 0006 0000     		.space	2
 1729              	.LC2:
 1730 0008 4300     		.ascii	"C\000"
 1731 000a 0000     		.space	2
 1732              	.LC3:
 1733 000c 4400     		.ascii	"D\000"
 1734 000e 0000     		.space	2
 1735              	.LC4:
 1736 0010 4500     		.ascii	"E\000"
 1737 0012 0000     		.space	2
 1738              	.LC5:
 1739 0014 41424344 		.ascii	"ABCDE\000"
 1739      4500
 1740 001a 0000     		.space	2
 1741              	.LC6:
 1742 001c 42696E61 		.ascii	"Binary Semaphores, functionality\000"
 1742      72792053 
 1742      656D6170 
 1742      686F7265 
 1742      732C2066 
 1743 003d 000000   		.space	3
 1744              	.LC7:
 1745 0040 53656D61 		.ascii	"Semaphores, atomic signal-wait\000"
 1745      70686F72 
 1745      65732C20 
 1745      61746F6D 
 1745      69632073 
 1746 005f 00       		.space	1
 1747              	.LC8:
 1748 0060 53656D61 		.ascii	"Semaphores, timeout\000"
 1748      70686F72 
 1748      65732C20 
 1748      74696D65 
 1748      6F757400 
 1749              	.LC9:
 1750 0074 53656D61 		.ascii	"Semaphores, enqueuing\000"
 1750      70686F72 
 1750      65732C20 
 1750      656E7175 
 1750      6575696E 
ARM GAS  /tmp/ccwmX87R.s 			page 32


 1751              		.text
 1752              	.Letext0:
 1753              		.file 7 "/opt/stm32/gcc/gcc-arm-none-eabi-4_9-2015q2/lib/gcc/arm-none-eabi/4.9.3/include/stddef.h"
 1754              		.file 8 "/opt/stm32/gcc/gcc-arm-none-eabi-4_9-2015q2/arm-none-eabi/include/machine/_default_types.
 1755              		.file 9 "/opt/stm32/gcc/gcc-arm-none-eabi-4_9-2015q2/arm-none-eabi/include/sys/_stdint.h"
 1756              		.file 10 "/home/maciek/ChibiOS_16.1.5/os/rt/ports/ARMCMx/compilers/GCC/chtypes.h"
 1757              		.file 11 "/home/maciek/ChibiOS_16.1.5/os/rt/include/chsystypes.h"
 1758              		.file 12 "/home/maciek/ChibiOS_16.1.5/os/rt/ports/ARMCMx/chcore.h"
 1759              		.file 13 "/home/maciek/ChibiOS_16.1.5/os/rt/ports/ARMCMx/chcore_v7m.h"
 1760              		.file 14 "/home/maciek/ChibiOS_16.1.5/os/rt/include/chtm.h"
 1761              		.file 15 "/home/maciek/ChibiOS_16.1.5/os/rt/include/chsem.h"
 1762              		.file 16 "/home/maciek/ChibiOS_16.1.5/os/rt/include/chmtx.h"
 1763              		.file 17 "/home/maciek/ChibiOS_16.1.5/test/rt/test.h"
 1764              		.file 18 "/home/maciek/ChibiOS_16.1.5/os/rt/include/chsys.h"
 1765              		.file 19 "/home/maciek/ChibiOS_16.1.5/os/ext/CMSIS/include/core_cm3.h"