ARM GAS  /tmp/cc9KTR2J.s 			page 1


   1              		.syntax unified
   2              		.cpu cortex-m3
   3              		.fpu softvfp
   4              		.eabi_attribute 20, 1
   5              		.eabi_attribute 21, 1
   6              		.eabi_attribute 23, 3
   7              		.eabi_attribute 24, 1
   8              		.eabi_attribute 25, 1
   9              		.eabi_attribute 26, 1
  10              		.eabi_attribute 30, 2
  11              		.eabi_attribute 34, 1
  12              		.eabi_attribute 18, 4
  13              		.thumb
  14              		.file	"testqueues.c"
  15              		.text
  16              	.Ltext0:
  17              		.cfi_sections	.debug_frame
  18              		.section	.text.notify,"ax",%progbits
  19              		.align	2
  20              		.p2align 4,,15
  21              		.thumb
  22              		.thumb_func
  23              		.type	notify, %function
  24              	notify:
  25              	.LFB170:
  26              		.file 1 "/home/maciek/ChibiOS_16.1.5/test/rt/testqueues.c"
  27              		.loc 1 57 0
  28              		.cfi_startproc
  29              		@ args = 0, pretend = 0, frame = 0
  30              		@ frame_needed = 0, uses_anonymous_args = 0
  31              		@ link register save eliminated.
  32              	.LVL0:
  33 0000 7047     		bx	lr
  34              		.cfi_endproc
  35              	.LFE170:
  36              		.size	notify, .-notify
  37 0002 00BF     		.section	.text.thread1,"ax",%progbits
  38              		.align	2
  39              		.p2align 4,,15
  40              		.thumb
  41              		.thumb_func
  42              		.type	thread1, %function
  43              	thread1:
  44              	.LFB172:
  45              		.loc 1 83 0
  46              		.cfi_startproc
  47              		@ args = 0, pretend = 0, frame = 0
  48              		@ frame_needed = 0, uses_anonymous_args = 0
  49              		@ link register save eliminated.
  50              	.LVL1:
  51              		.loc 1 86 0
  52 0000 0248     		ldr	r0, .L3
  53              	.LVL2:
  54 0002 4FF4C871 		mov	r1, #400
  55 0006 FFF7FEBF 		b	chIQGetTimeout
  56              	.LVL3:
  57              	.L4:
ARM GAS  /tmp/cc9KTR2J.s 			page 2


  58 000a 00BF     		.align	2
  59              	.L3:
  60 000c 00000000 		.word	.LANCHOR0
  61              		.cfi_endproc
  62              	.LFE172:
  63              		.size	thread1, .-thread1
  64              		.section	.text.queues1_setup,"ax",%progbits
  65              		.align	2
  66              		.p2align 4,,15
  67              		.thumb
  68              		.thumb_func
  69              		.type	queues1_setup, %function
  70              	queues1_setup:
  71              	.LFB171:
  72              		.loc 1 78 0
  73              		.cfi_startproc
  74              		@ args = 0, pretend = 0, frame = 0
  75              		@ frame_needed = 0, uses_anonymous_args = 0
  76 0000 00B5     		push	{lr}
  77              		.cfi_def_cfa_offset 4
  78              		.cfi_offset 14, -4
  79              		.loc 1 80 0
  80 0002 064A     		ldr	r2, .L7
  81              		.loc 1 78 0
  82 0004 83B0     		sub	sp, sp, #12
  83              		.cfi_def_cfa_offset 16
  84              		.loc 1 80 0
  85 0006 0023     		movs	r3, #0
  86 0008 1168     		ldr	r1, [r2]
  87 000a 0093     		str	r3, [sp]
  88 000c 0448     		ldr	r0, .L7+4
  89 000e 0422     		movs	r2, #4
  90 0010 044B     		ldr	r3, .L7+8
  91 0012 FFF7FEFF 		bl	chIQObjectInit
  92              	.LVL4:
  93              		.loc 1 81 0
  94 0016 03B0     		add	sp, sp, #12
  95              		.cfi_def_cfa_offset 4
  96              		@ sp needed
  97 0018 5DF804FB 		ldr	pc, [sp], #4
  98              	.L8:
  99              		.align	2
 100              	.L7:
 101 001c 00000000 		.word	wa
 102 0020 00000000 		.word	.LANCHOR0
 103 0024 00000000 		.word	notify
 104              		.cfi_endproc
 105              	.LFE171:
 106              		.size	queues1_setup, .-queues1_setup
 107              		.section	.text.thread2,"ax",%progbits
 108              		.align	2
 109              		.p2align 4,,15
 110              		.thumb
 111              		.thumb_func
 112              		.type	thread2, %function
 113              	thread2:
 114              	.LFB175:
ARM GAS  /tmp/cc9KTR2J.s 			page 3


 115              		.loc 1 169 0
 116              		.cfi_startproc
 117              		@ args = 0, pretend = 0, frame = 0
 118              		@ frame_needed = 0, uses_anonymous_args = 0
 119              		@ link register save eliminated.
 120              	.LVL5:
 121              		.loc 1 172 0
 122 0000 0248     		ldr	r0, .L10
 123              	.LVL6:
 124 0002 0021     		movs	r1, #0
 125 0004 4FF4C872 		mov	r2, #400
 126 0008 FFF7FEBF 		b	chOQPutTimeout
 127              	.LVL7:
 128              	.L11:
 129              		.align	2
 130              	.L10:
 131 000c 00000000 		.word	.LANCHOR1
 132              		.cfi_endproc
 133              	.LFE175:
 134              		.size	thread2, .-thread2
 135              		.section	.text.queues2_setup,"ax",%progbits
 136              		.align	2
 137              		.p2align 4,,15
 138              		.thumb
 139              		.thumb_func
 140              		.type	queues2_setup, %function
 141              	queues2_setup:
 142              	.LFB174:
 143              		.loc 1 164 0
 144              		.cfi_startproc
 145              		@ args = 0, pretend = 0, frame = 0
 146              		@ frame_needed = 0, uses_anonymous_args = 0
 147 0000 00B5     		push	{lr}
 148              		.cfi_def_cfa_offset 4
 149              		.cfi_offset 14, -4
 150              		.loc 1 166 0
 151 0002 064A     		ldr	r2, .L14
 152              		.loc 1 164 0
 153 0004 83B0     		sub	sp, sp, #12
 154              		.cfi_def_cfa_offset 16
 155              		.loc 1 166 0
 156 0006 0023     		movs	r3, #0
 157 0008 1168     		ldr	r1, [r2]
 158 000a 0093     		str	r3, [sp]
 159 000c 0448     		ldr	r0, .L14+4
 160 000e 0422     		movs	r2, #4
 161 0010 044B     		ldr	r3, .L14+8
 162 0012 FFF7FEFF 		bl	chOQObjectInit
 163              	.LVL8:
 164              		.loc 1 167 0
 165 0016 03B0     		add	sp, sp, #12
 166              		.cfi_def_cfa_offset 4
 167              		@ sp needed
 168 0018 5DF804FB 		ldr	pc, [sp], #4
 169              	.L15:
 170              		.align	2
 171              	.L14:
ARM GAS  /tmp/cc9KTR2J.s 			page 4


 172 001c 00000000 		.word	wa
 173 0020 00000000 		.word	.LANCHOR1
 174 0024 00000000 		.word	notify
 175              		.cfi_endproc
 176              	.LFE174:
 177              		.size	queues2_setup, .-queues2_setup
 178              		.section	.text.queues1_execute,"ax",%progbits
 179              		.align	2
 180              		.p2align 4,,15
 181              		.thumb
 182              		.thumb_func
 183              		.type	queues1_execute, %function
 184              	queues1_execute:
 185              	.LFB173:
 186              		.loc 1 89 0
 187              		.cfi_startproc
 188              		@ args = 0, pretend = 0, frame = 0
 189              		@ frame_needed = 0, uses_anonymous_args = 0
 190              	.LVL9:
 191 0000 2DE9F041 		push	{r4, r5, r6, r7, r8, lr}
 192              		.cfi_def_cfa_offset 24
 193              		.cfi_offset 4, -24
 194              		.cfi_offset 5, -20
 195              		.cfi_offset 6, -16
 196              		.cfi_offset 7, -12
 197              		.cfi_offset 8, -8
 198              		.cfi_offset 14, -4
 199              	.LBB882:
 200              	.LBB883:
 201              	.LBB884:
 202              	.LBB885:
 203              		.file 2 "/home/maciek/ChibiOS_16.1.5/os/ext/CMSIS/include/core_cmFunc.h"
 204              		.loc 2 548 0
 205 0004 2024     		movs	r4, #32
 206              	.LBE885:
 207              	.LBE884:
 208              	.LBE883:
 209              	.LBE882:
 210              		.loc 1 89 0
 211 0006 82B0     		sub	sp, sp, #8
 212              		.cfi_def_cfa_offset 32
 213              	.LBB889:
 214              	.LBB888:
 215              	.LBB887:
 216              	.LBB886:
 217              		.loc 2 548 0
 218              	@ 548 "/home/maciek/ChibiOS_16.1.5/os/ext/CMSIS/include/core_cmFunc.h" 1
 219 0008 84F31188 		MSR basepri, r4
 220              	@ 0 "" 2
 221              	.LVL10:
 222              		.thumb
 223              	.LBE886:
 224              	.LBE887:
 225              	.LBE888:
 226              	.LBE889:
 227              	.LBB890:
 228              	.LBB891:
ARM GAS  /tmp/cc9KTR2J.s 			page 5


 229              		.file 3 "/home/maciek/ChibiOS_16.1.5/os/rt/include/chqueues.h"
 230              		.loc 3 307 0
 231 000c 904B     		ldr	r3, .L45
 232              	.LBE891:
 233              	.LBE890:
 234              		.loc 1 94 0
 235 000e 0120     		movs	r0, #1
 236              	.LBB893:
 237              	.LBB892:
 238              		.loc 3 307 0
 239 0010 9968     		ldr	r1, [r3, #8]
 240              	.LBE892:
 241              	.LBE893:
 242              		.loc 1 94 0
 243 0012 B1FA81F1 		clz	r1, r1
 244 0016 4909     		lsrs	r1, r1, #5
 245 0018 FFF7FEFF 		bl	_test_assert
 246              	.LVL11:
 247 001c 0646     		mov	r6, r0
 248 001e E8B9     		cbnz	r0, .L39
 249              	.LVL12:
 250              	.LBB894:
 251              	.LBB895:
 252              	.LBB896:
 253              	.LBB897:
 254              	.LBB898:
 255              		.loc 2 548 0
 256              	@ 548 "/home/maciek/ChibiOS_16.1.5/os/ext/CMSIS/include/core_cmFunc.h" 1
 257 0020 80F31188 		MSR basepri, r0
 258              	@ 0 "" 2
 259              	.LVL13:
 260              		.thumb
 261              	.LBE898:
 262              	.LBE897:
 263              	.LBE896:
 264              	.LBE895:
 265              	.LBE894:
 266              	.LBB899:
 267              	.LBB900:
 268              	.LBB901:
 269              	.LBB902:
 270              	@ 548 "/home/maciek/ChibiOS_16.1.5/os/ext/CMSIS/include/core_cmFunc.h" 1
 271 0024 84F31188 		MSR basepri, r4
 272              	@ 0 "" 2
 273              	.LVL14:
 274              		.thumb
 275 0028 4124     		movs	r4, #65
 276              	.LVL15:
 277              	.L19:
 278              	.LBE902:
 279              	.LBE901:
 280              	.LBE900:
 281              	.LBE899:
 282              		.loc 1 99 0 discriminator 3
 283 002a 894D     		ldr	r5, .L45
 284 002c 2146     		mov	r1, r4
 285 002e 0134     		adds	r4, r4, #1
ARM GAS  /tmp/cc9KTR2J.s 			page 6


 286 0030 2846     		mov	r0, r5
 287 0032 E4B2     		uxtb	r4, r4
 288 0034 FFF7FEFF 		bl	chIQPutI
 289              	.LVL16:
 290              		.loc 1 98 0 discriminator 3
 291 0038 452C     		cmp	r4, #69
 292 003a F6D1     		bne	.L19
 293              	.LVL17:
 294              	.LBB903:
 295              	.LBB904:
 296              	.LBB905:
 297              	.LBB906:
 298              	.LBB907:
 299              		.loc 2 548 0
 300 003c 0023     		movs	r3, #0
 301              	@ 548 "/home/maciek/ChibiOS_16.1.5/os/ext/CMSIS/include/core_cmFunc.h" 1
 302 003e 83F31188 		MSR basepri, r3
 303              	@ 0 "" 2
 304              	.LVL18:
 305              		.thumb
 306              	.LBE907:
 307              	.LBE906:
 308              	.LBE905:
 309              	.LBE904:
 310              	.LBE903:
 311              	.LBB908:
 312              	.LBB909:
 313              	.LBB910:
 314              	.LBB911:
 315 0042 2023     		movs	r3, #32
 316              	@ 548 "/home/maciek/ChibiOS_16.1.5/os/ext/CMSIS/include/core_cmFunc.h" 1
 317 0044 83F31188 		MSR basepri, r3
 318              	@ 0 "" 2
 319              	.LVL19:
 320              		.thumb
 321              	.LBE911:
 322              	.LBE910:
 323              	.LBE909:
 324              	.LBE908:
 325              	.LBB912:
 326              	.LBB913:
 327              		.loc 3 325 0
 328 0048 AA69     		ldr	r2, [r5, #24]
 329 004a 6B69     		ldr	r3, [r5, #20]
 330 004c 9A42     		cmp	r2, r3
 331 004e 3AD0     		beq	.L42
 332              	.L20:
 333              	.LBE913:
 334              	.LBE912:
 335              		.loc 1 101 0
 336 0050 3146     		mov	r1, r6
 337 0052 0220     		movs	r0, #2
 338 0054 FFF7FEFF 		bl	_test_assert
 339              	.LVL20:
 340 0058 0446     		mov	r4, r0
 341 005a 28B1     		cbz	r0, .L21
 342              	.LVL21:
ARM GAS  /tmp/cc9KTR2J.s 			page 7


 343              	.L39:
 344              	.LBB915:
 345              	.LBB916:
 346              	.LBB917:
 347              	.LBB918:
 348              	.LBB919:
 349              		.loc 2 548 0
 350 005c 0023     		movs	r3, #0
 351              	@ 548 "/home/maciek/ChibiOS_16.1.5/os/ext/CMSIS/include/core_cmFunc.h" 1
 352 005e 83F31188 		MSR basepri, r3
 353              	@ 0 "" 2
 354              	.LVL22:
 355              		.thumb
 356              	.L16:
 357              	.LBE919:
 358              	.LBE918:
 359              	.LBE917:
 360              	.LBE916:
 361              	.LBE915:
 362              		.loc 1 146 0
 363 0062 02B0     		add	sp, sp, #8
 364              		.cfi_remember_state
 365              		.cfi_def_cfa_offset 24
 366              		@ sp needed
 367 0064 BDE8F081 		pop	{r4, r5, r6, r7, r8, pc}
 368              	.LVL23:
 369              	.L21:
 370              		.cfi_restore_state
 371              	.LBB920:
 372              	.LBB921:
 373              	.LBB922:
 374              	.LBB923:
 375              	.LBB924:
 376              	.LBB925:
 377              	.LBB926:
 378              		.loc 2 548 0
 379              	@ 548 "/home/maciek/ChibiOS_16.1.5/os/ext/CMSIS/include/core_cmFunc.h" 1
 380 0068 80F31188 		MSR basepri, r0
 381              	@ 0 "" 2
 382              	.LVL24:
 383              		.thumb
 384              	.LBE926:
 385              	.LBE925:
 386              	.LBE924:
 387              	.LBE923:
 388              	.LBE922:
 389              	.LBB927:
 390              	.LBB928:
 391              	.LBB929:
 392              	.LBB930:
 393 006c 2023     		movs	r3, #32
 394              	@ 548 "/home/maciek/ChibiOS_16.1.5/os/ext/CMSIS/include/core_cmFunc.h" 1
 395 006e 83F31188 		MSR basepri, r3
 396              	@ 0 "" 2
 397              		.thumb
 398              	.LBE930:
 399              	.LBE929:
ARM GAS  /tmp/cc9KTR2J.s 			page 8


 400              	.LBE928:
 401              	.LBE927:
 402              		.loc 1 102 0
 403 0072 7748     		ldr	r0, .L45
 404 0074 2146     		mov	r1, r4
 405 0076 FFF7FEFF 		bl	chIQPutI
 406              	.LVL25:
 407 007a 0430     		adds	r0, r0, #4
 408 007c 14BF     		ite	ne
 409 007e 0021     		movne	r1, #0
 410 0080 0121     		moveq	r1, #1
 411 0082 0320     		movs	r0, #3
 412 0084 FFF7FEFF 		bl	_test_assert
 413              	.LVL26:
 414 0088 C0B9     		cbnz	r0, .L40
 415              	.LVL27:
 416              	.LBB931:
 417              	.LBB932:
 418              	.LBB933:
 419              	.LBB934:
 420              	.LBB935:
 421              		.loc 2 548 0
 422              	@ 548 "/home/maciek/ChibiOS_16.1.5/os/ext/CMSIS/include/core_cmFunc.h" 1
 423 008a 80F31188 		MSR basepri, r0
 424              	@ 0 "" 2
 425              	.LVL28:
 426              		.thumb
 427 008e 0424     		movs	r4, #4
 428              	.LVL29:
 429              	.L23:
 430              	.LBE935:
 431              	.LBE934:
 432              	.LBE933:
 433              	.LBE932:
 434              	.LBE931:
 435              	.LBB936:
 436              	.LBB937:
 437              		.loc 3 343 0
 438 0090 6F4D     		ldr	r5, .L45
 439 0092 4FF6FF71 		movw	r1, #65535
 440 0096 2846     		mov	r0, r5
 441 0098 FFF7FEFF 		bl	chIQGetTimeout
 442              	.LVL30:
 443              	.LBE937:
 444              	.LBE936:
 445              		.loc 1 106 0
 446 009c C0B2     		uxtb	r0, r0
 447 009e FFF7FEFF 		bl	test_emit_token
 448              	.LVL31:
 449              		.loc 1 105 0
 450 00a2 013C     		subs	r4, r4, #1
 451              	.LVL32:
 452 00a4 F4D1     		bne	.L23
 453              	.LVL33:
 454              	.LBB938:
 455              	.LBB939:
 456              	.LBB940:
ARM GAS  /tmp/cc9KTR2J.s 			page 9


 457              	.LBB941:
 458              		.loc 2 548 0
 459 00a6 2026     		movs	r6, #32
 460              	@ 548 "/home/maciek/ChibiOS_16.1.5/os/ext/CMSIS/include/core_cmFunc.h" 1
 461 00a8 86F31188 		MSR basepri, r6
 462              	@ 0 "" 2
 463              	.LVL34:
 464              		.thumb
 465              	.LBE941:
 466              	.LBE940:
 467              	.LBE939:
 468              	.LBE938:
 469              	.LBB942:
 470              	.LBB943:
 471              		.loc 3 307 0
 472 00ac A968     		ldr	r1, [r5, #8]
 473              	.LBE943:
 474              	.LBE942:
 475              		.loc 1 107 0
 476 00ae 0420     		movs	r0, #4
 477 00b0 B1FA81F1 		clz	r1, r1
 478 00b4 4909     		lsrs	r1, r1, #5
 479 00b6 FFF7FEFF 		bl	_test_assert
 480              	.LVL35:
 481 00ba 48B1     		cbz	r0, .L43
 482              	.LVL36:
 483              	.L40:
 484              	.LBB944:
 485              	.LBB945:
 486              	.LBB946:
 487              	.LBB947:
 488              	.LBB948:
 489              		.loc 2 548 0
 490              	@ 548 "/home/maciek/ChibiOS_16.1.5/os/ext/CMSIS/include/core_cmFunc.h" 1
 491 00bc 84F31188 		MSR basepri, r4
 492              	@ 0 "" 2
 493              		.thumb
 494              	.LBE948:
 495              	.LBE947:
 496              	.LBE946:
 497              	.LBE945:
 498              	.LBE944:
 499              	.LBE921:
 500              	.LBE920:
 501              		.loc 1 146 0
 502 00c0 02B0     		add	sp, sp, #8
 503              		.cfi_remember_state
 504              		.cfi_def_cfa_offset 24
 505              		@ sp needed
 506 00c2 BDE8F081 		pop	{r4, r5, r6, r7, r8, pc}
 507              	.LVL37:
 508              	.L42:
 509              		.cfi_restore_state
 510              	.LBB1038:
 511              	.LBB914:
 512              		.loc 3 325 0
 513 00c6 AE68     		ldr	r6, [r5, #8]
ARM GAS  /tmp/cc9KTR2J.s 			page 10


 514 00c8 0036     		adds	r6, r6, #0
 515 00ca 18BF     		it	ne
 516 00cc 0126     		movne	r6, #1
 517 00ce BFE7     		b	.L20
 518              	.LVL38:
 519              	.L43:
 520              	.LBE914:
 521              	.LBE1038:
 522              	.LBB1039:
 523              	.LBB1036:
 524              	.LBB949:
 525              	.LBB950:
 526              	.LBB951:
 527              	.LBB952:
 528              	.LBB953:
 529              		.loc 2 548 0
 530              	@ 548 "/home/maciek/ChibiOS_16.1.5/os/ext/CMSIS/include/core_cmFunc.h" 1
 531 00d0 84F31188 		MSR basepri, r4
 532              	@ 0 "" 2
 533              		.thumb
 534              	.LBE953:
 535              	.LBE952:
 536              	.LBE951:
 537              	.LBE950:
 538              	.LBE949:
 539              		.loc 1 108 0
 540 00d4 0520     		movs	r0, #5
 541 00d6 5F49     		ldr	r1, .L45+4
 542 00d8 FFF7FEFF 		bl	_test_assert_sequence
 543              	.LVL39:
 544 00dc 0028     		cmp	r0, #0
 545 00de C0D1     		bne	.L16
 546              	.LVL40:
 547              	.LBB954:
 548              	.LBB955:
 549              	.LBB956:
 550              	.LBB957:
 551              		.loc 2 548 0
 552              	@ 548 "/home/maciek/ChibiOS_16.1.5/os/ext/CMSIS/include/core_cmFunc.h" 1
 553 00e0 86F31188 		MSR basepri, r6
 554              	@ 0 "" 2
 555              	.LVL41:
 556              		.thumb
 557 00e4 4124     		movs	r4, #65
 558              	.LVL42:
 559              	.L26:
 560              	.LBE957:
 561              	.LBE956:
 562              	.LBE955:
 563              	.LBE954:
 564              		.loc 1 113 0
 565 00e6 5A4D     		ldr	r5, .L45
 566 00e8 2146     		mov	r1, r4
 567 00ea 0134     		adds	r4, r4, #1
 568 00ec 2846     		mov	r0, r5
 569 00ee E4B2     		uxtb	r4, r4
 570 00f0 FFF7FEFF 		bl	chIQPutI
ARM GAS  /tmp/cc9KTR2J.s 			page 11


 571              	.LVL43:
 572              		.loc 1 112 0
 573 00f4 452C     		cmp	r4, #69
 574 00f6 F6D1     		bne	.L26
 575              	.LVL44:
 576              	.LBB958:
 577              	.LBB959:
 578              	.LBB960:
 579              	.LBB961:
 580              	.LBB962:
 581              		.loc 2 548 0
 582 00f8 0023     		movs	r3, #0
 583              	@ 548 "/home/maciek/ChibiOS_16.1.5/os/ext/CMSIS/include/core_cmFunc.h" 1
 584 00fa 83F31188 		MSR basepri, r3
 585              	@ 0 "" 2
 586              		.thumb
 587              	.LBE962:
 588              	.LBE961:
 589              	.LBE960:
 590              	.LBE959:
 591              	.LBE958:
 592              		.loc 1 117 0
 593 00fe 564E     		ldr	r6, .L45+8
 594 0100 0822     		movs	r2, #8
 595 0102 7168     		ldr	r1, [r6, #4]
 596 0104 2846     		mov	r0, r5
 597 0106 FFF7FEFF 		bl	chIQReadTimeout
 598              	.LVL45:
 599              		.loc 1 118 0
 600 010a A0F10401 		sub	r1, r0, #4
 601 010e B1FA81F1 		clz	r1, r1
 602 0112 0620     		movs	r0, #6
 603              	.LVL46:
 604 0114 4909     		lsrs	r1, r1, #5
 605 0116 FFF7FEFF 		bl	_test_assert
 606              	.LVL47:
 607 011a 0446     		mov	r4, r0
 608 011c 0028     		cmp	r0, #0
 609 011e A0D1     		bne	.L16
 610              	.LVL48:
 611              	.LBB963:
 612              	.LBB964:
 613              	.LBB965:
 614              	.LBB966:
 615              		.loc 2 548 0
 616 0120 2027     		movs	r7, #32
 617              	@ 548 "/home/maciek/ChibiOS_16.1.5/os/ext/CMSIS/include/core_cmFunc.h" 1
 618 0122 87F31188 		MSR basepri, r7
 619              	@ 0 "" 2
 620              	.LVL49:
 621              		.thumb
 622              	.LBE966:
 623              	.LBE965:
 624              	.LBE964:
 625              	.LBE963:
 626              	.LBB967:
 627              	.LBB968:
ARM GAS  /tmp/cc9KTR2J.s 			page 12


 628              		.loc 3 307 0
 629 0126 A968     		ldr	r1, [r5, #8]
 630              	.LBE968:
 631              	.LBE967:
 632              		.loc 1 119 0
 633 0128 0720     		movs	r0, #7
 634 012a B1FA81F1 		clz	r1, r1
 635 012e 4909     		lsrs	r1, r1, #5
 636 0130 FFF7FEFF 		bl	_test_assert
 637              	.LVL50:
 638 0134 0028     		cmp	r0, #0
 639 0136 C1D1     		bne	.L40
 640              	.LVL51:
 641              	.LBB969:
 642              	.LBB970:
 643              	.LBB971:
 644              	.LBB972:
 645              	.LBB973:
 646              		.loc 2 548 0
 647              	@ 548 "/home/maciek/ChibiOS_16.1.5/os/ext/CMSIS/include/core_cmFunc.h" 1
 648 0138 80F31188 		MSR basepri, r0
 649              	@ 0 "" 2
 650              	.LVL52:
 651              		.thumb
 652              	.LBE973:
 653              	.LBE972:
 654              	.LBE971:
 655              	.LBE970:
 656              	.LBE969:
 657              	.LBB974:
 658              	.LBB975:
 659              	.LBB976:
 660              	.LBB977:
 661              	@ 548 "/home/maciek/ChibiOS_16.1.5/os/ext/CMSIS/include/core_cmFunc.h" 1
 662 013c 87F31188 		MSR basepri, r7
 663              	@ 0 "" 2
 664              	.LVL53:
 665              		.thumb
 666 0140 4124     		movs	r4, #65
 667              	.LVL54:
 668              	.L29:
 669              	.LBE977:
 670              	.LBE976:
 671              	.LBE975:
 672              	.LBE974:
 673              		.loc 1 124 0
 674 0142 434D     		ldr	r5, .L45
 675 0144 2146     		mov	r1, r4
 676 0146 0134     		adds	r4, r4, #1
 677 0148 2846     		mov	r0, r5
 678 014a E4B2     		uxtb	r4, r4
 679 014c FFF7FEFF 		bl	chIQPutI
 680              	.LVL55:
 681              		.loc 1 123 0
 682 0150 452C     		cmp	r4, #69
 683 0152 F6D1     		bne	.L29
 684              	.LVL56:
ARM GAS  /tmp/cc9KTR2J.s 			page 13


 685              	.LBB978:
 686              	.LBB979:
 687              	.LBB980:
 688              	.LBB981:
 689              	.LBB982:
 690              		.loc 2 548 0
 691 0154 0023     		movs	r3, #0
 692              	@ 548 "/home/maciek/ChibiOS_16.1.5/os/ext/CMSIS/include/core_cmFunc.h" 1
 693 0156 83F31188 		MSR basepri, r3
 694              	@ 0 "" 2
 695              		.thumb
 696              	.LBE982:
 697              	.LBE981:
 698              	.LBE980:
 699              	.LBE979:
 700              	.LBE978:
 701              		.loc 1 128 0
 702 015a 7468     		ldr	r4, [r6, #4]
 703 015c 0222     		movs	r2, #2
 704 015e 2146     		mov	r1, r4
 705 0160 2846     		mov	r0, r5
 706 0162 FFF7FEFF 		bl	chIQReadTimeout
 707              	.LVL57:
 708              		.loc 1 129 0
 709 0166 A0F10201 		sub	r1, r0, #2
 710 016a B1FA81F1 		clz	r1, r1
 711 016e 0820     		movs	r0, #8
 712              	.LVL58:
 713 0170 4909     		lsrs	r1, r1, #5
 714 0172 FFF7FEFF 		bl	_test_assert
 715              	.LVL59:
 716              		.loc 1 128 0
 717 0176 DFF8E080 		ldr	r8, .L45+8
 718              		.loc 1 129 0
 719 017a 0028     		cmp	r0, #0
 720 017c 7FF471AF 		bne	.L16
 721              		.loc 1 130 0
 722 0180 0346     		mov	r3, r0
 723 0182 2146     		mov	r1, r4
 724 0184 0222     		movs	r2, #2
 725 0186 2846     		mov	r0, r5
 726 0188 FFF7FEFF 		bl	chIQReadTimeout
 727              	.LVL60:
 728              		.loc 1 131 0
 729 018c A0F10201 		sub	r1, r0, #2
 730 0190 B1FA81F1 		clz	r1, r1
 731 0194 0920     		movs	r0, #9
 732              	.LVL61:
 733 0196 4909     		lsrs	r1, r1, #5
 734 0198 FFF7FEFF 		bl	_test_assert
 735              	.LVL62:
 736 019c 0646     		mov	r6, r0
 737 019e 0028     		cmp	r0, #0
 738 01a0 7FF45FAF 		bne	.L16
 739              	.LVL63:
 740              	.LBB983:
 741              	.LBB984:
ARM GAS  /tmp/cc9KTR2J.s 			page 14


 742              	.LBB985:
 743              	.LBB986:
 744              		.loc 2 548 0
 745 01a4 2027     		movs	r7, #32
 746              	@ 548 "/home/maciek/ChibiOS_16.1.5/os/ext/CMSIS/include/core_cmFunc.h" 1
 747 01a6 87F31188 		MSR basepri, r7
 748              	@ 0 "" 2
 749              	.LVL64:
 750              		.thumb
 751              	.LBE986:
 752              	.LBE985:
 753              	.LBE984:
 754              	.LBE983:
 755              	.LBB987:
 756              	.LBB988:
 757              		.loc 3 307 0
 758 01aa A968     		ldr	r1, [r5, #8]
 759              	.LBE988:
 760              	.LBE987:
 761              		.loc 1 132 0
 762 01ac 0A20     		movs	r0, #10
 763 01ae B1FA81F1 		clz	r1, r1
 764 01b2 4909     		lsrs	r1, r1, #5
 765 01b4 FFF7FEFF 		bl	_test_assert
 766              	.LVL65:
 767 01b8 0446     		mov	r4, r0
 768 01ba 10B1     		cbz	r0, .L44
 769              	.L38:
 770              	.LVL66:
 771              	.LBB989:
 772              	.LBB990:
 773              	.LBB991:
 774              	.LBB992:
 775              	.LBB993:
 776              		.loc 2 548 0
 777              	@ 548 "/home/maciek/ChibiOS_16.1.5/os/ext/CMSIS/include/core_cmFunc.h" 1
 778 01bc 86F31188 		MSR basepri, r6
 779              	@ 0 "" 2
 780              		.thumb
 781 01c0 4FE7     		b	.L16
 782              	.LVL67:
 783              	.L44:
 784              	.LBE993:
 785              	.LBE992:
 786              	.LBE991:
 787              	.LBE990:
 788              	.LBE989:
 789              	.LBB994:
 790              	.LBB995:
 791              	.LBB996:
 792              	.LBB997:
 793              	.LBB998:
 794              	@ 548 "/home/maciek/ChibiOS_16.1.5/os/ext/CMSIS/include/core_cmFunc.h" 1
 795 01c2 80F31188 		MSR basepri, r0
 796              	@ 0 "" 2
 797              	.LVL68:
 798              		.thumb
ARM GAS  /tmp/cc9KTR2J.s 			page 15


 799              	.LBE998:
 800              	.LBE997:
 801              	.LBE996:
 802              	.LBE995:
 803              	.LBE994:
 804              	.LBB999:
 805              	.LBB1000:
 806              	.LBB1001:
 807              	.LBB1002:
 808              	@ 548 "/home/maciek/ChibiOS_16.1.5/os/ext/CMSIS/include/core_cmFunc.h" 1
 809 01c6 87F31188 		MSR basepri, r7
 810              	@ 0 "" 2
 811              		.thumb
 812              	.LBE1002:
 813              	.LBE1001:
 814              	.LBE1000:
 815              	.LBE999:
 816              		.loc 1 136 0
 817 01ca 2146     		mov	r1, r4
 818 01cc 2846     		mov	r0, r5
 819 01ce FFF7FEFF 		bl	chIQPutI
 820              	.LVL69:
 821              		.loc 1 137 0
 822 01d2 2846     		mov	r0, r5
 823 01d4 FFF7FEFF 		bl	chIQResetI
 824              	.LVL70:
 825              	.LBB1003:
 826              	.LBB1004:
 827              	.LBB1005:
 828              	.LBB1006:
 829              	.LBB1007:
 830              		.loc 2 548 0
 831              	@ 548 "/home/maciek/ChibiOS_16.1.5/os/ext/CMSIS/include/core_cmFunc.h" 1
 832 01d8 84F31188 		MSR basepri, r4
 833              	@ 0 "" 2
 834              	.LVL71:
 835              		.thumb
 836              	.LBE1007:
 837              	.LBE1006:
 838              	.LBE1005:
 839              	.LBE1004:
 840              	.LBE1003:
 841              	.LBB1008:
 842              	.LBB1009:
 843              	.LBB1010:
 844              	.LBB1011:
 845              	@ 548 "/home/maciek/ChibiOS_16.1.5/os/ext/CMSIS/include/core_cmFunc.h" 1
 846 01dc 87F31188 		MSR basepri, r7
 847              	@ 0 "" 2
 848              	.LVL72:
 849              		.thumb
 850              	.LBE1011:
 851              	.LBE1010:
 852              	.LBE1009:
 853              	.LBE1008:
 854              	.LBB1012:
 855              	.LBB1013:
ARM GAS  /tmp/cc9KTR2J.s 			page 16


 856              		.loc 3 274 0
 857 01e0 A968     		ldr	r1, [r5, #8]
 858              	.LBE1013:
 859              	.LBE1012:
 860              		.loc 1 139 0
 861 01e2 0B20     		movs	r0, #11
 862 01e4 B1FA81F1 		clz	r1, r1
 863 01e8 4909     		lsrs	r1, r1, #5
 864 01ea FFF7FEFF 		bl	_test_assert
 865              	.LVL73:
 866 01ee 0646     		mov	r6, r0
 867 01f0 0028     		cmp	r0, #0
 868 01f2 7FF463AF 		bne	.L40
 869              	.LVL74:
 870              	.LBB1014:
 871              	.LBB1015:
 872              	.LBB1016:
 873              	.LBB1017:
 874              	.LBB1018:
 875              		.loc 2 548 0
 876              	@ 548 "/home/maciek/ChibiOS_16.1.5/os/ext/CMSIS/include/core_cmFunc.h" 1
 877 01f6 80F31188 		MSR basepri, r0
 878              	@ 0 "" 2
 879              		.thumb
 880              	.LBE1018:
 881              	.LBE1017:
 882              	.LBE1016:
 883              	.LBE1015:
 884              	.LBE1014:
 885              	.LBB1019:
 886              	.LBB1020:
 887              	.LBB1021:
 888              	.LBB1022:
 889              		.file 4 "/home/maciek/ChibiOS_16.1.5/os/rt/include/chthreads.h"
 890              		.loc 4 176 0
 891 01fa 184B     		ldr	r3, .L45+12
 892              	.LBE1022:
 893              	.LBE1021:
 894              	.LBE1020:
 895              	.LBE1019:
 896              		.loc 1 140 0
 897 01fc D8F80000 		ldr	r0, [r8]
 898              	.LBB1024:
 899              	.LBB1023:
 900              		.loc 4 189 0
 901 0200 1B69     		ldr	r3, [r3, #16]
 902              	.LBE1023:
 903              	.LBE1024:
 904              		.loc 1 140 0
 905 0202 4FF4A071 		mov	r1, #320
 906 0206 9A68     		ldr	r2, [r3, #8]
 907 0208 154B     		ldr	r3, .L45+16
 908 020a 0132     		adds	r2, r2, #1
 909 020c 0096     		str	r6, [sp]
 910 020e FFF7FEFF 		bl	chThdCreateStatic
 911              	.LVL75:
 912 0212 144B     		ldr	r3, .L45+20
ARM GAS  /tmp/cc9KTR2J.s 			page 17


 913 0214 1860     		str	r0, [r3]
 914              	.LVL76:
 915              	.LBB1025:
 916              	.LBB1026:
 917              	.LBB1027:
 918              	.LBB1028:
 919              		.loc 2 548 0
 920              	@ 548 "/home/maciek/ChibiOS_16.1.5/os/ext/CMSIS/include/core_cmFunc.h" 1
 921 0216 87F31188 		MSR basepri, r7
 922              	@ 0 "" 2
 923              	.LVL77:
 924              		.thumb
 925              	.LBE1028:
 926              	.LBE1027:
 927              	.LBE1026:
 928              	.LBE1025:
 929              	.LBB1029:
 930              	.LBB1030:
 931              		.loc 3 274 0
 932 021a A968     		ldr	r1, [r5, #8]
 933              	.LBE1030:
 934              	.LBE1029:
 935              		.loc 1 141 0
 936 021c 0C20     		movs	r0, #12
 937 021e B1FA81F1 		clz	r1, r1
 938 0222 4909     		lsrs	r1, r1, #5
 939 0224 FFF7FEFF 		bl	_test_assert
 940              	.LVL78:
 941 0228 0028     		cmp	r0, #0
 942 022a C7D1     		bne	.L38
 943              	.LVL79:
 944              	.LBB1031:
 945              	.LBB1032:
 946              	.LBB1033:
 947              	.LBB1034:
 948              	.LBB1035:
 949              		.loc 2 548 0
 950              	@ 548 "/home/maciek/ChibiOS_16.1.5/os/ext/CMSIS/include/core_cmFunc.h" 1
 951 022c 80F31188 		MSR basepri, r0
 952              	@ 0 "" 2
 953              		.thumb
 954              	.LBE1035:
 955              	.LBE1034:
 956              	.LBE1033:
 957              	.LBE1032:
 958              	.LBE1031:
 959              		.loc 1 142 0
 960 0230 FFF7FEFF 		bl	test_wait_threads
 961              	.LVL80:
 962              		.loc 1 145 0
 963 0234 2846     		mov	r0, r5
 964 0236 0A21     		movs	r1, #10
 965 0238 FFF7FEFF 		bl	chIQGetTimeout
 966              	.LVL81:
 967 023c 431C     		adds	r3, r0, #1
 968 023e 5942     		rsbs	r1, r3, #0
 969 0240 5941     		adcs	r1, r1, r3
ARM GAS  /tmp/cc9KTR2J.s 			page 18


 970 0242 0D20     		movs	r0, #13
 971              	.LBE1036:
 972              	.LBE1039:
 973              		.loc 1 146 0
 974 0244 02B0     		add	sp, sp, #8
 975              		.cfi_def_cfa_offset 24
 976              		@ sp needed
 977 0246 BDE8F041 		pop	{r4, r5, r6, r7, r8, lr}
 978              		.cfi_restore 14
 979              		.cfi_restore 8
 980              		.cfi_restore 7
 981              		.cfi_restore 6
 982              		.cfi_restore 5
 983              		.cfi_restore 4
 984              		.cfi_def_cfa_offset 0
 985              	.LBB1040:
 986              	.LBB1037:
 987              		.loc 1 145 0
 988 024a FFF7FEBF 		b	_test_assert
 989              	.LVL82:
 990              	.L46:
 991 024e 00BF     		.align	2
 992              	.L45:
 993 0250 00000000 		.word	.LANCHOR0
 994 0254 00000000 		.word	.LC0
 995 0258 00000000 		.word	wa
 996 025c 00000000 		.word	ch
 997 0260 00000000 		.word	thread1
 998 0264 00000000 		.word	threads
 999              	.LBE1037:
 1000              	.LBE1040:
 1001              		.cfi_endproc
 1002              	.LFE173:
 1003              		.size	queues1_execute, .-queues1_execute
 1004              		.section	.text.queues2_execute,"ax",%progbits
 1005              		.align	2
 1006              		.p2align 4,,15
 1007              		.thumb
 1008              		.thumb_func
 1009              		.type	queues2_execute, %function
 1010              	queues2_execute:
 1011              	.LFB176:
 1012              		.loc 1 175 0
 1013              		.cfi_startproc
 1014              		@ args = 0, pretend = 0, frame = 0
 1015              		@ frame_needed = 0, uses_anonymous_args = 0
 1016              	.LVL83:
 1017 0000 2DE9F043 		push	{r4, r5, r6, r7, r8, r9, lr}
 1018              		.cfi_def_cfa_offset 28
 1019              		.cfi_offset 4, -28
 1020              		.cfi_offset 5, -24
 1021              		.cfi_offset 6, -20
 1022              		.cfi_offset 7, -16
 1023              		.cfi_offset 8, -12
 1024              		.cfi_offset 9, -8
 1025              		.cfi_offset 14, -4
 1026              	.LBB1223:
ARM GAS  /tmp/cc9KTR2J.s 			page 19


 1027              	.LBB1224:
 1028              	.LBB1225:
 1029              	.LBB1226:
 1030              		.loc 2 548 0
 1031 0004 2023     		movs	r3, #32
 1032              	.LBE1226:
 1033              	.LBE1225:
 1034              	.LBE1224:
 1035              	.LBE1223:
 1036              		.loc 1 175 0
 1037 0006 83B0     		sub	sp, sp, #12
 1038              		.cfi_def_cfa_offset 40
 1039              	.LBB1230:
 1040              	.LBB1229:
 1041              	.LBB1228:
 1042              	.LBB1227:
 1043              		.loc 2 548 0
 1044              	@ 548 "/home/maciek/ChibiOS_16.1.5/os/ext/CMSIS/include/core_cmFunc.h" 1
 1045 0008 83F31188 		MSR basepri, r3
 1046              	@ 0 "" 2
 1047              	.LVL84:
 1048              		.thumb
 1049              	.LBE1227:
 1050              	.LBE1228:
 1051              	.LBE1229:
 1052              	.LBE1230:
 1053              	.LBB1231:
 1054              	.LBB1232:
 1055              		.loc 3 393 0
 1056 000c 854B     		ldr	r3, .L72
 1057 000e 5969     		ldr	r1, [r3, #20]
 1058 0010 9A69     		ldr	r2, [r3, #24]
 1059 0012 9142     		cmp	r1, r2
 1060 0014 5DD0     		beq	.L69
 1061 0016 0021     		movs	r1, #0
 1062              	.L48:
 1063              	.LBE1232:
 1064              	.LBE1231:
 1065              		.loc 1 180 0
 1066 0018 0120     		movs	r0, #1
 1067 001a FFF7FEFF 		bl	_test_assert
 1068              	.LVL85:
 1069 001e B8BB     		cbnz	r0, .L68
 1070              	.LVL86:
 1071              	.LBB1234:
 1072              	.LBB1235:
 1073              	.LBB1236:
 1074              	.LBB1237:
 1075              	.LBB1238:
 1076              		.loc 2 548 0
 1077              	@ 548 "/home/maciek/ChibiOS_16.1.5/os/ext/CMSIS/include/core_cmFunc.h" 1
 1078 0020 80F31188 		MSR basepri, r0
 1079              	@ 0 "" 2
 1080              	.LVL87:
 1081              		.thumb
 1082 0024 4124     		movs	r4, #65
 1083              	.LVL88:
ARM GAS  /tmp/cc9KTR2J.s 			page 20


 1084              	.L51:
 1085              	.LBE1238:
 1086              	.LBE1237:
 1087              	.LBE1236:
 1088              	.LBE1235:
 1089              	.LBE1234:
 1090              	.LBB1239:
 1091              	.LBB1240:
 1092              		.loc 3 430 0 discriminator 3
 1093 0026 7F4D     		ldr	r5, .L72
 1094 0028 2146     		mov	r1, r4
 1095 002a 0134     		adds	r4, r4, #1
 1096              	.LVL89:
 1097 002c 2846     		mov	r0, r5
 1098 002e 4FF6FF72 		movw	r2, #65535
 1099 0032 E4B2     		uxtb	r4, r4
 1100 0034 FFF7FEFF 		bl	chOQPutTimeout
 1101              	.LVL90:
 1102              	.LBE1240:
 1103              	.LBE1239:
 1104              		.loc 1 183 0 discriminator 3
 1105 0038 452C     		cmp	r4, #69
 1106 003a F4D1     		bne	.L51
 1107              	.LVL91:
 1108              	.LBB1241:
 1109              	.LBB1242:
 1110              	.LBB1243:
 1111              	.LBB1244:
 1112              		.loc 2 548 0
 1113 003c 2026     		movs	r6, #32
 1114              	@ 548 "/home/maciek/ChibiOS_16.1.5/os/ext/CMSIS/include/core_cmFunc.h" 1
 1115 003e 86F31188 		MSR basepri, r6
 1116              	@ 0 "" 2
 1117              	.LVL92:
 1118              		.thumb
 1119              	.LBE1244:
 1120              	.LBE1243:
 1121              	.LBE1242:
 1122              	.LBE1241:
 1123              	.LBB1245:
 1124              	.LBB1246:
 1125              		.loc 3 411 0
 1126 0042 A968     		ldr	r1, [r5, #8]
 1127              	.LBE1246:
 1128              	.LBE1245:
 1129              		.loc 1 185 0
 1130 0044 0220     		movs	r0, #2
 1131 0046 B1FA81F1 		clz	r1, r1
 1132 004a 4909     		lsrs	r1, r1, #5
 1133 004c FFF7FEFF 		bl	_test_assert
 1134              	.LVL93:
 1135 0050 0746     		mov	r7, r0
 1136 0052 E8B9     		cbnz	r0, .L68
 1137              	.LVL94:
 1138              	.LBB1247:
 1139              	.LBB1248:
 1140              	.LBB1249:
ARM GAS  /tmp/cc9KTR2J.s 			page 21


 1141              	.LBB1250:
 1142              	.LBB1251:
 1143              	.LBB1252:
 1144              	.LBB1253:
 1145              		.loc 2 548 0
 1146              	@ 548 "/home/maciek/ChibiOS_16.1.5/os/ext/CMSIS/include/core_cmFunc.h" 1
 1147 0054 80F31188 		MSR basepri, r0
 1148              	@ 0 "" 2
 1149              	.LVL95:
 1150              		.thumb
 1151              	.LBE1253:
 1152              	.LBE1252:
 1153              	.LBE1251:
 1154              	.LBE1250:
 1155              	.LBE1249:
 1156              	.LBB1258:
 1157              	.LBB1259:
 1158              	.LBB1260:
 1159              	.LBB1261:
 1160              	.LBB1262:
 1161              	.LBB1263:
 1162 0058 8146     		mov	r9, r0
 1163              	.LBE1263:
 1164              	.LBE1262:
 1165              	.LBE1261:
 1166              	.LBE1260:
 1167              	.LBE1259:
 1168              	.LBE1258:
 1169              	.LBB1273:
 1170              	.LBB1257:
 1171              	.LBB1256:
 1172              	.LBB1255:
 1173              	.LBB1254:
 1174 005a 0424     		movs	r4, #4
 1175              	.LVL96:
 1176              	.L53:
 1177              	.LBE1254:
 1178              	.LBE1255:
 1179              	.LBE1256:
 1180              	.LBE1257:
 1181              	.LBE1273:
 1182              	.LBB1274:
 1183              	.LBB1268:
 1184              	.LBB1269:
 1185              	.LBB1270:
 1186              	.LBB1271:
 1187 005c 4FF02008 		mov	r8, #32
 1188              	@ 548 "/home/maciek/ChibiOS_16.1.5/os/ext/CMSIS/include/core_cmFunc.h" 1
 1189 0060 86F31188 		MSR basepri, r6
 1190              	@ 0 "" 2
 1191              		.thumb
 1192              	.LBE1271:
 1193              	.LBE1270:
 1194              	.LBE1269:
 1195              	.LBE1268:
 1196              		.loc 1 192 0
 1197 0064 6F4D     		ldr	r5, .L72
ARM GAS  /tmp/cc9KTR2J.s 			page 22


 1198 0066 2846     		mov	r0, r5
 1199 0068 FFF7FEFF 		bl	chOQGetI
 1200              	.LVL97:
 1201              	.LBB1272:
 1202              	.LBB1267:
 1203              	.LBB1266:
 1204              	.LBB1265:
 1205              	.LBB1264:
 1206              		.loc 2 548 0
 1207              	@ 548 "/home/maciek/ChibiOS_16.1.5/os/ext/CMSIS/include/core_cmFunc.h" 1
 1208 006c 89F31188 		MSR basepri, r9
 1209              	@ 0 "" 2
 1210              		.thumb
 1211              	.LBE1264:
 1212              	.LBE1265:
 1213              	.LBE1266:
 1214              	.LBE1267:
 1215              	.LBE1272:
 1216              		.loc 1 194 0
 1217 0070 C0B2     		uxtb	r0, r0
 1218 0072 FFF7FEFF 		bl	test_emit_token
 1219              	.LVL98:
 1220              	.LBE1274:
 1221              		.loc 1 188 0
 1222 0076 013C     		subs	r4, r4, #1
 1223              	.LVL99:
 1224 0078 F0D1     		bne	.L53
 1225              	.LVL100:
 1226              	.LBB1275:
 1227              	.LBB1276:
 1228              	.LBB1277:
 1229              	.LBB1278:
 1230              		.loc 2 548 0
 1231              	@ 548 "/home/maciek/ChibiOS_16.1.5/os/ext/CMSIS/include/core_cmFunc.h" 1
 1232 007a 88F31188 		MSR basepri, r8
 1233              	@ 0 "" 2
 1234              	.LVL101:
 1235              		.thumb
 1236              	.LBE1278:
 1237              	.LBE1277:
 1238              	.LBE1276:
 1239              	.LBE1275:
 1240              	.LBB1279:
 1241              	.LBB1280:
 1242              		.loc 3 393 0
 1243 007e 6A69     		ldr	r2, [r5, #20]
 1244 0080 AB69     		ldr	r3, [r5, #24]
 1245 0082 9A42     		cmp	r2, r3
 1246 0084 2AD0     		beq	.L70
 1247              	.L54:
 1248              	.LBE1280:
 1249              	.LBE1279:
 1250              		.loc 1 196 0
 1251 0086 3946     		mov	r1, r7
 1252 0088 0320     		movs	r0, #3
 1253 008a FFF7FEFF 		bl	_test_assert
 1254              	.LVL102:
ARM GAS  /tmp/cc9KTR2J.s 			page 23


 1255 008e 28B1     		cbz	r0, .L71
 1256              	.LVL103:
 1257              	.L68:
 1258              	.LBB1282:
 1259              	.LBB1283:
 1260              	.LBB1284:
 1261              	.LBB1285:
 1262              	.LBB1286:
 1263              		.loc 2 548 0
 1264 0090 0023     		movs	r3, #0
 1265              	@ 548 "/home/maciek/ChibiOS_16.1.5/os/ext/CMSIS/include/core_cmFunc.h" 1
 1266 0092 83F31188 		MSR basepri, r3
 1267              	@ 0 "" 2
 1268              	.LVL104:
 1269              		.thumb
 1270              	.L47:
 1271              	.LBE1286:
 1272              	.LBE1285:
 1273              	.LBE1284:
 1274              	.LBE1283:
 1275              	.LBE1282:
 1276              	.LBE1248:
 1277              	.LBE1247:
 1278              		.loc 1 223 0
 1279 0096 03B0     		add	sp, sp, #12
 1280              		.cfi_remember_state
 1281              		.cfi_def_cfa_offset 28
 1282              		@ sp needed
 1283 0098 BDE8F083 		pop	{r4, r5, r6, r7, r8, r9, pc}
 1284              	.LVL105:
 1285              	.L71:
 1286              		.cfi_restore_state
 1287              	.LBB1384:
 1288              	.LBB1381:
 1289              	.LBB1287:
 1290              	.LBB1288:
 1291              	.LBB1289:
 1292              	.LBB1290:
 1293              	.LBB1291:
 1294              		.loc 2 548 0
 1295              	@ 548 "/home/maciek/ChibiOS_16.1.5/os/ext/CMSIS/include/core_cmFunc.h" 1
 1296 009c 80F31188 		MSR basepri, r0
 1297              	@ 0 "" 2
 1298              		.thumb
 1299              	.LBE1291:
 1300              	.LBE1290:
 1301              	.LBE1289:
 1302              	.LBE1288:
 1303              	.LBE1287:
 1304              		.loc 1 197 0
 1305 00a0 0420     		movs	r0, #4
 1306 00a2 6149     		ldr	r1, .L72+4
 1307 00a4 FFF7FEFF 		bl	_test_assert_sequence
 1308              	.LVL106:
 1309 00a8 0446     		mov	r4, r0
 1310              	.LVL107:
 1311 00aa 0028     		cmp	r0, #0
ARM GAS  /tmp/cc9KTR2J.s 			page 24


 1312 00ac F3D1     		bne	.L47
 1313              	.LVL108:
 1314              	.LBB1292:
 1315              	.LBB1293:
 1316              	.LBB1294:
 1317              	.LBB1295:
 1318              		.loc 2 548 0
 1319 00ae 2026     		movs	r6, #32
 1320              	@ 548 "/home/maciek/ChibiOS_16.1.5/os/ext/CMSIS/include/core_cmFunc.h" 1
 1321 00b0 86F31188 		MSR basepri, r6
 1322              	@ 0 "" 2
 1323              		.thumb
 1324              	.LBE1295:
 1325              	.LBE1294:
 1326              	.LBE1293:
 1327              	.LBE1292:
 1328              		.loc 1 198 0
 1329 00b4 5B4D     		ldr	r5, .L72
 1330 00b6 2846     		mov	r0, r5
 1331 00b8 FFF7FEFF 		bl	chOQGetI
 1332              	.LVL109:
 1333 00bc 0330     		adds	r0, r0, #3
 1334 00be 14BF     		ite	ne
 1335 00c0 0021     		movne	r1, #0
 1336 00c2 0121     		moveq	r1, #1
 1337 00c4 0520     		movs	r0, #5
 1338 00c6 FFF7FEFF 		bl	_test_assert
 1339              	.LVL110:
 1340 00ca 60B1     		cbz	r0, .L57
 1341              	.LVL111:
 1342              	.LBB1296:
 1343              	.LBB1297:
 1344              	.LBB1298:
 1345              	.LBB1299:
 1346              	.LBB1300:
 1347              		.loc 2 548 0
 1348              	@ 548 "/home/maciek/ChibiOS_16.1.5/os/ext/CMSIS/include/core_cmFunc.h" 1
 1349 00cc 84F31188 		MSR basepri, r4
 1350              	@ 0 "" 2
 1351              		.thumb
 1352 00d0 E1E7     		b	.L47
 1353              	.LVL112:
 1354              	.L69:
 1355              	.LBE1300:
 1356              	.LBE1299:
 1357              	.LBE1298:
 1358              	.LBE1297:
 1359              	.LBE1296:
 1360              	.LBE1381:
 1361              	.LBE1384:
 1362              	.LBB1385:
 1363              	.LBB1233:
 1364              		.loc 3 393 0
 1365 00d2 9968     		ldr	r1, [r3, #8]
 1366 00d4 0031     		adds	r1, r1, #0
 1367 00d6 18BF     		it	ne
 1368 00d8 0121     		movne	r1, #1
ARM GAS  /tmp/cc9KTR2J.s 			page 25


 1369 00da 9DE7     		b	.L48
 1370              	.LVL113:
 1371              	.L70:
 1372              	.LBE1233:
 1373              	.LBE1385:
 1374              	.LBB1386:
 1375              	.LBB1382:
 1376              	.LBB1301:
 1377              	.LBB1281:
 1378 00dc AF68     		ldr	r7, [r5, #8]
 1379 00de 0037     		adds	r7, r7, #0
 1380 00e0 18BF     		it	ne
 1381 00e2 0127     		movne	r7, #1
 1382 00e4 CFE7     		b	.L54
 1383              	.LVL114:
 1384              	.L57:
 1385              	.LBE1281:
 1386              	.LBE1301:
 1387              	.LBB1302:
 1388              	.LBB1303:
 1389              	.LBB1304:
 1390              	.LBB1305:
 1391              	.LBB1306:
 1392              		.loc 2 548 0
 1393              	@ 548 "/home/maciek/ChibiOS_16.1.5/os/ext/CMSIS/include/core_cmFunc.h" 1
 1394 00e6 80F31188 		MSR basepri, r0
 1395              	@ 0 "" 2
 1396              		.thumb
 1397              	.LBE1306:
 1398              	.LBE1305:
 1399              	.LBE1304:
 1400              	.LBE1303:
 1401              	.LBE1302:
 1402              		.loc 1 201 0
 1403 00ea 504F     		ldr	r7, .L72+8
 1404 00ec 0346     		mov	r3, r0
 1405 00ee 7C68     		ldr	r4, [r7, #4]
 1406 00f0 0822     		movs	r2, #8
 1407 00f2 2146     		mov	r1, r4
 1408 00f4 2846     		mov	r0, r5
 1409 00f6 FFF7FEFF 		bl	chOQWriteTimeout
 1410              	.LVL115:
 1411              		.loc 1 202 0
 1412 00fa A0F10401 		sub	r1, r0, #4
 1413 00fe B1FA81F1 		clz	r1, r1
 1414 0102 0620     		movs	r0, #6
 1415              	.LVL116:
 1416 0104 4909     		lsrs	r1, r1, #5
 1417 0106 FFF7FEFF 		bl	_test_assert
 1418              	.LVL117:
 1419 010a 8046     		mov	r8, r0
 1420 010c 0028     		cmp	r0, #0
 1421 010e C2D1     		bne	.L47
 1422              	.LVL118:
 1423              	.LBB1307:
 1424              	.LBB1308:
 1425              	.LBB1309:
ARM GAS  /tmp/cc9KTR2J.s 			page 26


 1426              	.LBB1310:
 1427              		.loc 2 548 0
 1428              	@ 548 "/home/maciek/ChibiOS_16.1.5/os/ext/CMSIS/include/core_cmFunc.h" 1
 1429 0110 86F31188 		MSR basepri, r6
 1430              	@ 0 "" 2
 1431              	.LVL119:
 1432              		.thumb
 1433              	.LBE1310:
 1434              	.LBE1309:
 1435              	.LBE1308:
 1436              	.LBE1307:
 1437              	.LBB1311:
 1438              	.LBB1312:
 1439              		.loc 3 411 0
 1440 0114 A968     		ldr	r1, [r5, #8]
 1441              	.LBE1312:
 1442              	.LBE1311:
 1443              		.loc 1 203 0
 1444 0116 0720     		movs	r0, #7
 1445 0118 B1FA81F1 		clz	r1, r1
 1446 011c 4909     		lsrs	r1, r1, #5
 1447 011e FFF7FEFF 		bl	_test_assert
 1448              	.LVL120:
 1449 0122 8146     		mov	r9, r0
 1450 0124 10B1     		cbz	r0, .L59
 1451              	.LVL121:
 1452              	.LBB1313:
 1453              	.LBB1314:
 1454              	.LBB1315:
 1455              	.LBB1316:
 1456              	.LBB1317:
 1457              		.loc 2 548 0
 1458              	@ 548 "/home/maciek/ChibiOS_16.1.5/os/ext/CMSIS/include/core_cmFunc.h" 1
 1459 0126 88F31188 		MSR basepri, r8
 1460              	@ 0 "" 2
 1461              		.thumb
 1462 012a B4E7     		b	.L47
 1463              	.LVL122:
 1464              	.L59:
 1465              	.LBE1317:
 1466              	.LBE1316:
 1467              	.LBE1315:
 1468              	.LBE1314:
 1469              	.LBE1313:
 1470              	.LBB1318:
 1471              	.LBB1319:
 1472              	.LBB1320:
 1473              	.LBB1321:
 1474              	.LBB1322:
 1475              	@ 548 "/home/maciek/ChibiOS_16.1.5/os/ext/CMSIS/include/core_cmFunc.h" 1
 1476 012c 80F31188 		MSR basepri, r0
 1477              	@ 0 "" 2
 1478              		.thumb
 1479              	.LBE1322:
 1480              	.LBE1321:
 1481              	.LBE1320:
 1482              	.LBE1319:
ARM GAS  /tmp/cc9KTR2J.s 			page 27


 1483              	.LBE1318:
 1484              	.LBB1323:
 1485              	.LBB1324:
 1486              	.LBB1325:
 1487              	.LBB1326:
 1488              		.loc 4 176 0
 1489 0130 3F4B     		ldr	r3, .L72+12
 1490              	.LBE1326:
 1491              	.LBE1325:
 1492              	.LBE1324:
 1493              	.LBE1323:
 1494              		.loc 1 204 0
 1495 0132 3868     		ldr	r0, [r7]
 1496              	.LBB1328:
 1497              	.LBB1327:
 1498              		.loc 4 189 0
 1499 0134 1B69     		ldr	r3, [r3, #16]
 1500              	.LBE1327:
 1501              	.LBE1328:
 1502              		.loc 1 204 0
 1503 0136 4FF4A071 		mov	r1, #320
 1504 013a 9A68     		ldr	r2, [r3, #8]
 1505 013c CDF80090 		str	r9, [sp]
 1506 0140 0132     		adds	r2, r2, #1
 1507 0142 3C4B     		ldr	r3, .L72+16
 1508 0144 FFF7FEFF 		bl	chThdCreateStatic
 1509              	.LVL123:
 1510 0148 3B4B     		ldr	r3, .L72+20
 1511 014a 1860     		str	r0, [r3]
 1512              	.LVL124:
 1513              	.LBB1329:
 1514              	.LBB1330:
 1515              	.LBB1331:
 1516              	.LBB1332:
 1517              		.loc 2 548 0
 1518              	@ 548 "/home/maciek/ChibiOS_16.1.5/os/ext/CMSIS/include/core_cmFunc.h" 1
 1519 014c 86F31188 		MSR basepri, r6
 1520              	@ 0 "" 2
 1521              	.LVL125:
 1522              		.thumb
 1523              	.LBE1332:
 1524              	.LBE1331:
 1525              	.LBE1330:
 1526              	.LBE1329:
 1527              	.LBB1333:
 1528              	.LBB1334:
 1529              		.loc 3 359 0
 1530 0150 E968     		ldr	r1, [r5, #12]
 1531 0152 2B69     		ldr	r3, [r5, #16]
 1532 0154 AA68     		ldr	r2, [r5, #8]
 1533 0156 5B1A     		subs	r3, r3, r1
 1534 0158 991A     		subs	r1, r3, r2
 1535              	.LBE1334:
 1536              	.LBE1333:
 1537              		.loc 1 205 0
 1538 015a A1F10401 		sub	r1, #4
 1539 015e B1FA81F1 		clz	r1, r1
ARM GAS  /tmp/cc9KTR2J.s 			page 28


 1540 0162 0820     		movs	r0, #8
 1541 0164 4909     		lsrs	r1, r1, #5
 1542 0166 FFF7FEFF 		bl	_test_assert
 1543              	.LVL126:
 1544 016a 0746     		mov	r7, r0
 1545 016c 10B1     		cbz	r0, .L60
 1546              	.LVL127:
 1547              	.LBB1335:
 1548              	.LBB1336:
 1549              	.LBB1337:
 1550              	.LBB1338:
 1551              	.LBB1339:
 1552              		.loc 2 548 0
 1553              	@ 548 "/home/maciek/ChibiOS_16.1.5/os/ext/CMSIS/include/core_cmFunc.h" 1
 1554 016e 89F31188 		MSR basepri, r9
 1555              	@ 0 "" 2
 1556              		.thumb
 1557 0172 90E7     		b	.L47
 1558              	.LVL128:
 1559              	.L60:
 1560              	.LBE1339:
 1561              	.LBE1338:
 1562              	.LBE1337:
 1563              	.LBE1336:
 1564              	.LBE1335:
 1565              	.LBB1340:
 1566              	.LBB1341:
 1567              	.LBB1342:
 1568              	.LBB1343:
 1569              	.LBB1344:
 1570              	@ 548 "/home/maciek/ChibiOS_16.1.5/os/ext/CMSIS/include/core_cmFunc.h" 1
 1571 0174 80F31188 		MSR basepri, r0
 1572              	@ 0 "" 2
 1573              		.thumb
 1574              	.LBE1344:
 1575              	.LBE1343:
 1576              	.LBE1342:
 1577              	.LBE1341:
 1578              	.LBE1340:
 1579              		.loc 1 206 0
 1580 0178 FFF7FEFF 		bl	test_wait_threads
 1581              	.LVL129:
 1582              	.LBB1345:
 1583              	.LBB1346:
 1584              	.LBB1347:
 1585              	.LBB1348:
 1586              		.loc 2 548 0
 1587              	@ 548 "/home/maciek/ChibiOS_16.1.5/os/ext/CMSIS/include/core_cmFunc.h" 1
 1588 017c 86F31188 		MSR basepri, r6
 1589              	@ 0 "" 2
 1590              		.thumb
 1591              	.LBE1348:
 1592              	.LBE1347:
 1593              	.LBE1346:
 1594              	.LBE1345:
 1595              		.loc 1 210 0
 1596 0180 2846     		mov	r0, r5
ARM GAS  /tmp/cc9KTR2J.s 			page 29


 1597 0182 FFF7FEFF 		bl	chOQResetI
 1598              	.LVL130:
 1599              	.LBB1349:
 1600              	.LBB1350:
 1601              	.LBB1351:
 1602              	.LBB1352:
 1603              	.LBB1353:
 1604              		.loc 2 548 0
 1605              	@ 548 "/home/maciek/ChibiOS_16.1.5/os/ext/CMSIS/include/core_cmFunc.h" 1
 1606 0186 87F31188 		MSR basepri, r7
 1607              	@ 0 "" 2
 1608              	.LVL131:
 1609              		.thumb
 1610              	.LBE1353:
 1611              	.LBE1352:
 1612              	.LBE1351:
 1613              	.LBE1350:
 1614              	.LBE1349:
 1615              	.LBB1354:
 1616              	.LBB1355:
 1617              	.LBB1356:
 1618              	.LBB1357:
 1619              	@ 548 "/home/maciek/ChibiOS_16.1.5/os/ext/CMSIS/include/core_cmFunc.h" 1
 1620 018a 86F31188 		MSR basepri, r6
 1621              	@ 0 "" 2
 1622              	.LVL132:
 1623              		.thumb
 1624              	.LBE1357:
 1625              	.LBE1356:
 1626              	.LBE1355:
 1627              	.LBE1354:
 1628              	.LBB1358:
 1629              	.LBB1359:
 1630              		.loc 3 359 0
 1631 018e 2B69     		ldr	r3, [r5, #16]
 1632 0190 EA68     		ldr	r2, [r5, #12]
 1633 0192 A968     		ldr	r1, [r5, #8]
 1634 0194 9B1A     		subs	r3, r3, r2
 1635              	.LBE1359:
 1636              	.LBE1358:
 1637              		.loc 1 212 0
 1638 0196 591A     		subs	r1, r3, r1
 1639 0198 B1FA81F1 		clz	r1, r1
 1640 019c 0920     		movs	r0, #9
 1641 019e 4909     		lsrs	r1, r1, #5
 1642 01a0 FFF7FEFF 		bl	_test_assert
 1643              	.LVL133:
 1644 01a4 0346     		mov	r3, r0
 1645 01a6 10B1     		cbz	r0, .L61
 1646              	.LVL134:
 1647              	.LBB1360:
 1648              	.LBB1361:
 1649              	.LBB1362:
 1650              	.LBB1363:
 1651              	.LBB1364:
 1652              		.loc 2 548 0
 1653              	@ 548 "/home/maciek/ChibiOS_16.1.5/os/ext/CMSIS/include/core_cmFunc.h" 1
ARM GAS  /tmp/cc9KTR2J.s 			page 30


 1654 01a8 87F31188 		MSR basepri, r7
 1655              	@ 0 "" 2
 1656              		.thumb
 1657 01ac 73E7     		b	.L47
 1658              	.LVL135:
 1659              	.L61:
 1660              	.LBE1364:
 1661              	.LBE1363:
 1662              	.LBE1362:
 1663              	.LBE1361:
 1664              	.LBE1360:
 1665              	.LBB1365:
 1666              	.LBB1366:
 1667              	.LBB1367:
 1668              	.LBB1368:
 1669              	.LBB1369:
 1670              	@ 548 "/home/maciek/ChibiOS_16.1.5/os/ext/CMSIS/include/core_cmFunc.h" 1
 1671 01ae 80F31188 		MSR basepri, r0
 1672              	@ 0 "" 2
 1673              		.thumb
 1674              	.LBE1369:
 1675              	.LBE1368:
 1676              	.LBE1367:
 1677              	.LBE1366:
 1678              	.LBE1365:
 1679              		.loc 1 215 0
 1680 01b2 0222     		movs	r2, #2
 1681 01b4 2146     		mov	r1, r4
 1682 01b6 2846     		mov	r0, r5
 1683 01b8 FFF7FEFF 		bl	chOQWriteTimeout
 1684              	.LVL136:
 1685              		.loc 1 216 0
 1686 01bc 0238     		subs	r0, r0, #2
 1687              	.LVL137:
 1688 01be 4142     		rsbs	r1, r0, #0
 1689 01c0 4141     		adcs	r1, r1, r0
 1690 01c2 0A20     		movs	r0, #10
 1691              	.LVL138:
 1692 01c4 FFF7FEFF 		bl	_test_assert
 1693              	.LVL139:
 1694 01c8 0346     		mov	r3, r0
 1695 01ca 0028     		cmp	r0, #0
 1696 01cc 7FF463AF 		bne	.L47
 1697              		.loc 1 217 0
 1698 01d0 2146     		mov	r1, r4
 1699 01d2 0222     		movs	r2, #2
 1700 01d4 2846     		mov	r0, r5
 1701 01d6 FFF7FEFF 		bl	chOQWriteTimeout
 1702              	.LVL140:
 1703              		.loc 1 218 0
 1704 01da 821E     		subs	r2, r0, #2
 1705 01dc 5142     		rsbs	r1, r2, #0
 1706 01de 5141     		adcs	r1, r1, r2
 1707 01e0 0B20     		movs	r0, #11
 1708              	.LVL141:
 1709 01e2 FFF7FEFF 		bl	_test_assert
 1710              	.LVL142:
ARM GAS  /tmp/cc9KTR2J.s 			page 31


 1711 01e6 0028     		cmp	r0, #0
 1712 01e8 7FF455AF 		bne	.L47
 1713              	.LVL143:
 1714              	.LBB1370:
 1715              	.LBB1371:
 1716              	.LBB1372:
 1717              	.LBB1373:
 1718              		.loc 2 548 0
 1719              	@ 548 "/home/maciek/ChibiOS_16.1.5/os/ext/CMSIS/include/core_cmFunc.h" 1
 1720 01ec 86F31188 		MSR basepri, r6
 1721              	@ 0 "" 2
 1722              	.LVL144:
 1723              		.thumb
 1724              	.LBE1373:
 1725              	.LBE1372:
 1726              	.LBE1371:
 1727              	.LBE1370:
 1728              	.LBB1374:
 1729              	.LBB1375:
 1730              		.loc 3 411 0
 1731 01f0 A968     		ldr	r1, [r5, #8]
 1732              	.LBE1375:
 1733              	.LBE1374:
 1734              		.loc 1 219 0
 1735 01f2 0C20     		movs	r0, #12
 1736 01f4 B1FA81F1 		clz	r1, r1
 1737 01f8 4909     		lsrs	r1, r1, #5
 1738 01fa FFF7FEFF 		bl	_test_assert
 1739              	.LVL145:
 1740 01fe 0028     		cmp	r0, #0
 1741 0200 7FF446AF 		bne	.L68
 1742              	.LVL146:
 1743              	.LBB1376:
 1744              	.LBB1377:
 1745              	.LBB1378:
 1746              	.LBB1379:
 1747              	.LBB1380:
 1748              		.loc 2 548 0
 1749 0204 0021     		movs	r1, #0
 1750              	@ 548 "/home/maciek/ChibiOS_16.1.5/os/ext/CMSIS/include/core_cmFunc.h" 1
 1751 0206 81F31188 		MSR basepri, r1
 1752              	@ 0 "" 2
 1753              		.thumb
 1754              	.LBE1380:
 1755              	.LBE1379:
 1756              	.LBE1378:
 1757              	.LBE1377:
 1758              	.LBE1376:
 1759              		.loc 1 222 0
 1760 020a 0A22     		movs	r2, #10
 1761 020c 0548     		ldr	r0, .L72
 1762 020e FFF7FEFF 		bl	chOQPutTimeout
 1763              	.LVL147:
 1764 0212 431C     		adds	r3, r0, #1
 1765 0214 5942     		rsbs	r1, r3, #0
 1766 0216 5941     		adcs	r1, r1, r3
 1767 0218 0D20     		movs	r0, #13
ARM GAS  /tmp/cc9KTR2J.s 			page 32


 1768              	.LBE1382:
 1769              	.LBE1386:
 1770              		.loc 1 223 0
 1771 021a 03B0     		add	sp, sp, #12
 1772              		.cfi_def_cfa_offset 28
 1773              		@ sp needed
 1774 021c BDE8F043 		pop	{r4, r5, r6, r7, r8, r9, lr}
 1775              		.cfi_restore 14
 1776              		.cfi_restore 9
 1777              		.cfi_restore 8
 1778              		.cfi_restore 7
 1779              		.cfi_restore 6
 1780              		.cfi_restore 5
 1781              		.cfi_restore 4
 1782              		.cfi_def_cfa_offset 0
 1783              	.LBB1387:
 1784              	.LBB1383:
 1785              		.loc 1 222 0
 1786 0220 FFF7FEBF 		b	_test_assert
 1787              	.LVL148:
 1788              	.L73:
 1789              		.align	2
 1790              	.L72:
 1791 0224 00000000 		.word	.LANCHOR1
 1792 0228 00000000 		.word	.LC0
 1793 022c 00000000 		.word	wa
 1794 0230 00000000 		.word	ch
 1795 0234 00000000 		.word	thread2
 1796 0238 00000000 		.word	threads
 1797              	.LBE1383:
 1798              	.LBE1387:
 1799              		.cfi_endproc
 1800              	.LFE176:
 1801              		.size	queues2_execute, .-queues2_execute
 1802              		.global	patternqueues
 1803              		.global	testqueues2
 1804              		.global	testqueues1
 1805              		.section	.rodata.testqueues1,"a",%progbits
 1806              		.align	2
 1807              		.type	testqueues1, %object
 1808              		.size	testqueues1, 16
 1809              	testqueues1:
 1810 0000 20000000 		.word	.LC2
 1811 0004 00000000 		.word	queues1_setup
 1812 0008 00000000 		.word	0
 1813 000c 00000000 		.word	queues1_execute
 1814              		.section	.rodata.testqueues2,"a",%progbits
 1815              		.align	2
 1816              		.type	testqueues2, %object
 1817              		.size	testqueues2, 16
 1818              	testqueues2:
 1819 0000 08000000 		.word	.LC1
 1820 0004 00000000 		.word	queues2_setup
 1821 0008 00000000 		.word	0
 1822 000c 00000000 		.word	queues2_execute
 1823              		.section	.rodata.str1.4,"aMS",%progbits,1
 1824              		.align	2
ARM GAS  /tmp/cc9KTR2J.s 			page 33


 1825              	.LC0:
 1826 0000 41424344 		.ascii	"ABCD\000"
 1826      00
 1827 0005 000000   		.space	3
 1828              	.LC1:
 1829 0008 51756575 		.ascii	"Queues, output queues\000"
 1829      65732C20 
 1829      6F757470 
 1829      75742071 
 1829      75657565 
 1830 001e 0000     		.space	2
 1831              	.LC2:
 1832 0020 51756575 		.ascii	"Queues, input queues\000"
 1832      65732C20 
 1832      696E7075 
 1832      74207175 
 1832      65756573 
 1833              		.section	.rodata.patternqueues,"a",%progbits
 1834              		.align	2
 1835              		.type	patternqueues, %object
 1836              		.size	patternqueues, 12
 1837              	patternqueues:
 1838 0000 00000000 		.word	testqueues1
 1839 0004 00000000 		.word	testqueues2
 1840 0008 00000000 		.word	0
 1841              		.section	.data.oq,"aw",%progbits
 1842              		.align	2
 1843              		.set	.LANCHOR1,. + 0
 1844              		.type	oq, %object
 1845              		.size	oq, 36
 1846              	oq:
 1847 0000 00000000 		.word	oq
 1848 0004 00000000 		.word	oq
 1849 0008 04000000 		.word	4
 1850 000c 40010000 		.word	test+320
 1851 0010 44010000 		.word	test+324
 1852 0014 40010000 		.word	test+320
 1853 0018 40010000 		.word	test+320
 1854 001c 00000000 		.word	notify
 1855 0020 00000000 		.word	0
 1856              		.section	.data.iq,"aw",%progbits
 1857              		.align	2
 1858              		.set	.LANCHOR0,. + 0
 1859              		.type	iq, %object
 1860              		.size	iq, 36
 1861              	iq:
 1862 0000 00000000 		.word	iq
 1863 0004 00000000 		.word	iq
 1864 0008 00000000 		.word	0
 1865 000c 00000000 		.word	test
 1866 0010 04000000 		.word	test+4
 1867 0014 00000000 		.word	test
 1868 0018 00000000 		.word	test
 1869 001c 00000000 		.word	notify
 1870 0020 00000000 		.word	0
 1871              		.text
 1872              	.Letext0:
ARM GAS  /tmp/cc9KTR2J.s 			page 34


 1873              		.file 5 "/opt/stm32/gcc/gcc-arm-none-eabi-4_9-2015q2/lib/gcc/arm-none-eabi/4.9.3/include/stddef.h"
 1874              		.file 6 "/opt/stm32/gcc/gcc-arm-none-eabi-4_9-2015q2/arm-none-eabi/include/machine/_default_types.
 1875              		.file 7 "/opt/stm32/gcc/gcc-arm-none-eabi-4_9-2015q2/arm-none-eabi/include/sys/_stdint.h"
 1876              		.file 8 "/home/maciek/ChibiOS_16.1.5/os/rt/ports/ARMCMx/compilers/GCC/chtypes.h"
 1877              		.file 9 "/home/maciek/ChibiOS_16.1.5/os/rt/include/chsystypes.h"
 1878              		.file 10 "/home/maciek/ChibiOS_16.1.5/os/rt/include/chschd.h"
 1879              		.file 11 "/home/maciek/ChibiOS_16.1.5/os/rt/ports/ARMCMx/chcore.h"
 1880              		.file 12 "/home/maciek/ChibiOS_16.1.5/os/rt/ports/ARMCMx/chcore_v7m.h"
 1881              		.file 13 "/home/maciek/ChibiOS_16.1.5/os/rt/include/chtm.h"
 1882              		.file 14 "/home/maciek/ChibiOS_16.1.5/os/rt/include/chsem.h"
 1883              		.file 15 "/home/maciek/ChibiOS_16.1.5/os/rt/include/chmtx.h"
 1884              		.file 16 "/home/maciek/ChibiOS_16.1.5/test/rt/test.h"
 1885              		.file 17 "/home/maciek/ChibiOS_16.1.5/os/rt/include/chsys.h"
 1886              		.file 18 "/home/maciek/ChibiOS_16.1.5/os/ext/CMSIS/include/core_cm3.h"