ARM GAS  /tmp/ccveT6Xh.s 			page 1


   1              		.syntax unified
   2              		.cpu cortex-m3
   3              		.fpu softvfp
   4              		.eabi_attribute 20, 1
   5              		.eabi_attribute 21, 1
   6              		.eabi_attribute 23, 3
   7              		.eabi_attribute 24, 1
   8              		.eabi_attribute 25, 1
   9              		.eabi_attribute 26, 1
  10              		.eabi_attribute 30, 2
  11              		.eabi_attribute 34, 1
  12              		.eabi_attribute 18, 4
  13              		.thumb
  14              		.file	"testevt.c"
  15              		.text
  16              	.Ltext0:
  17              		.cfi_sections	.debug_frame
  18              		.section	.text.h3,"ax",%progbits
  19              		.align	2
  20              		.p2align 4,,15
  21              		.thumb
  22              		.thumb_func
  23              		.type	h3, %function
  24              	h3:
  25              	.LFB173:
  26              		.file 1 "/home/maciek/ChibiOS_16.1.5/test/rt/testevt.c"
  27              		.loc 1 82 0
  28              		.cfi_startproc
  29              		@ args = 0, pretend = 0, frame = 0
  30              		@ frame_needed = 0, uses_anonymous_args = 0
  31              		@ link register save eliminated.
  32              	.LVL0:
  33              		.loc 1 82 0
  34 0000 4320     		movs	r0, #67
  35              	.LVL1:
  36 0002 FFF7FEBF 		b	test_emit_token
  37              	.LVL2:
  38              		.cfi_endproc
  39              	.LFE173:
  40              		.size	h3, .-h3
  41 0006 00BF     		.section	.text.h2,"ax",%progbits
  42              		.align	2
  43              		.p2align 4,,15
  44              		.thumb
  45              		.thumb_func
  46              		.type	h2, %function
  47              	h2:
  48              	.LFB172:
  49              		.loc 1 81 0
  50              		.cfi_startproc
  51              		@ args = 0, pretend = 0, frame = 0
  52              		@ frame_needed = 0, uses_anonymous_args = 0
  53              		@ link register save eliminated.
  54              	.LVL3:
  55              		.loc 1 81 0
  56 0000 4220     		movs	r0, #66
  57              	.LVL4:
ARM GAS  /tmp/ccveT6Xh.s 			page 2


  58 0002 FFF7FEBF 		b	test_emit_token
  59              	.LVL5:
  60              		.cfi_endproc
  61              	.LFE172:
  62              		.size	h2, .-h2
  63 0006 00BF     		.section	.text.h1,"ax",%progbits
  64              		.align	2
  65              		.p2align 4,,15
  66              		.thumb
  67              		.thumb_func
  68              		.type	h1, %function
  69              	h1:
  70              	.LFB171:
  71              		.loc 1 80 0
  72              		.cfi_startproc
  73              		@ args = 0, pretend = 0, frame = 0
  74              		@ frame_needed = 0, uses_anonymous_args = 0
  75              		@ link register save eliminated.
  76              	.LVL6:
  77              		.loc 1 80 0
  78 0000 4120     		movs	r0, #65
  79              	.LVL7:
  80 0002 FFF7FEBF 		b	test_emit_token
  81              	.LVL8:
  82              		.cfi_endproc
  83              	.LFE171:
  84              		.size	h1, .-h1
  85 0006 00BF     		.section	.text.evt1_execute,"ax",%progbits
  86              		.align	2
  87              		.p2align 4,,15
  88              		.thumb
  89              		.thumb_func
  90              		.type	evt1_execute, %function
  91              	evt1_execute:
  92              	.LFB174:
  93              		.loc 1 85 0
  94              		.cfi_startproc
  95              		@ args = 0, pretend = 0, frame = 40
  96              		@ frame_needed = 0, uses_anonymous_args = 0
  97              	.LVL9:
  98 0000 10B5     		push	{r4, lr}
  99              		.cfi_def_cfa_offset 8
 100              		.cfi_offset 4, -8
 101              		.cfi_offset 14, -4
 102              	.LBB111:
 103              	.LBB112:
 104              		.file 2 "/home/maciek/ChibiOS_16.1.5/os/rt/include/chevents.h"
 105              		.loc 2 172 0
 106 0002 1F4C     		ldr	r4, .L10
 107              	.LBE112:
 108              	.LBE111:
 109              		.loc 1 85 0
 110 0004 8AB0     		sub	sp, sp, #40
 111              		.cfi_def_cfa_offset 48
 112              	.LBB114:
 113              	.LBB115:
 114              		.loc 2 193 0
ARM GAS  /tmp/ccveT6Xh.s 			page 3


 115 0006 2046     		mov	r0, r4
 116 0008 6946     		mov	r1, sp
 117 000a 0122     		movs	r2, #1
 118 000c 4FF0FF33 		mov	r3, #-1
 119              	.LBE115:
 120              	.LBE114:
 121              	.LBB117:
 122              	.LBB113:
 123              		.loc 2 172 0
 124 0010 2460     		str	r4, [r4]
 125              	.LVL10:
 126              	.LBE113:
 127              	.LBE117:
 128              	.LBB118:
 129              	.LBB116:
 130              		.loc 2 193 0
 131 0012 FFF7FEFF 		bl	chEvtRegisterMaskWithFlags
 132              	.LVL11:
 133              	.LBE116:
 134              	.LBE118:
 135              	.LBB119:
 136              	.LBB120:
 137 0016 2046     		mov	r0, r4
 138 0018 05A9     		add	r1, sp, #20
 139              	.LVL12:
 140 001a 0222     		movs	r2, #2
 141 001c 4FF0FF33 		mov	r3, #-1
 142 0020 FFF7FEFF 		bl	chEvtRegisterMaskWithFlags
 143              	.LVL13:
 144              	.LBE120:
 145              	.LBE119:
 146              	.LBB121:
 147              	.LBB122:
 148              		.loc 2 226 0
 149 0024 2168     		ldr	r1, [r4]
 150              	.LBE122:
 151              	.LBE121:
 152              		.loc 1 94 0
 153 0026 0120     		movs	r0, #1
 154 0028 091B     		subs	r1, r1, r4
 155 002a 18BF     		it	ne
 156 002c 0121     		movne	r1, #1
 157 002e FFF7FEFF 		bl	_test_assert
 158              	.LVL14:
 159 0032 08B1     		cbz	r0, .L9
 160              	.L4:
 161              		.loc 1 105 0
 162 0034 0AB0     		add	sp, sp, #40
 163              		.cfi_remember_state
 164              		.cfi_def_cfa_offset 8
 165              	.LVL15:
 166              		@ sp needed
 167 0036 10BD     		pop	{r4, pc}
 168              	.LVL16:
 169              	.L9:
 170              		.cfi_restore_state
 171              		.loc 1 95 0
ARM GAS  /tmp/ccveT6Xh.s 			page 4


 172 0038 6946     		mov	r1, sp
 173 003a 2046     		mov	r0, r4
 174 003c FFF7FEFF 		bl	chEvtUnregister
 175              	.LVL17:
 176              	.LBB123:
 177              	.LBB124:
 178              		.loc 2 226 0
 179 0040 2168     		ldr	r1, [r4]
 180              	.LBE124:
 181              	.LBE123:
 182              		.loc 1 96 0
 183 0042 0220     		movs	r0, #2
 184 0044 091B     		subs	r1, r1, r4
 185 0046 18BF     		it	ne
 186 0048 0121     		movne	r1, #1
 187 004a FFF7FEFF 		bl	_test_assert
 188              	.LVL18:
 189 004e 0028     		cmp	r0, #0
 190 0050 F0D1     		bne	.L4
 191              		.loc 1 97 0
 192 0052 05A9     		add	r1, sp, #20
 193              	.LVL19:
 194 0054 2046     		mov	r0, r4
 195 0056 FFF7FEFF 		bl	chEvtUnregister
 196              	.LVL20:
 197              		.loc 1 98 0
 198 005a 2168     		ldr	r1, [r4]
 199 005c 0320     		movs	r0, #3
 200 005e 091B     		subs	r1, r1, r4
 201 0060 B1FA81F1 		clz	r1, r1
 202 0064 4909     		lsrs	r1, r1, #5
 203 0066 FFF7FEFF 		bl	_test_assert
 204              	.LVL21:
 205 006a 0028     		cmp	r0, #0
 206 006c E2D1     		bne	.L4
 207              		.loc 1 103 0
 208 006e 0548     		ldr	r0, .L10+4
 209 0070 0721     		movs	r1, #7
 210 0072 FFF7FEFF 		bl	chEvtDispatch
 211              	.LVL22:
 212              		.loc 1 104 0
 213 0076 0449     		ldr	r1, .L10+8
 214 0078 0420     		movs	r0, #4
 215 007a FFF7FEFF 		bl	_test_assert_sequence
 216              	.LVL23:
 217 007e D9E7     		b	.L4
 218              	.L11:
 219              		.align	2
 220              	.L10:
 221 0080 00000000 		.word	.LANCHOR0
 222 0084 00000000 		.word	.LANCHOR1
 223 0088 00000000 		.word	.LC0
 224              		.cfi_endproc
 225              	.LFE174:
 226              		.size	evt1_execute, .-evt1_execute
 227              		.section	.text.evt1_setup,"ax",%progbits
 228              		.align	2
ARM GAS  /tmp/ccveT6Xh.s 			page 5


 229              		.p2align 4,,15
 230              		.thumb
 231              		.thumb_func
 232              		.type	evt1_setup, %function
 233              	evt1_setup:
 234              	.LFB170:
 235              		.loc 1 75 0
 236              		.cfi_startproc
 237              		@ args = 0, pretend = 0, frame = 0
 238              		@ frame_needed = 0, uses_anonymous_args = 0
 239              		@ link register save eliminated.
 240              		.loc 1 77 0
 241 0000 4FF0FF30 		mov	r0, #-1
 242 0004 FFF7FEBF 		b	chEvtGetAndClearEvents
 243              	.LVL24:
 244              		.cfi_endproc
 245              	.LFE170:
 246              		.size	evt1_setup, .-evt1_setup
 247              		.section	.text.evt2_setup,"ax",%progbits
 248              		.align	2
 249              		.p2align 4,,15
 250              		.thumb
 251              		.thumb_func
 252              		.type	evt2_setup, %function
 253              	evt2_setup:
 254              	.LFB175:
 255              		.loc 1 128 0
 256              		.cfi_startproc
 257              		@ args = 0, pretend = 0, frame = 0
 258              		@ frame_needed = 0, uses_anonymous_args = 0
 259              		@ link register save eliminated.
 260              		.loc 1 130 0
 261 0000 4FF0FF30 		mov	r0, #-1
 262 0004 FFF7FEBF 		b	chEvtGetAndClearEvents
 263              	.LVL25:
 264              		.cfi_endproc
 265              	.LFE175:
 266              		.size	evt2_setup, .-evt2_setup
 267              		.section	.text.evt3_setup,"ax",%progbits
 268              		.align	2
 269              		.p2align 4,,15
 270              		.thumb
 271              		.thumb_func
 272              		.type	evt3_setup, %function
 273              	evt3_setup:
 274              	.LFB179:
 275              		.loc 1 247 0
 276              		.cfi_startproc
 277              		@ args = 0, pretend = 0, frame = 0
 278              		@ frame_needed = 0, uses_anonymous_args = 0
 279              		@ link register save eliminated.
 280              		.loc 1 249 0
 281 0000 4FF0FF30 		mov	r0, #-1
 282 0004 FFF7FEBF 		b	chEvtGetAndClearEvents
 283              	.LVL26:
 284              		.cfi_endproc
 285              	.LFE179:
ARM GAS  /tmp/ccveT6Xh.s 			page 6


 286              		.size	evt3_setup, .-evt3_setup
 287              		.section	.text.evt2_execute,"ax",%progbits
 288              		.align	2
 289              		.p2align 4,,15
 290              		.thumb
 291              		.thumb_func
 292              		.type	evt2_execute, %function
 293              	evt2_execute:
 294              	.LFB178:
 295              		.loc 1 147 0
 296              		.cfi_startproc
 297              		@ args = 0, pretend = 0, frame = 40
 298              		@ frame_needed = 0, uses_anonymous_args = 0
 299 0000 2DE9F047 		push	{r4, r5, r6, r7, r8, r9, r10, lr}
 300              		.cfi_def_cfa_offset 32
 301              		.cfi_offset 4, -32
 302              		.cfi_offset 5, -28
 303              		.cfi_offset 6, -24
 304              		.cfi_offset 7, -20
 305              		.cfi_offset 8, -16
 306              		.cfi_offset 9, -12
 307              		.cfi_offset 10, -8
 308              		.cfi_offset 14, -4
 309              		.loc 1 155 0
 310 0004 0720     		movs	r0, #7
 311              		.loc 1 147 0
 312 0006 8CB0     		sub	sp, sp, #48
 313              		.cfi_def_cfa_offset 80
 314              		.loc 1 155 0
 315 0008 FFF7FEFF 		bl	chEvtAddEvents
 316              	.LVL27:
 317              		.loc 1 156 0
 318 000c 4FF0FF30 		mov	r0, #-1
 319 0010 FFF7FEFF 		bl	chEvtWaitOne
 320              	.LVL28:
 321              		.loc 1 157 0
 322 0014 A0F10101 		sub	r1, r0, #1
 323 0018 B1FA81F1 		clz	r1, r1
 324 001c 0120     		movs	r0, #1
 325              	.LVL29:
 326 001e 4909     		lsrs	r1, r1, #5
 327 0020 FFF7FEFF 		bl	_test_assert
 328              	.LVL30:
 329 0024 10B1     		cbz	r0, .L19
 330              	.L15:
 331              		.loc 1 222 0
 332 0026 0CB0     		add	sp, sp, #48
 333              		.cfi_remember_state
 334              		.cfi_def_cfa_offset 32
 335              		@ sp needed
 336 0028 BDE8F087 		pop	{r4, r5, r6, r7, r8, r9, r10, pc}
 337              	.L19:
 338              		.cfi_restore_state
 339              		.loc 1 158 0
 340 002c 4FF0FF30 		mov	r0, #-1
 341 0030 FFF7FEFF 		bl	chEvtWaitOne
 342              	.LVL31:
ARM GAS  /tmp/ccveT6Xh.s 			page 7


 343              		.loc 1 159 0
 344 0034 A0F10201 		sub	r1, r0, #2
 345 0038 B1FA81F1 		clz	r1, r1
 346 003c 0220     		movs	r0, #2
 347              	.LVL32:
 348 003e 4909     		lsrs	r1, r1, #5
 349 0040 FFF7FEFF 		bl	_test_assert
 350              	.LVL33:
 351 0044 0028     		cmp	r0, #0
 352 0046 EED1     		bne	.L15
 353              		.loc 1 160 0
 354 0048 4FF0FF30 		mov	r0, #-1
 355 004c FFF7FEFF 		bl	chEvtWaitOne
 356              	.LVL34:
 357              		.loc 1 161 0
 358 0050 A0F10401 		sub	r1, r0, #4
 359 0054 B1FA81F1 		clz	r1, r1
 360 0058 0320     		movs	r0, #3
 361              	.LVL35:
 362 005a 4909     		lsrs	r1, r1, #5
 363 005c FFF7FEFF 		bl	_test_assert
 364              	.LVL36:
 365 0060 0028     		cmp	r0, #0
 366 0062 E0D1     		bne	.L15
 367              		.loc 1 162 0
 368 0064 4FF0FF30 		mov	r0, #-1
 369 0068 FFF7FEFF 		bl	chEvtGetAndClearEvents
 370              	.LVL37:
 371              		.loc 1 163 0
 372 006c B0FA80F1 		clz	r1, r0
 373 0070 0420     		movs	r0, #4
 374              	.LVL38:
 375 0072 4909     		lsrs	r1, r1, #5
 376 0074 FFF7FEFF 		bl	_test_assert
 377              	.LVL39:
 378 0078 0446     		mov	r4, r0
 379 007a 0028     		cmp	r0, #0
 380 007c D3D1     		bne	.L15
 381              		.loc 1 168 0
 382 007e FFF7FEFF 		bl	test_wait_tick
 383              	.LVL40:
 384              	.LBB125:
 385              	.LBB126:
 386              	.LBB127:
 387              	.LBB128:
 388              	.LBB129:
 389              	.LBB130:
 390              		.file 3 "/home/maciek/ChibiOS_16.1.5/os/ext/CMSIS/include/core_cmFunc.h"
 391              		.loc 3 548 0
 392 0082 4FF02008 		mov	r8, #32
 393              	@ 548 "/home/maciek/ChibiOS_16.1.5/os/ext/CMSIS/include/core_cmFunc.h" 1
 394 0086 88F31188 		MSR basepri, r8
 395              	@ 0 "" 2
 396              		.thumb
 397              	.LBE130:
 398              	.LBE129:
 399              	.LBE128:
ARM GAS  /tmp/ccveT6Xh.s 			page 8


 400              	.LBE127:
 401              	.LBB131:
 402              	.LBB132:
 403              		.file 4 "/home/maciek/ChibiOS_16.1.5/os/rt/include/chvt.h"
 404              		.loc 4 231 0
 405 008a 7C4E     		ldr	r6, .L20
 406 008c F58B     		ldrh	r5, [r6, #30]
 407 008e ADB2     		uxth	r5, r5
 408              	.LVL41:
 409              	.LBE132:
 410              	.LBE131:
 411              	.LBB133:
 412              	.LBB134:
 413              	.LBB135:
 414              	.LBB136:
 415              	.LBB137:
 416              		.loc 3 548 0
 417              	@ 548 "/home/maciek/ChibiOS_16.1.5/os/ext/CMSIS/include/core_cmFunc.h" 1
 418 0090 84F31188 		MSR basepri, r4
 419              	@ 0 "" 2
 420              	.LVL42:
 421              		.thumb
 422              	.LBE137:
 423              	.LBE136:
 424              	.LBE135:
 425              	.LBE134:
 426              	.LBE133:
 427              	.LBE126:
 428              	.LBE125:
 429              		.loc 1 170 0
 430 0094 DFF80092 		ldr	r9, .L20+28
 431              	.LBB138:
 432              	.LBB139:
 433              	.LBB140:
 434              	.LBB141:
 435              		.file 5 "/home/maciek/ChibiOS_16.1.5/os/rt/include/chthreads.h"
 436              		.loc 5 176 0
 437 0098 3369     		ldr	r3, [r6, #16]
 438              	.LBE141:
 439              	.LBE140:
 440              	.LBE139:
 441              	.LBE138:
 442              		.loc 1 170 0
 443 009a D9F80040 		ldr	r4, [r9]
 444 009e 9A68     		ldr	r2, [r3, #8]
 445 00a0 4FF4A071 		mov	r1, #320
 446 00a4 013A     		subs	r2, r2, #1
 447 00a6 0093     		str	r3, [sp]
 448 00a8 2046     		mov	r0, r4
 449 00aa 754B     		ldr	r3, .L20+4
 450 00ac FFF7FEFF 		bl	chThdCreateStatic
 451              	.LVL43:
 452 00b0 744F     		ldr	r7, .L20+8
 453 00b2 3860     		str	r0, [r7]
 454              		.loc 1 172 0
 455 00b4 4FF0FF30 		mov	r0, #-1
 456 00b8 FFF7FEFF 		bl	chEvtWaitOne
ARM GAS  /tmp/ccveT6Xh.s 			page 9


 457              	.LVL44:
 458              		.loc 1 169 0
 459 00bc 05F16401 		add	r1, r5, #100
 460              		.loc 1 173 0
 461 00c0 05F16E02 		add	r2, r5, #110
 462              		.loc 1 172 0
 463 00c4 8246     		mov	r10, r0
 464              	.LVL45:
 465              		.loc 1 173 0
 466 00c6 89B2     		uxth	r1, r1
 467 00c8 92B2     		uxth	r2, r2
 468 00ca 0520     		movs	r0, #5
 469              	.LVL46:
 470 00cc FFF7FEFF 		bl	_test_assert_time_window
 471              	.LVL47:
 472 00d0 0028     		cmp	r0, #0
 473 00d2 A8D1     		bne	.L15
 474              		.loc 1 174 0
 475 00d4 AAF10101 		sub	r1, r10, #1
 476 00d8 B1FA81F1 		clz	r1, r1
 477 00dc 0620     		movs	r0, #6
 478 00de 4909     		lsrs	r1, r1, #5
 479 00e0 FFF7FEFF 		bl	_test_assert
 480              	.LVL48:
 481 00e4 0028     		cmp	r0, #0
 482 00e6 9ED1     		bne	.L15
 483              		.loc 1 175 0
 484 00e8 4FF0FF30 		mov	r0, #-1
 485 00ec FFF7FEFF 		bl	chEvtGetAndClearEvents
 486              	.LVL49:
 487              		.loc 1 176 0
 488 00f0 B0FA80F1 		clz	r1, r0
 489 00f4 0720     		movs	r0, #7
 490              	.LVL50:
 491 00f6 4909     		lsrs	r1, r1, #5
 492 00f8 FFF7FEFF 		bl	_test_assert
 493              	.LVL51:
 494 00fc 0028     		cmp	r0, #0
 495 00fe 92D1     		bne	.L15
 496              		.loc 1 177 0
 497 0100 FFF7FEFF 		bl	test_wait_threads
 498              	.LVL52:
 499              		.loc 1 182 0
 500 0104 0520     		movs	r0, #5
 501 0106 FFF7FEFF 		bl	chEvtAddEvents
 502              	.LVL53:
 503              		.loc 1 183 0
 504 010a 4FF0FF30 		mov	r0, #-1
 505 010e FFF7FEFF 		bl	chEvtWaitAny
 506              	.LVL54:
 507              		.loc 1 184 0
 508 0112 451F     		subs	r5, r0, #5
 509              	.LVL55:
 510 0114 6942     		rsbs	r1, r5, #0
 511 0116 6941     		adcs	r1, r1, r5
 512 0118 0820     		movs	r0, #8
 513              	.LVL56:
ARM GAS  /tmp/ccveT6Xh.s 			page 10


 514 011a FFF7FEFF 		bl	_test_assert
 515              	.LVL57:
 516 011e 0028     		cmp	r0, #0
 517 0120 81D1     		bne	.L15
 518              		.loc 1 185 0
 519 0122 4FF0FF30 		mov	r0, #-1
 520 0126 FFF7FEFF 		bl	chEvtGetAndClearEvents
 521              	.LVL58:
 522              		.loc 1 186 0
 523 012a B0FA80F1 		clz	r1, r0
 524 012e 0920     		movs	r0, #9
 525              	.LVL59:
 526 0130 4909     		lsrs	r1, r1, #5
 527 0132 FFF7FEFF 		bl	_test_assert
 528              	.LVL60:
 529 0136 8246     		mov	r10, r0
 530 0138 0028     		cmp	r0, #0
 531 013a 7FF474AF 		bne	.L15
 532              		.loc 1 191 0
 533 013e FFF7FEFF 		bl	test_wait_tick
 534              	.LVL61:
 535              	.LBB142:
 536              	.LBB143:
 537              	.LBB144:
 538              	.LBB145:
 539              	.LBB146:
 540              	.LBB147:
 541              		.loc 3 548 0
 542              	@ 548 "/home/maciek/ChibiOS_16.1.5/os/ext/CMSIS/include/core_cmFunc.h" 1
 543 0142 88F31188 		MSR basepri, r8
 544              	@ 0 "" 2
 545              		.thumb
 546              	.LBE147:
 547              	.LBE146:
 548              	.LBE145:
 549              	.LBE144:
 550              	.LBB148:
 551              	.LBB149:
 552              		.loc 4 231 0
 553 0146 F58B     		ldrh	r5, [r6, #30]
 554 0148 ADB2     		uxth	r5, r5
 555              	.LVL62:
 556              	.LBE149:
 557              	.LBE148:
 558              	.LBB150:
 559              	.LBB151:
 560              	.LBB152:
 561              	.LBB153:
 562              	.LBB154:
 563              		.loc 3 548 0
 564              	@ 548 "/home/maciek/ChibiOS_16.1.5/os/ext/CMSIS/include/core_cmFunc.h" 1
 565 014a 8AF31188 		MSR basepri, r10
 566              	@ 0 "" 2
 567              	.LVL63:
 568              		.thumb
 569              	.LBE154:
 570              	.LBE153:
ARM GAS  /tmp/ccveT6Xh.s 			page 11


 571              	.LBE152:
 572              	.LBE151:
 573              	.LBE150:
 574              	.LBE143:
 575              	.LBE142:
 576              	.LBB155:
 577              	.LBB156:
 578              	.LBB157:
 579              	.LBB158:
 580              		.loc 5 176 0
 581 014e 3369     		ldr	r3, [r6, #16]
 582              	.LBE158:
 583              	.LBE157:
 584              	.LBE156:
 585              	.LBE155:
 586              		.loc 1 193 0
 587 0150 4FF4A071 		mov	r1, #320
 588 0154 9A68     		ldr	r2, [r3, #8]
 589 0156 2046     		mov	r0, r4
 590 0158 013A     		subs	r2, r2, #1
 591 015a 0093     		str	r3, [sp]
 592 015c 484B     		ldr	r3, .L20+4
 593 015e FFF7FEFF 		bl	chThdCreateStatic
 594              	.LVL64:
 595 0162 3860     		str	r0, [r7]
 596              		.loc 1 195 0
 597 0164 4FF0FF30 		mov	r0, #-1
 598 0168 FFF7FEFF 		bl	chEvtWaitAny
 599              	.LVL65:
 600              		.loc 1 192 0
 601 016c 05F16401 		add	r1, r5, #100
 602              		.loc 1 196 0
 603 0170 05F16E02 		add	r2, r5, #110
 604              		.loc 1 195 0
 605 0174 0446     		mov	r4, r0
 606              	.LVL66:
 607              		.loc 1 196 0
 608 0176 89B2     		uxth	r1, r1
 609 0178 92B2     		uxth	r2, r2
 610 017a 0A20     		movs	r0, #10
 611              	.LVL67:
 612 017c FFF7FEFF 		bl	_test_assert_time_window
 613              	.LVL68:
 614 0180 0028     		cmp	r0, #0
 615 0182 7FF450AF 		bne	.L15
 616              		.loc 1 197 0
 617 0186 601E     		subs	r0, r4, #1
 618 0188 4142     		rsbs	r1, r0, #0
 619 018a 4141     		adcs	r1, r1, r0
 620 018c 0B20     		movs	r0, #11
 621 018e FFF7FEFF 		bl	_test_assert
 622              	.LVL69:
 623 0192 0028     		cmp	r0, #0
 624 0194 7FF447AF 		bne	.L15
 625              		.loc 1 198 0
 626 0198 4FF0FF30 		mov	r0, #-1
 627 019c FFF7FEFF 		bl	chEvtGetAndClearEvents
ARM GAS  /tmp/ccveT6Xh.s 			page 12


 628              	.LVL70:
 629              		.loc 1 199 0
 630 01a0 B0FA80F1 		clz	r1, r0
 631 01a4 0C20     		movs	r0, #12
 632              	.LVL71:
 633 01a6 4909     		lsrs	r1, r1, #5
 634 01a8 FFF7FEFF 		bl	_test_assert
 635              	.LVL72:
 636 01ac 8246     		mov	r10, r0
 637 01ae 0028     		cmp	r0, #0
 638 01b0 7FF439AF 		bne	.L15
 639              	.LBB159:
 640              	.LBB160:
 641              		.loc 2 172 0
 642 01b4 344D     		ldr	r5, .L20+12
 643              	.LVL73:
 644              	.LBE160:
 645              	.LBE159:
 646              	.LBB162:
 647              	.LBB163:
 648 01b6 354C     		ldr	r4, .L20+16
 649              	.LBE163:
 650              	.LBE162:
 651              		.loc 1 200 0
 652 01b8 FFF7FEFF 		bl	test_wait_threads
 653              	.LVL74:
 654              	.LBB165:
 655              	.LBB166:
 656              		.loc 2 193 0
 657 01bc 2846     		mov	r0, r5
 658 01be 02A9     		add	r1, sp, #8
 659 01c0 0122     		movs	r2, #1
 660 01c2 4FF0FF33 		mov	r3, #-1
 661              	.LBE166:
 662              	.LBE165:
 663              	.LBB168:
 664              	.LBB161:
 665              		.loc 2 172 0
 666 01c6 2D60     		str	r5, [r5]
 667              	.LVL75:
 668              	.LBE161:
 669              	.LBE168:
 670              	.LBB169:
 671              	.LBB164:
 672 01c8 2460     		str	r4, [r4]
 673              	.LVL76:
 674              	.LBE164:
 675              	.LBE169:
 676              	.LBB170:
 677              	.LBB167:
 678              		.loc 2 193 0
 679 01ca FFF7FEFF 		bl	chEvtRegisterMaskWithFlags
 680              	.LVL77:
 681              	.LBE167:
 682              	.LBE170:
 683              	.LBB171:
 684              	.LBB172:
ARM GAS  /tmp/ccveT6Xh.s 			page 13


 685 01ce 2046     		mov	r0, r4
 686 01d0 07A9     		add	r1, sp, #28
 687              	.LVL78:
 688 01d2 0422     		movs	r2, #4
 689 01d4 4FF0FF33 		mov	r3, #-1
 690 01d8 FFF7FEFF 		bl	chEvtRegisterMaskWithFlags
 691              	.LVL79:
 692              	.LBE172:
 693              	.LBE171:
 694              		.loc 1 209 0
 695 01dc FFF7FEFF 		bl	test_wait_tick
 696              	.LVL80:
 697              	.LBB173:
 698              	.LBB174:
 699              	.LBB175:
 700              	.LBB176:
 701              	.LBB177:
 702              	.LBB178:
 703              		.loc 3 548 0
 704              	@ 548 "/home/maciek/ChibiOS_16.1.5/os/ext/CMSIS/include/core_cmFunc.h" 1
 705 01e0 88F31188 		MSR basepri, r8
 706              	@ 0 "" 2
 707              		.thumb
 708              	.LBE178:
 709              	.LBE177:
 710              	.LBE176:
 711              	.LBE175:
 712              	.LBB179:
 713              	.LBB180:
 714              		.loc 4 231 0
 715 01e4 B6F81E80 		ldrh	r8, [r6, #30]
 716 01e8 1FFA88F8 		uxth	r8, r8
 717              	.LVL81:
 718              	.LBE180:
 719              	.LBE179:
 720              	.LBB181:
 721              	.LBB182:
 722              	.LBB183:
 723              	.LBB184:
 724              	.LBB185:
 725              		.loc 3 548 0
 726              	@ 548 "/home/maciek/ChibiOS_16.1.5/os/ext/CMSIS/include/core_cmFunc.h" 1
 727 01ec 8AF31188 		MSR basepri, r10
 728              	@ 0 "" 2
 729              	.LVL82:
 730              		.thumb
 731              	.LBE185:
 732              	.LBE184:
 733              	.LBE183:
 734              	.LBE182:
 735              	.LBE181:
 736              	.LBE174:
 737              	.LBE173:
 738              	.LBB186:
 739              	.LBB187:
 740              		.loc 5 189 0
 741 01f0 3269     		ldr	r2, [r6, #16]
ARM GAS  /tmp/ccveT6Xh.s 			page 14


 742              	.LBE187:
 743              	.LBE186:
 744              		.loc 1 211 0
 745 01f2 274B     		ldr	r3, .L20+20
 746 01f4 9268     		ldr	r2, [r2, #8]
 747 01f6 4FF4A071 		mov	r1, #320
 748 01fa 013A     		subs	r2, r2, #1
 749 01fc 0093     		str	r3, [sp]
 750 01fe D9F80000 		ldr	r0, [r9]
 751 0202 244B     		ldr	r3, .L20+24
 752 0204 FFF7FEFF 		bl	chThdCreateStatic
 753              	.LVL83:
 754 0208 3860     		str	r0, [r7]
 755              		.loc 1 213 0
 756 020a 0520     		movs	r0, #5
 757 020c FFF7FEFF 		bl	chEvtWaitAll
 758              	.LVL84:
 759              		.loc 1 210 0
 760 0210 08F16401 		add	r1, r8, #100
 761              		.loc 1 214 0
 762 0214 08F16E02 		add	r2, r8, #110
 763 0218 89B2     		uxth	r1, r1
 764 021a 92B2     		uxth	r2, r2
 765 021c 0D20     		movs	r0, #13
 766 021e FFF7FEFF 		bl	_test_assert_time_window
 767              	.LVL85:
 768 0222 0028     		cmp	r0, #0
 769 0224 7FF4FFAE 		bne	.L15
 770              		.loc 1 215 0
 771 0228 4FF0FF30 		mov	r0, #-1
 772 022c FFF7FEFF 		bl	chEvtGetAndClearEvents
 773              	.LVL86:
 774              		.loc 1 216 0
 775 0230 B0FA80F1 		clz	r1, r0
 776 0234 0E20     		movs	r0, #14
 777              	.LVL87:
 778 0236 4909     		lsrs	r1, r1, #5
 779 0238 FFF7FEFF 		bl	_test_assert
 780              	.LVL88:
 781 023c 0028     		cmp	r0, #0
 782 023e 7FF4F2AE 		bne	.L15
 783              		.loc 1 217 0
 784 0242 FFF7FEFF 		bl	test_wait_threads
 785              	.LVL89:
 786              		.loc 1 218 0
 787 0246 2846     		mov	r0, r5
 788 0248 02A9     		add	r1, sp, #8
 789              	.LVL90:
 790 024a FFF7FEFF 		bl	chEvtUnregister
 791              	.LVL91:
 792              		.loc 1 219 0
 793 024e 2046     		mov	r0, r4
 794 0250 07A9     		add	r1, sp, #28
 795              	.LVL92:
 796 0252 FFF7FEFF 		bl	chEvtUnregister
 797              	.LVL93:
 798              		.loc 1 220 0
ARM GAS  /tmp/ccveT6Xh.s 			page 15


 799 0256 2968     		ldr	r1, [r5]
 800 0258 0F20     		movs	r0, #15
 801 025a 4A1B     		subs	r2, r1, r5
 802 025c 5142     		rsbs	r1, r2, #0
 803 025e 5141     		adcs	r1, r1, r2
 804 0260 FFF7FEFF 		bl	_test_assert
 805              	.LVL94:
 806 0264 0028     		cmp	r0, #0
 807 0266 7FF4DEAE 		bne	.L15
 808              	.LVL95:
 809              		.loc 1 221 0
 810 026a 2168     		ldr	r1, [r4]
 811 026c 1020     		movs	r0, #16
 812 026e 0B1B     		subs	r3, r1, r4
 813 0270 5942     		rsbs	r1, r3, #0
 814 0272 5941     		adcs	r1, r1, r3
 815 0274 FFF7FEFF 		bl	_test_assert
 816              	.LVL96:
 817 0278 D5E6     		b	.L15
 818              	.L21:
 819 027a 00BF     		.align	2
 820              	.L20:
 821 027c 00000000 		.word	ch
 822 0280 00000000 		.word	thread1
 823 0284 00000000 		.word	threads
 824 0288 00000000 		.word	.LANCHOR0
 825 028c 00000000 		.word	.LANCHOR2
 826 0290 04000000 		.word	.LC1
 827 0294 00000000 		.word	thread2
 828 0298 00000000 		.word	wa
 829              		.cfi_endproc
 830              	.LFE178:
 831              		.size	evt2_execute, .-evt2_execute
 832              		.section	.text.thread2,"ax",%progbits
 833              		.align	2
 834              		.p2align 4,,15
 835              		.thumb
 836              		.thumb_func
 837              		.type	thread2, %function
 838              	thread2:
 839              	.LFB177:
 840              		.loc 1 139 0
 841              		.cfi_startproc
 842              		@ args = 0, pretend = 0, frame = 0
 843              		@ frame_needed = 0, uses_anonymous_args = 0
 844              	.LVL97:
 845 0000 08B5     		push	{r3, lr}
 846              		.cfi_def_cfa_offset 8
 847              		.cfi_offset 3, -8
 848              		.cfi_offset 14, -4
 849              	.LBB188:
 850              	.LBB189:
 851              		.loc 2 239 0
 852 0002 0021     		movs	r1, #0
 853 0004 0548     		ldr	r0, .L24
 854              	.LVL98:
 855 0006 FFF7FEFF 		bl	chEvtBroadcastFlags
ARM GAS  /tmp/ccveT6Xh.s 			page 16


 856              	.LVL99:
 857              	.LBE189:
 858              	.LBE188:
 859              		.loc 1 143 0
 860 000a 6420     		movs	r0, #100
 861 000c FFF7FEFF 		bl	chThdSleep
 862              	.LVL100:
 863              		.loc 1 145 0
 864 0010 BDE80840 		pop	{r3, lr}
 865              		.cfi_restore 14
 866              		.cfi_restore 3
 867              		.cfi_def_cfa_offset 0
 868              	.LBB190:
 869              	.LBB191:
 870              		.loc 2 239 0
 871 0014 0248     		ldr	r0, .L24+4
 872 0016 0021     		movs	r1, #0
 873 0018 FFF7FEBF 		b	chEvtBroadcastFlags
 874              	.LVL101:
 875              	.L25:
 876              		.align	2
 877              	.L24:
 878 001c 00000000 		.word	.LANCHOR0
 879 0020 00000000 		.word	.LANCHOR2
 880              	.LBE191:
 881              	.LBE190:
 882              		.cfi_endproc
 883              	.LFE177:
 884              		.size	thread2, .-thread2
 885              		.section	.text.thread1,"ax",%progbits
 886              		.align	2
 887              		.p2align 4,,15
 888              		.thumb
 889              		.thumb_func
 890              		.type	thread1, %function
 891              	thread1:
 892              	.LFB176:
 893              		.loc 1 133 0
 894              		.cfi_startproc
 895              		@ args = 0, pretend = 0, frame = 0
 896              		@ frame_needed = 0, uses_anonymous_args = 0
 897              	.LVL102:
 898 0000 10B5     		push	{r4, lr}
 899              		.cfi_def_cfa_offset 8
 900              		.cfi_offset 4, -8
 901              		.cfi_offset 14, -4
 902              		.loc 1 133 0
 903 0002 0446     		mov	r4, r0
 904              		.loc 1 135 0
 905 0004 6420     		movs	r0, #100
 906              	.LVL103:
 907 0006 FFF7FEFF 		bl	chThdSleep
 908              	.LVL104:
 909              		.loc 1 136 0
 910 000a 2046     		mov	r0, r4
 911              		.loc 1 137 0
 912 000c BDE81040 		pop	{r4, lr}
ARM GAS  /tmp/ccveT6Xh.s 			page 17


 913              		.cfi_restore 14
 914              		.cfi_restore 4
 915              		.cfi_def_cfa_offset 0
 916              	.LVL105:
 917              		.loc 1 136 0
 918 0010 0121     		movs	r1, #1
 919 0012 FFF7FEBF 		b	chEvtSignal
 920              	.LVL106:
 921              		.cfi_endproc
 922              	.LFE176:
 923              		.size	thread1, .-thread1
 924 0016 00BF     		.section	.text.evt3_execute,"ax",%progbits
 925              		.align	2
 926              		.p2align 4,,15
 927              		.thumb
 928              		.thumb_func
 929              		.type	evt3_execute, %function
 930              	evt3_execute:
 931              	.LFB180:
 932              		.loc 1 252 0
 933              		.cfi_startproc
 934              		@ args = 0, pretend = 0, frame = 0
 935              		@ frame_needed = 0, uses_anonymous_args = 0
 936 0000 08B5     		push	{r3, lr}
 937              		.cfi_def_cfa_offset 8
 938              		.cfi_offset 3, -8
 939              		.cfi_offset 14, -4
 940              		.loc 1 258 0
 941 0002 0021     		movs	r1, #0
 942 0004 4FF0FF30 		mov	r0, #-1
 943 0008 FFF7FEFF 		bl	chEvtWaitOneTimeout
 944              	.LVL107:
 945              		.loc 1 259 0
 946 000c B0FA80F1 		clz	r1, r0
 947 0010 0120     		movs	r0, #1
 948              	.LVL108:
 949 0012 4909     		lsrs	r1, r1, #5
 950 0014 FFF7FEFF 		bl	_test_assert
 951              	.LVL109:
 952 0018 00B1     		cbz	r0, .L33
 953              	.L28:
 954 001a 08BD     		pop	{r3, pc}
 955              	.L33:
 956              		.loc 1 260 0
 957 001c 0146     		mov	r1, r0
 958 001e 4FF0FF30 		mov	r0, #-1
 959 0022 FFF7FEFF 		bl	chEvtWaitAnyTimeout
 960              	.LVL110:
 961              		.loc 1 261 0
 962 0026 B0FA80F1 		clz	r1, r0
 963 002a 0220     		movs	r0, #2
 964              	.LVL111:
 965 002c 4909     		lsrs	r1, r1, #5
 966 002e FFF7FEFF 		bl	_test_assert
 967              	.LVL112:
 968 0032 0028     		cmp	r0, #0
 969 0034 F1D1     		bne	.L28
ARM GAS  /tmp/ccveT6Xh.s 			page 18


 970              		.loc 1 262 0
 971 0036 0146     		mov	r1, r0
 972 0038 4FF0FF30 		mov	r0, #-1
 973 003c FFF7FEFF 		bl	chEvtWaitAllTimeout
 974              	.LVL113:
 975              		.loc 1 263 0
 976 0040 B0FA80F1 		clz	r1, r0
 977 0044 0320     		movs	r0, #3
 978              	.LVL114:
 979 0046 4909     		lsrs	r1, r1, #5
 980 0048 FFF7FEFF 		bl	_test_assert
 981              	.LVL115:
 982 004c 0028     		cmp	r0, #0
 983 004e E4D1     		bne	.L28
 984              	.LBB194:
 985              	.LBB195:
 986              		.loc 1 264 0
 987 0050 0A21     		movs	r1, #10
 988 0052 4FF0FF30 		mov	r0, #-1
 989 0056 FFF7FEFF 		bl	chEvtWaitOneTimeout
 990              	.LVL116:
 991              		.loc 1 265 0
 992 005a B0FA80F1 		clz	r1, r0
 993 005e 0420     		movs	r0, #4
 994              	.LVL117:
 995 0060 4909     		lsrs	r1, r1, #5
 996 0062 FFF7FEFF 		bl	_test_assert
 997              	.LVL118:
 998 0066 0028     		cmp	r0, #0
 999 0068 D7D1     		bne	.L28
 1000              		.loc 1 266 0
 1001 006a 0A21     		movs	r1, #10
 1002 006c 4FF0FF30 		mov	r0, #-1
 1003 0070 FFF7FEFF 		bl	chEvtWaitAnyTimeout
 1004              	.LVL119:
 1005              		.loc 1 267 0
 1006 0074 B0FA80F1 		clz	r1, r0
 1007 0078 0520     		movs	r0, #5
 1008              	.LVL120:
 1009 007a 4909     		lsrs	r1, r1, #5
 1010 007c FFF7FEFF 		bl	_test_assert
 1011              	.LVL121:
 1012 0080 0028     		cmp	r0, #0
 1013 0082 CAD1     		bne	.L28
 1014              		.loc 1 268 0
 1015 0084 0A21     		movs	r1, #10
 1016 0086 4FF0FF30 		mov	r0, #-1
 1017 008a FFF7FEFF 		bl	chEvtWaitAllTimeout
 1018              	.LVL122:
 1019              	.LBE195:
 1020              	.LBE194:
 1021              		.loc 1 270 0
 1022 008e BDE80840 		pop	{r3, lr}
 1023              		.cfi_restore 14
 1024              		.cfi_restore 3
 1025              		.cfi_def_cfa_offset 0
 1026              	.LBB197:
ARM GAS  /tmp/ccveT6Xh.s 			page 19


 1027              	.LBB196:
 1028              		.loc 1 269 0
 1029 0092 B0FA80F1 		clz	r1, r0
 1030 0096 0620     		movs	r0, #6
 1031              	.LVL123:
 1032 0098 4909     		lsrs	r1, r1, #5
 1033 009a FFF7FEBF 		b	_test_assert
 1034              	.LVL124:
 1035              	.LBE196:
 1036              	.LBE197:
 1037              		.cfi_endproc
 1038              	.LFE180:
 1039              		.size	evt3_execute, .-evt3_execute
 1040              		.global	patternevt
 1041              		.global	testevt3
 1042              		.global	testevt2
 1043              		.global	testevt1
 1044              		.section	.rodata.patternevt,"a",%progbits
 1045              		.align	2
 1046              		.type	patternevt, %object
 1047              		.size	patternevt, 16
 1048              	patternevt:
 1049 0000 00000000 		.word	testevt1
 1050 0004 00000000 		.word	testevt2
 1051 0008 00000000 		.word	testevt3
 1052 000c 00000000 		.word	0
 1053              		.section	.rodata.testevt2,"a",%progbits
 1054              		.align	2
 1055              		.type	testevt2, %object
 1056              		.size	testevt2, 16
 1057              	testevt2:
 1058 0000 1C000000 		.word	.LC3
 1059 0004 00000000 		.word	evt2_setup
 1060 0008 00000000 		.word	0
 1061 000c 00000000 		.word	evt2_execute
 1062              		.section	.rodata.str1.4,"aMS",%progbits,1
 1063              		.align	2
 1064              	.LC0:
 1065 0000 41424300 		.ascii	"ABC\000"
 1066              	.LC1:
 1067 0004 4100     		.ascii	"A\000"
 1068 0006 0000     		.space	2
 1069              	.LC2:
 1070 0008 4576656E 		.ascii	"Events, timeouts\000"
 1070      74732C20 
 1070      74696D65 
 1070      6F757473 
 1070      00
 1071 0019 000000   		.space	3
 1072              	.LC3:
 1073 001c 4576656E 		.ascii	"Events, wait and broadcast\000"
 1073      74732C20 
 1073      77616974 
 1073      20616E64 
 1073      2062726F 
 1074 0037 00       		.space	1
 1075              	.LC4:
ARM GAS  /tmp/ccveT6Xh.s 			page 20


 1076 0038 4576656E 		.ascii	"Events, registration and dispatch\000"
 1076      74732C20 
 1076      72656769 
 1076      73747261 
 1076      74696F6E 
 1077              		.section	.rodata.testevt1,"a",%progbits
 1078              		.align	2
 1079              		.type	testevt1, %object
 1080              		.size	testevt1, 16
 1081              	testevt1:
 1082 0000 38000000 		.word	.LC4
 1083 0004 00000000 		.word	evt1_setup
 1084 0008 00000000 		.word	0
 1085 000c 00000000 		.word	evt1_execute
 1086              		.section	.rodata.evhndl,"a",%progbits
 1087              		.align	2
 1088              		.set	.LANCHOR1,. + 0
 1089              		.type	evhndl, %object
 1090              		.size	evhndl, 12
 1091              	evhndl:
 1092 0000 00000000 		.word	h1
 1093 0004 00000000 		.word	h2
 1094 0008 00000000 		.word	h3
 1095              		.section	.rodata.testevt3,"a",%progbits
 1096              		.align	2
 1097              		.type	testevt3, %object
 1098              		.size	testevt3, 16
 1099              	testevt3:
 1100 0000 08000000 		.word	.LC2
 1101 0004 00000000 		.word	evt3_setup
 1102 0008 00000000 		.word	0
 1103 000c 00000000 		.word	evt3_execute
 1104              		.section	.data.es1,"aw",%progbits
 1105              		.align	2
 1106              		.set	.LANCHOR0,. + 0
 1107              		.type	es1, %object
 1108              		.size	es1, 4
 1109              	es1:
 1110 0000 00000000 		.word	es1
 1111              		.section	.data.es2,"aw",%progbits
 1112              		.align	2
 1113              		.set	.LANCHOR2,. + 0
 1114              		.type	es2, %object
 1115              		.size	es2, 4
 1116              	es2:
 1117 0000 00000000 		.word	es2
 1118              		.text
 1119              	.Letext0:
 1120              		.file 6 "/opt/stm32/gcc/gcc-arm-none-eabi-4_9-2015q2/lib/gcc/arm-none-eabi/4.9.3/include/stddef.h"
 1121              		.file 7 "/opt/stm32/gcc/gcc-arm-none-eabi-4_9-2015q2/arm-none-eabi/include/machine/_default_types.
 1122              		.file 8 "/opt/stm32/gcc/gcc-arm-none-eabi-4_9-2015q2/arm-none-eabi/include/sys/_stdint.h"
 1123              		.file 9 "/home/maciek/ChibiOS_16.1.5/os/rt/ports/ARMCMx/compilers/GCC/chtypes.h"
 1124              		.file 10 "/home/maciek/ChibiOS_16.1.5/os/rt/include/chsystypes.h"
 1125              		.file 11 "/home/maciek/ChibiOS_16.1.5/os/rt/include/chschd.h"
 1126              		.file 12 "/home/maciek/ChibiOS_16.1.5/os/rt/ports/ARMCMx/chcore.h"
 1127              		.file 13 "/home/maciek/ChibiOS_16.1.5/os/rt/ports/ARMCMx/chcore_v7m.h"
 1128              		.file 14 "/home/maciek/ChibiOS_16.1.5/os/rt/include/chtm.h"
ARM GAS  /tmp/ccveT6Xh.s 			page 21


 1129              		.file 15 "/home/maciek/ChibiOS_16.1.5/os/rt/include/chsem.h"
 1130              		.file 16 "/home/maciek/ChibiOS_16.1.5/os/rt/include/chmtx.h"
 1131              		.file 17 "/home/maciek/ChibiOS_16.1.5/test/rt/test.h"
 1132              		.file 18 "/home/maciek/ChibiOS_16.1.5/os/rt/include/chsys.h"
 1133              		.file 19 "/home/maciek/ChibiOS_16.1.5/os/ext/CMSIS/include/core_cm3.h"