ARM GAS  /tmp/ccfwZZoQ.s 			page 1


   1              		.syntax unified
   2              		.cpu cortex-m3
   3              		.fpu softvfp
   4              		.eabi_attribute 20, 1
   5              		.eabi_attribute 21, 1
   6              		.eabi_attribute 23, 3
   7              		.eabi_attribute 24, 1
   8              		.eabi_attribute 25, 1
   9              		.eabi_attribute 26, 1
  10              		.eabi_attribute 30, 2
  11              		.eabi_attribute 34, 1
  12              		.eabi_attribute 18, 4
  13              		.thumb
  14              		.file	"test.c"
  15              		.text
  16              	.Ltext0:
  17              		.cfi_sections	.debug_frame
  18              		.section	.text.tmr,"ax",%progbits
  19              		.align	2
  20              		.p2align 4,,15
  21              		.thumb
  22              		.thumb_func
  23              		.type	tmr, %function
  24              	tmr:
  25              	.LFB220:
  26              		.file 1 "/home/maciek/ChibiOS_16.1.5/test/rt/test.c"
  27              		.loc 1 264 0
  28              		.cfi_startproc
  29              		@ args = 0, pretend = 0, frame = 0
  30              		@ frame_needed = 0, uses_anonymous_args = 0
  31              		@ link register save eliminated.
  32              	.LVL0:
  33              		.loc 1 267 0
  34 0000 014B     		ldr	r3, .L2
  35 0002 0122     		movs	r2, #1
  36 0004 1A70     		strb	r2, [r3]
  37 0006 7047     		bx	lr
  38              	.L3:
  39              		.align	2
  40              	.L2:
  41 0008 00000000 		.word	.LANCHOR0
  42              		.cfi_endproc
  43              	.LFE220:
  44              		.size	tmr, .-tmr
  45              		.section	.text.print_line,"ax",%progbits
  46              		.align	2
  47              		.p2align 4,,15
  48              		.thumb
  49              		.thumb_func
  50              		.type	print_line, %function
  51              	print_line:
  52              	.LFB223:
  53              		.loc 1 303 0
  54              		.cfi_startproc
  55              		@ args = 0, pretend = 0, frame = 0
  56              		@ frame_needed = 0, uses_anonymous_args = 0
  57              	.LVL1:
ARM GAS  /tmp/ccfwZZoQ.s 			page 2


  58 0000 70B5     		push	{r4, r5, r6, lr}
  59              		.cfi_def_cfa_offset 16
  60              		.cfi_offset 4, -16
  61              		.cfi_offset 5, -12
  62              		.cfi_offset 6, -8
  63              		.cfi_offset 14, -4
  64 0002 094E     		ldr	r6, .L9
  65              		.loc 1 303 0
  66 0004 4C24     		movs	r4, #76
  67              	.LVL2:
  68              	.L5:
  69              		.loc 1 307 0 discriminator 3
  70 0006 3068     		ldr	r0, [r6]
  71 0008 2D21     		movs	r1, #45
  72 000a 0368     		ldr	r3, [r0]
  73 000c 064D     		ldr	r5, .L9
  74 000e 9B68     		ldr	r3, [r3, #8]
  75 0010 9847     		blx	r3
  76              	.LVL3:
  77              		.loc 1 306 0 discriminator 3
  78 0012 013C     		subs	r4, r4, #1
  79              	.LVL4:
  80 0014 F7D1     		bne	.L5
  81              		.loc 1 308 0
  82 0016 2868     		ldr	r0, [r5]
  83 0018 0449     		ldr	r1, .L9+4
  84 001a 0368     		ldr	r3, [r0]
  85 001c 0222     		movs	r2, #2
  86 001e 1B68     		ldr	r3, [r3]
  87              		.loc 1 309 0
  88 0020 BDE87040 		pop	{r4, r5, r6, lr}
  89              		.cfi_restore 14
  90              		.cfi_restore 6
  91              		.cfi_restore 5
  92              		.cfi_restore 4
  93              		.cfi_def_cfa_offset 0
  94              	.LVL5:
  95              		.loc 1 308 0
  96 0024 1847     		bx	r3
  97              	.LVL6:
  98              	.L10:
  99 0026 00BF     		.align	2
 100              	.L9:
 101 0028 00000000 		.word	.LANCHOR1
 102 002c 00000000 		.word	.LC0
 103              		.cfi_endproc
 104              	.LFE223:
 105              		.size	print_line, .-print_line
 106              		.section	.text.test_printn,"ax",%progbits
 107              		.align	2
 108              		.p2align 4,,15
 109              		.global	test_printn
 110              		.thumb
 111              		.thumb_func
 112              		.type	test_printn, %function
 113              	test_printn:
 114              	.LFB207:
ARM GAS  /tmp/ccfwZZoQ.s 			page 3


 115              		.loc 1 94 0
 116              		.cfi_startproc
 117              		@ args = 0, pretend = 0, frame = 16
 118              		@ frame_needed = 0, uses_anonymous_args = 0
 119              	.LVL7:
 120              		.loc 1 97 0
 121 0000 10B3     		cbz	r0, .L20
 122              		.loc 1 94 0
 123 0002 70B5     		push	{r4, r5, r6, lr}
 124              		.cfi_def_cfa_offset 16
 125              		.cfi_offset 4, -16
 126              		.cfi_offset 5, -12
 127              		.cfi_offset 6, -8
 128              		.cfi_offset 14, -4
 129 0004 84B0     		sub	sp, sp, #16
 130              		.cfi_def_cfa_offset 32
 131              		.loc 1 97 0
 132 0006 6D46     		mov	r5, sp
 133 0008 6C46     		mov	r4, sp
 134              		.loc 1 102 0
 135 000a 124A     		ldr	r2, .L22
 136              	.L13:
 137              	.LVL8:
 138 000c A2FB0013 		umull	r1, r3, r2, r0
 139 0010 DB08     		lsrs	r3, r3, #3
 140 0012 03EB8301 		add	r1, r3, r3, lsl #2
 141 0016 A0EB4100 		sub	r0, r0, r1, lsl #1
 142              	.LVL9:
 143 001a 00F13001 		add	r1, r0, #48
 144 001e C9B2     		uxtb	r1, r1
 145 0020 04F8011B 		strb	r1, [r4], #1
 146              	.LVL10:
 147              		.loc 1 101 0
 148 0024 1846     		mov	r0, r3
 149 0026 002B     		cmp	r3, #0
 150 0028 F0D1     		bne	.L13
 151              		.loc 1 103 0
 152 002a AC42     		cmp	r4, r5
 153 002c 0AD9     		bls	.L11
 154 002e 0A4E     		ldr	r6, .L22+4
 155 0030 013C     		subs	r4, r4, #1
 156              	.LVL11:
 157 0032 01E0     		b	.L17
 158              	.LVL12:
 159              	.L21:
 160 0034 14F8011D 		ldrb	r1, [r4, #-1]!	@ zero_extendqisi2
 161              	.LVL13:
 162              	.L17:
 163              		.loc 1 104 0
 164 0038 3068     		ldr	r0, [r6]
 165              	.LVL14:
 166 003a 0368     		ldr	r3, [r0]
 167 003c 9B68     		ldr	r3, [r3, #8]
 168 003e 9847     		blx	r3
 169              	.LVL15:
 170              		.loc 1 103 0
 171 0040 AC42     		cmp	r4, r5
ARM GAS  /tmp/ccfwZZoQ.s 			page 4


 172 0042 F7D1     		bne	.L21
 173              	.LVL16:
 174              	.L11:
 175              		.loc 1 106 0
 176 0044 04B0     		add	sp, sp, #16
 177              		.cfi_def_cfa_offset 16
 178              		@ sp needed
 179 0046 70BD     		pop	{r4, r5, r6, pc}
 180              	.LVL17:
 181              	.L20:
 182              		.cfi_def_cfa_offset 0
 183              		.cfi_restore 4
 184              		.cfi_restore 5
 185              		.cfi_restore 6
 186              		.cfi_restore 14
 187              	.LBB156:
 188              	.LBB157:
 189              		.loc 1 98 0
 190 0048 034B     		ldr	r3, .L22+4
 191 004a 3021     		movs	r1, #48
 192 004c 1868     		ldr	r0, [r3]
 193              	.LVL18:
 194 004e 0368     		ldr	r3, [r0]
 195 0050 9B68     		ldr	r3, [r3, #8]
 196 0052 1847     		bx	r3
 197              	.LVL19:
 198              	.L23:
 199              		.align	2
 200              	.L22:
 201 0054 CDCCCCCC 		.word	-858993459
 202 0058 00000000 		.word	.LANCHOR1
 203              	.LBE157:
 204              	.LBE156:
 205              		.cfi_endproc
 206              	.LFE207:
 207              		.size	test_printn, .-test_printn
 208              		.section	.text.test_print,"ax",%progbits
 209              		.align	2
 210              		.p2align 4,,15
 211              		.global	test_print
 212              		.thumb
 213              		.thumb_func
 214              		.type	test_print, %function
 215              	test_print:
 216              	.LFB208:
 217              		.loc 1 113 0
 218              		.cfi_startproc
 219              		@ args = 0, pretend = 0, frame = 0
 220              		@ frame_needed = 0, uses_anonymous_args = 0
 221              	.LVL20:
 222 0000 38B5     		push	{r3, r4, r5, lr}
 223              		.cfi_def_cfa_offset 16
 224              		.cfi_offset 3, -16
 225              		.cfi_offset 4, -12
 226              		.cfi_offset 5, -8
 227              		.cfi_offset 14, -4
 228              		.loc 1 115 0
ARM GAS  /tmp/ccfwZZoQ.s 			page 5


 229 0002 0178     		ldrb	r1, [r0]	@ zero_extendqisi2
 230              		.loc 1 113 0
 231 0004 0446     		mov	r4, r0
 232              		.loc 1 115 0
 233 0006 41B1     		cbz	r1, .L24
 234 0008 044D     		ldr	r5, .L30
 235              	.LVL21:
 236              	.L26:
 237              		.loc 1 116 0
 238 000a 2868     		ldr	r0, [r5]
 239 000c 0368     		ldr	r3, [r0]
 240 000e 9B68     		ldr	r3, [r3, #8]
 241 0010 9847     		blx	r3
 242              	.LVL22:
 243              		.loc 1 115 0
 244 0012 14F8011F 		ldrb	r1, [r4, #1]!	@ zero_extendqisi2
 245              	.LVL23:
 246 0016 0029     		cmp	r1, #0
 247 0018 F7D1     		bne	.L26
 248              	.LVL24:
 249              	.L24:
 250 001a 38BD     		pop	{r3, r4, r5, pc}
 251              	.L31:
 252              		.align	2
 253              	.L30:
 254 001c 00000000 		.word	.LANCHOR1
 255              		.cfi_endproc
 256              	.LFE208:
 257              		.size	test_print, .-test_print
 258              		.section	.text.test_println,"ax",%progbits
 259              		.align	2
 260              		.p2align 4,,15
 261              		.global	test_println
 262              		.thumb
 263              		.thumb_func
 264              		.type	test_println, %function
 265              	test_println:
 266              	.LFB209:
 267              		.loc 1 124 0
 268              		.cfi_startproc
 269              		@ args = 0, pretend = 0, frame = 0
 270              		@ frame_needed = 0, uses_anonymous_args = 0
 271              	.LVL25:
 272 0000 70B5     		push	{r4, r5, r6, lr}
 273              		.cfi_def_cfa_offset 16
 274              		.cfi_offset 4, -16
 275              		.cfi_offset 5, -12
 276              		.cfi_offset 6, -8
 277              		.cfi_offset 14, -4
 278              	.LBB158:
 279              	.LBB159:
 280              		.loc 1 115 0
 281 0002 0178     		ldrb	r1, [r0]	@ zero_extendqisi2
 282              	.LBE159:
 283              	.LBE158:
 284              		.loc 1 124 0
 285 0004 0446     		mov	r4, r0
ARM GAS  /tmp/ccfwZZoQ.s 			page 6


 286              	.LVL26:
 287 0006 094D     		ldr	r5, .L38
 288              	.LBB161:
 289              	.LBB160:
 290              		.loc 1 115 0
 291 0008 39B1     		cbz	r1, .L35
 292              	.LVL27:
 293              	.L34:
 294              		.loc 1 116 0
 295 000a 2868     		ldr	r0, [r5]
 296 000c 0368     		ldr	r3, [r0]
 297 000e 9B68     		ldr	r3, [r3, #8]
 298 0010 9847     		blx	r3
 299              	.LVL28:
 300              		.loc 1 115 0
 301 0012 14F8011F 		ldrb	r1, [r4, #1]!	@ zero_extendqisi2
 302              	.LVL29:
 303 0016 0029     		cmp	r1, #0
 304 0018 F7D1     		bne	.L34
 305              	.LVL30:
 306              	.L35:
 307              	.LBE160:
 308              	.LBE161:
 309              		.loc 1 127 0
 310 001a 2868     		ldr	r0, [r5]
 311 001c 0449     		ldr	r1, .L38+4
 312 001e 0368     		ldr	r3, [r0]
 313 0020 0222     		movs	r2, #2
 314 0022 1B68     		ldr	r3, [r3]
 315              		.loc 1 128 0
 316 0024 BDE87040 		pop	{r4, r5, r6, lr}
 317              		.cfi_restore 14
 318              		.cfi_restore 6
 319              		.cfi_restore 5
 320              		.cfi_restore 4
 321              		.cfi_def_cfa_offset 0
 322              		.loc 1 127 0
 323 0028 1847     		bx	r3
 324              	.LVL31:
 325              	.L39:
 326 002a 00BF     		.align	2
 327              	.L38:
 328 002c 00000000 		.word	.LANCHOR1
 329 0030 00000000 		.word	.LC0
 330              		.cfi_endproc
 331              	.LFE209:
 332              		.size	test_println, .-test_println
 333              		.section	.text.test_emit_token,"ax",%progbits
 334              		.align	2
 335              		.p2align 4,,15
 336              		.global	test_emit_token
 337              		.thumb
 338              		.thumb_func
 339              		.type	test_emit_token, %function
 340              	test_emit_token:
 341              	.LFB212:
 342              		.loc 1 150 0
ARM GAS  /tmp/ccfwZZoQ.s 			page 7


 343              		.cfi_startproc
 344              		@ args = 0, pretend = 0, frame = 0
 345              		@ frame_needed = 0, uses_anonymous_args = 0
 346              		@ link register save eliminated.
 347              	.LVL32:
 348 0000 10B4     		push	{r4}
 349              		.cfi_def_cfa_offset 4
 350              		.cfi_offset 4, -4
 351              	.LBB162:
 352              	.LBB163:
 353              	.LBB164:
 354              	.LBB165:
 355              		.file 2 "/home/maciek/ChibiOS_16.1.5/os/ext/CMSIS/include/core_cmFunc.h"
 356              		.loc 2 548 0
 357 0002 2023     		movs	r3, #32
 358              	@ 548 "/home/maciek/ChibiOS_16.1.5/os/ext/CMSIS/include/core_cmFunc.h" 1
 359 0004 83F31188 		MSR basepri, r3
 360              	@ 0 "" 2
 361              		.thumb
 362              	.LBE165:
 363              	.LBE164:
 364              	.LBE163:
 365              	.LBE162:
 366              		.loc 1 153 0
 367 0008 054B     		ldr	r3, .L42
 368              	.LBB166:
 369              	.LBB167:
 370              	.LBB168:
 371              	.LBB169:
 372              	.LBB170:
 373              		.loc 2 548 0
 374 000a 0021     		movs	r1, #0
 375              	.LBE170:
 376              	.LBE169:
 377              	.LBE168:
 378              	.LBE167:
 379              	.LBE166:
 380              		.loc 1 153 0
 381 000c 1A68     		ldr	r2, [r3]
 382 000e 541C     		adds	r4, r2, #1
 383 0010 1070     		strb	r0, [r2]
 384              	.LVL33:
 385 0012 1C60     		str	r4, [r3]
 386              	.LBB175:
 387              	.LBB174:
 388              	.LBB173:
 389              	.LBB172:
 390              	.LBB171:
 391              		.loc 2 548 0
 392              	@ 548 "/home/maciek/ChibiOS_16.1.5/os/ext/CMSIS/include/core_cmFunc.h" 1
 393 0014 81F31188 		MSR basepri, r1
 394              	@ 0 "" 2
 395              		.thumb
 396              	.LBE171:
 397              	.LBE172:
 398              	.LBE173:
 399              	.LBE174:
ARM GAS  /tmp/ccfwZZoQ.s 			page 8


 400              	.LBE175:
 401              		.loc 1 155 0
 402 0018 5DF8044B 		ldr	r4, [sp], #4
 403              		.cfi_restore 4
 404              		.cfi_def_cfa_offset 0
 405 001c 7047     		bx	lr
 406              	.L43:
 407 001e 00BF     		.align	2
 408              	.L42:
 409 0020 00000000 		.word	.LANCHOR2
 410              		.cfi_endproc
 411              	.LFE212:
 412              		.size	test_emit_token, .-test_emit_token
 413              		.section	.text._test_fail,"ax",%progbits
 414              		.align	2
 415              		.p2align 4,,15
 416              		.global	_test_fail
 417              		.thumb
 418              		.thumb_func
 419              		.type	_test_fail, %function
 420              	_test_fail:
 421              	.LFB213:
 422              		.loc 1 160 0
 423              		.cfi_startproc
 424              		@ args = 0, pretend = 0, frame = 0
 425              		@ frame_needed = 0, uses_anonymous_args = 0
 426              		@ link register save eliminated.
 427              	.LVL34:
 428 0000 10B4     		push	{r4}
 429              		.cfi_def_cfa_offset 4
 430              		.cfi_offset 4, -4
 431              		.loc 1 162 0
 432 0002 0549     		ldr	r1, .L46
 433              		.loc 1 164 0
 434 0004 054C     		ldr	r4, .L46+4
 435              		.loc 1 163 0
 436 0006 064A     		ldr	r2, .L46+8
 437              		.loc 1 162 0
 438 0008 0123     		movs	r3, #1
 439              		.loc 1 164 0
 440 000a 2060     		str	r0, [r4]
 441              		.loc 1 162 0
 442 000c 0B70     		strb	r3, [r1]
 443              		.loc 1 166 0
 444 000e 1846     		mov	r0, r3
 445              	.LVL35:
 446              		.loc 1 163 0
 447 0010 1370     		strb	r3, [r2]
 448              		.loc 1 166 0
 449 0012 5DF8044B 		ldr	r4, [sp], #4
 450              		.cfi_restore 4
 451              		.cfi_def_cfa_offset 0
 452 0016 7047     		bx	lr
 453              	.L47:
 454              		.align	2
 455              	.L46:
 456 0018 00000000 		.word	.LANCHOR3
ARM GAS  /tmp/ccfwZZoQ.s 			page 9


 457 001c 00000000 		.word	.LANCHOR5
 458 0020 00000000 		.word	.LANCHOR4
 459              		.cfi_endproc
 460              	.LFE213:
 461              		.size	_test_fail, .-_test_fail
 462              		.section	.text._test_assert,"ax",%progbits
 463              		.align	2
 464              		.p2align 4,,15
 465              		.global	_test_assert
 466              		.thumb
 467              		.thumb_func
 468              		.type	_test_assert, %function
 469              	_test_assert:
 470              	.LFB214:
 471              		.loc 1 168 0
 472              		.cfi_startproc
 473              		@ args = 0, pretend = 0, frame = 0
 474              		@ frame_needed = 0, uses_anonymous_args = 0
 475              		@ link register save eliminated.
 476              	.LVL36:
 477              		.loc 1 170 0
 478 0000 59B9     		cbnz	r1, .L50
 479              	.LVL37:
 480              		.loc 1 168 0
 481 0002 10B4     		push	{r4}
 482              		.cfi_def_cfa_offset 4
 483              		.cfi_offset 4, -4
 484              	.LBB176:
 485              	.LBB177:
 486              		.loc 1 163 0
 487 0004 0649     		ldr	r1, .L53
 488              	.LVL38:
 489              		.loc 1 162 0
 490 0006 074C     		ldr	r4, .L53+4
 491              		.loc 1 164 0
 492 0008 074A     		ldr	r2, .L53+8
 493              		.loc 1 162 0
 494 000a 0123     		movs	r3, #1
 495 000c 2370     		strb	r3, [r4]
 496              		.loc 1 164 0
 497 000e 1060     		str	r0, [r2]
 498              		.loc 1 163 0
 499 0010 0B70     		strb	r3, [r1]
 500              	.LBE177:
 501              	.LBE176:
 502              		.loc 1 173 0
 503 0012 1846     		mov	r0, r3
 504              	.LVL39:
 505 0014 5DF8044B 		ldr	r4, [sp], #4
 506              		.cfi_restore 4
 507              		.cfi_def_cfa_offset 0
 508 0018 7047     		bx	lr
 509              	.LVL40:
 510              	.L50:
 511              		.loc 1 172 0
 512 001a 0023     		movs	r3, #0
 513              		.loc 1 173 0
ARM GAS  /tmp/ccfwZZoQ.s 			page 10


 514 001c 1846     		mov	r0, r3
 515              	.LVL41:
 516 001e 7047     		bx	lr
 517              	.L54:
 518              		.align	2
 519              	.L53:
 520 0020 00000000 		.word	.LANCHOR4
 521 0024 00000000 		.word	.LANCHOR3
 522 0028 00000000 		.word	.LANCHOR5
 523              		.cfi_endproc
 524              	.LFE214:
 525              		.size	_test_assert, .-_test_assert
 526              		.section	.text._test_assert_sequence,"ax",%progbits
 527              		.align	2
 528              		.p2align 4,,15
 529              		.global	_test_assert_sequence
 530              		.thumb
 531              		.thumb_func
 532              		.type	_test_assert_sequence, %function
 533              	_test_assert_sequence:
 534              	.LFB215:
 535              		.loc 1 175 0
 536              		.cfi_startproc
 537              		@ args = 0, pretend = 0, frame = 0
 538              		@ frame_needed = 0, uses_anonymous_args = 0
 539              		@ link register save eliminated.
 540              	.LVL42:
 541 0000 F0B4     		push	{r4, r5, r6, r7}
 542              		.cfi_def_cfa_offset 16
 543              		.cfi_offset 4, -16
 544              		.cfi_offset 5, -12
 545              		.cfi_offset 6, -8
 546              		.cfi_offset 7, -4
 547 0002 0E4E     		ldr	r6, .L62
 548              		.loc 1 176 0
 549 0004 0E4F     		ldr	r7, .L62+4
 550 0006 3568     		ldr	r5, [r6]
 551 0008 3B46     		mov	r3, r7
 552              		.loc 1 177 0
 553 000a 05E0     		b	.L56
 554              	.LVL43:
 555              	.L58:
 556              		.loc 1 178 0
 557 000c 13F8014B 		ldrb	r4, [r3], #1	@ zero_extendqisi2
 558              	.LVL44:
 559 0010 11F8012B 		ldrb	r2, [r1], #1	@ zero_extendqisi2
 560              	.LVL45:
 561 0014 9442     		cmp	r4, r2
 562 0016 07D1     		bne	.L59
 563              	.LVL46:
 564              	.L56:
 565              		.loc 1 177 0
 566 0018 AB42     		cmp	r3, r5
 567 001a F7D3     		bcc	.L58
 568              		.loc 1 181 0
 569 001c 0B78     		ldrb	r3, [r1]	@ zero_extendqisi2
 570              	.LVL47:
ARM GAS  /tmp/ccfwZZoQ.s 			page 11


 571 001e 1BB9     		cbnz	r3, .L59
 572              	.LBB178:
 573              	.LBB179:
 574              		.loc 1 135 0
 575 0020 3760     		str	r7, [r6]
 576              	.LBE179:
 577              	.LBE178:
 578              		.loc 1 185 0
 579 0022 1846     		mov	r0, r3
 580              	.LVL48:
 581 0024 F0BC     		pop	{r4, r5, r6, r7}
 582              		.cfi_remember_state
 583              		.cfi_restore 4
 584              		.cfi_restore 5
 585              		.cfi_restore 6
 586              		.cfi_restore 7
 587              		.cfi_def_cfa_offset 0
 588 0026 7047     		bx	lr
 589              	.LVL49:
 590              	.L59:
 591              		.cfi_restore_state
 592              	.LBB180:
 593              	.LBB181:
 594              		.loc 1 162 0
 595 0028 064C     		ldr	r4, .L62+8
 596              		.loc 1 163 0
 597 002a 0749     		ldr	r1, .L62+12
 598              		.loc 1 164 0
 599 002c 074A     		ldr	r2, .L62+16
 600              		.loc 1 162 0
 601 002e 0123     		movs	r3, #1
 602 0030 2370     		strb	r3, [r4]
 603              		.loc 1 164 0
 604 0032 1060     		str	r0, [r2]
 605              		.loc 1 163 0
 606 0034 0B70     		strb	r3, [r1]
 607              	.LBE181:
 608              	.LBE180:
 609              		.loc 1 185 0
 610 0036 1846     		mov	r0, r3
 611              	.LVL50:
 612 0038 F0BC     		pop	{r4, r5, r6, r7}
 613              		.cfi_restore 7
 614              		.cfi_restore 6
 615              		.cfi_restore 5
 616              		.cfi_restore 4
 617              		.cfi_def_cfa_offset 0
 618 003a 7047     		bx	lr
 619              	.L63:
 620              		.align	2
 621              	.L62:
 622 003c 00000000 		.word	.LANCHOR2
 623 0040 00000000 		.word	.LANCHOR6
 624 0044 00000000 		.word	.LANCHOR3
 625 0048 00000000 		.word	.LANCHOR4
 626 004c 00000000 		.word	.LANCHOR5
 627              		.cfi_endproc
ARM GAS  /tmp/ccfwZZoQ.s 			page 12


 628              	.LFE215:
 629              		.size	_test_assert_sequence, .-_test_assert_sequence
 630              		.section	.text._test_assert_time_window,"ax",%progbits
 631              		.align	2
 632              		.p2align 4,,15
 633              		.global	_test_assert_time_window
 634              		.thumb
 635              		.thumb_func
 636              		.type	_test_assert_time_window, %function
 637              	_test_assert_time_window:
 638              	.LFB216:
 639              		.loc 1 187 0
 640              		.cfi_startproc
 641              		@ args = 0, pretend = 0, frame = 0
 642              		@ frame_needed = 0, uses_anonymous_args = 0
 643              		@ link register save eliminated.
 644              	.LVL51:
 645 0000 10B4     		push	{r4}
 646              		.cfi_def_cfa_offset 4
 647              		.cfi_offset 4, -4
 648              	.LBB182:
 649              	.LBB183:
 650              	.LBB184:
 651              	.LBB185:
 652              	.LBB186:
 653              	.LBB187:
 654              	.LBB188:
 655              		.loc 2 548 0
 656 0002 2023     		movs	r3, #32
 657              	@ 548 "/home/maciek/ChibiOS_16.1.5/os/ext/CMSIS/include/core_cmFunc.h" 1
 658 0004 83F31188 		MSR basepri, r3
 659              	@ 0 "" 2
 660              		.thumb
 661              	.LBE188:
 662              	.LBE187:
 663              	.LBE186:
 664              	.LBE185:
 665              	.LBB189:
 666              	.LBB190:
 667              		.file 3 "/home/maciek/ChibiOS_16.1.5/os/rt/include/chvt.h"
 668              		.loc 3 231 0
 669 0008 0D4B     		ldr	r3, .L68
 670              	.LBE190:
 671              	.LBE189:
 672              	.LBB192:
 673              	.LBB193:
 674              	.LBB194:
 675              	.LBB195:
 676              	.LBB196:
 677              		.loc 2 548 0
 678 000a 0024     		movs	r4, #0
 679              	.LBE196:
 680              	.LBE195:
 681              	.LBE194:
 682              	.LBE193:
 683              	.LBE192:
 684              	.LBB201:
ARM GAS  /tmp/ccfwZZoQ.s 			page 13


 685              	.LBB191:
 686              		.loc 3 231 0
 687 000c DB8B     		ldrh	r3, [r3, #30]
 688 000e 9BB2     		uxth	r3, r3
 689              	.LVL52:
 690              	.LBE191:
 691              	.LBE201:
 692              	.LBB202:
 693              	.LBB200:
 694              	.LBB199:
 695              	.LBB198:
 696              	.LBB197:
 697              		.loc 2 548 0
 698              	@ 548 "/home/maciek/ChibiOS_16.1.5/os/ext/CMSIS/include/core_cmFunc.h" 1
 699 0010 84F31188 		MSR basepri, r4
 700              	@ 0 "" 2
 701              	.LVL53:
 702              		.thumb
 703              	.LBE197:
 704              	.LBE198:
 705              	.LBE199:
 706              	.LBE200:
 707              	.LBE202:
 708              	.LBE184:
 709              	.LBE183:
 710              	.LBB203:
 711              	.LBB204:
 712              		.loc 3 288 0
 713 0014 5B1A     		subs	r3, r3, r1
 714              	.LVL54:
 715 0016 521A     		subs	r2, r2, r1
 716              	.LVL55:
 717              	.LBE204:
 718              	.LBE203:
 719              	.LBE182:
 720              	.LBB205:
 721              	.LBB206:
 722              		.loc 1 170 0
 723 0018 9BB2     		uxth	r3, r3
 724 001a 92B2     		uxth	r2, r2
 725 001c 9342     		cmp	r3, r2
 726 001e 0AD3     		bcc	.L66
 727              	.LVL56:
 728              	.LBB207:
 729              	.LBB208:
 730              		.loc 1 162 0
 731 0020 084C     		ldr	r4, .L68+4
 732              		.loc 1 163 0
 733 0022 0949     		ldr	r1, .L68+8
 734              	.LVL57:
 735              		.loc 1 164 0
 736 0024 094A     		ldr	r2, .L68+12
 737              		.loc 1 162 0
 738 0026 0123     		movs	r3, #1
 739 0028 2370     		strb	r3, [r4]
 740              		.loc 1 164 0
 741 002a 1060     		str	r0, [r2]
ARM GAS  /tmp/ccfwZZoQ.s 			page 14


 742              		.loc 1 163 0
 743 002c 0B70     		strb	r3, [r1]
 744              	.LBE208:
 745              	.LBE207:
 746              	.LBE206:
 747              	.LBE205:
 748              		.loc 1 190 0
 749 002e 1846     		mov	r0, r3
 750              	.LVL58:
 751 0030 5DF8044B 		ldr	r4, [sp], #4
 752              		.cfi_remember_state
 753              		.cfi_restore 4
 754              		.cfi_def_cfa_offset 0
 755 0034 7047     		bx	lr
 756              	.LVL59:
 757              	.L66:
 758              		.cfi_restore_state
 759              	.LBB210:
 760              	.LBB209:
 761              		.loc 1 172 0
 762 0036 2346     		mov	r3, r4
 763              	.LBE209:
 764              	.LBE210:
 765              		.loc 1 190 0
 766 0038 5DF8044B 		ldr	r4, [sp], #4
 767              		.cfi_restore 4
 768              		.cfi_def_cfa_offset 0
 769 003c 1846     		mov	r0, r3
 770              	.LVL60:
 771 003e 7047     		bx	lr
 772              	.L69:
 773              		.align	2
 774              	.L68:
 775 0040 00000000 		.word	ch
 776 0044 00000000 		.word	.LANCHOR3
 777 0048 00000000 		.word	.LANCHOR4
 778 004c 00000000 		.word	.LANCHOR5
 779              		.cfi_endproc
 780              	.LFE216:
 781              		.size	_test_assert_time_window, .-_test_assert_time_window
 782              		.section	.text.test_terminate_threads,"ax",%progbits
 783              		.align	2
 784              		.p2align 4,,15
 785              		.global	test_terminate_threads
 786              		.thumb
 787              		.thumb_func
 788              		.type	test_terminate_threads, %function
 789              	test_terminate_threads:
 790              	.LFB217:
 791              		.loc 1 199 0
 792              		.cfi_startproc
 793              		@ args = 0, pretend = 0, frame = 0
 794              		@ frame_needed = 0, uses_anonymous_args = 0
 795              	.LVL61:
 796 0000 38B5     		push	{r3, r4, r5, lr}
 797              		.cfi_def_cfa_offset 16
 798              		.cfi_offset 3, -16
ARM GAS  /tmp/ccfwZZoQ.s 			page 15


 799              		.cfi_offset 4, -12
 800              		.cfi_offset 5, -8
 801              		.cfi_offset 14, -4
 802 0002 054C     		ldr	r4, .L78
 803 0004 04F11405 		add	r5, r4, #20
 804              	.LVL62:
 805              	.L72:
 806              		.loc 1 203 0
 807 0008 54F8040B 		ldr	r0, [r4], #4
 808 000c 08B1     		cbz	r0, .L71
 809              		.loc 1 204 0
 810 000e FFF7FEFF 		bl	chThdTerminate
 811              	.LVL63:
 812              	.L71:
 813              		.loc 1 202 0 discriminator 2
 814 0012 AC42     		cmp	r4, r5
 815 0014 F8D1     		bne	.L72
 816              		.loc 1 205 0
 817 0016 38BD     		pop	{r3, r4, r5, pc}
 818              	.L79:
 819              		.align	2
 820              	.L78:
 821 0018 00000000 		.word	.LANCHOR7
 822              		.cfi_endproc
 823              	.LFE217:
 824              		.size	test_terminate_threads, .-test_terminate_threads
 825              		.section	.text.test_wait_threads,"ax",%progbits
 826              		.align	2
 827              		.p2align 4,,15
 828              		.global	test_wait_threads
 829              		.thumb
 830              		.thumb_func
 831              		.type	test_wait_threads, %function
 832              	test_wait_threads:
 833              	.LFB218:
 834              		.loc 1 210 0
 835              		.cfi_startproc
 836              		@ args = 0, pretend = 0, frame = 0
 837              		@ frame_needed = 0, uses_anonymous_args = 0
 838              	.LVL64:
 839 0000 70B5     		push	{r4, r5, r6, lr}
 840              		.cfi_def_cfa_offset 16
 841              		.cfi_offset 4, -16
 842              		.cfi_offset 5, -12
 843              		.cfi_offset 6, -8
 844              		.cfi_offset 14, -4
 845 0002 074C     		ldr	r4, .L88
 846              		.loc 1 216 0
 847 0004 0026     		movs	r6, #0
 848 0006 04F11405 		add	r5, r4, #20
 849              	.LVL65:
 850              	.L82:
 851              		.loc 1 214 0
 852 000a 54F8040B 		ldr	r0, [r4], #4
 853 000e 18B1     		cbz	r0, .L81
 854              		.loc 1 215 0
 855 0010 FFF7FEFF 		bl	chThdWait
ARM GAS  /tmp/ccfwZZoQ.s 			page 16


 856              	.LVL66:
 857              		.loc 1 216 0
 858 0014 44F8046C 		str	r6, [r4, #-4]
 859              	.L81:
 860              		.loc 1 213 0 discriminator 2
 861 0018 AC42     		cmp	r4, r5
 862 001a F6D1     		bne	.L82
 863              		.loc 1 218 0
 864 001c 70BD     		pop	{r4, r5, r6, pc}
 865              	.L89:
 866 001e 00BF     		.align	2
 867              	.L88:
 868 0020 00000000 		.word	.LANCHOR7
 869              		.cfi_endproc
 870              	.LFE218:
 871              		.size	test_wait_threads, .-test_wait_threads
 872              		.section	.text.test_wait_tick,"ax",%progbits
 873              		.align	2
 874              		.p2align 4,,15
 875              		.global	test_wait_tick
 876              		.thumb
 877              		.thumb_func
 878              		.type	test_wait_tick, %function
 879              	test_wait_tick:
 880              	.LFB219:
 881              		.loc 1 248 0
 882              		.cfi_startproc
 883              		@ args = 0, pretend = 0, frame = 0
 884              		@ frame_needed = 0, uses_anonymous_args = 0
 885 0000 08B5     		push	{r3, lr}
 886              		.cfi_def_cfa_offset 8
 887              		.cfi_offset 3, -8
 888              		.cfi_offset 14, -4
 889              		.loc 1 250 0
 890 0002 0120     		movs	r0, #1
 891 0004 FFF7FEFF 		bl	chThdSleep
 892              	.LVL67:
 893              	.LBB211:
 894              	.LBB212:
 895              	.LBB213:
 896              	.LBB214:
 897              	.LBB215:
 898              	.LBB216:
 899              		.loc 2 548 0
 900 0008 2023     		movs	r3, #32
 901              	@ 548 "/home/maciek/ChibiOS_16.1.5/os/ext/CMSIS/include/core_cmFunc.h" 1
 902 000a 83F31188 		MSR basepri, r3
 903              	@ 0 "" 2
 904              		.thumb
 905              	.LBE216:
 906              	.LBE215:
 907              	.LBE214:
 908              	.LBE213:
 909              	.LBB217:
 910              	.LBB218:
 911              		.loc 3 231 0
 912 000e 034A     		ldr	r2, .L92
ARM GAS  /tmp/ccfwZZoQ.s 			page 17


 913              	.LBE218:
 914              	.LBE217:
 915              	.LBB220:
 916              	.LBB221:
 917              	.LBB222:
 918              	.LBB223:
 919              	.LBB224:
 920              		.loc 2 548 0
 921 0010 0023     		movs	r3, #0
 922              	.LBE224:
 923              	.LBE223:
 924              	.LBE222:
 925              	.LBE221:
 926              	.LBE220:
 927              	.LBB229:
 928              	.LBB219:
 929              		.loc 3 231 0
 930 0012 D08B     		ldrh	r0, [r2, #30]
 931 0014 80B2     		uxth	r0, r0
 932              	.LVL68:
 933              	.LBE219:
 934              	.LBE229:
 935              	.LBB230:
 936              	.LBB228:
 937              	.LBB227:
 938              	.LBB226:
 939              	.LBB225:
 940              		.loc 2 548 0
 941              	@ 548 "/home/maciek/ChibiOS_16.1.5/os/ext/CMSIS/include/core_cmFunc.h" 1
 942 0016 83F31188 		MSR basepri, r3
 943              	@ 0 "" 2
 944              		.thumb
 945              	.LBE225:
 946              	.LBE226:
 947              	.LBE227:
 948              	.LBE228:
 949              	.LBE230:
 950              	.LBE212:
 951              	.LBE211:
 952              		.loc 1 252 0
 953 001a 08BD     		pop	{r3, pc}
 954              	.L93:
 955              		.align	2
 956              	.L92:
 957 001c 00000000 		.word	ch
 958              		.cfi_endproc
 959              	.LFE219:
 960              		.size	test_wait_tick, .-test_wait_tick
 961              		.section	.text.test_start_timer,"ax",%progbits
 962              		.align	2
 963              		.p2align 4,,15
 964              		.global	test_start_timer
 965              		.thumb
 966              		.thumb_func
 967              		.type	test_start_timer, %function
 968              	test_start_timer:
 969              	.LFB221:
ARM GAS  /tmp/ccfwZZoQ.s 			page 18


 970              		.loc 1 275 0
 971              		.cfi_startproc
 972              		@ args = 0, pretend = 0, frame = 0
 973              		@ frame_needed = 0, uses_anonymous_args = 0
 974              	.LVL69:
 975 0000 10B5     		push	{r4, lr}
 976              		.cfi_def_cfa_offset 8
 977              		.cfi_offset 4, -8
 978              		.cfi_offset 14, -4
 979              		.loc 1 277 0
 980 0002 4FF4FA64 		mov	r4, #2000
 981 0006 04FB00F0 		mul	r0, r4, r0
 982              	.LVL70:
 983 000a 0E49     		ldr	r1, .L100
 984 000c 00F2E734 		addw	r4, r0, #999
 985 0010 A1FB0434 		umull	r3, r4, r1, r4
 986              		.loc 1 278 0
 987 0014 0C4B     		ldr	r3, .L100+4
 988 0016 0022     		movs	r2, #0
 989 0018 1A70     		strb	r2, [r3]
 990              		.loc 1 277 0
 991 001a C4F38F14 		ubfx	r4, r4, #6, #16
 992              	.LVL71:
 993              	.LBB246:
 994              	.LBB247:
 995              	.LBB248:
 996              	.LBB249:
 997              	.LBB250:
 998              		.loc 2 548 0
 999 001e 2023     		movs	r3, #32
 1000              	@ 548 "/home/maciek/ChibiOS_16.1.5/os/ext/CMSIS/include/core_cmFunc.h" 1
 1001 0020 83F31188 		MSR basepri, r3
 1002              	@ 0 "" 2
 1003              	.LVL72:
 1004              		.thumb
 1005 0024 0948     		ldr	r0, .L100+8
 1006              	.LBE250:
 1007              	.LBE249:
 1008              	.LBE248:
 1009              	.LBE247:
 1010              	.LBB251:
 1011              	.LBB252:
 1012              	.LBB253:
 1013              	.LBB254:
 1014              		.loc 3 412 0
 1015 0026 C368     		ldr	r3, [r0, #12]
 1016 0028 0BB1     		cbz	r3, .L95
 1017              		.loc 3 413 0
 1018 002a FFF7FEFF 		bl	chVTDoResetI
 1019              	.LVL73:
 1020              	.L95:
 1021              	.LBE254:
 1022              	.LBE253:
 1023              		.loc 3 460 0
 1024 002e 2146     		mov	r1, r4
 1025 0030 0648     		ldr	r0, .L100+8
 1026 0032 074A     		ldr	r2, .L100+12
ARM GAS  /tmp/ccfwZZoQ.s 			page 19


 1027 0034 0023     		movs	r3, #0
 1028 0036 FFF7FEFF 		bl	chVTDoSetI
 1029              	.LVL74:
 1030              	.LBE252:
 1031              	.LBE251:
 1032              	.LBB255:
 1033              	.LBB256:
 1034              	.LBB257:
 1035              	.LBB258:
 1036              	.LBB259:
 1037              		.loc 2 548 0
 1038 003a 0023     		movs	r3, #0
 1039              	@ 548 "/home/maciek/ChibiOS_16.1.5/os/ext/CMSIS/include/core_cmFunc.h" 1
 1040 003c 83F31188 		MSR basepri, r3
 1041              	@ 0 "" 2
 1042              		.thumb
 1043 0040 10BD     		pop	{r4, pc}
 1044              	.LVL75:
 1045              	.L101:
 1046 0042 00BF     		.align	2
 1047              	.L100:
 1048 0044 D34D6210 		.word	274877907
 1049 0048 00000000 		.word	.LANCHOR0
 1050 004c 00000000 		.word	.LANCHOR8
 1051 0050 00000000 		.word	tmr
 1052              	.LBE259:
 1053              	.LBE258:
 1054              	.LBE257:
 1055              	.LBE256:
 1056              	.LBE255:
 1057              	.LBE246:
 1058              		.cfi_endproc
 1059              	.LFE221:
 1060              		.size	test_start_timer, .-test_start_timer
 1061              		.section	.text.TestThread,"ax",%progbits
 1062              		.align	2
 1063              		.p2align 4,,15
 1064              		.global	TestThread
 1065              		.thumb
 1066              		.thumb_func
 1067              		.type	TestThread, %function
 1068              	TestThread:
 1069              	.LFB224:
 1070              		.loc 1 316 0
 1071              		.cfi_startproc
 1072              		@ args = 0, pretend = 0, frame = 8
 1073              		@ frame_needed = 0, uses_anonymous_args = 0
 1074              	.LVL76:
 1075 0000 2DE9F04F 		push	{r4, r5, r6, r7, r8, r9, r10, fp, lr}
 1076              		.cfi_def_cfa_offset 36
 1077              		.cfi_offset 4, -36
 1078              		.cfi_offset 5, -32
 1079              		.cfi_offset 6, -28
 1080              		.cfi_offset 7, -24
 1081              		.cfi_offset 8, -20
 1082              		.cfi_offset 9, -16
 1083              		.cfi_offset 10, -12
ARM GAS  /tmp/ccfwZZoQ.s 			page 20


 1084              		.cfi_offset 11, -8
 1085              		.cfi_offset 14, -4
 1086              		.loc 1 319 0
 1087 0004 9F4C     		ldr	r4, .L186
 1088              		.loc 1 316 0
 1089 0006 83B0     		sub	sp, sp, #12
 1090              		.cfi_def_cfa_offset 48
 1091              		.loc 1 319 0
 1092 0008 2060     		str	r0, [r4]
 1093              		.loc 1 320 0
 1094 000a 9F48     		ldr	r0, .L186+4
 1095              	.LVL77:
 1096 000c FFF7FEFF 		bl	test_println
 1097              	.LVL78:
 1098              		.loc 1 321 0
 1099 0010 9E48     		ldr	r0, .L186+8
 1100 0012 FFF7FEFF 		bl	test_println
 1101              	.LVL79:
 1102              		.loc 1 322 0
 1103 0016 9E4D     		ldr	r5, .L186+12
 1104 0018 9E48     		ldr	r0, .L186+16
 1105 001a FFF7FEFF 		bl	test_println
 1106              	.LVL80:
 1107 001e 2A21     		movs	r1, #42
 1108              	.LVL81:
 1109              	.L103:
 1110              	.LBB296:
 1111              	.LBB297:
 1112              		.loc 1 116 0
 1113 0020 2068     		ldr	r0, [r4]
 1114 0022 0368     		ldr	r3, [r0]
 1115 0024 9B68     		ldr	r3, [r3, #8]
 1116 0026 9847     		blx	r3
 1117              	.LVL82:
 1118              		.loc 1 115 0
 1119 0028 15F8011F 		ldrb	r1, [r5, #1]!	@ zero_extendqisi2
 1120              	.LVL83:
 1121 002c 0029     		cmp	r1, #0
 1122 002e F7D1     		bne	.L103
 1123              	.LBE297:
 1124              	.LBE296:
 1125              		.loc 1 324 0
 1126 0030 9948     		ldr	r0, .L186+20
 1127 0032 9A4D     		ldr	r5, .L186+24
 1128              	.LVL84:
 1129 0034 FFF7FEFF 		bl	test_println
 1130              	.LVL85:
 1131 0038 2A21     		movs	r1, #42
 1132              	.LVL86:
 1133              	.L105:
 1134              	.LBB298:
 1135              	.LBB299:
 1136              		.loc 1 116 0
 1137 003a 2068     		ldr	r0, [r4]
 1138 003c 0368     		ldr	r3, [r0]
 1139 003e 9B68     		ldr	r3, [r3, #8]
 1140 0040 9847     		blx	r3
ARM GAS  /tmp/ccfwZZoQ.s 			page 21


 1141              	.LVL87:
 1142              		.loc 1 115 0
 1143 0042 15F8011F 		ldrb	r1, [r5, #1]!	@ zero_extendqisi2
 1144              	.LVL88:
 1145 0046 0029     		cmp	r1, #0
 1146 0048 F7D1     		bne	.L105
 1147              	.LBE299:
 1148              	.LBE298:
 1149              		.loc 1 326 0
 1150 004a 9548     		ldr	r0, .L186+28
 1151 004c 954D     		ldr	r5, .L186+32
 1152              	.LVL89:
 1153 004e FFF7FEFF 		bl	test_println
 1154              	.LVL90:
 1155 0052 2A21     		movs	r1, #42
 1156              	.LVL91:
 1157              	.L107:
 1158              	.LBB300:
 1159              	.LBB301:
 1160              		.loc 1 116 0
 1161 0054 2068     		ldr	r0, [r4]
 1162 0056 0368     		ldr	r3, [r0]
 1163 0058 9B68     		ldr	r3, [r3, #8]
 1164 005a 9847     		blx	r3
 1165              	.LVL92:
 1166              		.loc 1 115 0
 1167 005c 15F8011F 		ldrb	r1, [r5, #1]!	@ zero_extendqisi2
 1168              	.LVL93:
 1169 0060 0029     		cmp	r1, #0
 1170 0062 F7D1     		bne	.L107
 1171              	.LBE301:
 1172              	.LBE300:
 1173              		.loc 1 329 0
 1174 0064 9048     		ldr	r0, .L186+36
 1175 0066 914D     		ldr	r5, .L186+40
 1176              	.LVL94:
 1177 0068 FFF7FEFF 		bl	test_println
 1178              	.LVL95:
 1179 006c 2A21     		movs	r1, #42
 1180              	.LVL96:
 1181              	.L109:
 1182              	.LBB302:
 1183              	.LBB303:
 1184              		.loc 1 116 0
 1185 006e 2068     		ldr	r0, [r4]
 1186 0070 0368     		ldr	r3, [r0]
 1187 0072 9B68     		ldr	r3, [r3, #8]
 1188 0074 9847     		blx	r3
 1189              	.LVL97:
 1190              		.loc 1 115 0
 1191 0076 15F8011F 		ldrb	r1, [r5, #1]!	@ zero_extendqisi2
 1192              	.LVL98:
 1193 007a 0029     		cmp	r1, #0
 1194 007c F7D1     		bne	.L109
 1195              	.LBE303:
 1196              	.LBE302:
 1197              		.loc 1 332 0
ARM GAS  /tmp/ccfwZZoQ.s 			page 22


 1198 007e 8C48     		ldr	r0, .L186+44
 1199 0080 8C4D     		ldr	r5, .L186+48
 1200              	.LVL99:
 1201 0082 FFF7FEFF 		bl	test_println
 1202              	.LVL100:
 1203 0086 2A21     		movs	r1, #42
 1204              	.LVL101:
 1205              	.L111:
 1206              	.LBB304:
 1207              	.LBB305:
 1208              		.loc 1 116 0
 1209 0088 2068     		ldr	r0, [r4]
 1210 008a 0368     		ldr	r3, [r0]
 1211 008c 9B68     		ldr	r3, [r3, #8]
 1212 008e 9847     		blx	r3
 1213              	.LVL102:
 1214              		.loc 1 115 0
 1215 0090 15F8011F 		ldrb	r1, [r5, #1]!	@ zero_extendqisi2
 1216              	.LVL103:
 1217 0094 0029     		cmp	r1, #0
 1218 0096 F7D1     		bne	.L111
 1219              	.LBE305:
 1220              	.LBE304:
 1221              		.loc 1 335 0
 1222 0098 8748     		ldr	r0, .L186+52
 1223 009a 884D     		ldr	r5, .L186+56
 1224              	.LVL104:
 1225 009c FFF7FEFF 		bl	test_println
 1226              	.LVL105:
 1227 00a0 2A21     		movs	r1, #42
 1228              	.LVL106:
 1229              	.L113:
 1230              	.LBB306:
 1231              	.LBB307:
 1232              		.loc 1 116 0
 1233 00a2 2068     		ldr	r0, [r4]
 1234 00a4 0368     		ldr	r3, [r0]
 1235 00a6 9B68     		ldr	r3, [r3, #8]
 1236 00a8 9847     		blx	r3
 1237              	.LVL107:
 1238              		.loc 1 115 0
 1239 00aa 15F8011F 		ldrb	r1, [r5, #1]!	@ zero_extendqisi2
 1240              	.LVL108:
 1241 00ae 0029     		cmp	r1, #0
 1242 00b0 F7D1     		bne	.L113
 1243              	.LBE307:
 1244              	.LBE306:
 1245              		.loc 1 339 0
 1246 00b2 8348     		ldr	r0, .L186+60
 1247 00b4 834D     		ldr	r5, .L186+64
 1248              	.LVL109:
 1249 00b6 FFF7FEFF 		bl	test_println
 1250              	.LVL110:
 1251 00ba 2A21     		movs	r1, #42
 1252              	.LVL111:
 1253              	.L115:
 1254              	.LBB308:
ARM GAS  /tmp/ccfwZZoQ.s 			page 23


 1255              	.LBB309:
 1256              		.loc 1 116 0
 1257 00bc 2068     		ldr	r0, [r4]
 1258 00be 0368     		ldr	r3, [r0]
 1259 00c0 9B68     		ldr	r3, [r3, #8]
 1260 00c2 9847     		blx	r3
 1261              	.LVL112:
 1262              		.loc 1 115 0
 1263 00c4 15F8011F 		ldrb	r1, [r5, #1]!	@ zero_extendqisi2
 1264              	.LVL113:
 1265 00c8 0029     		cmp	r1, #0
 1266 00ca F7D1     		bne	.L115
 1267              	.LBE309:
 1268              	.LBE308:
 1269              		.loc 1 343 0
 1270 00cc 7E48     		ldr	r0, .L186+68
 1271 00ce 7F4D     		ldr	r5, .L186+72
 1272              	.LVL114:
 1273 00d0 FFF7FEFF 		bl	test_println
 1274              	.LVL115:
 1275 00d4 2A21     		movs	r1, #42
 1276              	.LVL116:
 1277              	.L117:
 1278              	.LBB310:
 1279              	.LBB311:
 1280              		.loc 1 116 0
 1281 00d6 2068     		ldr	r0, [r4]
 1282 00d8 0368     		ldr	r3, [r0]
 1283 00da 9B68     		ldr	r3, [r3, #8]
 1284 00dc 9847     		blx	r3
 1285              	.LVL117:
 1286              		.loc 1 115 0
 1287 00de 15F8011F 		ldrb	r1, [r5, #1]!	@ zero_extendqisi2
 1288              	.LVL118:
 1289 00e2 0029     		cmp	r1, #0
 1290 00e4 F7D1     		bne	.L117
 1291              	.LBE311:
 1292              	.LBE310:
 1293              		.loc 1 347 0
 1294 00e6 7A48     		ldr	r0, .L186+76
 1295 00e8 0091     		str	r1, [sp]
 1296 00ea FFF7FEFF 		bl	test_println
 1297              	.LVL119:
 1298              		.loc 1 349 0
 1299 00ee 6648     		ldr	r0, .L186+4
 1300 00f0 FFF7FEFF 		bl	test_println
 1301              	.LVL120:
 1302              		.loc 1 351 0
 1303 00f4 774B     		ldr	r3, .L186+80
 1304 00f6 0099     		ldr	r1, [sp]
 1305 00f8 774F     		ldr	r7, .L186+84
 1306 00fa 1970     		strb	r1, [r3]
 1307              	.LVL121:
 1308 00fc 774B     		ldr	r3, .L186+88
 1309              	.LBB312:
 1310              	.LBB313:
 1311              		.loc 1 116 0
ARM GAS  /tmp/ccfwZZoQ.s 			page 24


 1312 00fe DFF884B1 		ldr	fp, .L186
 1313 0102 0193     		str	r3, [sp, #4]
 1314              	.LVL122:
 1315              	.L140:
 1316 0104 009B     		ldr	r3, [sp]
 1317              	.LBE313:
 1318              	.LBE312:
 1319              	.LBB315:
 1320              	.LBB316:
 1321              		.loc 1 141 0
 1322 0106 0026     		movs	r6, #0
 1323 0108 0133     		adds	r3, r3, #1
 1324 010a 0093     		str	r3, [sp]
 1325              	.LVL123:
 1326              	.L137:
 1327              	.LBE316:
 1328              	.LBE315:
 1329              		.loc 1 355 0
 1330 010c 57F82630 		ldr	r3, [r7, r6, lsl #2]
 1331 0110 07EB8608 		add	r8, r7, r6, lsl #2
 1332 0114 002B     		cmp	r3, #0
 1333 0116 00F08B80 		beq	.L184
 1334              	.L135:
 1335              		.loc 1 356 0
 1336 011a 714D     		ldr	r5, .L186+92
 1337 011c FFF7FEFF 		bl	print_line
 1338              	.LVL124:
 1339 0120 2D21     		movs	r1, #45
 1340              	.LVL125:
 1341              	.L119:
 1342              	.LBB318:
 1343              	.LBB314:
 1344              		.loc 1 116 0
 1345 0122 2068     		ldr	r0, [r4]
 1346 0124 0368     		ldr	r3, [r0]
 1347 0126 9B68     		ldr	r3, [r3, #8]
 1348 0128 9847     		blx	r3
 1349              	.LVL126:
 1350              		.loc 1 115 0
 1351 012a 15F8011F 		ldrb	r1, [r5, #1]!	@ zero_extendqisi2
 1352              	.LVL127:
 1353 012e 0029     		cmp	r1, #0
 1354 0130 F7D1     		bne	.L119
 1355              	.LBE314:
 1356              	.LBE318:
 1357              		.loc 1 358 0
 1358 0132 0098     		ldr	r0, [sp]
 1359 0134 FFF7FEFF 		bl	test_printn
 1360              	.LVL128:
 1361              	.LBB319:
 1362              	.LBB320:
 1363              		.loc 1 116 0
 1364 0138 DBF80000 		ldr	r0, [fp]
 1365              	.LVL129:
 1366 013c 2E21     		movs	r1, #46
 1367 013e 0368     		ldr	r3, [r0]
 1368              	.LBE320:
ARM GAS  /tmp/ccfwZZoQ.s 			page 25


 1369              	.LBE319:
 1370              		.loc 1 360 0
 1371 0140 0136     		adds	r6, r6, #1
 1372              	.LVL130:
 1373              	.LBB322:
 1374              	.LBB321:
 1375              		.loc 1 116 0
 1376 0142 9B68     		ldr	r3, [r3, #8]
 1377 0144 9847     		blx	r3
 1378              	.LVL131:
 1379              	.LBE321:
 1380              	.LBE322:
 1381              		.loc 1 360 0
 1382 0146 674D     		ldr	r5, .L186+96
 1383              	.LVL132:
 1384 0148 3046     		mov	r0, r6
 1385 014a FFF7FEFF 		bl	test_printn
 1386              	.LVL133:
 1387 014e 2021     		movs	r1, #32
 1388              	.LVL134:
 1389              	.L121:
 1390              	.LBB323:
 1391              	.LBB324:
 1392              		.loc 1 116 0
 1393 0150 2068     		ldr	r0, [r4]
 1394 0152 0368     		ldr	r3, [r0]
 1395 0154 9B68     		ldr	r3, [r3, #8]
 1396 0156 9847     		blx	r3
 1397              	.LVL135:
 1398              		.loc 1 115 0
 1399 0158 15F8011F 		ldrb	r1, [r5, #1]!	@ zero_extendqisi2
 1400              	.LVL136:
 1401 015c 0029     		cmp	r1, #0
 1402 015e F7D1     		bne	.L121
 1403              	.LBE324:
 1404              	.LBE323:
 1405              		.loc 1 362 0
 1406 0160 D8F80030 		ldr	r3, [r8]
 1407 0164 1D68     		ldr	r5, [r3]
 1408              	.LVL137:
 1409              	.LBB325:
 1410              	.LBB326:
 1411              		.loc 1 115 0
 1412 0166 2978     		ldrb	r1, [r5]	@ zero_extendqisi2
 1413 0168 39B1     		cbz	r1, .L126
 1414              	.LVL138:
 1415              	.L125:
 1416              		.loc 1 116 0
 1417 016a 2068     		ldr	r0, [r4]
 1418 016c 0368     		ldr	r3, [r0]
 1419 016e 9B68     		ldr	r3, [r3, #8]
 1420 0170 9847     		blx	r3
 1421              	.LVL139:
 1422              		.loc 1 115 0
 1423 0172 15F8011F 		ldrb	r1, [r5, #1]!	@ zero_extendqisi2
 1424              	.LVL140:
 1425 0176 0029     		cmp	r1, #0
ARM GAS  /tmp/ccfwZZoQ.s 			page 26


 1426 0178 F7D1     		bne	.L125
 1427              	.LVL141:
 1428              	.L126:
 1429              	.LBE326:
 1430              	.LBE325:
 1431              		.loc 1 363 0
 1432 017a 5B48     		ldr	r0, .L186+100
 1433 017c FFF7FEFF 		bl	test_println
 1434              	.LVL142:
 1435              		.loc 1 365 0
 1436 0180 4FF4C870 		mov	r0, #400
 1437 0184 FFF7FEFF 		bl	chThdSleep
 1438              	.LVL143:
 1439              	.LBB327:
 1440              	.LBB328:
 1441              		.loc 1 292 0
 1442 0188 584A     		ldr	r2, .L186+104
 1443              	.LBE328:
 1444              	.LBE327:
 1445              		.loc 1 367 0
 1446 018a D8F800A0 		ldr	r10, [r8]
 1447              	.LVL144:
 1448              	.LBB334:
 1449              	.LBB333:
 1450              		.loc 1 290 0
 1451 018e 0023     		movs	r3, #0
 1452              		.loc 1 292 0
 1453 0190 1360     		str	r3, [r2]
 1454 0192 5360     		str	r3, [r2, #4]
 1455 0194 9360     		str	r3, [r2, #8]
 1456 0196 D360     		str	r3, [r2, #12]
 1457 0198 1361     		str	r3, [r2, #16]
 1458              		.loc 1 290 0
 1459 019a DFF87C81 		ldr	r8, .L186+148
 1460              	.LBB329:
 1461              	.LBB330:
 1462              		.loc 1 135 0
 1463 019e 544D     		ldr	r5, .L186+108
 1464 01a0 DFF85C91 		ldr	r9, .L186+124
 1465              	.LBE330:
 1466              	.LBE329:
 1467              		.loc 1 294 0
 1468 01a4 DAF80420 		ldr	r2, [r10, #4]
 1469              		.loc 1 290 0
 1470 01a8 88F80030 		strb	r3, [r8]
 1471              	.LVL145:
 1472              	.LBB332:
 1473              	.LBB331:
 1474              		.loc 1 135 0
 1475 01ac C5F80090 		str	r9, [r5]
 1476              	.LBE331:
 1477              	.LBE332:
 1478              		.loc 1 294 0
 1479 01b0 02B1     		cbz	r2, .L124
 1480              		.loc 1 295 0
 1481 01b2 9047     		blx	r2
 1482              	.LVL146:
ARM GAS  /tmp/ccfwZZoQ.s 			page 27


 1483              	.L124:
 1484              		.loc 1 296 0
 1485 01b4 DAF80C30 		ldr	r3, [r10, #12]
 1486 01b8 9847     		blx	r3
 1487              	.LVL147:
 1488              		.loc 1 297 0
 1489 01ba DAF80830 		ldr	r3, [r10, #8]
 1490 01be 03B1     		cbz	r3, .L172
 1491              		.loc 1 298 0
 1492 01c0 9847     		blx	r3
 1493              	.LVL148:
 1494              	.L172:
 1495              		.loc 1 300 0
 1496 01c2 FFF7FEFF 		bl	test_wait_threads
 1497              	.LVL149:
 1498              	.LBE333:
 1499              	.LBE334:
 1500              		.loc 1 368 0
 1501 01c6 98F80030 		ldrb	r3, [r8]	@ zero_extendqisi2
 1502 01ca 002B     		cmp	r3, #0
 1503 01cc 4FD0     		beq	.L128
 1504              	.LVL150:
 1505              		.loc 1 360 0
 1506 01ce 494F     		ldr	r7, .L186+112
 1507 01d0 2D21     		movs	r1, #45
 1508              	.LVL151:
 1509              	.L129:
 1510              	.LBB335:
 1511              	.LBB336:
 1512              		.loc 1 116 0
 1513 01d2 2068     		ldr	r0, [r4]
 1514 01d4 0368     		ldr	r3, [r0]
 1515 01d6 9B68     		ldr	r3, [r3, #8]
 1516 01d8 9847     		blx	r3
 1517              	.LVL152:
 1518              		.loc 1 115 0
 1519 01da 17F8011F 		ldrb	r1, [r7, #1]!	@ zero_extendqisi2
 1520              	.LVL153:
 1521 01de 0029     		cmp	r1, #0
 1522 01e0 F7D1     		bne	.L129
 1523              	.LBE336:
 1524              	.LBE335:
 1525              		.loc 1 370 0
 1526 01e2 454B     		ldr	r3, .L186+116
 1527 01e4 454F     		ldr	r7, .L186+120
 1528              	.LVL154:
 1529 01e6 1868     		ldr	r0, [r3]
 1530 01e8 FFF7FEFF 		bl	test_printn
 1531              	.LVL155:
 1532 01ec 2021     		movs	r1, #32
 1533              	.LVL156:
 1534              	.L131:
 1535              	.LBB337:
 1536              	.LBB338:
 1537              		.loc 1 116 0
 1538 01ee 2068     		ldr	r0, [r4]
 1539 01f0 0368     		ldr	r3, [r0]
ARM GAS  /tmp/ccfwZZoQ.s 			page 28


 1540 01f2 9B68     		ldr	r3, [r3, #8]
 1541 01f4 9847     		blx	r3
 1542              	.LVL157:
 1543              		.loc 1 115 0
 1544 01f6 17F8011F 		ldrb	r1, [r7, #1]!	@ zero_extendqisi2
 1545              	.LVL158:
 1546 01fa 0029     		cmp	r1, #0
 1547 01fc F7D1     		bne	.L131
 1548              	.LVL159:
 1549              	.LBE338:
 1550              	.LBE337:
 1551              	.LBB339:
 1552              	.LBB317:
 1553              		.loc 1 141 0
 1554 01fe 2B68     		ldr	r3, [r5]
 1555 0200 4B45     		cmp	r3, r9
 1556 0202 09D9     		bls	.L134
 1557 0204 3E4F     		ldr	r7, .L186+124
 1558              	.LVL160:
 1559              	.L132:
 1560              		.loc 1 142 0
 1561 0206 2068     		ldr	r0, [r4]
 1562 0208 17F8011B 		ldrb	r1, [r7], #1	@ zero_extendqisi2
 1563              	.LVL161:
 1564 020c 0368     		ldr	r3, [r0]
 1565 020e 9B68     		ldr	r3, [r3, #8]
 1566 0210 9847     		blx	r3
 1567              	.LVL162:
 1568              		.loc 1 141 0
 1569 0212 2B68     		ldr	r3, [r5]
 1570 0214 9F42     		cmp	r7, r3
 1571 0216 F6D3     		bcc	.L132
 1572              	.LVL163:
 1573              	.L134:
 1574              	.LBE317:
 1575              	.LBE339:
 1576              		.loc 1 373 0
 1577 0218 3A48     		ldr	r0, .L186+128
 1578 021a FFF7FEFF 		bl	test_println
 1579              	.LVL164:
 1580 021e 019B     		ldr	r3, [sp, #4]
 1581 0220 1F68     		ldr	r7, [r3]
 1582              	.LVL165:
 1583              		.loc 1 355 0
 1584 0222 57F82630 		ldr	r3, [r7, r6, lsl #2]
 1585 0226 07EB8608 		add	r8, r7, r6, lsl #2
 1586 022a 002B     		cmp	r3, #0
 1587 022c 7FF475AF 		bne	.L135
 1588              	.LVL166:
 1589              	.L184:
 1590              		.loc 1 353 0
 1591 0230 019B     		ldr	r3, [sp, #4]
 1592 0232 53F8047F 		ldr	r7, [r3, #4]!
 1593 0236 0193     		str	r3, [sp, #4]
 1594 0238 002F     		cmp	r7, #0
 1595 023a 7FF463AF 		bne	.L140
 1596              		.loc 1 381 0
ARM GAS  /tmp/ccfwZZoQ.s 			page 29


 1597 023e FFF7FEFF 		bl	print_line
 1598              	.LVL167:
 1599              		.loc 1 382 0
 1600 0242 314D     		ldr	r5, .L186+132
 1601 0244 1048     		ldr	r0, .L186+4
 1602 0246 FFF7FEFF 		bl	test_println
 1603              	.LVL168:
 1604 024a 4621     		movs	r1, #70
 1605              	.LVL169:
 1606              	.L138:
 1607              	.LBB340:
 1608              	.LBB341:
 1609              		.loc 1 116 0
 1610 024c 2068     		ldr	r0, [r4]
 1611 024e 0368     		ldr	r3, [r0]
 1612 0250 9B68     		ldr	r3, [r3, #8]
 1613 0252 9847     		blx	r3
 1614              	.LVL170:
 1615              		.loc 1 115 0
 1616 0254 15F8011F 		ldrb	r1, [r5, #1]!	@ zero_extendqisi2
 1617              	.LVL171:
 1618 0258 0029     		cmp	r1, #0
 1619 025a F7D1     		bne	.L138
 1620              	.LBE341:
 1621              	.LBE340:
 1622              		.loc 1 384 0
 1623 025c 1D4B     		ldr	r3, .L186+80
 1624 025e 1B78     		ldrb	r3, [r3]	@ zero_extendqisi2
 1625 0260 4BB9     		cbnz	r3, .L185
 1626              		.loc 1 387 0
 1627 0262 2A48     		ldr	r0, .L186+136
 1628              		.loc 1 388 0
 1629 0264 03B0     		add	sp, sp, #12
 1630              		.cfi_remember_state
 1631              		.cfi_def_cfa_offset 36
 1632              	.LVL172:
 1633              		@ sp needed
 1634 0266 BDE8F04F 		pop	{r4, r5, r6, r7, r8, r9, r10, fp, lr}
 1635              		.cfi_restore 14
 1636              		.cfi_restore 11
 1637              		.cfi_restore 10
 1638              		.cfi_restore 9
 1639              		.cfi_restore 8
 1640              		.cfi_restore 7
 1641              		.cfi_restore 6
 1642              		.cfi_restore 5
 1643              		.cfi_restore 4
 1644              		.cfi_def_cfa_offset 0
 1645              	.LVL173:
 1646              		.loc 1 387 0
 1647 026a FFF7FEBF 		b	test_println
 1648              	.LVL174:
 1649              	.L128:
 1650              		.cfi_restore_state
 1651              		.loc 1 376 0
 1652 026e 2848     		ldr	r0, .L186+140
 1653 0270 FFF7FEFF 		bl	test_println
ARM GAS  /tmp/ccfwZZoQ.s 			page 30


 1654              	.LVL175:
 1655 0274 4AE7     		b	.L137
 1656              	.LVL176:
 1657              	.L185:
 1658              		.loc 1 385 0
 1659 0276 2748     		ldr	r0, .L186+144
 1660              		.loc 1 388 0
 1661 0278 03B0     		add	sp, sp, #12
 1662              		.cfi_def_cfa_offset 36
 1663              	.LVL177:
 1664              		@ sp needed
 1665 027a BDE8F04F 		pop	{r4, r5, r6, r7, r8, r9, r10, fp, lr}
 1666              		.cfi_restore 4
 1667              		.cfi_restore 5
 1668              		.cfi_restore 6
 1669              		.cfi_restore 7
 1670              		.cfi_restore 8
 1671              		.cfi_restore 9
 1672              		.cfi_restore 10
 1673              		.cfi_restore 11
 1674              		.cfi_restore 14
 1675              		.cfi_def_cfa_offset 0
 1676              	.LVL178:
 1677              		.loc 1 387 0
 1678 027e FFF7FEBF 		b	test_println
 1679              	.LVL179:
 1680              	.L187:
 1681 0282 00BF     		.align	2
 1682              	.L186:
 1683 0284 00000000 		.word	.LANCHOR1
 1684 0288 E4000000 		.word	.LC14
 1685 028c E8000000 		.word	.LC15
 1686 0290 04000000 		.word	.LC1
 1687 0294 04010000 		.word	.LC16
 1688 0298 34010000 		.word	.LC22
 1689 029c 18000000 		.word	.LC2
 1690 02a0 3C010000 		.word	.LC23
 1691 02a4 2C000000 		.word	.LC3
 1692 02a8 54010000 		.word	.LC24
 1693 02ac 40000000 		.word	.LC4
 1694 02b0 9C010000 		.word	.LC25
 1695 02b4 54000000 		.word	.LC5
 1696 02b8 A4010000 		.word	.LC26
 1697 02bc 68000000 		.word	.LC6
 1698 02c0 B0010000 		.word	.LC27
 1699 02c4 7C000000 		.word	.LC7
 1700 02c8 C8010000 		.word	.LC28
 1701 02cc 90000000 		.word	.LC8
 1702 02d0 F0010000 		.word	.LC29
 1703 02d4 00000000 		.word	.LANCHOR3
 1704 02d8 00000000 		.word	patternsys
 1705 02dc 00000000 		.word	.LANCHOR9
 1706 02e0 A4000000 		.word	.LC9
 1707 02e4 B4000000 		.word	.LC10
 1708 02e8 08010000 		.word	.LC17
 1709 02ec 00000000 		.word	.LANCHOR7
 1710 02f0 00000000 		.word	.LANCHOR2
ARM GAS  /tmp/ccfwZZoQ.s 			page 31


 1711 02f4 B8000000 		.word	.LC11
 1712 02f8 00000000 		.word	.LANCHOR5
 1713 02fc D0000000 		.word	.LC12
 1714 0300 00000000 		.word	.LANCHOR6
 1715 0304 0C010000 		.word	.LC18
 1716 0308 D4000000 		.word	.LC13
 1717 030c 2C010000 		.word	.LC21
 1718 0310 10010000 		.word	.LC19
 1719 0314 24010000 		.word	.LC20
 1720 0318 00000000 		.word	.LANCHOR4
 1721              		.cfi_endproc
 1722              	.LFE224:
 1723              		.size	TestThread, .-TestThread
 1724              		.global	test_timer_done
 1725              		.global	wa
 1726              		.global	threads
 1727              		.global	test
 1728              		.global	test_global_fail
 1729              		.section	.bss.test,"aw",%nobits
 1730              		.align	3
 1731              		.type	test, %object
 1732              		.size	test, 1600
 1733              	test:
 1734 0000 00000000 		.space	1600
 1734      00000000 
 1734      00000000 
 1734      00000000 
 1734      00000000 
 1735              		.section	.bss.failpoint,"aw",%nobits
 1736              		.align	2
 1737              		.set	.LANCHOR5,. + 0
 1738              		.type	failpoint, %object
 1739              		.size	failpoint, 4
 1740              	failpoint:
 1741 0000 00000000 		.space	4
 1742              		.section	.bss.local_fail,"aw",%nobits
 1743              		.set	.LANCHOR4,. + 0
 1744              		.type	local_fail, %object
 1745              		.size	local_fail, 1
 1746              	local_fail:
 1747 0000 00       		.space	1
 1748              		.section	.bss.test_timer_done,"aw",%nobits
 1749              		.set	.LANCHOR0,. + 0
 1750              		.type	test_timer_done, %object
 1751              		.size	test_timer_done, 1
 1752              	test_timer_done:
 1753 0000 00       		.space	1
 1754              		.section	.rodata.wa,"a",%progbits
 1755              		.align	2
 1756              		.type	wa, %object
 1757              		.size	wa, 20
 1758              	wa:
 1759 0000 00000000 		.word	test
 1760 0004 40010000 		.word	test+320
 1761 0008 80020000 		.word	test+640
 1762 000c C0030000 		.word	test+960
 1763 0010 00050000 		.word	test+1280
ARM GAS  /tmp/ccfwZZoQ.s 			page 32


 1764              		.section	.bss.tokp,"aw",%nobits
 1765              		.align	2
 1766              		.set	.LANCHOR2,. + 0
 1767              		.type	tokp, %object
 1768              		.size	tokp, 4
 1769              	tokp:
 1770 0000 00000000 		.space	4
 1771              		.section	.rodata.patterns,"a",%progbits
 1772              		.align	2
 1773              		.set	.LANCHOR9,. + 0
 1774              		.type	patterns, %object
 1775              		.size	patterns, 52
 1776              	patterns:
 1777 0000 00000000 		.word	patternsys
 1778 0004 00000000 		.word	patternthd
 1779 0008 00000000 		.word	patternsem
 1780 000c 00000000 		.word	patternmtx
 1781 0010 00000000 		.word	patternmsg
 1782 0014 00000000 		.word	patternmbox
 1783 0018 00000000 		.word	patternevt
 1784 001c 00000000 		.word	patternheap
 1785 0020 00000000 		.word	patternpools
 1786 0024 00000000 		.word	patterndyn
 1787 0028 00000000 		.word	patternqueues
 1788 002c 00000000 		.word	patternbmk
 1789 0030 00000000 		.word	0
 1790              		.section	.rodata.str1.4,"aMS",%progbits,1
 1791              		.align	2
 1792              	.LC0:
 1793 0000 0D0A00   		.ascii	"\015\012\000"
 1794 0003 00       		.space	1
 1795              	.LC1:
 1796 0004 2A2A2A20 		.ascii	"*** Kernel:       \000"
 1796      4B65726E 
 1796      656C3A20 
 1796      20202020 
 1796      202000
 1797 0017 00       		.space	1
 1798              	.LC2:
 1799 0018 2A2A2A20 		.ascii	"*** Compiled:     \000"
 1799      436F6D70 
 1799      696C6564 
 1799      3A202020 
 1799      202000
 1800 002b 00       		.space	1
 1801              	.LC3:
 1802 002c 2A2A2A20 		.ascii	"*** Compiler:     \000"
 1802      436F6D70 
 1802      696C6572 
 1802      3A202020 
 1802      202000
 1803 003f 00       		.space	1
 1804              	.LC4:
 1805 0040 2A2A2A20 		.ascii	"*** Architecture: \000"
 1805      41726368 
 1805      69746563 
 1805      74757265 
ARM GAS  /tmp/ccfwZZoQ.s 			page 33


 1805      3A2000
 1806 0053 00       		.space	1
 1807              	.LC5:
 1808 0054 2A2A2A20 		.ascii	"*** Core Variant: \000"
 1808      436F7265 
 1808      20566172 
 1808      69616E74 
 1808      3A2000
 1809 0067 00       		.space	1
 1810              	.LC6:
 1811 0068 2A2A2A20 		.ascii	"*** Port Info:    \000"
 1811      506F7274 
 1811      20496E66 
 1811      6F3A2020 
 1811      202000
 1812 007b 00       		.space	1
 1813              	.LC7:
 1814 007c 2A2A2A20 		.ascii	"*** Platform:     \000"
 1814      506C6174 
 1814      666F726D 
 1814      3A202020 
 1814      202000
 1815 008f 00       		.space	1
 1816              	.LC8:
 1817 0090 2A2A2A20 		.ascii	"*** Test Board:   \000"
 1817      54657374 
 1817      20426F61 
 1817      72643A20 
 1817      202000
 1818 00a3 00       		.space	1
 1819              	.LC9:
 1820 00a4 2D2D2D20 		.ascii	"--- Test Case \000"
 1820      54657374 
 1820      20436173 
 1820      652000
 1821 00b3 00       		.space	1
 1822              	.LC10:
 1823 00b4 202800   		.ascii	" (\000"
 1824 00b7 00       		.space	1
 1825              	.LC11:
 1826 00b8 2D2D2D20 		.ascii	"--- Result: FAILURE (#\000"
 1826      52657375 
 1826      6C743A20 
 1826      4641494C 
 1826      55524520 
 1827 00cf 00       		.space	1
 1828              	.LC12:
 1829 00d0 205B00   		.ascii	" [\000"
 1830 00d3 00       		.space	1
 1831              	.LC13:
 1832 00d4 46696E61 		.ascii	"Final result: \000"
 1832      6C207265 
 1832      73756C74 
 1832      3A2000
 1833 00e3 00       		.space	1
 1834              	.LC14:
 1835 00e4 00       		.ascii	"\000"
ARM GAS  /tmp/ccfwZZoQ.s 			page 34


 1836 00e5 000000   		.space	3
 1837              	.LC15:
 1838 00e8 2A2A2A20 		.ascii	"*** ChibiOS/RT test suite\000"
 1838      43686962 
 1838      694F532F 
 1838      52542074 
 1838      65737420 
 1839 0102 0000     		.space	2
 1840              	.LC16:
 1841 0104 2A2A2A00 		.ascii	"***\000"
 1842              	.LC17:
 1843 0108 2900     		.ascii	")\000"
 1844 010a 0000     		.space	2
 1845              	.LC18:
 1846 010c 5D2900   		.ascii	"])\000"
 1847 010f 00       		.space	1
 1848              	.LC19:
 1849 0110 2D2D2D20 		.ascii	"--- Result: SUCCESS\000"
 1849      52657375 
 1849      6C743A20 
 1849      53554343 
 1849      45535300 
 1850              	.LC20:
 1851 0124 4641494C 		.ascii	"FAILURE\000"
 1851      55524500 
 1852              	.LC21:
 1853 012c 53554343 		.ascii	"SUCCESS\000"
 1853      45535300 
 1854              	.LC22:
 1855 0134 332E312E 		.ascii	"3.1.4\000"
 1855      3400
 1856 013a 0000     		.space	2
 1857              	.LC23:
 1858 013c 4E6F7620 		.ascii	"Nov 15 2016 - 17:42:26\000"
 1858      31352032 
 1858      30313620 
 1858      2D203137 
 1858      3A34323A 
 1859 0153 00       		.space	1
 1860              	.LC24:
 1861 0154 47434320 		.ascii	"GCC 4.9.3 20150529 (release) [ARM/embedded-4_9-bran"
 1861      342E392E 
 1861      33203230 
 1861      31353035 
 1861      32392028 
 1862 0187 63682072 		.ascii	"ch revision 224288]\000"
 1862      65766973 
 1862      696F6E20 
 1862      32323432 
 1862      38385D00 
 1863 019b 00       		.space	1
 1864              	.LC25:
 1865 019c 41524D76 		.ascii	"ARMv7-M\000"
 1865      372D4D00 
 1866              	.LC26:
 1867 01a4 436F7274 		.ascii	"Cortex-M3\000"
 1867      65782D4D 
ARM GAS  /tmp/ccfwZZoQ.s 			page 35


 1867      3300
 1868 01ae 0000     		.space	2
 1869              	.LC27:
 1870 01b0 41647661 		.ascii	"Advanced kernel mode\000"
 1870      6E636564 
 1870      206B6572 
 1870      6E656C20 
 1870      6D6F6465 
 1871 01c5 000000   		.space	3
 1872              	.LC28:
 1873 01c8 53544D33 		.ascii	"STM32F10x Performance Line High Density\000"
 1873      32463130 
 1873      78205065 
 1873      72666F72 
 1873      6D616E63 
 1874              	.LC29:
 1875 01f0 53746F72 		.ascii	"Storm32 v1.31\000"
 1875      6D333220 
 1875      76312E33 
 1875      3100
 1876              		.section	.bss.vt,"aw",%nobits
 1877              		.align	2
 1878              		.set	.LANCHOR8,. + 0
 1879              		.type	vt, %object
 1880              		.size	vt, 20
 1881              	vt:
 1882 0000 00000000 		.space	20
 1882      00000000 
 1882      00000000 
 1882      00000000 
 1882      00000000 
 1883              		.section	.bss.threads,"aw",%nobits
 1884              		.align	2
 1885              		.set	.LANCHOR7,. + 0
 1886              		.type	threads, %object
 1887              		.size	threads, 20
 1888              	threads:
 1889 0000 00000000 		.space	20
 1889      00000000 
 1889      00000000 
 1889      00000000 
 1889      00000000 
 1890              		.section	.bss.chp,"aw",%nobits
 1891              		.align	2
 1892              		.set	.LANCHOR1,. + 0
 1893              		.type	chp, %object
 1894              		.size	chp, 4
 1895              	chp:
 1896 0000 00000000 		.space	4
 1897              		.section	.bss.tokens_buffer,"aw",%nobits
 1898              		.align	2
 1899              		.set	.LANCHOR6,. + 0
 1900              		.type	tokens_buffer, %object
 1901              		.size	tokens_buffer, 16
 1902              	tokens_buffer:
 1903 0000 00000000 		.space	16
 1903      00000000 
ARM GAS  /tmp/ccfwZZoQ.s 			page 36


 1903      00000000 
 1903      00000000 
 1904              		.section	.bss.test_global_fail,"aw",%nobits
 1905              		.set	.LANCHOR3,. + 0
 1906              		.type	test_global_fail, %object
 1907              		.size	test_global_fail, 1
 1908              	test_global_fail:
 1909 0000 00       		.space	1
 1910              		.text
 1911              	.Letext0:
 1912              		.file 4 "/opt/stm32/gcc/gcc-arm-none-eabi-4_9-2015q2/lib/gcc/arm-none-eabi/4.9.3/include/stddef.h"
 1913              		.file 5 "/opt/stm32/gcc/gcc-arm-none-eabi-4_9-2015q2/arm-none-eabi/include/machine/_default_types.
 1914              		.file 6 "/opt/stm32/gcc/gcc-arm-none-eabi-4_9-2015q2/arm-none-eabi/include/sys/_stdint.h"
 1915              		.file 7 "/home/maciek/ChibiOS_16.1.5/os/rt/ports/ARMCMx/compilers/GCC/chtypes.h"
 1916              		.file 8 "/home/maciek/ChibiOS_16.1.5/os/rt/include/chsystypes.h"
 1917              		.file 9 "/home/maciek/ChibiOS_16.1.5/os/rt/include/chschd.h"
 1918              		.file 10 "/home/maciek/ChibiOS_16.1.5/os/rt/ports/ARMCMx/chcore.h"
 1919              		.file 11 "/home/maciek/ChibiOS_16.1.5/os/rt/ports/ARMCMx/chcore_v7m.h"
 1920              		.file 12 "/home/maciek/ChibiOS_16.1.5/os/rt/include/chtm.h"
 1921              		.file 13 "/home/maciek/ChibiOS_16.1.5/os/rt/include/chsem.h"
 1922              		.file 14 "/home/maciek/ChibiOS_16.1.5/os/rt/include/chmtx.h"
 1923              		.file 15 "/home/maciek/ChibiOS_16.1.5/os/rt/include/chstreams.h"
 1924              		.file 16 "/home/maciek/ChibiOS_16.1.5/test/rt/test.h"
 1925              		.file 17 "/home/maciek/ChibiOS_16.1.5/os/rt/include/chsys.h"
 1926              		.file 18 "/home/maciek/ChibiOS_16.1.5/os/ext/CMSIS/include/core_cm3.h"
 1927              		.file 19 "/home/maciek/ChibiOS_16.1.5/test/rt/testsys.h"
 1928              		.file 20 "/home/maciek/ChibiOS_16.1.5/test/rt/testthd.h"
 1929              		.file 21 "/home/maciek/ChibiOS_16.1.5/test/rt/testsem.h"
 1930              		.file 22 "/home/maciek/ChibiOS_16.1.5/test/rt/testmtx.h"
 1931              		.file 23 "/home/maciek/ChibiOS_16.1.5/test/rt/testmsg.h"
 1932              		.file 24 "/home/maciek/ChibiOS_16.1.5/test/rt/testmbox.h"
 1933              		.file 25 "/home/maciek/ChibiOS_16.1.5/test/rt/testevt.h"
 1934              		.file 26 "/home/maciek/ChibiOS_16.1.5/test/rt/testheap.h"
 1935              		.file 27 "/home/maciek/ChibiOS_16.1.5/test/rt/testpools.h"
 1936              		.file 28 "/home/maciek/ChibiOS_16.1.5/test/rt/testdyn.h"
 1937              		.file 29 "/home/maciek/ChibiOS_16.1.5/test/rt/testqueues.h"
 1938              		.file 30 "/home/maciek/ChibiOS_16.1.5/test/rt/testbmk.h"
 1939              		.file 31 "/home/maciek/ChibiOS_16.1.5/os/rt/include/chthreads.h"