ARM GAS  /tmp/ccBLybEz.s 			page 1


   1              		.syntax unified
   2              		.cpu cortex-m3
   3              		.fpu softvfp
   4              		.eabi_attribute 20, 1
   5              		.eabi_attribute 21, 1
   6              		.eabi_attribute 23, 3
   7              		.eabi_attribute 24, 1
   8              		.eabi_attribute 25, 1
   9              		.eabi_attribute 26, 1
  10              		.eabi_attribute 30, 2
  11              		.eabi_attribute 34, 1
  12              		.eabi_attribute 18, 4
  13              		.thumb
  14              		.file	"testpools.c"
  15              		.text
  16              	.Ltext0:
  17              		.cfi_sections	.debug_frame
  18              		.section	.text.null_provider,"ax",%progbits
  19              		.align	2
  20              		.p2align 4,,15
  21              		.thumb
  22              		.thumb_func
  23              		.type	null_provider, %function
  24              	null_provider:
  25              	.LFB170:
  26              		.file 1 "/home/maciek/ChibiOS_16.1.5/test/rt/testpools.c"
  27              		.loc 1 60 0
  28              		.cfi_startproc
  29              		@ args = 0, pretend = 0, frame = 0
  30              		@ frame_needed = 0, uses_anonymous_args = 0
  31              		@ link register save eliminated.
  32              	.LVL0:
  33              		.loc 1 64 0
  34 0000 0020     		movs	r0, #0
  35              	.LVL1:
  36 0002 7047     		bx	lr
  37              		.cfi_endproc
  38              	.LFE170:
  39              		.size	null_provider, .-null_provider
  40              		.section	.text.pools1_setup,"ax",%progbits
  41              		.align	2
  42              		.p2align 4,,15
  43              		.thumb
  44              		.thumb_func
  45              		.type	pools1_setup, %function
  46              	pools1_setup:
  47              	.LFB171:
  48              		.loc 1 66 0
  49              		.cfi_startproc
  50              		@ args = 0, pretend = 0, frame = 0
  51              		@ frame_needed = 0, uses_anonymous_args = 0
  52              		@ link register save eliminated.
  53              		.loc 1 68 0
  54 0000 0248     		ldr	r0, .L3
  55 0002 4FF4A071 		mov	r1, #320
  56 0006 0022     		movs	r2, #0
  57 0008 FFF7FEBF 		b	chPoolObjectInit
ARM GAS  /tmp/ccBLybEz.s 			page 2


  58              	.LVL2:
  59              	.L4:
  60              		.align	2
  61              	.L3:
  62 000c 00000000 		.word	.LANCHOR0
  63              		.cfi_endproc
  64              	.LFE171:
  65              		.size	pools1_setup, .-pools1_setup
  66              		.section	.text.pools1_execute,"ax",%progbits
  67              		.align	2
  68              		.p2align 4,,15
  69              		.thumb
  70              		.thumb_func
  71              		.type	pools1_execute, %function
  72              	pools1_execute:
  73              	.LFB172:
  74              		.loc 1 71 0
  75              		.cfi_startproc
  76              		@ args = 0, pretend = 0, frame = 0
  77              		@ frame_needed = 0, uses_anonymous_args = 0
  78 0000 38B5     		push	{r3, r4, r5, lr}
  79              		.cfi_def_cfa_offset 16
  80              		.cfi_offset 3, -16
  81              		.cfi_offset 4, -12
  82              		.cfi_offset 5, -8
  83              		.cfi_offset 14, -4
  84              		.loc 1 75 0
  85 0002 2B4B     		ldr	r3, .L19
  86 0004 2B48     		ldr	r0, .L19+4
  87 0006 1D68     		ldr	r5, [r3]
  88 0008 0522     		movs	r2, #5
  89 000a 2946     		mov	r1, r5
  90 000c FFF7FEFF 		bl	chPoolLoadArray
  91              	.LVL3:
  92 0010 0524     		movs	r4, #5
  93              	.LVL4:
  94              	.L8:
  95              		.loc 1 79 0
  96 0012 2848     		ldr	r0, .L19+4
  97 0014 FFF7FEFF 		bl	chPoolAlloc
  98              	.LVL5:
  99 0018 011C     		adds	r1, r0, #0
 100 001a 18BF     		it	ne
 101 001c 0121     		movne	r1, #1
 102 001e 0120     		movs	r0, #1
 103 0020 FFF7FEFF 		bl	_test_assert
 104              	.LVL6:
 105 0024 90BB     		cbnz	r0, .L5
 106              		.loc 1 78 0 discriminator 2
 107 0026 013C     		subs	r4, r4, #1
 108              	.LVL7:
 109 0028 F3D1     		bne	.L8
 110              		.loc 1 82 0
 111 002a 2248     		ldr	r0, .L19+4
 112 002c FFF7FEFF 		bl	chPoolAlloc
 113              	.LVL8:
 114 0030 B0FA80F1 		clz	r1, r0
ARM GAS  /tmp/ccBLybEz.s 			page 3


 115 0034 0220     		movs	r0, #2
 116 0036 4909     		lsrs	r1, r1, #5
 117 0038 FFF7FEFF 		bl	_test_assert
 118              	.LVL9:
 119 003c 30BB     		cbnz	r0, .L5
 120 003e 1C4C     		ldr	r4, .L19
 121              	.LVL10:
 122 0040 2946     		mov	r1, r5
 123              	.LBB4:
 124              	.LBB5:
 125              		.loc 1 86 0
 126 0042 1C48     		ldr	r0, .L19+4
 127 0044 04F11005 		add	r5, r4, #16
 128 0048 FFF7FEFF 		bl	chPoolFree
 129              	.LVL11:
 130              		.loc 1 85 0
 131 004c AC42     		cmp	r4, r5
 132 004e 06D0     		beq	.L12
 133              	.L17:
 134 0050 54F8041F 		ldr	r1, [r4, #4]!
 135              		.loc 1 86 0
 136 0054 1748     		ldr	r0, .L19+4
 137 0056 FFF7FEFF 		bl	chPoolFree
 138              	.LVL12:
 139              		.loc 1 85 0
 140 005a AC42     		cmp	r4, r5
 141 005c F8D1     		bne	.L17
 142              	.L12:
 143 005e 0524     		movs	r4, #5
 144              	.L10:
 145              	.LVL13:
 146              		.loc 1 90 0
 147 0060 1448     		ldr	r0, .L19+4
 148 0062 FFF7FEFF 		bl	chPoolAlloc
 149              	.LVL14:
 150 0066 011C     		adds	r1, r0, #0
 151 0068 18BF     		it	ne
 152 006a 0121     		movne	r1, #1
 153 006c 0320     		movs	r0, #3
 154 006e FFF7FEFF 		bl	_test_assert
 155              	.LVL15:
 156 0072 58B9     		cbnz	r0, .L5
 157              		.loc 1 89 0
 158 0074 013C     		subs	r4, r4, #1
 159              	.LVL16:
 160 0076 F3D1     		bne	.L10
 161              		.loc 1 93 0
 162 0078 0E48     		ldr	r0, .L19+4
 163 007a FFF7FEFF 		bl	chPoolAlloc
 164              	.LVL17:
 165 007e B0FA80F1 		clz	r1, r0
 166 0082 0420     		movs	r0, #4
 167 0084 4909     		lsrs	r1, r1, #5
 168 0086 FFF7FEFF 		bl	_test_assert
 169              	.LVL18:
 170 008a 00B1     		cbz	r0, .L18
 171              	.LVL19:
ARM GAS  /tmp/ccBLybEz.s 			page 4


 172              	.L5:
 173 008c 38BD     		pop	{r3, r4, r5, pc}
 174              	.LVL20:
 175              	.L18:
 176              		.loc 1 96 0
 177 008e 1021     		movs	r1, #16
 178 0090 0848     		ldr	r0, .L19+4
 179 0092 094A     		ldr	r2, .L19+8
 180 0094 FFF7FEFF 		bl	chPoolObjectInit
 181              	.LVL21:
 182              		.loc 1 97 0
 183 0098 0648     		ldr	r0, .L19+4
 184 009a FFF7FEFF 		bl	chPoolAlloc
 185              	.LVL22:
 186              	.LBE5:
 187              	.LBE4:
 188              		.loc 1 98 0
 189 009e BDE83840 		pop	{r3, r4, r5, lr}
 190              		.cfi_restore 14
 191              		.cfi_restore 5
 192              		.cfi_restore 4
 193              		.cfi_restore 3
 194              		.cfi_def_cfa_offset 0
 195              	.LVL23:
 196              	.LBB7:
 197              	.LBB6:
 198              		.loc 1 97 0
 199 00a2 B0FA80F1 		clz	r1, r0
 200 00a6 0520     		movs	r0, #5
 201 00a8 4909     		lsrs	r1, r1, #5
 202 00aa FFF7FEBF 		b	_test_assert
 203              	.LVL24:
 204              	.L20:
 205 00ae 00BF     		.align	2
 206              	.L19:
 207 00b0 00000000 		.word	wa
 208 00b4 00000000 		.word	.LANCHOR0
 209 00b8 00000000 		.word	null_provider
 210              	.LBE6:
 211              	.LBE7:
 212              		.cfi_endproc
 213              	.LFE172:
 214              		.size	pools1_execute, .-pools1_execute
 215              		.global	patternpools
 216              		.global	testpools1
 217              		.section	.rodata.str1.4,"aMS",%progbits,1
 218              		.align	2
 219              	.LC0:
 220 0000 4D656D6F 		.ascii	"Memory Pools, queue/dequeue\000"
 220      72792050 
 220      6F6F6C73 
 220      2C207175 
 220      6575652F 
 221              		.section	.rodata.patternpools,"a",%progbits
 222              		.align	2
 223              		.type	patternpools, %object
 224              		.size	patternpools, 8
ARM GAS  /tmp/ccBLybEz.s 			page 5


 225              	patternpools:
 226 0000 00000000 		.word	testpools1
 227 0004 00000000 		.word	0
 228              		.section	.data.mp1,"aw",%progbits
 229              		.align	2
 230              		.set	.LANCHOR0,. + 0
 231              		.type	mp1, %object
 232              		.size	mp1, 12
 233              	mp1:
 234 0000 00000000 		.word	0
 235 0004 40010000 		.word	320
 236 0008 00000000 		.word	0
 237              		.section	.rodata.testpools1,"a",%progbits
 238              		.align	2
 239              		.type	testpools1, %object
 240              		.size	testpools1, 16
 241              	testpools1:
 242 0000 00000000 		.word	.LC0
 243 0004 00000000 		.word	pools1_setup
 244 0008 00000000 		.word	0
 245 000c 00000000 		.word	pools1_execute
 246              		.text
 247              	.Letext0:
 248              		.file 2 "/opt/stm32/gcc/gcc-arm-none-eabi-4_9-2015q2/lib/gcc/arm-none-eabi/4.9.3/include/stddef.h"
 249              		.file 3 "/opt/stm32/gcc/gcc-arm-none-eabi-4_9-2015q2/arm-none-eabi/include/machine/_default_types.
 250              		.file 4 "/opt/stm32/gcc/gcc-arm-none-eabi-4_9-2015q2/arm-none-eabi/include/sys/_stdint.h"
 251              		.file 5 "/home/maciek/ChibiOS_16.1.5/os/rt/ports/ARMCMx/compilers/GCC/chtypes.h"
 252              		.file 6 "/home/maciek/ChibiOS_16.1.5/os/rt/include/chsystypes.h"
 253              		.file 7 "/home/maciek/ChibiOS_16.1.5/os/rt/include/chschd.h"
 254              		.file 8 "/home/maciek/ChibiOS_16.1.5/os/rt/ports/ARMCMx/chcore.h"
 255              		.file 9 "/home/maciek/ChibiOS_16.1.5/os/rt/ports/ARMCMx/chcore_v7m.h"
 256              		.file 10 "/home/maciek/ChibiOS_16.1.5/os/rt/include/chtm.h"
 257              		.file 11 "/home/maciek/ChibiOS_16.1.5/os/rt/include/chsem.h"
 258              		.file 12 "/home/maciek/ChibiOS_16.1.5/os/rt/include/chmtx.h"
 259              		.file 13 "/home/maciek/ChibiOS_16.1.5/os/rt/include/chmemcore.h"
 260              		.file 14 "/home/maciek/ChibiOS_16.1.5/os/rt/include/chmempools.h"
 261              		.file 15 "/home/maciek/ChibiOS_16.1.5/test/rt/test.h"
 262              		.file 16 "/home/maciek/ChibiOS_16.1.5/os/ext/CMSIS/include/core_cm3.h"