ARM GAS  /tmp/cclCI7Z7.s 			page 1


   1              		.syntax unified
   2              		.cpu cortex-m3
   3              		.fpu softvfp
   4              		.eabi_attribute 20, 1
   5              		.eabi_attribute 21, 1
   6              		.eabi_attribute 23, 3
   7              		.eabi_attribute 24, 1
   8              		.eabi_attribute 25, 1
   9              		.eabi_attribute 26, 1
  10              		.eabi_attribute 30, 2
  11              		.eabi_attribute 34, 1
  12              		.eabi_attribute 18, 4
  13              		.thumb
  14              		.file	"usb.c"
  15              		.text
  16              	.Ltext0:
  17              		.cfi_sections	.debug_frame
  18              		.section	.text.set_address,"ax",%progbits
  19              		.align	2
  20              		.p2align 4,,15
  21              		.thumb
  22              		.thumb_func
  23              		.type	set_address, %function
  24              	set_address:
  25              	.LFB208:
  26              		.file 1 "/home/maciek/ChibiOS_16.1.5/os/hal/src/usb.c"
  27              		.loc 1 64 0
  28              		.cfi_startproc
  29              		@ args = 0, pretend = 0, frame = 0
  30              		@ frame_needed = 0, uses_anonymous_args = 0
  31              	.LVL0:
  32 0000 10B5     		push	{r4, lr}
  33              		.cfi_def_cfa_offset 8
  34              		.cfi_offset 4, -8
  35              		.cfi_offset 14, -4
  36              		.loc 1 64 0
  37 0002 0446     		mov	r4, r0
  38              		.loc 1 66 0
  39 0004 90F87630 		ldrb	r3, [r0, #118]	@ zero_extendqisi2
  40 0008 80F87E30 		strb	r3, [r0, #126]
  41              		.loc 1 67 0
  42 000c FFF7FEFF 		bl	usb_lld_set_address
  43              	.LVL1:
  44              		.loc 1 68 0
  45 0010 6368     		ldr	r3, [r4, #4]
  46 0012 1B68     		ldr	r3, [r3]
  47 0014 13B1     		cbz	r3, .L2
  48              		.loc 1 68 0 is_stmt 0 discriminator 1
  49 0016 2046     		mov	r0, r4
  50 0018 0121     		movs	r1, #1
  51 001a 9847     		blx	r3
  52              	.LVL2:
  53              	.L2:
  54              		.loc 1 69 0 is_stmt 1
  55 001c 0323     		movs	r3, #3
  56 001e 2370     		strb	r3, [r4]
  57 0020 10BD     		pop	{r4, pc}
ARM GAS  /tmp/cclCI7Z7.s 			page 2


  58              		.cfi_endproc
  59              	.LFE208:
  60              		.size	set_address, .-set_address
  61 0022 00BF     		.section	.text.usbInit,"ax",%progbits
  62              		.align	2
  63              		.p2align 4,,15
  64              		.global	usbInit
  65              		.thumb
  66              		.thumb_func
  67              		.type	usbInit, %function
  68              	usbInit:
  69              	.LFB210:
  70              		.loc 1 266 0
  71              		.cfi_startproc
  72              		@ args = 0, pretend = 0, frame = 0
  73              		@ frame_needed = 0, uses_anonymous_args = 0
  74              		@ link register save eliminated.
  75              		.loc 1 268 0
  76 0000 FFF7FEBF 		b	usb_lld_init
  77              	.LVL3:
  78              		.cfi_endproc
  79              	.LFE210:
  80              		.size	usbInit, .-usbInit
  81              		.section	.text.usbObjectInit,"ax",%progbits
  82              		.align	2
  83              		.p2align 4,,15
  84              		.global	usbObjectInit
  85              		.thumb
  86              		.thumb_func
  87              		.type	usbObjectInit, %function
  88              	usbObjectInit:
  89              	.LFB211:
  90              		.loc 1 278 0
  91              		.cfi_startproc
  92              		@ args = 0, pretend = 0, frame = 0
  93              		@ frame_needed = 0, uses_anonymous_args = 0
  94              		@ link register save eliminated.
  95              	.LVL4:
  96 0000 30B4     		push	{r4, r5}
  97              		.cfi_def_cfa_offset 8
  98              		.cfi_offset 4, -8
  99              		.cfi_offset 5, -4
 100 0002 00F14405 		add	r5, r0, #68
 101              		.loc 1 282 0
 102 0006 2946     		mov	r1, r5
 103 0008 0023     		movs	r3, #0
 104              		.loc 1 281 0
 105 000a 0124     		movs	r4, #1
 106              		.loc 1 284 0
 107 000c 1A46     		mov	r2, r3
 108              		.loc 1 282 0
 109 000e 4360     		str	r3, [r0, #4]
 110              	.LVL5:
 111              		.loc 1 281 0
 112 0010 0470     		strb	r4, [r0]
 113 0012 00F12803 		add	r3, r0, #40
 114              	.LVL6:
ARM GAS  /tmp/cclCI7Z7.s 			page 3


 115              	.L10:
 116              		.loc 1 284 0 discriminator 3
 117 0016 43F8042F 		str	r2, [r3, #4]!
 118              		.loc 1 283 0 discriminator 3
 119 001a AB42     		cmp	r3, r5
 120              		.loc 1 284 0 discriminator 3
 121 001c 4FF00004 		mov	r4, #0
 122              		.loc 1 285 0 discriminator 3
 123 0020 41F8042F 		str	r2, [r1, #4]!
 124              		.loc 1 283 0 discriminator 3
 125 0024 F7D1     		bne	.L10
 126              		.loc 1 287 0
 127 0026 0481     		strh	r4, [r0, #8]	@ movhi
 128              		.loc 1 288 0
 129 0028 4481     		strh	r4, [r0, #10]	@ movhi
 130              		.loc 1 289 0
 131 002a 30BC     		pop	{r4, r5}
 132              		.cfi_restore 5
 133              		.cfi_restore 4
 134              		.cfi_def_cfa_offset 0
 135 002c 7047     		bx	lr
 136              		.cfi_endproc
 137              	.LFE211:
 138              		.size	usbObjectInit, .-usbObjectInit
 139 002e 00BF     		.section	.text.usbStart,"ax",%progbits
 140              		.align	2
 141              		.p2align 4,,15
 142              		.global	usbStart
 143              		.thumb
 144              		.thumb_func
 145              		.type	usbStart, %function
 146              	usbStart:
 147              	.LFB212:
 148              		.loc 1 299 0
 149              		.cfi_startproc
 150              		@ args = 0, pretend = 0, frame = 0
 151              		@ frame_needed = 0, uses_anonymous_args = 0
 152              	.LVL7:
 153 0000 38B5     		push	{r3, r4, r5, lr}
 154              		.cfi_def_cfa_offset 16
 155              		.cfi_offset 3, -16
 156              		.cfi_offset 4, -12
 157              		.cfi_offset 5, -8
 158              		.cfi_offset 14, -4
 159              		.loc 1 299 0
 160 0002 0546     		mov	r5, r0
 161              	.LBB198:
 162              	.LBB199:
 163              	.LBB200:
 164              	.LBB201:
 165              	.LBB202:
 166              		.file 2 "/home/maciek/ChibiOS_16.1.5/os/ext/CMSIS/include/core_cmFunc.h"
 167              		.loc 2 548 0
 168 0004 2023     		movs	r3, #32
 169              	@ 548 "/home/maciek/ChibiOS_16.1.5/os/ext/CMSIS/include/core_cmFunc.h" 1
 170 0006 83F31188 		MSR basepri, r3
 171              	@ 0 "" 2
ARM GAS  /tmp/cclCI7Z7.s 			page 4


 172              		.thumb
 173              	.LBE202:
 174              	.LBE201:
 175              	.LBE200:
 176              	.LBE199:
 177              	.LBE198:
 178              		.loc 1 309 0
 179 000a 0020     		movs	r0, #0
 180              	.LVL8:
 181              		.loc 1 307 0
 182 000c 6960     		str	r1, [r5, #4]
 183              	.LVL9:
 184 000e 05F10803 		add	r3, r5, #8
 185 0012 05F12802 		add	r2, r5, #40
 186              	.LVL10:
 187              	.L14:
 188              		.loc 1 309 0 discriminator 3
 189 0016 43F8040F 		str	r0, [r3, #4]!
 190              		.loc 1 308 0 discriminator 3
 191 001a 9342     		cmp	r3, r2
 192              		.loc 1 309 0 discriminator 3
 193 001c 4FF00004 		mov	r4, #0
 194              		.loc 1 308 0 discriminator 3
 195 0020 F9D1     		bne	.L14
 196              		.loc 1 311 0
 197 0022 2846     		mov	r0, r5
 198 0024 FFF7FEFF 		bl	usb_lld_start
 199              	.LVL11:
 200              		.loc 1 312 0
 201 0028 0223     		movs	r3, #2
 202 002a 2B70     		strb	r3, [r5]
 203              	.LVL12:
 204              	.LBB203:
 205              	.LBB204:
 206              	.LBB205:
 207              	.LBB206:
 208              	.LBB207:
 209              	.LBB208:
 210              		.loc 2 548 0
 211              	@ 548 "/home/maciek/ChibiOS_16.1.5/os/ext/CMSIS/include/core_cmFunc.h" 1
 212 002c 84F31188 		MSR basepri, r4
 213              	@ 0 "" 2
 214              		.thumb
 215 0030 38BD     		pop	{r3, r4, r5, pc}
 216              	.LBE208:
 217              	.LBE207:
 218              	.LBE206:
 219              	.LBE205:
 220              	.LBE204:
 221              	.LBE203:
 222              		.cfi_endproc
 223              	.LFE212:
 224              		.size	usbStart, .-usbStart
 225 0032 00BF     		.section	.text.usbStop,"ax",%progbits
 226              		.align	2
 227              		.p2align 4,,15
 228              		.global	usbStop
ARM GAS  /tmp/cclCI7Z7.s 			page 5


 229              		.thumb
 230              		.thumb_func
 231              		.type	usbStop, %function
 232              	usbStop:
 233              	.LFB213:
 234              		.loc 1 323 0
 235              		.cfi_startproc
 236              		@ args = 0, pretend = 0, frame = 0
 237              		@ frame_needed = 0, uses_anonymous_args = 0
 238              	.LVL13:
 239 0000 10B5     		push	{r4, lr}
 240              		.cfi_def_cfa_offset 8
 241              		.cfi_offset 4, -8
 242              		.cfi_offset 14, -4
 243              	.LBB209:
 244              	.LBB210:
 245              	.LBB211:
 246              	.LBB212:
 247              	.LBB213:
 248              		.loc 2 548 0
 249 0002 2023     		movs	r3, #32
 250              	.LBE213:
 251              	.LBE212:
 252              	.LBE211:
 253              	.LBE210:
 254              	.LBE209:
 255              		.loc 1 323 0
 256 0004 0446     		mov	r4, r0
 257              	.LBB218:
 258              	.LBB217:
 259              	.LBB216:
 260              	.LBB215:
 261              	.LBB214:
 262              		.loc 2 548 0
 263              	@ 548 "/home/maciek/ChibiOS_16.1.5/os/ext/CMSIS/include/core_cmFunc.h" 1
 264 0006 83F31188 		MSR basepri, r3
 265              	@ 0 "" 2
 266              		.thumb
 267              	.LBE214:
 268              	.LBE215:
 269              	.LBE216:
 270              	.LBE217:
 271              	.LBE218:
 272              		.loc 1 335 0
 273 000a FFF7FEFF 		bl	usb_lld_stop
 274              	.LVL14:
 275              		.loc 1 336 0
 276 000e 2046     		mov	r0, r4
 277 0010 0123     		movs	r3, #1
 278 0012 00F8083B 		strb	r3, [r0], #8
 279              	.LVL15:
 280 0016 04F12802 		add	r2, r4, #40
 281              		.loc 1 350 0
 282 001a 0023     		movs	r3, #0
 283              	.LVL16:
 284              	.L18:
 285              		.loc 1 350 0 is_stmt 0 discriminator 3
ARM GAS  /tmp/cclCI7Z7.s 			page 6


 286 001c 40F8043F 		str	r3, [r0, #4]!
 287              		.loc 1 339 0 is_stmt 1 discriminator 3
 288 0020 9042     		cmp	r0, r2
 289              		.loc 1 350 0 discriminator 3
 290 0022 4FF00004 		mov	r4, #0
 291              		.loc 1 339 0 discriminator 3
 292 0026 F9D1     		bne	.L18
 293              	.LBB219:
 294              	.LBB220:
 295              		.file 3 "/home/maciek/ChibiOS_16.1.5/os/hal/osal/rt/osal.h"
 296              		.loc 3 600 0
 297 0028 FFF7FEFF 		bl	chSchRescheduleS
 298              	.LVL17:
 299              	.LBE220:
 300              	.LBE219:
 301              	.LBB221:
 302              	.LBB222:
 303              	.LBB223:
 304              	.LBB224:
 305              	.LBB225:
 306              	.LBB226:
 307              		.loc 2 548 0
 308              	@ 548 "/home/maciek/ChibiOS_16.1.5/os/ext/CMSIS/include/core_cmFunc.h" 1
 309 002c 84F31188 		MSR basepri, r4
 310              	@ 0 "" 2
 311              		.thumb
 312 0030 10BD     		pop	{r4, pc}
 313              	.LBE226:
 314              	.LBE225:
 315              	.LBE224:
 316              	.LBE223:
 317              	.LBE222:
 318              	.LBE221:
 319              		.cfi_endproc
 320              	.LFE213:
 321              		.size	usbStop, .-usbStop
 322 0032 00BF     		.section	.text.usbInitEndpointI,"ax",%progbits
 323              		.align	2
 324              		.p2align 4,,15
 325              		.global	usbInitEndpointI
 326              		.thumb
 327              		.thumb_func
 328              		.type	usbInitEndpointI, %function
 329              	usbInitEndpointI:
 330              	.LFB214:
 331              		.loc 1 371 0
 332              		.cfi_startproc
 333              		@ args = 0, pretend = 0, frame = 0
 334              		@ frame_needed = 0, uses_anonymous_args = 0
 335              	.LVL18:
 336 0000 70B5     		push	{r4, r5, r6, lr}
 337              		.cfi_def_cfa_offset 16
 338              		.cfi_offset 4, -16
 339              		.cfi_offset 5, -12
 340              		.cfi_offset 6, -8
 341              		.cfi_offset 14, -4
 342              		.loc 1 371 0
ARM GAS  /tmp/cclCI7Z7.s 			page 7


 343 0002 0646     		mov	r6, r0
 344              		.loc 1 383 0
 345 0004 5069     		ldr	r0, [r2, #20]
 346              	.LVL19:
 347              		.loc 1 380 0
 348 0006 06EB8103 		add	r3, r6, r1, lsl #2
 349              		.loc 1 371 0
 350 000a 1446     		mov	r4, r2
 351 000c 0D46     		mov	r5, r1
 352              		.loc 1 380 0
 353 000e DA60     		str	r2, [r3, #12]
 354              		.loc 1 383 0
 355 0010 18B1     		cbz	r0, .L22
 356              		.loc 1 384 0
 357 0012 0021     		movs	r1, #0
 358              	.LVL20:
 359 0014 1022     		movs	r2, #16
 360              	.LVL21:
 361 0016 FFF7FEFF 		bl	memset
 362              	.LVL22:
 363              	.L22:
 364              		.loc 1 386 0
 365 001a A069     		ldr	r0, [r4, #24]
 366 001c 18B1     		cbz	r0, .L23
 367              		.loc 1 387 0
 368 001e 0021     		movs	r1, #0
 369 0020 1022     		movs	r2, #16
 370 0022 FFF7FEFF 		bl	memset
 371              	.LVL23:
 372              	.L23:
 373              		.loc 1 391 0
 374 0026 3046     		mov	r0, r6
 375 0028 2946     		mov	r1, r5
 376              		.loc 1 392 0
 377 002a BDE87040 		pop	{r4, r5, r6, lr}
 378              		.cfi_restore 14
 379              		.cfi_restore 6
 380              		.cfi_restore 5
 381              		.cfi_restore 4
 382              		.cfi_def_cfa_offset 0
 383              	.LVL24:
 384              		.loc 1 391 0
 385 002e FFF7FEBF 		b	usb_lld_init_endpoint
 386              	.LVL25:
 387              		.cfi_endproc
 388              	.LFE214:
 389              		.size	usbInitEndpointI, .-usbInitEndpointI
 390 0032 00BF     		.section	.text.usbDisableEndpointsI,"ax",%progbits
 391              		.align	2
 392              		.p2align 4,,15
 393              		.global	usbDisableEndpointsI
 394              		.thumb
 395              		.thumb_func
 396              		.type	usbDisableEndpointsI, %function
 397              	usbDisableEndpointsI:
 398              	.LFB215:
 399              		.loc 1 405 0
ARM GAS  /tmp/cclCI7Z7.s 			page 8


 400              		.cfi_startproc
 401              		@ args = 0, pretend = 0, frame = 0
 402              		@ frame_needed = 0, uses_anonymous_args = 0
 403              		@ link register save eliminated.
 404              	.LVL26:
 405              		.loc 1 412 0
 406 0000 0289     		ldrh	r2, [r0, #8]
 407              		.loc 1 413 0
 408 0002 4389     		ldrh	r3, [r0, #10]
 409              		.loc 1 412 0
 410 0004 02F00102 		and	r2, r2, #1
 411              		.loc 1 413 0
 412 0008 03F00103 		and	r3, r3, #1
 413              		.loc 1 412 0
 414 000c 0281     		strh	r2, [r0, #8]	@ movhi
 415              		.loc 1 413 0
 416 000e 4381     		strh	r3, [r0, #10]	@ movhi
 417              	.LVL27:
 418 0010 00F12801 		add	r1, r0, #40
 419 0014 00F10C03 		add	r3, r0, #12
 420              		.loc 1 429 0
 421 0018 0022     		movs	r2, #0
 422              	.LVL28:
 423              	.L32:
 424              		.loc 1 429 0 is_stmt 0 discriminator 3
 425 001a 43F8042F 		str	r2, [r3, #4]!
 426              		.loc 1 415 0 is_stmt 1 discriminator 3
 427 001e 8B42     		cmp	r3, r1
 428 0020 FBD1     		bne	.L32
 429              		.loc 1 433 0
 430 0022 FFF7FEBF 		b	usb_lld_disable_endpoints
 431              	.LVL29:
 432              		.cfi_endproc
 433              	.LFE215:
 434              		.size	usbDisableEndpointsI, .-usbDisableEndpointsI
 435 0026 00BF     		.section	.text.usbStartReceiveI,"ax",%progbits
 436              		.align	2
 437              		.p2align 4,,15
 438              		.global	usbStartReceiveI
 439              		.thumb
 440              		.thumb_func
 441              		.type	usbStartReceiveI, %function
 442              	usbStartReceiveI:
 443              	.LFB216:
 444              		.loc 1 451 0
 445              		.cfi_startproc
 446              		@ args = 0, pretend = 0, frame = 0
 447              		@ frame_needed = 0, uses_anonymous_args = 0
 448              	.LVL30:
 449 0000 F0B5     		push	{r4, r5, r6, r7, lr}
 450              		.cfi_def_cfa_offset 20
 451              		.cfi_offset 4, -20
 452              		.cfi_offset 5, -16
 453              		.cfi_offset 6, -12
 454              		.cfi_offset 7, -8
 455              		.cfi_offset 14, -4
 456              		.loc 1 463 0
ARM GAS  /tmp/cclCI7Z7.s 			page 9


 457 0002 00EB8106 		add	r6, r0, r1, lsl #2
 458 0006 D6F80CE0 		ldr	lr, [r6, #12]
 459              		.loc 1 459 0
 460 000a 4789     		ldrh	r7, [r0, #10]
 461 000c 0126     		movs	r6, #1
 462              		.loc 1 463 0
 463 000e DEF81840 		ldr	r4, [lr, #24]
 464              	.LVL31:
 465              		.loc 1 459 0
 466 0012 8E40     		lsls	r6, r6, r1
 467 0014 3E43     		orrs	r6, r6, r7
 468              		.loc 1 467 0
 469 0016 0027     		movs	r7, #0
 470              		.loc 1 459 0
 471 0018 4681     		strh	r6, [r0, #10]	@ movhi
 472              		.loc 1 465 0
 473 001a A260     		str	r2, [r4, #8]
 474              		.loc 1 467 0
 475 001c 84E88800 		stmia	r4, {r3, r7}
 476              		.loc 1 474 0
 477 0020 BDE8F040 		pop	{r4, r5, r6, r7, lr}
 478              		.cfi_restore 14
 479              		.cfi_restore 7
 480              		.cfi_restore 6
 481              		.cfi_restore 5
 482              		.cfi_restore 4
 483              		.cfi_def_cfa_offset 0
 484              	.LVL32:
 485              		.loc 1 473 0
 486 0024 FFF7FEBF 		b	usb_lld_start_out
 487              	.LVL33:
 488              		.cfi_endproc
 489              	.LFE216:
 490              		.size	usbStartReceiveI, .-usbStartReceiveI
 491              		.section	.text.usbStartTransmitI,"ax",%progbits
 492              		.align	2
 493              		.p2align 4,,15
 494              		.global	usbStartTransmitI
 495              		.thumb
 496              		.thumb_func
 497              		.type	usbStartTransmitI, %function
 498              	usbStartTransmitI:
 499              	.LFB217:
 500              		.loc 1 490 0
 501              		.cfi_startproc
 502              		@ args = 0, pretend = 0, frame = 0
 503              		@ frame_needed = 0, uses_anonymous_args = 0
 504              	.LVL34:
 505 0000 F0B5     		push	{r4, r5, r6, r7, lr}
 506              		.cfi_def_cfa_offset 20
 507              		.cfi_offset 4, -20
 508              		.cfi_offset 5, -16
 509              		.cfi_offset 6, -12
 510              		.cfi_offset 7, -8
 511              		.cfi_offset 14, -4
 512              		.loc 1 502 0
 513 0002 00EB8106 		add	r6, r0, r1, lsl #2
ARM GAS  /tmp/cclCI7Z7.s 			page 10


 514 0006 D6F80CE0 		ldr	lr, [r6, #12]
 515              		.loc 1 498 0
 516 000a 0789     		ldrh	r7, [r0, #8]
 517 000c 0126     		movs	r6, #1
 518              		.loc 1 502 0
 519 000e DEF81440 		ldr	r4, [lr, #20]
 520              	.LVL35:
 521              		.loc 1 498 0
 522 0012 8E40     		lsls	r6, r6, r1
 523 0014 3E43     		orrs	r6, r6, r7
 524              		.loc 1 506 0
 525 0016 0027     		movs	r7, #0
 526              		.loc 1 498 0
 527 0018 0681     		strh	r6, [r0, #8]	@ movhi
 528              		.loc 1 504 0
 529 001a A260     		str	r2, [r4, #8]
 530              		.loc 1 506 0
 531 001c 84E88800 		stmia	r4, {r3, r7}
 532              		.loc 1 513 0
 533 0020 BDE8F040 		pop	{r4, r5, r6, r7, lr}
 534              		.cfi_restore 14
 535              		.cfi_restore 7
 536              		.cfi_restore 6
 537              		.cfi_restore 5
 538              		.cfi_restore 4
 539              		.cfi_def_cfa_offset 0
 540              	.LVL36:
 541              		.loc 1 512 0
 542 0024 FFF7FEBF 		b	usb_lld_start_in
 543              	.LVL37:
 544              		.cfi_endproc
 545              	.LFE217:
 546              		.size	usbStartTransmitI, .-usbStartTransmitI
 547              		.section	.text.usbStallReceiveI,"ax",%progbits
 548              		.align	2
 549              		.p2align 4,,15
 550              		.global	usbStallReceiveI
 551              		.thumb
 552              		.thumb_func
 553              		.type	usbStallReceiveI, %function
 554              	usbStallReceiveI:
 555              	.LFB218:
 556              		.loc 1 596 0
 557              		.cfi_startproc
 558              		@ args = 0, pretend = 0, frame = 0
 559              		@ frame_needed = 0, uses_anonymous_args = 0
 560              	.LVL38:
 561 0000 10B5     		push	{r4, lr}
 562              		.cfi_def_cfa_offset 8
 563              		.cfi_offset 4, -8
 564              		.cfi_offset 14, -4
 565              		.loc 1 601 0
 566 0002 0123     		movs	r3, #1
 567 0004 4489     		ldrh	r4, [r0, #10]
 568 0006 03FA01F2 		lsl	r2, r3, r1
 569 000a 1440     		ands	r4, r2, r4
 570 000c 01D0     		beq	.L42
ARM GAS  /tmp/cclCI7Z7.s 			page 11


 571              		.loc 1 602 0
 572 000e 1846     		mov	r0, r3
 573              	.LVL39:
 574              		.loc 1 607 0
 575 0010 10BD     		pop	{r4, pc}
 576              	.LVL40:
 577              	.L42:
 578              		.loc 1 605 0
 579 0012 FFF7FEFF 		bl	usb_lld_stall_out
 580              	.LVL41:
 581              		.loc 1 606 0
 582 0016 2046     		mov	r0, r4
 583 0018 10BD     		pop	{r4, pc}
 584              		.cfi_endproc
 585              	.LFE218:
 586              		.size	usbStallReceiveI, .-usbStallReceiveI
 587 001a 00BF     		.section	.text.usbStallTransmitI,"ax",%progbits
 588              		.align	2
 589              		.p2align 4,,15
 590              		.global	usbStallTransmitI
 591              		.thumb
 592              		.thumb_func
 593              		.type	usbStallTransmitI, %function
 594              	usbStallTransmitI:
 595              	.LFB219:
 596              		.loc 1 621 0
 597              		.cfi_startproc
 598              		@ args = 0, pretend = 0, frame = 0
 599              		@ frame_needed = 0, uses_anonymous_args = 0
 600              	.LVL42:
 601 0000 10B5     		push	{r4, lr}
 602              		.cfi_def_cfa_offset 8
 603              		.cfi_offset 4, -8
 604              		.cfi_offset 14, -4
 605              		.loc 1 626 0
 606 0002 0123     		movs	r3, #1
 607 0004 0489     		ldrh	r4, [r0, #8]
 608 0006 03FA01F2 		lsl	r2, r3, r1
 609 000a 1440     		ands	r4, r2, r4
 610 000c 01D0     		beq	.L47
 611              		.loc 1 627 0
 612 000e 1846     		mov	r0, r3
 613              	.LVL43:
 614              		.loc 1 632 0
 615 0010 10BD     		pop	{r4, pc}
 616              	.LVL44:
 617              	.L47:
 618              		.loc 1 630 0
 619 0012 FFF7FEFF 		bl	usb_lld_stall_in
 620              	.LVL45:
 621              		.loc 1 631 0
 622 0016 2046     		mov	r0, r4
 623 0018 10BD     		pop	{r4, pc}
 624              		.cfi_endproc
 625              	.LFE219:
 626              		.size	usbStallTransmitI, .-usbStallTransmitI
 627 001a 00BF     		.section	.text._usb_reset,"ax",%progbits
ARM GAS  /tmp/cclCI7Z7.s 			page 12


 628              		.align	2
 629              		.p2align 4,,15
 630              		.global	_usb_reset
 631              		.thumb
 632              		.thumb_func
 633              		.type	_usb_reset, %function
 634              	_usb_reset:
 635              	.LFB220:
 636              		.loc 1 643 0
 637              		.cfi_startproc
 638              		@ args = 0, pretend = 0, frame = 0
 639              		@ frame_needed = 0, uses_anonymous_args = 0
 640              	.LVL46:
 641 0000 70B5     		push	{r4, r5, r6, lr}
 642              		.cfi_def_cfa_offset 16
 643              		.cfi_offset 4, -16
 644              		.cfi_offset 5, -12
 645              		.cfi_offset 6, -8
 646              		.cfi_offset 14, -4
 647              		.loc 1 643 0
 648 0002 0446     		mov	r4, r0
 649              		.loc 1 650 0
 650 0004 0023     		movs	r3, #0
 651              		.loc 1 647 0
 652 0006 0222     		movs	r2, #2
 653              		.loc 1 671 0
 654 0008 1946     		mov	r1, r3
 655              		.loc 1 647 0
 656 000a 0270     		strb	r2, [r0]
 657              		.loc 1 650 0
 658 000c A0F87C30 		strh	r3, [r0, #124]	@ movhi
 659              		.loc 1 651 0
 660 0010 80F87E30 		strb	r3, [r0, #126]
 661              		.loc 1 652 0
 662 0014 80F87F30 		strb	r3, [r0, #127]
 663              		.loc 1 653 0
 664 0018 0381     		strh	r3, [r0, #8]	@ movhi
 665              		.loc 1 654 0
 666 001a 4381     		strh	r3, [r0, #10]	@ movhi
 667              	.LVL47:
 668 001c 00F12802 		add	r2, r0, #40
 669 0020 00F10803 		add	r3, r0, #8
 670              	.LVL48:
 671              	.L49:
 672              		.loc 1 671 0 discriminator 3
 673 0024 43F8041F 		str	r1, [r3, #4]!
 674              		.loc 1 657 0 discriminator 3
 675 0028 9342     		cmp	r3, r2
 676              		.loc 1 671 0 discriminator 3
 677 002a 4FF00005 		mov	r5, #0
 678              		.loc 1 657 0 discriminator 3
 679 002e F9D1     		bne	.L49
 680              		.loc 1 675 0
 681 0030 84F86450 		strb	r5, [r4, #100]
 682              		.loc 1 678 0
 683 0034 2046     		mov	r0, r4
 684              	.LVL49:
ARM GAS  /tmp/cclCI7Z7.s 			page 13


 685 0036 FFF7FEFF 		bl	usb_lld_reset
 686              	.LVL50:
 687              		.loc 1 681 0
 688 003a 6368     		ldr	r3, [r4, #4]
 689 003c 1B68     		ldr	r3, [r3]
 690 003e 23B1     		cbz	r3, .L48
 691              		.loc 1 681 0 is_stmt 0 discriminator 1
 692 0040 2046     		mov	r0, r4
 693 0042 2946     		mov	r1, r5
 694              		.loc 1 682 0 is_stmt 1 discriminator 1
 695 0044 BDE87040 		pop	{r4, r5, r6, lr}
 696              		.cfi_remember_state
 697              		.cfi_restore 14
 698              		.cfi_restore 6
 699              		.cfi_restore 5
 700              		.cfi_restore 4
 701              		.cfi_def_cfa_offset 0
 702              	.LVL51:
 703              		.loc 1 681 0 discriminator 1
 704 0048 1847     		bx	r3	@ indirect register sibling call
 705              	.LVL52:
 706              	.L48:
 707              		.cfi_restore_state
 708 004a 70BD     		pop	{r4, r5, r6, pc}
 709              		.cfi_endproc
 710              	.LFE220:
 711              		.size	_usb_reset, .-_usb_reset
 712              		.section	.text._usb_suspend,"ax",%progbits
 713              		.align	2
 714              		.p2align 4,,15
 715              		.global	_usb_suspend
 716              		.thumb
 717              		.thumb_func
 718              		.type	_usb_suspend, %function
 719              	_usb_suspend:
 720              	.LFB221:
 721              		.loc 1 693 0
 722              		.cfi_startproc
 723              		@ args = 0, pretend = 0, frame = 0
 724              		@ frame_needed = 0, uses_anonymous_args = 0
 725              		@ link register save eliminated.
 726              	.LVL53:
 727              		.loc 1 701 0
 728 0000 4268     		ldr	r2, [r0, #4]
 729              		.loc 1 693 0
 730 0002 10B4     		push	{r4}
 731              		.cfi_def_cfa_offset 4
 732              		.cfi_offset 4, -4
 733              		.loc 1 701 0
 734 0004 1268     		ldr	r2, [r2]
 735              		.loc 1 697 0
 736 0006 0478     		ldrb	r4, [r0]	@ zero_extendqisi2
 737              		.loc 1 698 0
 738 0008 0521     		movs	r1, #5
 739              		.loc 1 697 0
 740 000a 80F88040 		strb	r4, [r0, #128]
 741              		.loc 1 698 0
ARM GAS  /tmp/cclCI7Z7.s 			page 14


 742 000e 0170     		strb	r1, [r0]
 743              		.loc 1 701 0
 744 0010 1AB1     		cbz	r2, .L53
 745              		.loc 1 701 0 is_stmt 0 discriminator 1
 746 0012 0421     		movs	r1, #4
 747              		.loc 1 722 0 is_stmt 1 discriminator 1
 748 0014 5DF8044B 		ldr	r4, [sp], #4
 749              		.cfi_remember_state
 750              		.cfi_restore 4
 751              		.cfi_def_cfa_offset 0
 752              		.loc 1 701 0 discriminator 1
 753 0018 1047     		bx	r2	@ indirect register sibling call
 754              	.LVL54:
 755              	.L53:
 756              		.cfi_restore_state
 757              		.loc 1 722 0
 758 001a 5DF8044B 		ldr	r4, [sp], #4
 759              		.cfi_restore 4
 760              		.cfi_def_cfa_offset 0
 761 001e 7047     		bx	lr
 762              		.cfi_endproc
 763              	.LFE221:
 764              		.size	_usb_suspend, .-_usb_suspend
 765              		.section	.text._usb_wakeup,"ax",%progbits
 766              		.align	2
 767              		.p2align 4,,15
 768              		.global	_usb_wakeup
 769              		.thumb
 770              		.thumb_func
 771              		.type	_usb_wakeup, %function
 772              	_usb_wakeup:
 773              	.LFB222:
 774              		.loc 1 733 0
 775              		.cfi_startproc
 776              		@ args = 0, pretend = 0, frame = 0
 777              		@ frame_needed = 0, uses_anonymous_args = 0
 778              		@ link register save eliminated.
 779              	.LVL55:
 780              		.loc 1 739 0
 781 0000 4268     		ldr	r2, [r0, #4]
 782              		.loc 1 736 0
 783 0002 90F88010 		ldrb	r1, [r0, #128]	@ zero_extendqisi2
 784              		.loc 1 739 0
 785 0006 1268     		ldr	r2, [r2]
 786              		.loc 1 736 0
 787 0008 0170     		strb	r1, [r0]
 788              		.loc 1 739 0
 789 000a 0AB1     		cbz	r2, .L56
 790              		.loc 1 739 0 is_stmt 0 discriminator 1
 791 000c 0521     		movs	r1, #5
 792 000e 1047     		bx	r2	@ indirect register sibling call
 793              	.LVL56:
 794              	.L56:
 795 0010 7047     		bx	lr
 796              		.cfi_endproc
 797              	.LFE222:
 798              		.size	_usb_wakeup, .-_usb_wakeup
ARM GAS  /tmp/cclCI7Z7.s 			page 15


 799 0012 00BF     		.section	.text._usb_ep0setup,"ax",%progbits
 800              		.align	2
 801              		.p2align 4,,15
 802              		.global	_usb_ep0setup
 803              		.thumb
 804              		.thumb_func
 805              		.type	_usb_ep0setup, %function
 806              	_usb_ep0setup:
 807              	.LFB223:
 808              		.loc 1 752 0 is_stmt 1
 809              		.cfi_startproc
 810              		@ args = 0, pretend = 0, frame = 0
 811              		@ frame_needed = 0, uses_anonymous_args = 0
 812              	.LVL57:
 813 0000 F8B5     		push	{r3, r4, r5, r6, r7, lr}
 814              		.cfi_def_cfa_offset 24
 815              		.cfi_offset 3, -24
 816              		.cfi_offset 4, -20
 817              		.cfi_offset 5, -16
 818              		.cfi_offset 6, -12
 819              		.cfi_offset 7, -8
 820              		.cfi_offset 14, -4
 821              		.loc 1 752 0
 822 0002 0446     		mov	r4, r0
 823              		.loc 1 755 0
 824 0004 0023     		movs	r3, #0
 825 0006 80F86430 		strb	r3, [r0, #100]
 826              		.loc 1 756 0
 827 000a 00F17402 		add	r2, r0, #116
 828 000e FFF7FEFF 		bl	usb_lld_read_setup
 829              	.LVL58:
 830              		.loc 1 761 0
 831 0012 6368     		ldr	r3, [r4, #4]
 832 0014 9B68     		ldr	r3, [r3, #8]
 833 0016 13B3     		cbz	r3, .L63
 834              		.loc 1 762 0 discriminator 1
 835 0018 2046     		mov	r0, r4
 836 001a 9847     		blx	r3
 837              	.LVL59:
 838              		.loc 1 761 0 discriminator 1
 839 001c F8B1     		cbz	r0, .L63
 840 001e E56E     		ldr	r5, [r4, #108]
 841 0020 94F87430 		ldrb	r3, [r4, #116]	@ zero_extendqisi2
 842              	.L102:
 843              	.LVL60:
 844              	.LBB291:
 845              	.LBB292:
 846              		.loc 1 55 0
 847 0024 94F87B10 		ldrb	r1, [r4, #123]	@ zero_extendqisi2
 848 0028 94F87A20 		ldrb	r2, [r4, #122]	@ zero_extendqisi2
 849              	.LBE292:
 850              	.LBE291:
 851              		.loc 1 789 0
 852 002c 42EA0122 		orr	r2, r2, r1, lsl #8
 853              	.LVL61:
 854              		.loc 1 791 0
 855 0030 AA42     		cmp	r2, r5
ARM GAS  /tmp/cclCI7Z7.s 			page 16


 856              		.loc 1 792 0
 857 0032 3CBF     		itt	cc
 858 0034 1546     		movcc	r5, r2
 859 0036 E266     		strcc	r2, [r4, #108]
 860              		.loc 1 794 0
 861 0038 1B06     		lsls	r3, r3, #24
 862 003a 7AD4     		bmi	.L125
 863              		.loc 1 818 0
 864 003c 002D     		cmp	r5, #0
 865 003e 68D1     		bne	.L126
 866              		.loc 1 828 0
 867 0040 0523     		movs	r3, #5
 868 0042 84F86430 		strb	r3, [r4, #100]
 869              	.LVL62:
 870              	.LBB293:
 871              	.LBB294:
 872              	.LBB295:
 873              	.LBB296:
 874              	.LBB297:
 875              	.LBB298:
 876              		.loc 2 548 0
 877 0046 2023     		movs	r3, #32
 878              	@ 548 "/home/maciek/ChibiOS_16.1.5/os/ext/CMSIS/include/core_cmFunc.h" 1
 879 0048 83F31188 		MSR basepri, r3
 880              	@ 0 "" 2
 881              		.thumb
 882              	.LBE298:
 883              	.LBE297:
 884              	.LBE296:
 885              	.LBE295:
 886              	.LBE294:
 887              	.LBE293:
 888              		.loc 1 831 0
 889 004c 2046     		mov	r0, r4
 890 004e 2946     		mov	r1, r5
 891 0050 2A46     		mov	r2, r5
 892              	.LVL63:
 893 0052 2B46     		mov	r3, r5
 894 0054 FFF7FEFF 		bl	usbStartTransmitI
 895              	.LVL64:
 896              	.LBB299:
 897              	.LBB300:
 898              	.LBB301:
 899              	.LBB302:
 900              	.LBB303:
 901              	.LBB304:
 902              		.loc 2 548 0
 903              	@ 548 "/home/maciek/ChibiOS_16.1.5/os/ext/CMSIS/include/core_cmFunc.h" 1
 904 0058 85F31188 		MSR basepri, r5
 905              	@ 0 "" 2
 906              		.thumb
 907 005c F8BD     		pop	{r3, r4, r5, r6, r7, pc}
 908              	.LVL65:
 909              	.L63:
 910              	.LBE304:
 911              	.LBE303:
 912              	.LBE302:
ARM GAS  /tmp/cclCI7Z7.s 			page 17


 913              	.LBE301:
 914              	.LBE300:
 915              	.LBE299:
 916              		.loc 1 767 0
 917 005e 94F87430 		ldrb	r3, [r4, #116]	@ zero_extendqisi2
 918 0062 13F06007 		ands	r7, r3, #96
 919 0066 11D0     		beq	.L127
 920              	.L60:
 921              		.loc 1 773 0
 922 0068 2046     		mov	r0, r4
 923 006a 0021     		movs	r1, #0
 924 006c FFF7FEFF 		bl	usb_lld_stall_in
 925              	.LVL66:
 926              		.loc 1 774 0
 927 0070 2046     		mov	r0, r4
 928 0072 0021     		movs	r1, #0
 929 0074 FFF7FEFF 		bl	usb_lld_stall_out
 930              	.LVL67:
 931              		.loc 1 775 0
 932 0078 6368     		ldr	r3, [r4, #4]
 933 007a 1B68     		ldr	r3, [r3]
 934 007c 13B1     		cbz	r3, .L96
 935              		.loc 1 775 0 is_stmt 0 discriminator 1
 936 007e 2046     		mov	r0, r4
 937 0080 0621     		movs	r1, #6
 938 0082 9847     		blx	r3
 939              	.LVL68:
 940              	.L96:
 941              		.loc 1 776 0 is_stmt 1
 942 0084 0623     		movs	r3, #6
 943 0086 84F86430 		strb	r3, [r4, #100]
 944              		.loc 1 777 0
 945 008a F8BD     		pop	{r3, r4, r5, r6, r7, pc}
 946              	.LVL69:
 947              	.L127:
 948              	.LBB305:
 949              	.LBB306:
 950              		.loc 1 90 0
 951 008c 94F87550 		ldrb	r5, [r4, #117]	@ zero_extendqisi2
 952              		.loc 1 88 0
 953 0090 03F07F02 		and	r2, r3, #127
 954              		.loc 1 89 0
 955 0094 42EA0526 		orr	r6, r2, r5, lsl #8
 956              		.loc 1 88 0
 957 0098 B6F5407F 		cmp	r6, #768
 958 009c 00F00481 		beq	.L65
 959 00a0 16D9     		bls	.L128
 960 00a2 B6F5C06F 		cmp	r6, #1536
 961 00a6 00F0E680 		beq	.L73
 962 00aa 62D9     		bls	.L129
 963 00ac B6F5106F 		cmp	r6, #2304
 964 00b0 6DD0     		beq	.L77
 965 00b2 40F60242 		movw	r2, #3074
 966 00b6 9642     		cmp	r6, r2
 967 00b8 00F0D680 		beq	.L70
 968 00bc B6F5006F 		cmp	r6, #2048
 969 00c0 D2D1     		bne	.L60
ARM GAS  /tmp/cclCI7Z7.s 			page 18


 970              		.loc 1 141 0
 971 00c2 04F17F02 		add	r2, r4, #127
 972 00c6 0125     		movs	r5, #1
 973 00c8 2767     		str	r7, [r4, #112]
 974 00ca A266     		str	r2, [r4, #104]
 975 00cc E566     		str	r5, [r4, #108]
 976 00ce A9E7     		b	.L102
 977              	.L128:
 978              		.loc 1 88 0
 979 00d0 022E     		cmp	r6, #2
 980 00d2 00F0AF80 		beq	.L67
 981 00d6 40F2A580 		bls	.L130
 982 00da B6F5807F 		cmp	r6, #256
 983 00de 6BD0     		beq	.L71
 984 00e0 B6F5817F 		cmp	r6, #258
 985 00e4 C0D1     		bne	.L60
 986              		.loc 1 213 0
 987 00e6 94F87620 		ldrb	r2, [r4, #118]	@ zero_extendqisi2
 988 00ea 002A     		cmp	r2, #0
 989 00ec BCD1     		bne	.L60
 990              		.loc 1 217 0
 991 00ee 94F87820 		ldrb	r2, [r4, #120]	@ zero_extendqisi2
 992 00f2 12F00F01 		ands	r1, r2, #15
 993 00f6 07D0     		beq	.L94
 994              		.loc 1 218 0
 995 00f8 1506     		lsls	r5, r2, #24
 996              		.loc 1 219 0
 997 00fa 2046     		mov	r0, r4
 998              		.loc 1 218 0
 999 00fc 00F1F080 		bmi	.L131
 1000              	.LVL70:
 1001              		.loc 1 222 0
 1002 0100 FFF7FEFF 		bl	usb_lld_clear_out
 1003              	.LVL71:
 1004 0104 94F87430 		ldrb	r3, [r4, #116]	@ zero_extendqisi2
 1005              	.L94:
 1006              		.loc 1 241 0
 1007 0108 0025     		movs	r5, #0
 1008 010a A566     		str	r5, [r4, #104]
 1009 010c E566     		str	r5, [r4, #108]
 1010 010e 2567     		str	r5, [r4, #112]
 1011 0110 88E7     		b	.L102
 1012              	.LVL72:
 1013              	.L126:
 1014              	.LBE306:
 1015              	.LBE305:
 1016              		.loc 1 820 0
 1017 0112 0423     		movs	r3, #4
 1018 0114 84F86430 		strb	r3, [r4, #100]
 1019              	.LVL73:
 1020              	.LBB320:
 1021              	.LBB321:
 1022              	.LBB322:
 1023              	.LBB323:
 1024              	.LBB324:
 1025              	.LBB325:
 1026              		.loc 2 548 0
ARM GAS  /tmp/cclCI7Z7.s 			page 19


 1027 0118 2023     		movs	r3, #32
 1028              	@ 548 "/home/maciek/ChibiOS_16.1.5/os/ext/CMSIS/include/core_cmFunc.h" 1
 1029 011a 83F31188 		MSR basepri, r3
 1030              	@ 0 "" 2
 1031              		.thumb
 1032              	.LBE325:
 1033              	.LBE324:
 1034              	.LBE323:
 1035              	.LBE322:
 1036              	.LBE321:
 1037              	.LBE320:
 1038              		.loc 1 822 0
 1039 011e 0021     		movs	r1, #0
 1040 0120 E36E     		ldr	r3, [r4, #108]
 1041 0122 2046     		mov	r0, r4
 1042 0124 A26E     		ldr	r2, [r4, #104]
 1043              	.LVL74:
 1044 0126 FFF7FEFF 		bl	usbStartReceiveI
 1045              	.LVL75:
 1046              	.LBB326:
 1047              	.LBB327:
 1048              	.LBB328:
 1049              	.LBB329:
 1050              	.LBB330:
 1051              	.LBB331:
 1052              		.loc 2 548 0
 1053 012a 0023     		movs	r3, #0
 1054              	@ 548 "/home/maciek/ChibiOS_16.1.5/os/ext/CMSIS/include/core_cmFunc.h" 1
 1055 012c 83F31188 		MSR basepri, r3
 1056              	@ 0 "" 2
 1057              		.thumb
 1058 0130 F8BD     		pop	{r3, r4, r5, r6, r7, pc}
 1059              	.LVL76:
 1060              	.L125:
 1061              	.LBE331:
 1062              	.LBE330:
 1063              	.LBE329:
 1064              	.LBE328:
 1065              	.LBE327:
 1066              	.LBE326:
 1067              		.loc 1 796 0
 1068 0132 7DB1     		cbz	r5, .L100
 1069              		.loc 1 798 0
 1070 0134 0123     		movs	r3, #1
 1071 0136 84F86430 		strb	r3, [r4, #100]
 1072              	.LVL77:
 1073              	.LBB332:
 1074              	.LBB333:
 1075              	.LBB334:
 1076              	.LBB335:
 1077              	.LBB336:
 1078              	.LBB337:
 1079              		.loc 2 548 0
 1080 013a 2023     		movs	r3, #32
 1081              	@ 548 "/home/maciek/ChibiOS_16.1.5/os/ext/CMSIS/include/core_cmFunc.h" 1
 1082 013c 83F31188 		MSR basepri, r3
 1083              	@ 0 "" 2
ARM GAS  /tmp/cclCI7Z7.s 			page 20


 1084              		.thumb
 1085              	.LBE337:
 1086              	.LBE336:
 1087              	.LBE335:
 1088              	.LBE334:
 1089              	.LBE333:
 1090              	.LBE332:
 1091              		.loc 1 800 0
 1092 0140 0021     		movs	r1, #0
 1093 0142 E36E     		ldr	r3, [r4, #108]
 1094 0144 2046     		mov	r0, r4
 1095 0146 A26E     		ldr	r2, [r4, #104]
 1096              	.LVL78:
 1097 0148 FFF7FEFF 		bl	usbStartTransmitI
 1098              	.LVL79:
 1099              	.LBB338:
 1100              	.LBB339:
 1101              	.LBB340:
 1102              	.LBB341:
 1103              	.LBB342:
 1104              	.LBB343:
 1105              		.loc 2 548 0
 1106 014c 0023     		movs	r3, #0
 1107              	@ 548 "/home/maciek/ChibiOS_16.1.5/os/ext/CMSIS/include/core_cmFunc.h" 1
 1108 014e 83F31188 		MSR basepri, r3
 1109              	@ 0 "" 2
 1110              		.thumb
 1111 0152 F8BD     		pop	{r3, r4, r5, r6, r7, pc}
 1112              	.LVL80:
 1113              	.L100:
 1114              	.LBE343:
 1115              	.LBE342:
 1116              	.LBE341:
 1117              	.LBE340:
 1118              	.LBE339:
 1119              	.LBE338:
 1120              		.loc 1 806 0
 1121 0154 0323     		movs	r3, #3
 1122 0156 84F86430 		strb	r3, [r4, #100]
 1123              	.LVL81:
 1124              	.LBB344:
 1125              	.LBB345:
 1126              	.LBB346:
 1127              	.LBB347:
 1128              	.LBB348:
 1129              	.LBB349:
 1130              		.loc 2 548 0
 1131 015a 2023     		movs	r3, #32
 1132              	@ 548 "/home/maciek/ChibiOS_16.1.5/os/ext/CMSIS/include/core_cmFunc.h" 1
 1133 015c 83F31188 		MSR basepri, r3
 1134              	@ 0 "" 2
 1135              		.thumb
 1136              	.LBE349:
 1137              	.LBE348:
 1138              	.LBE347:
 1139              	.LBE346:
 1140              	.LBE345:
ARM GAS  /tmp/cclCI7Z7.s 			page 21


 1141              	.LBE344:
 1142              		.loc 1 809 0
 1143 0160 2046     		mov	r0, r4
 1144 0162 2946     		mov	r1, r5
 1145 0164 2A46     		mov	r2, r5
 1146              	.LVL82:
 1147 0166 2B46     		mov	r3, r5
 1148 0168 FFF7FEFF 		bl	usbStartReceiveI
 1149              	.LVL83:
 1150              	.LBB350:
 1151              	.LBB351:
 1152              	.LBB352:
 1153              	.LBB353:
 1154              	.LBB354:
 1155              	.LBB355:
 1156              		.loc 2 548 0
 1157              	@ 548 "/home/maciek/ChibiOS_16.1.5/os/ext/CMSIS/include/core_cmFunc.h" 1
 1158 016c 85F31188 		MSR basepri, r5
 1159              	@ 0 "" 2
 1160              		.thumb
 1161 0170 F8BD     		pop	{r3, r4, r5, r6, r7, pc}
 1162              	.LVL84:
 1163              	.L129:
 1164              	.LBE355:
 1165              	.LBE354:
 1166              	.LBE353:
 1167              	.LBE352:
 1168              	.LBE351:
 1169              	.LBE350:
 1170              	.LBB356:
 1171              	.LBB319:
 1172              		.loc 1 88 0
 1173 0172 40F20232 		movw	r2, #770
 1174 0176 9642     		cmp	r6, r2
 1175 0178 2ED0     		beq	.L75
 1176 017a B6F5A06F 		cmp	r6, #1280
 1177 017e 7FF473AF 		bne	.L60
 1178              		.loc 1 124 0
 1179 0182 5C4A     		ldr	r2, .L136
 1180 0184 A766     		str	r7, [r4, #104]
 1181 0186 E766     		str	r7, [r4, #108]
 1182 0188 3D46     		mov	r5, r7
 1183 018a 2267     		str	r2, [r4, #112]
 1184 018c 4AE7     		b	.L102
 1185              	.L77:
 1186              		.loc 1 146 0
 1187 018e 94F87620 		ldrb	r2, [r4, #118]	@ zero_extendqisi2
 1188 0192 94F87F10 		ldrb	r1, [r4, #127]	@ zero_extendqisi2
 1189 0196 9142     		cmp	r1, r2
 1190 0198 B6D0     		beq	.L94
 1191              		.loc 1 149 0
 1192 019a 2378     		ldrb	r3, [r4]	@ zero_extendqisi2
 1193 019c 042B     		cmp	r3, #4
 1194 019e 2DD0     		beq	.L132
 1195              	.L83:
 1196              		.loc 1 158 0
 1197 01a0 4AB3     		cbz	r2, .L123
ARM GAS  /tmp/cclCI7Z7.s 			page 22


 1198              		.loc 1 162 0
 1199 01a2 6368     		ldr	r3, [r4, #4]
 1200              		.loc 1 160 0
 1201 01a4 84F87F20 		strb	r2, [r4, #127]
 1202              		.loc 1 162 0
 1203 01a8 1B68     		ldr	r3, [r3]
 1204              		.loc 1 161 0
 1205 01aa 0422     		movs	r2, #4
 1206 01ac 2270     		strb	r2, [r4]
 1207              		.loc 1 162 0
 1208 01ae 13B3     		cbz	r3, .L123
 1209 01b0 2046     		mov	r0, r4
 1210 01b2 0221     		movs	r1, #2
 1211 01b4 9847     		blx	r3
 1212              	.LVL85:
 1213 01b6 1EE0     		b	.L123
 1214              	.L71:
 1215              		.loc 1 98 0
 1216 01b8 94F87620 		ldrb	r2, [r4, #118]	@ zero_extendqisi2
 1217 01bc 012A     		cmp	r2, #1
 1218 01be 7FF453AF 		bne	.L60
 1219              		.loc 1 99 0
 1220 01c2 B4F87C20 		ldrh	r2, [r4, #124]
 1221              		.loc 1 100 0
 1222 01c6 A766     		str	r7, [r4, #104]
 1223              		.loc 1 99 0
 1224 01c8 22F00202 		bic	r2, r2, #2
 1225              		.loc 1 100 0
 1226 01cc E766     		str	r7, [r4, #108]
 1227 01ce 2767     		str	r7, [r4, #112]
 1228 01d0 3D46     		mov	r5, r7
 1229              		.loc 1 99 0
 1230 01d2 A4F87C20 		strh	r2, [r4, #124]	@ movhi
 1231 01d6 25E7     		b	.L102
 1232              	.L75:
 1233              		.loc 1 229 0
 1234 01d8 94F87620 		ldrb	r2, [r4, #118]	@ zero_extendqisi2
 1235 01dc 002A     		cmp	r2, #0
 1236 01de 7FF443AF 		bne	.L60
 1237              		.loc 1 233 0
 1238 01e2 94F87820 		ldrb	r2, [r4, #120]	@ zero_extendqisi2
 1239 01e6 12F00F01 		ands	r1, r2, #15
 1240 01ea 8DD0     		beq	.L94
 1241              		.loc 1 234 0
 1242 01ec 1206     		lsls	r2, r2, #24
 1243              		.loc 1 235 0
 1244 01ee 2046     		mov	r0, r4
 1245              		.loc 1 234 0
 1246 01f0 7BD4     		bmi	.L133
 1247              	.LVL86:
 1248              		.loc 1 238 0
 1249 01f2 FFF7FEFF 		bl	usb_lld_stall_out
 1250              	.LVL87:
 1251              	.L123:
 1252 01f6 94F87430 		ldrb	r3, [r4, #116]	@ zero_extendqisi2
 1253 01fa 85E7     		b	.L94
 1254              	.L132:
ARM GAS  /tmp/cclCI7Z7.s 			page 23


 1255              	.LVL88:
 1256              	.LBB307:
 1257              	.LBB308:
 1258              	.LBB309:
 1259              	.LBB310:
 1260              	.LBB311:
 1261              		.loc 2 548 0
 1262 01fc 2023     		movs	r3, #32
 1263              	@ 548 "/home/maciek/ChibiOS_16.1.5/os/ext/CMSIS/include/core_cmFunc.h" 1
 1264 01fe 83F31188 		MSR basepri, r3
 1265              	@ 0 "" 2
 1266              		.thumb
 1267              	.LBE311:
 1268              	.LBE310:
 1269              	.LBE309:
 1270              	.LBE308:
 1271              	.LBE307:
 1272              		.loc 1 152 0
 1273 0202 2046     		mov	r0, r4
 1274 0204 FFF7FEFF 		bl	usbDisableEndpointsI
 1275              	.LVL89:
 1276              	.LBB312:
 1277              	.LBB313:
 1278              	.LBB314:
 1279              	.LBB315:
 1280              	.LBB316:
 1281              		.loc 2 548 0
 1282              	@ 548 "/home/maciek/ChibiOS_16.1.5/os/ext/CMSIS/include/core_cmFunc.h" 1
 1283 0208 87F31188 		MSR basepri, r7
 1284              	@ 0 "" 2
 1285              		.thumb
 1286              	.LBE316:
 1287              	.LBE315:
 1288              	.LBE314:
 1289              	.LBE313:
 1290              	.LBE312:
 1291              		.loc 1 156 0
 1292 020c 6368     		ldr	r3, [r4, #4]
 1293              		.loc 1 154 0
 1294 020e 84F87F70 		strb	r7, [r4, #127]
 1295              		.loc 1 156 0
 1296 0212 1B68     		ldr	r3, [r3]
 1297              		.loc 1 155 0
 1298 0214 0321     		movs	r1, #3
 1299 0216 2170     		strb	r1, [r4]
 1300              		.loc 1 156 0
 1301 0218 0BB1     		cbz	r3, .L120
 1302 021a 2046     		mov	r0, r4
 1303 021c 9847     		blx	r3
 1304              	.LVL90:
 1305              	.L120:
 1306 021e 94F87620 		ldrb	r2, [r4, #118]	@ zero_extendqisi2
 1307 0222 BDE7     		b	.L83
 1308              	.LVL91:
 1309              	.L130:
 1310              		.loc 1 88 0
 1311 0224 EEB9     		cbnz	r6, .L134
ARM GAS  /tmp/cclCI7Z7.s 			page 24


 1312              		.loc 1 93 0
 1313 0226 04F17C02 		add	r2, r4, #124
 1314 022a 0225     		movs	r5, #2
 1315 022c 2667     		str	r6, [r4, #112]
 1316 022e A266     		str	r2, [r4, #104]
 1317 0230 E566     		str	r5, [r4, #108]
 1318 0232 F7E6     		b	.L102
 1319              	.L67:
 1320              		.loc 1 177 0
 1321 0234 94F87810 		ldrb	r1, [r4, #120]	@ zero_extendqisi2
 1322              		.loc 1 178 0
 1323 0238 2046     		mov	r0, r4
 1324              		.loc 1 177 0
 1325 023a 11F0800F 		tst	r1, #128
 1326              		.loc 1 178 0
 1327 023e 01F00F01 		and	r1, r1, #15
 1328              		.loc 1 177 0
 1329 0242 41D1     		bne	.L135
 1330              	.LVL92:
 1331              		.loc 1 195 0
 1332 0244 FFF7FEFF 		bl	usb_lld_get_status_out
 1333              	.LVL93:
 1334 0248 0128     		cmp	r0, #1
 1335 024a 41D0     		beq	.L90
 1336              	.L122:
 1337 024c 0228     		cmp	r0, #2
 1338 024e 7FF40BAF 		bne	.L60
 1339              		.loc 1 203 0
 1340 0252 294B     		ldr	r3, .L136+4
 1341 0254 E066     		str	r0, [r4, #108]
 1342 0256 A366     		str	r3, [r4, #104]
 1343 0258 2767     		str	r7, [r4, #112]
 1344 025a 0546     		mov	r5, r0
 1345 025c 94F87430 		ldrb	r3, [r4, #116]	@ zero_extendqisi2
 1346 0260 E0E6     		b	.L102
 1347              	.L134:
 1348              		.loc 1 88 0
 1349 0262 012E     		cmp	r6, #1
 1350 0264 7FF400AF 		bne	.L60
 1351              	.L70:
 1352              		.loc 1 172 0
 1353 0268 2449     		ldr	r1, .L136+8
 1354 026a 0225     		movs	r5, #2
 1355 026c 0022     		movs	r2, #0
 1356 026e A166     		str	r1, [r4, #104]
 1357 0270 E566     		str	r5, [r4, #108]
 1358 0272 2267     		str	r2, [r4, #112]
 1359 0274 D6E6     		b	.L102
 1360              	.L73:
 1361              	.LVL94:
 1362              		.loc 1 129 0
 1363 0276 6168     		ldr	r1, [r4, #4]
 1364              	.LBB317:
 1365              	.LBB318:
 1366              		.loc 1 55 0
 1367 0278 94F87920 		ldrb	r2, [r4, #121]	@ zero_extendqisi2
 1368 027c 94F87830 		ldrb	r3, [r4, #120]	@ zero_extendqisi2
ARM GAS  /tmp/cclCI7Z7.s 			page 25


 1369              	.LBE318:
 1370              	.LBE317:
 1371              		.loc 1 129 0
 1372 0280 4D68     		ldr	r5, [r1, #4]
 1373 0282 43EA0223 		orr	r3, r3, r2, lsl #8
 1374 0286 2046     		mov	r0, r4
 1375 0288 94F87710 		ldrb	r1, [r4, #119]	@ zero_extendqisi2
 1376 028c 94F87620 		ldrb	r2, [r4, #118]	@ zero_extendqisi2
 1377 0290 A847     		blx	r5
 1378              	.LVL95:
 1379              		.loc 1 132 0
 1380 0292 0028     		cmp	r0, #0
 1381 0294 3FF4E8AE 		beq	.L60
 1382              		.loc 1 136 0
 1383 0298 4368     		ldr	r3, [r0, #4]
 1384 029a 0568     		ldr	r5, [r0]
 1385 029c A366     		str	r3, [r4, #104]
 1386 029e E566     		str	r5, [r4, #108]
 1387 02a0 2767     		str	r7, [r4, #112]
 1388 02a2 94F87430 		ldrb	r3, [r4, #116]	@ zero_extendqisi2
 1389 02a6 BDE6     		b	.L102
 1390              	.LVL96:
 1391              	.L65:
 1392              		.loc 1 107 0
 1393 02a8 94F87620 		ldrb	r2, [r4, #118]	@ zero_extendqisi2
 1394 02ac 012A     		cmp	r2, #1
 1395 02ae 7FF4DBAE 		bne	.L60
 1396              		.loc 1 108 0
 1397 02b2 B4F87C20 		ldrh	r2, [r4, #124]
 1398              		.loc 1 109 0
 1399 02b6 A766     		str	r7, [r4, #104]
 1400              		.loc 1 108 0
 1401 02b8 42F00202 		orr	r2, r2, #2
 1402              		.loc 1 109 0
 1403 02bc E766     		str	r7, [r4, #108]
 1404 02be 2767     		str	r7, [r4, #112]
 1405 02c0 3D46     		mov	r5, r7
 1406              		.loc 1 108 0
 1407 02c2 A4F87C20 		strh	r2, [r4, #124]	@ movhi
 1408 02c6 ADE6     		b	.L102
 1409              	.LVL97:
 1410              	.L135:
 1411              		.loc 1 178 0
 1412 02c8 FFF7FEFF 		bl	usb_lld_get_status_in
 1413              	.LVL98:
 1414 02cc 0128     		cmp	r0, #1
 1415 02ce BDD1     		bne	.L122
 1416              	.L90:
 1417              		.loc 1 198 0
 1418 02d0 0B4B     		ldr	r3, .L136+12
 1419 02d2 E666     		str	r6, [r4, #108]
 1420 02d4 A366     		str	r3, [r4, #104]
 1421 02d6 2767     		str	r7, [r4, #112]
 1422 02d8 3546     		mov	r5, r6
 1423 02da 94F87430 		ldrb	r3, [r4, #116]	@ zero_extendqisi2
 1424 02de A1E6     		b	.L102
 1425              	.LVL99:
ARM GAS  /tmp/cclCI7Z7.s 			page 26


 1426              	.L131:
 1427              		.loc 1 219 0
 1428 02e0 FFF7FEFF 		bl	usb_lld_clear_in
 1429              	.LVL100:
 1430 02e4 94F87430 		ldrb	r3, [r4, #116]	@ zero_extendqisi2
 1431 02e8 0EE7     		b	.L94
 1432              	.LVL101:
 1433              	.L133:
 1434              		.loc 1 235 0
 1435 02ea FFF7FEFF 		bl	usb_lld_stall_in
 1436              	.LVL102:
 1437 02ee 94F87430 		ldrb	r3, [r4, #116]	@ zero_extendqisi2
 1438 02f2 09E7     		b	.L94
 1439              	.L137:
 1440              		.align	2
 1441              	.L136:
 1442 02f4 00000000 		.word	set_address
 1443 02f8 00000000 		.word	.LANCHOR2
 1444 02fc 00000000 		.word	.LANCHOR0
 1445 0300 00000000 		.word	.LANCHOR1
 1446              	.LBE319:
 1447              	.LBE356:
 1448              		.cfi_endproc
 1449              	.LFE223:
 1450              		.size	_usb_ep0setup, .-_usb_ep0setup
 1451              		.section	.text._usb_ep0in,"ax",%progbits
 1452              		.align	2
 1453              		.p2align 4,,15
 1454              		.global	_usb_ep0in
 1455              		.thumb
 1456              		.thumb_func
 1457              		.type	_usb_ep0in, %function
 1458              	_usb_ep0in:
 1459              	.LFB224:
 1460              		.loc 1 850 0
 1461              		.cfi_startproc
 1462              		@ args = 0, pretend = 0, frame = 0
 1463              		@ frame_needed = 0, uses_anonymous_args = 0
 1464              	.LVL103:
 1465 0000 38B5     		push	{r3, r4, r5, lr}
 1466              		.cfi_def_cfa_offset 16
 1467              		.cfi_offset 3, -16
 1468              		.cfi_offset 4, -12
 1469              		.cfi_offset 5, -8
 1470              		.cfi_offset 14, -4
 1471              		.loc 1 854 0
 1472 0002 90F86430 		ldrb	r3, [r0, #100]	@ zero_extendqisi2
 1473              		.loc 1 850 0
 1474 0006 0446     		mov	r4, r0
 1475              		.loc 1 854 0
 1476 0008 062B     		cmp	r3, #6
 1477 000a 15D8     		bhi	.L138
 1478 000c DFE803F0 		tbb	[pc, r3]
 1479              	.L141:
 1480 0010 04       		.byte	(.L140-.L141)/2
 1481 0011 15       		.byte	(.L142-.L141)/2
 1482 0012 25       		.byte	(.L143-.L141)/2
ARM GAS  /tmp/cclCI7Z7.s 			page 27


 1483 0013 04       		.byte	(.L140-.L141)/2
 1484 0014 04       		.byte	(.L140-.L141)/2
 1485 0015 35       		.byte	(.L144-.L141)/2
 1486 0016 04       		.byte	(.L140-.L141)/2
 1487 0017 00       		.p2align 1
 1488              	.L140:
 1489              		.loc 1 897 0
 1490 0018 0021     		movs	r1, #0
 1491              	.LVL104:
 1492 001a FFF7FEFF 		bl	usb_lld_stall_in
 1493              	.LVL105:
 1494              		.loc 1 898 0
 1495 001e 2046     		mov	r0, r4
 1496 0020 0021     		movs	r1, #0
 1497 0022 FFF7FEFF 		bl	usb_lld_stall_out
 1498              	.LVL106:
 1499              		.loc 1 899 0
 1500 0026 6368     		ldr	r3, [r4, #4]
 1501 0028 1B68     		ldr	r3, [r3]
 1502 002a 13B1     		cbz	r3, .L146
 1503              		.loc 1 899 0 is_stmt 0 discriminator 1
 1504 002c 2046     		mov	r0, r4
 1505 002e 0621     		movs	r1, #6
 1506 0030 9847     		blx	r3
 1507              	.LVL107:
 1508              	.L146:
 1509              		.loc 1 900 0 is_stmt 1
 1510 0032 0623     		movs	r3, #6
 1511 0034 84F86430 		strb	r3, [r4, #100]
 1512              	.L138:
 1513 0038 38BD     		pop	{r3, r4, r5, pc}
 1514              	.LVL108:
 1515              	.L142:
 1516              	.LBB357:
 1517              	.LBB358:
 1518              		.loc 1 55 0
 1519 003a 90F87B10 		ldrb	r1, [r0, #123]	@ zero_extendqisi2
 1520              	.LVL109:
 1521 003e 90F87A30 		ldrb	r3, [r0, #122]	@ zero_extendqisi2
 1522              	.LBE358:
 1523              	.LBE357:
 1524              		.loc 1 860 0
 1525 0042 C26E     		ldr	r2, [r0, #108]
 1526              		.loc 1 856 0
 1527 0044 43EA0123 		orr	r3, r3, r1, lsl #8
 1528              		.loc 1 860 0
 1529 0048 9342     		cmp	r3, r2
 1530 004a 06D9     		bls	.L143
 1531              		.loc 1 861 0 discriminator 1
 1532 004c C368     		ldr	r3, [r0, #12]
 1533 004e 1D8A     		ldrh	r5, [r3, #16]
 1534 0050 B2FBF5F3 		udiv	r3, r2, r5
 1535 0054 05FB1325 		mls	r5, r5, r3, r2
 1536              		.loc 1 860 0 discriminator 1
 1537 0058 B5B1     		cbz	r5, .L154
 1538              	.LVL110:
 1539              	.L143:
ARM GAS  /tmp/cclCI7Z7.s 			page 28


 1540              		.loc 1 871 0
 1541 005a 0323     		movs	r3, #3
 1542 005c 84F86430 		strb	r3, [r4, #100]
 1543              	.LVL111:
 1544              	.LBB359:
 1545              	.LBB360:
 1546              	.LBB361:
 1547              	.LBB362:
 1548              	.LBB363:
 1549              	.LBB364:
 1550              		.loc 2 548 0
 1551 0060 2023     		movs	r3, #32
 1552              	@ 548 "/home/maciek/ChibiOS_16.1.5/os/ext/CMSIS/include/core_cmFunc.h" 1
 1553 0062 83F31188 		MSR basepri, r3
 1554              	@ 0 "" 2
 1555              		.thumb
 1556              	.LBE364:
 1557              	.LBE363:
 1558              	.LBE362:
 1559              	.LBE361:
 1560              	.LBE360:
 1561              	.LBE359:
 1562              		.loc 1 874 0
 1563 0066 0021     		movs	r1, #0
 1564 0068 0B46     		mov	r3, r1
 1565 006a 2046     		mov	r0, r4
 1566              	.LVL112:
 1567 006c 0A46     		mov	r2, r1
 1568 006e FFF7FEFF 		bl	usbStartReceiveI
 1569              	.LVL113:
 1570              	.LBB365:
 1571              	.LBB366:
 1572              	.LBB367:
 1573              	.LBB368:
 1574              	.LBB369:
 1575              	.LBB370:
 1576              		.loc 2 548 0
 1577 0072 0023     		movs	r3, #0
 1578              	@ 548 "/home/maciek/ChibiOS_16.1.5/os/ext/CMSIS/include/core_cmFunc.h" 1
 1579 0074 83F31188 		MSR basepri, r3
 1580              	@ 0 "" 2
 1581              		.thumb
 1582 0078 38BD     		pop	{r3, r4, r5, pc}
 1583              	.LVL114:
 1584              	.L144:
 1585              	.LBE370:
 1586              	.LBE369:
 1587              	.LBE368:
 1588              	.LBE367:
 1589              	.LBE366:
 1590              	.LBE365:
 1591              		.loc 1 882 0
 1592 007a 036F     		ldr	r3, [r0, #112]
 1593 007c 03B1     		cbz	r3, .L145
 1594              		.loc 1 883 0
 1595 007e 9847     		blx	r3
 1596              	.LVL115:
ARM GAS  /tmp/cclCI7Z7.s 			page 29


 1597              	.L145:
 1598              		.loc 1 885 0
 1599 0080 0023     		movs	r3, #0
 1600 0082 84F86430 		strb	r3, [r4, #100]
 1601              		.loc 1 886 0
 1602 0086 38BD     		pop	{r3, r4, r5, pc}
 1603              	.LVL116:
 1604              	.L154:
 1605              	.LBB371:
 1606              	.LBB372:
 1607              	.LBB373:
 1608              	.LBB374:
 1609              	.LBB375:
 1610              	.LBB376:
 1611              		.loc 2 548 0
 1612 0088 2023     		movs	r3, #32
 1613              	@ 548 "/home/maciek/ChibiOS_16.1.5/os/ext/CMSIS/include/core_cmFunc.h" 1
 1614 008a 83F31188 		MSR basepri, r3
 1615              	@ 0 "" 2
 1616              		.thumb
 1617              	.LBE376:
 1618              	.LBE375:
 1619              	.LBE374:
 1620              	.LBE373:
 1621              	.LBE372:
 1622              	.LBE371:
 1623              		.loc 1 863 0
 1624 008e 2946     		mov	r1, r5
 1625              	.LVL117:
 1626 0090 2A46     		mov	r2, r5
 1627 0092 2B46     		mov	r3, r5
 1628 0094 FFF7FEFF 		bl	usbStartTransmitI
 1629              	.LVL118:
 1630              	.LBB377:
 1631              	.LBB378:
 1632              	.LBB379:
 1633              	.LBB380:
 1634              	.LBB381:
 1635              	.LBB382:
 1636              		.loc 2 548 0
 1637              	@ 548 "/home/maciek/ChibiOS_16.1.5/os/ext/CMSIS/include/core_cmFunc.h" 1
 1638 0098 85F31188 		MSR basepri, r5
 1639              	@ 0 "" 2
 1640              		.thumb
 1641              	.LBE382:
 1642              	.LBE381:
 1643              	.LBE380:
 1644              	.LBE379:
 1645              	.LBE378:
 1646              	.LBE377:
 1647              		.loc 1 865 0
 1648 009c 0223     		movs	r3, #2
 1649 009e 84F86430 		strb	r3, [r4, #100]
 1650              		.loc 1 866 0
 1651 00a2 38BD     		pop	{r3, r4, r5, pc}
 1652              		.cfi_endproc
 1653              	.LFE224:
ARM GAS  /tmp/cclCI7Z7.s 			page 30


 1654              		.size	_usb_ep0in, .-_usb_ep0in
 1655              		.section	.text._usb_ep0out,"ax",%progbits
 1656              		.align	2
 1657              		.p2align 4,,15
 1658              		.global	_usb_ep0out
 1659              		.thumb
 1660              		.thumb_func
 1661              		.type	_usb_ep0out, %function
 1662              	_usb_ep0out:
 1663              	.LFB225:
 1664              		.loc 1 917 0
 1665              		.cfi_startproc
 1666              		@ args = 0, pretend = 0, frame = 0
 1667              		@ frame_needed = 0, uses_anonymous_args = 0
 1668              	.LVL119:
 1669              		.loc 1 920 0
 1670 0000 90F86420 		ldrb	r2, [r0, #100]	@ zero_extendqisi2
 1671              		.loc 1 917 0
 1672 0004 38B5     		push	{r3, r4, r5, lr}
 1673              		.cfi_def_cfa_offset 16
 1674              		.cfi_offset 3, -16
 1675              		.cfi_offset 4, -12
 1676              		.cfi_offset 5, -8
 1677              		.cfi_offset 14, -4
 1678 0006 062A     		cmp	r2, #6
 1679 0008 0AD8     		bhi	.L155
 1680 000a 0123     		movs	r3, #1
 1681 000c 9340     		lsls	r3, r3, r2
 1682 000e 13F0670F 		tst	r3, #103
 1683 0012 0446     		mov	r4, r0
 1684 0014 11D1     		bne	.L157
 1685 0016 13F00805 		ands	r5, r3, #8
 1686 001a 02D1     		bne	.L158
 1687 001c DB06     		lsls	r3, r3, #27
 1688 001e 1DD4     		bmi	.L171
 1689              	.L155:
 1690 0020 38BD     		pop	{r3, r4, r5, pc}
 1691              	.L158:
 1692              		.loc 1 936 0
 1693 0022 C368     		ldr	r3, [r0, #12]
 1694 0024 9B69     		ldr	r3, [r3, #24]
 1695 0026 5B68     		ldr	r3, [r3, #4]
 1696 0028 002B     		cmp	r3, #0
 1697 002a F9D1     		bne	.L155
 1698              		.loc 1 940 0
 1699 002c 036F     		ldr	r3, [r0, #112]
 1700 002e 03B1     		cbz	r3, .L159
 1701              		.loc 1 941 0
 1702 0030 9847     		blx	r3
 1703              	.LVL120:
 1704              	.L159:
 1705              		.loc 1 943 0
 1706 0032 0023     		movs	r3, #0
 1707 0034 84F86430 		strb	r3, [r4, #100]
 1708              		.loc 1 944 0
 1709 0038 38BD     		pop	{r3, r4, r5, pc}
 1710              	.LVL121:
ARM GAS  /tmp/cclCI7Z7.s 			page 31


 1711              	.L157:
 1712              		.loc 1 956 0
 1713 003a 0021     		movs	r1, #0
 1714              	.LVL122:
 1715 003c FFF7FEFF 		bl	usb_lld_stall_in
 1716              	.LVL123:
 1717              		.loc 1 957 0
 1718 0040 2046     		mov	r0, r4
 1719 0042 0021     		movs	r1, #0
 1720 0044 FFF7FEFF 		bl	usb_lld_stall_out
 1721              	.LVL124:
 1722              		.loc 1 958 0
 1723 0048 6368     		ldr	r3, [r4, #4]
 1724 004a 1B68     		ldr	r3, [r3]
 1725 004c 13B1     		cbz	r3, .L160
 1726              		.loc 1 958 0 is_stmt 0 discriminator 1
 1727 004e 2046     		mov	r0, r4
 1728 0050 0621     		movs	r1, #6
 1729 0052 9847     		blx	r3
 1730              	.LVL125:
 1731              	.L160:
 1732              		.loc 1 959 0 is_stmt 1
 1733 0054 0623     		movs	r3, #6
 1734 0056 84F86430 		strb	r3, [r4, #100]
 1735 005a 38BD     		pop	{r3, r4, r5, pc}
 1736              	.LVL126:
 1737              	.L171:
 1738              		.loc 1 923 0
 1739 005c 0523     		movs	r3, #5
 1740 005e 80F86430 		strb	r3, [r0, #100]
 1741              	.LVL127:
 1742              	.LBB383:
 1743              	.LBB384:
 1744              	.LBB385:
 1745              	.LBB386:
 1746              	.LBB387:
 1747              	.LBB388:
 1748              		.loc 2 548 0
 1749 0062 2023     		movs	r3, #32
 1750              	@ 548 "/home/maciek/ChibiOS_16.1.5/os/ext/CMSIS/include/core_cmFunc.h" 1
 1751 0064 83F31188 		MSR basepri, r3
 1752              	@ 0 "" 2
 1753              		.thumb
 1754              	.LBE388:
 1755              	.LBE387:
 1756              	.LBE386:
 1757              	.LBE385:
 1758              	.LBE384:
 1759              	.LBE383:
 1760              		.loc 1 926 0
 1761 0068 2946     		mov	r1, r5
 1762              	.LVL128:
 1763 006a 2A46     		mov	r2, r5
 1764 006c 2B46     		mov	r3, r5
 1765 006e FFF7FEFF 		bl	usbStartTransmitI
 1766              	.LVL129:
 1767              	.LBB389:
ARM GAS  /tmp/cclCI7Z7.s 			page 32


 1768              	.LBB390:
 1769              	.LBB391:
 1770              	.LBB392:
 1771              	.LBB393:
 1772              	.LBB394:
 1773              		.loc 2 548 0
 1774              	@ 548 "/home/maciek/ChibiOS_16.1.5/os/ext/CMSIS/include/core_cmFunc.h" 1
 1775 0072 85F31188 		MSR basepri, r5
 1776              	@ 0 "" 2
 1777              		.thumb
 1778 0076 38BD     		pop	{r3, r4, r5, pc}
 1779              	.LBE394:
 1780              	.LBE393:
 1781              	.LBE392:
 1782              	.LBE391:
 1783              	.LBE390:
 1784              	.LBE389:
 1785              		.cfi_endproc
 1786              	.LFE225:
 1787              		.size	_usb_ep0out, .-_usb_ep0out
 1788              		.section	.rodata.zero_status,"a",%progbits
 1789              		.align	2
 1790              		.set	.LANCHOR0,. + 0
 1791              		.type	zero_status, %object
 1792              		.size	zero_status, 2
 1793              	zero_status:
 1794 0000 0000     		.space	2
 1795              		.section	.rodata.active_status,"a",%progbits
 1796              		.align	2
 1797              		.set	.LANCHOR2,. + 0
 1798              		.type	active_status, %object
 1799              		.size	active_status, 2
 1800              	active_status:
 1801 0000 0000     		.space	2
 1802              		.section	.rodata.halted_status,"a",%progbits
 1803              		.align	2
 1804              		.set	.LANCHOR1,. + 0
 1805              		.type	halted_status, %object
 1806              		.size	halted_status, 2
 1807              	halted_status:
 1808 0000 01       		.byte	1
 1809 0001 00       		.byte	0
 1810              		.text
 1811              	.Letext0:
 1812              		.file 4 "/opt/stm32/gcc/gcc-arm-none-eabi-4_9-2015q2/lib/gcc/arm-none-eabi/4.9.3/include/stddef.h"
 1813              		.file 5 "/opt/stm32/gcc/gcc-arm-none-eabi-4_9-2015q2/arm-none-eabi/include/machine/_default_types.
 1814              		.file 6 "/opt/stm32/gcc/gcc-arm-none-eabi-4_9-2015q2/arm-none-eabi/include/sys/_stdint.h"
 1815              		.file 7 "/home/maciek/ChibiOS_16.1.5/os/rt/ports/ARMCMx/compilers/GCC/chtypes.h"
 1816              		.file 8 "/home/maciek/ChibiOS_16.1.5/os/rt/include/chsystypes.h"
 1817              		.file 9 "/home/maciek/ChibiOS_16.1.5/os/rt/include/chschd.h"
 1818              		.file 10 "/home/maciek/ChibiOS_16.1.5/os/rt/ports/ARMCMx/chcore.h"
 1819              		.file 11 "/home/maciek/ChibiOS_16.1.5/os/rt/ports/ARMCMx/chcore_v7m.h"
 1820              		.file 12 "/home/maciek/ChibiOS_16.1.5/os/rt/include/chtm.h"
 1821              		.file 13 "/home/maciek/ChibiOS_16.1.5/os/rt/include/chsem.h"
 1822              		.file 14 "/home/maciek/ChibiOS_16.1.5/os/rt/include/chmtx.h"
 1823              		.file 15 "/home/maciek/ChibiOS_16.1.5/os/hal/include/usb.h"
 1824              		.file 16 "/home/maciek/ChibiOS_16.1.5/os/hal/ports/STM32/LLD/USBv1/usb_lld.h"
ARM GAS  /tmp/cclCI7Z7.s 			page 33


 1825              		.file 17 "/home/maciek/ChibiOS_16.1.5/os/rt/include/chsys.h"
 1826              		.file 18 "/home/maciek/ChibiOS_16.1.5/os/ext/CMSIS/include/core_cm3.h"