ARM GAS  /tmp/ccGLYu8q.s 			page 1


   1              		.syntax unified
   2              		.cpu cortex-m3
   3              		.fpu softvfp
   4              		.eabi_attribute 20, 1
   5              		.eabi_attribute 21, 1
   6              		.eabi_attribute 23, 3
   7              		.eabi_attribute 24, 1
   8              		.eabi_attribute 25, 1
   9              		.eabi_attribute 26, 1
  10              		.eabi_attribute 30, 2
  11              		.eabi_attribute 34, 1
  12              		.eabi_attribute 18, 4
  13              		.thumb
  14              		.file	"usb_lld.c"
  15              		.text
  16              	.Ltext0:
  17              		.cfi_sections	.debug_frame
  18              		.section	.text.usb_packet_write_from_buffer,"ax",%progbits
  19              		.align	2
  20              		.p2align 4,,15
  21              		.thumb
  22              		.thumb_func
  23              		.type	usb_packet_write_from_buffer, %function
  24              	usb_packet_write_from_buffer:
  25              	.LFB210:
  26              		.file 1 "/home/maciek/ChibiOS_16.1.5/os/hal/ports/STM32/LLD/USBv1/usb_lld.c"
  27              		.loc 1 214 0
  28              		.cfi_startproc
  29              		@ args = 0, pretend = 0, frame = 0
  30              		@ frame_needed = 0, uses_anonymous_args = 0
  31              		@ link register save eliminated.
  32              	.LVL0:
  33              		.loc 1 215 0
  34 0000 144B     		ldr	r3, .L9
  35              		.loc 1 214 0
  36 0002 10B4     		push	{r4}
  37              		.cfi_def_cfa_offset 4
  38              		.cfi_offset 4, -4
  39              		.loc 1 215 0
  40 0004 1C6D     		ldr	r4, [r3, #80]
  41 0006 0001     		lsls	r0, r0, #4
  42              	.LVL1:
  43 0008 04F18044 		add	r4, r4, #1073741824
  44 000c 04F5C044 		add	r4, r4, #24576
  45              		.loc 1 216 0
  46 0010 2358     		ldr	r3, [r4, r0]
  47              		.loc 1 271 0
  48 0012 002A     		cmp	r2, #0
  49              		.loc 1 216 0
  50 0014 03F10053 		add	r3, r3, #536870912
  51              		.loc 1 215 0
  52 0018 2044     		add	r0, r0, r4
  53              	.LVL2:
  54              		.loc 1 216 0
  55 001a 03F54053 		add	r3, r3, #12288
  56              		.loc 1 233 0
  57 001e 4260     		str	r2, [r0, #4]
ARM GAS  /tmp/ccGLYu8q.s 			page 2


  58              		.loc 1 216 0
  59 0020 4FEA4303 		lsl	r3, r3, #1
  60              	.LVL3:
  61              		.loc 1 271 0
  62 0024 13DD     		ble	.L1
  63 0026 541E     		subs	r4, r2, #1
  64 0028 6408     		lsrs	r4, r4, #1
  65 002a 0433     		adds	r3, r3, #4
  66              	.LVL4:
  67 002c 03EB8404 		add	r4, r3, r4, lsl #2
  68 0030 0231     		adds	r1, r1, #2
  69              	.LVL5:
  70 0032 00E0     		b	.L3
  71              	.LVL6:
  72              	.L8:
  73 0034 0433     		adds	r3, r3, #4
  74              	.LVL7:
  75              	.L3:
  76              	.LBB13:
  77              		.loc 1 274 0
  78 0036 11F8022C 		ldrb	r2, [r1, #-2]	@ zero_extendqisi2
  79              	.LVL8:
  80              		.loc 1 275 0
  81 003a 11F8010C 		ldrb	r0, [r1, #-1]	@ zero_extendqisi2
  82              	.LBE13:
  83              		.loc 1 271 0
  84 003e A342     		cmp	r3, r4
  85              	.LBB14:
  86              		.loc 1 275 0
  87 0040 42EA0022 		orr	r2, r2, r0, lsl #8
  88              	.LVL9:
  89 0044 01F10201 		add	r1, r1, #2
  90              	.LVL10:
  91              		.loc 1 276 0
  92 0048 43F8042C 		str	r2, [r3, #-4]
  93              	.LVL11:
  94              	.LBE14:
  95              		.loc 1 271 0
  96 004c F2D1     		bne	.L8
  97              	.LVL12:
  98              	.L1:
  99              		.loc 1 279 0
 100 004e 5DF8044B 		ldr	r4, [sp], #4
 101              		.cfi_restore 4
 102              		.cfi_def_cfa_offset 0
 103 0052 7047     		bx	lr
 104              	.L10:
 105              		.align	2
 106              	.L9:
 107 0054 005C0040 		.word	1073765376
 108              		.cfi_endproc
 109              	.LFE210:
 110              		.size	usb_packet_write_from_buffer, .-usb_packet_write_from_buffer
 111              		.section	.text.Vector90,"ax",%progbits
 112              		.align	2
 113              		.p2align 4,,15
 114              		.global	Vector90
ARM GAS  /tmp/ccGLYu8q.s 			page 3


 115              		.thumb
 116              		.thumb_func
 117              		.type	Vector90, %function
 118              	Vector90:
 119              	.LFB212:
 120              		.loc 1 391 0
 121              		.cfi_startproc
 122              		@ args = 0, pretend = 0, frame = 8
 123              		@ frame_needed = 0, uses_anonymous_args = 0
 124              	.LVL13:
 125 0000 2DE9F04F 		push	{r4, r5, r6, r7, r8, r9, r10, fp, lr}
 126              		.cfi_def_cfa_offset 36
 127              		.cfi_offset 4, -36
 128              		.cfi_offset 5, -32
 129              		.cfi_offset 6, -28
 130              		.cfi_offset 7, -24
 131              		.cfi_offset 8, -20
 132              		.cfi_offset 9, -16
 133              		.cfi_offset 10, -12
 134              		.cfi_offset 11, -8
 135              		.cfi_offset 14, -4
 136              		.loc 1 397 0
 137 0004 934B     		ldr	r3, .L66
 138              		.loc 1 391 0
 139 0006 83B0     		sub	sp, sp, #12
 140              		.cfi_def_cfa_offset 48
 141              		.loc 1 397 0
 142 0008 5D6C     		ldr	r5, [r3, #68]
 143              	.LVL14:
 144              		.loc 1 400 0
 145 000a 6F05     		lsls	r7, r5, #21
 146 000c 00F11381 		bmi	.L62
 147              	.L12:
 148              		.loc 1 407 0
 149 0010 2E05     		lsls	r6, r5, #20
 150 0012 00F10481 		bmi	.L63
 151              	.L13:
 152              		.loc 1 418 0
 153 0016 EC04     		lsls	r4, r5, #19
 154 0018 08D5     		bpl	.L14
 155              	.LBB23:
 156              		.loc 1 419 0
 157 001a 8E4B     		ldr	r3, .L66
 158 001c 9A6C     		ldr	r2, [r3, #72]
 159              	.LVL15:
 160              		.loc 1 420 0
 161 001e 1004     		lsls	r0, r2, #16
 162 0020 40F11081 		bpl	.L64
 163              	.LVL16:
 164              	.L15:
 165              		.loc 1 432 0
 166 0024 8B4B     		ldr	r3, .L66
 167 0026 6FF48052 		mvn	r2, #4096
 168 002a 5A64     		str	r2, [r3, #68]
 169              	.L14:
 170              	.LBE23:
 171              		.loc 1 436 0
ARM GAS  /tmp/ccGLYu8q.s 			page 4


 172 002c A905     		lsls	r1, r5, #22
 173 002e 0BD5     		bpl	.L16
 174              		.loc 1 437 0
 175 0030 DFF824A2 		ldr	r10, .L66+4
 176 0034 DAF80430 		ldr	r3, [r10, #4]
 177 0038 DB68     		ldr	r3, [r3, #12]
 178 003a 0BB1     		cbz	r3, .L17
 179              		.loc 1 437 0 is_stmt 0 discriminator 1
 180 003c 5046     		mov	r0, r10
 181 003e 9847     		blx	r3
 182              	.LVL17:
 183              	.L17:
 184              		.loc 1 438 0 is_stmt 1
 185 0040 844B     		ldr	r3, .L66
 186 0042 6FF40072 		mvn	r2, #512
 187 0046 5A64     		str	r2, [r3, #68]
 188              	.L16:
 189              		.loc 1 442 0
 190 0048 2A04     		lsls	r2, r5, #16
 191 004a 40F1B780 		bpl	.L33
 192 004e DFF808A2 		ldr	r10, .L66+4
 193              	.L32:
 194              		.loc 1 443 0
 195 0052 05F00F05 		and	r5, r5, #15
 196              	.LVL18:
 197 0056 AC00     		lsls	r4, r5, #2
 198 0058 04F18044 		add	r4, r4, #1073741824
 199 005c 04F5B844 		add	r4, r4, #23552
 200              	.LBB24:
 201              	.LBB25:
 202              		.loc 1 291 0
 203 0060 D4F80080 		ldr	r8, [r4]
 204              	.LVL19:
 205              		.loc 1 292 0
 206 0064 AE1C     		adds	r6, r5, #2
 207 0066 0AEB8603 		add	r3, r10, r6, lsl #2
 208              		.loc 1 294 0
 209 006a 18F0800F 		tst	r8, #128
 210              		.loc 1 292 0
 211 006e 5F68     		ldr	r7, [r3, #4]
 212              	.LVL20:
 213              		.loc 1 294 0
 214 0070 2FD0     		beq	.L20
 215              	.LBB26:
 216              		.loc 1 296 0
 217 0072 D7F814E0 		ldr	lr, [r7, #20]
 218              	.LVL21:
 219              		.loc 1 298 0
 220 0076 2368     		ldr	r3, [r4]
 221              		.loc 1 300 0
 222 0078 DEF80400 		ldr	r0, [lr, #4]
 223 007c DEF80C10 		ldr	r1, [lr, #12]
 224              		.loc 1 298 0
 225 0080 23F47843 		bic	r3, r3, #63488
 226              		.loc 1 301 0
 227 0084 DEF80020 		ldr	r2, [lr]
 228              		.loc 1 298 0
ARM GAS  /tmp/ccGLYu8q.s 			page 5


 229 0088 23F0F003 		bic	r3, r3, #240
 230              		.loc 1 300 0
 231 008c 0844     		add	r0, r0, r1
 232              	.LVL22:
 233              		.loc 1 298 0
 234 008e 43F40043 		orr	r3, r3, #32768
 235 0092 2360     		str	r3, [r4]
 236              		.loc 1 300 0
 237 0094 CEF80400 		str	r0, [lr, #4]
 238              		.loc 1 302 0
 239 0098 101A     		subs	r0, r2, r0
 240              	.LVL23:
 241 009a 00F0A680 		beq	.L21
 242              		.loc 1 304 0
 243 009e 3A8A     		ldrh	r2, [r7, #16]
 244              		.loc 1 308 0
 245 00a0 DEF80830 		ldr	r3, [lr, #8]
 246 00a4 8242     		cmp	r2, r0
 247 00a6 28BF     		it	cs
 248 00a8 0246     		movcs	r2, r0
 249              	.LVL24:
 250 00aa 1944     		add	r1, r1, r3
 251              		.loc 1 309 0
 252 00ac CEF80C20 		str	r2, [lr, #12]
 253              		.loc 1 308 0
 254 00b0 CEF80810 		str	r1, [lr, #8]
 255              		.loc 1 310 0
 256 00b4 2846     		mov	r0, r5
 257 00b6 FFF7FEFF 		bl	usb_packet_write_from_buffer
 258              	.LVL25:
 259              		.loc 1 313 0
 260 00ba 2368     		ldr	r3, [r4]
 261 00bc 23F4F043 		bic	r3, r3, #30720
 262 00c0 23F04003 		bic	r3, r3, #64
 263 00c4 83F03003 		eor	r3, r3, #48
 264 00c8 43F40043 		orr	r3, r3, #32768
 265 00cc 43F08003 		orr	r3, r3, #128
 266 00d0 2360     		str	r3, [r4]
 267              	.L20:
 268              	.LBE26:
 269              		.loc 1 320 0
 270 00d2 18F4004F 		tst	r8, #32768
 271 00d6 6CD0     		beq	.L24
 272              		.loc 1 323 0
 273 00d8 2368     		ldr	r3, [r4]
 274              		.loc 1 325 0
 275 00da 18F4006F 		tst	r8, #2048
 276              		.loc 1 323 0
 277 00de 23F47843 		bic	r3, r3, #63488
 278 00e2 23F0F003 		bic	r3, r3, #240
 279 00e6 43F08003 		orr	r3, r3, #128
 280 00ea 2360     		str	r3, [r4]
 281              		.loc 1 325 0
 282 00ec 40F08F80 		bne	.L65
 283              	.LBB27:
 284              	.LBB28:
 285              	.LBB29:
ARM GAS  /tmp/ccGLYu8q.s 			page 6


 286              		.loc 1 131 0
 287 00f0 584B     		ldr	r3, .L66
 288              	.LBE29:
 289              	.LBE28:
 290              		.loc 1 331 0
 291 00f2 D7F818E0 		ldr	lr, [r7, #24]
 292              	.LVL26:
 293              	.LBB34:
 294              	.LBB32:
 295              		.loc 1 131 0
 296 00f6 1B6D     		ldr	r3, [r3, #80]
 297              	.LBE32:
 298              	.LBE34:
 299              		.loc 1 334 0
 300 00f8 DEF808B0 		ldr	fp, [lr, #8]
 301 00fc 03F18043 		add	r3, r3, #1073741824
 302 0100 03F5C043 		add	r3, r3, #24576
 303              	.LBB35:
 304              	.LBB33:
 305              		.loc 1 131 0
 306 0104 03EB0513 		add	r3, r3, r5, lsl #4
 307              		.loc 1 132 0
 308 0108 9A68     		ldr	r2, [r3, #8]
 309              	.LVL27:
 310              		.loc 1 148 0
 311 010a DB68     		ldr	r3, [r3, #12]
 312              	.LVL28:
 313              		.loc 1 132 0
 314 010c 02F10059 		add	r9, r2, #536870912
 315              		.loc 1 148 0
 316 0110 C3F3090C 		ubfx	ip, r3, #0, #10
 317              	.LVL29:
 318              		.loc 1 132 0
 319 0114 09F54059 		add	r9, r9, #12288
 320              		.loc 1 188 0
 321 0118 BCF1010F 		cmp	ip, #1
 322              		.loc 1 148 0
 323 011c 0193     		str	r3, [sp, #4]
 324              		.loc 1 132 0
 325 011e 4FEA4909 		lsl	r9, r9, #1
 326              	.LVL30:
 327              		.loc 1 188 0
 328 0122 6246     		mov	r2, ip
 329 0124 1AD9     		bls	.L26
 330 0126 4846     		mov	r0, r9
 331 0128 0BF10203 		add	r3, fp, #2
 332              	.LVL31:
 333              	.L27:
 334              	.LBB30:
 335              		.loc 1 189 0
 336 012c 50F8041B 		ldr	r1, [r0], #4
 337              	.LVL32:
 338              		.loc 1 192 0
 339 0130 023A     		subs	r2, r2, #2
 340              	.LVL33:
 341              		.loc 1 191 0
 342 0132 4FEA1128 		lsr	r8, r1, #8
ARM GAS  /tmp/ccGLYu8q.s 			page 7


 343              	.LBE30:
 344              		.loc 1 188 0
 345 0136 012A     		cmp	r2, #1
 346              	.LBB31:
 347              		.loc 1 190 0
 348 0138 03F8021C 		strb	r1, [r3, #-2]
 349              	.LVL34:
 350              		.loc 1 191 0
 351 013c 03F8018C 		strb	r8, [r3, #-1]
 352 0140 03F10203 		add	r3, r3, #2
 353              	.LVL35:
 354              	.LBE31:
 355              		.loc 1 188 0
 356 0144 F2D8     		bhi	.L27
 357 0146 ACF10203 		sub	r3, ip, #2
 358              	.LVL36:
 359 014a 5B08     		lsrs	r3, r3, #1
 360 014c 019A     		ldr	r2, [sp, #4]
 361              	.LVL37:
 362 014e 0133     		adds	r3, r3, #1
 363 0150 02F00102 		and	r2, r2, #1
 364 0154 09EB8309 		add	r9, r9, r3, lsl #2
 365 0158 0BEB430B 		add	fp, fp, r3, lsl #1
 366              	.LVL38:
 367              	.L26:
 368              		.loc 1 195 0
 369 015c 1AB1     		cbz	r2, .L28
 370              		.loc 1 196 0
 371 015e D9F80030 		ldr	r3, [r9]	@ unaligned
 372 0162 8BF80030 		strb	r3, [fp]
 373              	.L28:
 374              	.LBE33:
 375              	.LBE35:
 376              		.loc 1 340 0
 377 0166 BEF80C00 		ldrh	r0, [lr, #12]
 378              		.loc 1 344 0
 379 016a 7F8A     		ldrh	r7, [r7, #18]
 380              	.LVL39:
 381              		.loc 1 335 0
 382 016c DEF80810 		ldr	r1, [lr, #8]
 383              		.loc 1 338 0
 384 0170 DEF80420 		ldr	r2, [lr, #4]
 385              		.loc 1 339 0
 386 0174 DEF80030 		ldr	r3, [lr]
 387              		.loc 1 340 0
 388 0178 0138     		subs	r0, r0, #1
 389 017a 80B2     		uxth	r0, r0
 390              		.loc 1 335 0
 391 017c 6144     		add	r1, r1, ip
 392              		.loc 1 338 0
 393 017e 6244     		add	r2, r2, ip
 394              		.loc 1 339 0
 395 0180 CCEB0303 		rsb	r3, ip, r3
 396              		.loc 1 344 0
 397 0184 6745     		cmp	r7, ip
 398              		.loc 1 340 0
 399 0186 AEF80C00 		strh	r0, [lr, #12]	@ movhi
ARM GAS  /tmp/ccGLYu8q.s 			page 8


 400              		.loc 1 335 0
 401 018a CEF80810 		str	r1, [lr, #8]
 402              		.loc 1 338 0
 403 018e CEF80420 		str	r2, [lr, #4]
 404              		.loc 1 339 0
 405 0192 CEF80030 		str	r3, [lr]
 406              		.loc 1 344 0
 407 0196 16D8     		bhi	.L29
 408 0198 A8B1     		cbz	r0, .L29
 409              		.loc 1 350 0
 410 019a 2368     		ldr	r3, [r4]
 411 019c 23F49043 		bic	r3, r3, #18432
 412 01a0 23F07003 		bic	r3, r3, #112
 413 01a4 83F44053 		eor	r3, r3, #12288
 414 01a8 43F40043 		orr	r3, r3, #32768
 415 01ac 43F08003 		orr	r3, r3, #128
 416 01b0 2360     		str	r3, [r4]
 417              	.LVL40:
 418              	.L24:
 419              	.LBE27:
 420              	.LBE25:
 421              	.LBE24:
 422              		.loc 1 444 0
 423 01b2 284B     		ldr	r3, .L66
 424 01b4 5D6C     		ldr	r5, [r3, #68]
 425              	.LVL41:
 426              		.loc 1 442 0
 427 01b6 2B04     		lsls	r3, r5, #16
 428 01b8 3FF54BAF 		bmi	.L32
 429              	.LVL42:
 430              	.L33:
 431              		.loc 1 448 0
 432 01bc 03B0     		add	sp, sp, #12
 433              		.cfi_remember_state
 434              		.cfi_def_cfa_offset 36
 435              		@ sp needed
 436 01be BDE8F04F 		pop	{r4, r5, r6, r7, r8, r9, r10, fp, lr}
 437              		.cfi_restore 14
 438              		.cfi_restore 11
 439              		.cfi_restore 10
 440              		.cfi_restore 9
 441              		.cfi_restore 8
 442              		.cfi_restore 7
 443              		.cfi_restore 6
 444              		.cfi_restore 5
 445              		.cfi_restore 4
 446              		.cfi_def_cfa_offset 0
 447              	.LVL43:
 448              		.loc 1 447 0
 449 01c2 FFF7FEBF 		b	_port_irq_epilogue
 450              	.LVL44:
 451              	.L29:
 452              		.cfi_restore_state
 453              	.LBB39:
 454              	.LBB38:
 455              	.LBB36:
 456              		.loc 1 346 0
ARM GAS  /tmp/ccGLYu8q.s 			page 9


 457 01c6 0AEB8606 		add	r6, r10, r6, lsl #2
 458 01ca 7268     		ldr	r2, [r6, #4]
 459 01cc BAF80A30 		ldrh	r3, [r10, #10]
 460 01d0 0121     		movs	r1, #1
 461 01d2 A940     		lsls	r1, r1, r5
 462 01d4 D268     		ldr	r2, [r2, #12]
 463 01d6 23EA0103 		bic	r3, r3, r1
 464 01da AAF80A30 		strh	r3, [r10, #10]	@ movhi
 465 01de 002A     		cmp	r2, #0
 466 01e0 E7D0     		beq	.L24
 467 01e2 2946     		mov	r1, r5
 468 01e4 1C48     		ldr	r0, .L66+4
 469 01e6 9047     		blx	r2
 470              	.LVL45:
 471 01e8 E3E7     		b	.L24
 472              	.LVL46:
 473              	.L21:
 474              	.LBE36:
 475              	.LBB37:
 476              		.loc 1 317 0
 477 01ea 1B4B     		ldr	r3, .L66+4
 478 01ec D7F808C0 		ldr	ip, [r7, #8]
 479 01f0 1A89     		ldrh	r2, [r3, #8]
 480 01f2 0123     		movs	r3, #1
 481 01f4 AB40     		lsls	r3, r3, r5
 482 01f6 22EA0303 		bic	r3, r2, r3
 483 01fa 174A     		ldr	r2, .L66+4
 484 01fc 1381     		strh	r3, [r2, #8]	@ movhi
 485 01fe BCF1000F 		cmp	ip, #0
 486 0202 3FF466AF 		beq	.L20
 487 0206 1046     		mov	r0, r2
 488              	.LVL47:
 489 0208 2946     		mov	r1, r5
 490 020a E047     		blx	ip
 491              	.LVL48:
 492 020c 61E7     		b	.L20
 493              	.L65:
 494              	.LBE37:
 495              		.loc 1 328 0
 496 020e 0AEB8606 		add	r6, r10, r6, lsl #2
 497 0212 7368     		ldr	r3, [r6, #4]
 498 0214 2946     		mov	r1, r5
 499 0216 5B68     		ldr	r3, [r3, #4]
 500 0218 0F48     		ldr	r0, .L66+4
 501 021a 9847     		blx	r3
 502              	.LVL49:
 503 021c C9E7     		b	.L24
 504              	.LVL50:
 505              	.L63:
 506              	.LBE38:
 507              	.LBE39:
 508              		.loc 1 408 0
 509 021e 0D4B     		ldr	r3, .L66
 510              		.loc 1 412 0
 511 0220 6FF40061 		mvn	r1, #2048
 512              		.loc 1 408 0
 513 0224 1A6C     		ldr	r2, [r3, #64]
ARM GAS  /tmp/ccGLYu8q.s 			page 10


 514              		.loc 1 414 0
 515 0226 0C48     		ldr	r0, .L66+4
 516              		.loc 1 408 0
 517 0228 42F00802 		orr	r2, r2, #8
 518 022c 1A64     		str	r2, [r3, #64]
 519              		.loc 1 412 0
 520 022e 5964     		str	r1, [r3, #68]
 521              		.loc 1 414 0
 522 0230 FFF7FEFF 		bl	_usb_suspend
 523              	.LVL51:
 524 0234 EFE6     		b	.L13
 525              	.L62:
 526              		.loc 1 401 0
 527 0236 6FF48062 		mvn	r2, #1024
 528 023a 5A64     		str	r2, [r3, #68]
 529              		.loc 1 403 0
 530 023c 0648     		ldr	r0, .L66+4
 531 023e FFF7FEFF 		bl	_usb_reset
 532              	.LVL52:
 533 0242 E5E6     		b	.L12
 534              	.LVL53:
 535              	.L64:
 536              	.LBB40:
 537              		.loc 1 421 0
 538 0244 1A6C     		ldr	r2, [r3, #64]
 539              	.LVL54:
 540              		.loc 1 423 0
 541 0246 0448     		ldr	r0, .L66+4
 542              		.loc 1 421 0
 543 0248 22F00802 		bic	r2, r2, #8
 544 024c 1A64     		str	r2, [r3, #64]
 545              		.loc 1 423 0
 546 024e FFF7FEFF 		bl	_usb_wakeup
 547              	.LVL55:
 548 0252 E7E6     		b	.L15
 549              	.L67:
 550              		.align	2
 551              	.L66:
 552 0254 005C0040 		.word	1073765376
 553 0258 00000000 		.word	.LANCHOR0
 554              	.LBE40:
 555              		.cfi_endproc
 556              	.LFE212:
 557              		.size	Vector90, .-Vector90
 558              		.section	.text.usb_lld_init,"ax",%progbits
 559              		.align	2
 560              		.p2align 4,,15
 561              		.global	usb_lld_init
 562              		.thumb
 563              		.thumb_func
 564              		.type	usb_lld_init, %function
 565              	usb_lld_init:
 566              	.LFB213:
 567              		.loc 1 460 0
 568              		.cfi_startproc
 569              		@ args = 0, pretend = 0, frame = 0
 570              		@ frame_needed = 0, uses_anonymous_args = 0
ARM GAS  /tmp/ccGLYu8q.s 			page 11


 571              		@ link register save eliminated.
 572              		.loc 1 463 0
 573 0000 0148     		ldr	r0, .L69
 574 0002 FFF7FEBF 		b	usbObjectInit
 575              	.LVL56:
 576              	.L70:
 577 0006 00BF     		.align	2
 578              	.L69:
 579 0008 00000000 		.word	.LANCHOR0
 580              		.cfi_endproc
 581              	.LFE213:
 582              		.size	usb_lld_init, .-usb_lld_init
 583              		.section	.text.usb_lld_start,"ax",%progbits
 584              		.align	2
 585              		.p2align 4,,15
 586              		.global	usb_lld_start
 587              		.thumb
 588              		.thumb_func
 589              		.type	usb_lld_start, %function
 590              	usb_lld_start:
 591              	.LFB214:
 592              		.loc 1 473 0
 593              		.cfi_startproc
 594              		@ args = 0, pretend = 0, frame = 0
 595              		@ frame_needed = 0, uses_anonymous_args = 0
 596              	.LVL57:
 597 0000 38B5     		push	{r3, r4, r5, lr}
 598              		.cfi_def_cfa_offset 16
 599              		.cfi_offset 3, -16
 600              		.cfi_offset 4, -12
 601              		.cfi_offset 5, -8
 602              		.cfi_offset 14, -4
 603              		.loc 1 475 0
 604 0002 0378     		ldrb	r3, [r0]	@ zero_extendqisi2
 605 0004 012B     		cmp	r3, #1
 606 0006 00D0     		beq	.L75
 607 0008 38BD     		pop	{r3, r4, r5, pc}
 608              	.L75:
 609              		.loc 1 478 0
 610 000a 0D4A     		ldr	r2, .L77
 611 000c 0446     		mov	r4, r0
 612 000e 9042     		cmp	r0, r2
 613 0010 04D0     		beq	.L76
 614              	.LVL58:
 615              	.L73:
 616              		.loc 1 494 0
 617 0012 2046     		mov	r0, r4
 618              		.loc 1 496 0
 619 0014 BDE83840 		pop	{r3, r4, r5, lr}
 620              		.cfi_remember_state
 621              		.cfi_restore 14
 622              		.cfi_restore 5
 623              		.cfi_restore 4
 624              		.cfi_restore 3
 625              		.cfi_def_cfa_offset 0
 626              	.LVL59:
 627              		.loc 1 494 0
ARM GAS  /tmp/ccGLYu8q.s 			page 12


 628 0018 FFF7FEBF 		b	_usb_reset
 629              	.LVL60:
 630              	.L76:
 631              		.cfi_restore_state
 632              		.loc 1 480 0
 633 001c 0949     		ldr	r1, .L77+4
 634              		.loc 1 482 0
 635 001e 0A4D     		ldr	r5, .L77+8
 636              		.loc 1 480 0
 637 0020 CA69     		ldr	r2, [r1, #28]
 638              		.loc 1 486 0
 639 0022 1320     		movs	r0, #19
 640              	.LVL61:
 641              		.loc 1 480 0
 642 0024 42F40002 		orr	r2, r2, #8388608
 643 0028 CA61     		str	r2, [r1, #28]
 644              		.loc 1 482 0
 645 002a 2B64     		str	r3, [r5, #64]
 646              		.loc 1 486 0
 647 002c 0D21     		movs	r1, #13
 648 002e FFF7FEFF 		bl	nvicEnableVector
 649              	.LVL62:
 650              		.loc 1 488 0
 651 0032 1420     		movs	r0, #20
 652 0034 0E21     		movs	r1, #14
 653 0036 FFF7FEFF 		bl	nvicEnableVector
 654              	.LVL63:
 655              		.loc 1 490 0
 656 003a 0023     		movs	r3, #0
 657 003c 2B64     		str	r3, [r5, #64]
 658 003e E8E7     		b	.L73
 659              	.L78:
 660              		.align	2
 661              	.L77:
 662 0040 00000000 		.word	.LANCHOR0
 663 0044 00100240 		.word	1073876992
 664 0048 005C0040 		.word	1073765376
 665              		.cfi_endproc
 666              	.LFE214:
 667              		.size	usb_lld_start, .-usb_lld_start
 668              		.section	.text.usb_lld_stop,"ax",%progbits
 669              		.align	2
 670              		.p2align 4,,15
 671              		.global	usb_lld_stop
 672              		.thumb
 673              		.thumb_func
 674              		.type	usb_lld_stop, %function
 675              	usb_lld_stop:
 676              	.LFB215:
 677              		.loc 1 505 0
 678              		.cfi_startproc
 679              		@ args = 0, pretend = 0, frame = 0
 680              		@ frame_needed = 0, uses_anonymous_args = 0
 681              	.LVL64:
 682 0000 08B5     		push	{r3, lr}
 683              		.cfi_def_cfa_offset 8
 684              		.cfi_offset 3, -8
ARM GAS  /tmp/ccGLYu8q.s 			page 13


 685              		.cfi_offset 14, -4
 686              		.loc 1 508 0
 687 0002 0378     		ldrb	r3, [r0]	@ zero_extendqisi2
 688 0004 012B     		cmp	r3, #1
 689 0006 00D0     		beq	.L82
 690              	.LVL65:
 691              	.L79:
 692 0008 08BD     		pop	{r3, pc}
 693              	.LVL66:
 694              	.L82:
 695              		.loc 1 510 0
 696 000a 094B     		ldr	r3, .L83
 697 000c 9842     		cmp	r0, r3
 698 000e FBD1     		bne	.L79
 699              		.loc 1 512 0
 700 0010 1320     		movs	r0, #19
 701              	.LVL67:
 702 0012 FFF7FEFF 		bl	nvicDisableVector
 703              	.LVL68:
 704              		.loc 1 514 0
 705 0016 1420     		movs	r0, #20
 706 0018 FFF7FEFF 		bl	nvicDisableVector
 707              	.LVL69:
 708              		.loc 1 515 0
 709 001c 054B     		ldr	r3, .L83+4
 710              		.loc 1 516 0
 711 001e 064A     		ldr	r2, .L83+8
 712              		.loc 1 515 0
 713 0020 0321     		movs	r1, #3
 714 0022 1964     		str	r1, [r3, #64]
 715              		.loc 1 516 0
 716 0024 D369     		ldr	r3, [r2, #28]
 717 0026 23F40003 		bic	r3, r3, #8388608
 718 002a D361     		str	r3, [r2, #28]
 719 002c ECE7     		b	.L79
 720              	.L84:
 721 002e 00BF     		.align	2
 722              	.L83:
 723 0030 00000000 		.word	.LANCHOR0
 724 0034 005C0040 		.word	1073765376
 725 0038 00100240 		.word	1073876992
 726              		.cfi_endproc
 727              	.LFE215:
 728              		.size	usb_lld_stop, .-usb_lld_stop
 729              		.section	.text.usb_lld_set_address,"ax",%progbits
 730              		.align	2
 731              		.p2align 4,,15
 732              		.global	usb_lld_set_address
 733              		.thumb
 734              		.thumb_func
 735              		.type	usb_lld_set_address, %function
 736              	usb_lld_set_address:
 737              	.LFB217:
 738              		.loc 1 559 0
 739              		.cfi_startproc
 740              		@ args = 0, pretend = 0, frame = 0
 741              		@ frame_needed = 0, uses_anonymous_args = 0
ARM GAS  /tmp/ccGLYu8q.s 			page 14


 742              		@ link register save eliminated.
 743              	.LVL70:
 744              		.loc 1 561 0
 745 0000 90F87E30 		ldrb	r3, [r0, #126]	@ zero_extendqisi2
 746 0004 024A     		ldr	r2, .L86
 747 0006 43F08003 		orr	r3, r3, #128
 748 000a D364     		str	r3, [r2, #76]
 749 000c 7047     		bx	lr
 750              	.L87:
 751 000e 00BF     		.align	2
 752              	.L86:
 753 0010 005C0040 		.word	1073765376
 754              		.cfi_endproc
 755              	.LFE217:
 756              		.size	usb_lld_set_address, .-usb_lld_set_address
 757              		.section	.text.usb_lld_init_endpoint,"ax",%progbits
 758              		.align	2
 759              		.p2align 4,,15
 760              		.global	usb_lld_init_endpoint
 761              		.thumb
 762              		.thumb_func
 763              		.type	usb_lld_init_endpoint, %function
 764              	usb_lld_init_endpoint:
 765              	.LFB218:
 766              		.loc 1 572 0
 767              		.cfi_startproc
 768              		@ args = 0, pretend = 0, frame = 0
 769              		@ frame_needed = 0, uses_anonymous_args = 0
 770              	.LVL71:
 771              		.loc 1 575 0
 772 0000 00EB8103 		add	r3, r0, r1, lsl #2
 773              		.loc 1 572 0
 774 0004 F0B5     		push	{r4, r5, r6, r7, lr}
 775              		.cfi_def_cfa_offset 20
 776              		.cfi_offset 4, -20
 777              		.cfi_offset 5, -16
 778              		.cfi_offset 6, -12
 779              		.cfi_offset 7, -8
 780              		.cfi_offset 14, -4
 781              		.loc 1 575 0
 782 0006 DE68     		ldr	r6, [r3, #12]
 783              	.LVL72:
 784              		.loc 1 580 0
 785 0008 3368     		ldr	r3, [r6]
 786 000a 13F00303 		ands	r3, r3, #3
 787 000e 57D0     		beq	.L89
 788 0010 022B     		cmp	r3, #2
 789 0012 61D9     		bls	.L96
 790 0014 032B     		cmp	r3, #3
 791 0016 53D1     		bne	.L89
 792              		.loc 1 594 0
 793 0018 4FF4C064 		mov	r4, #1536
 794              	.L90:
 795              	.LVL73:
 796              		.loc 1 600 0
 797 001c 2F4B     		ldr	r3, .L104
 798              		.loc 1 603 0
ARM GAS  /tmp/ccGLYu8q.s 			page 15


 799 001e 7269     		ldr	r2, [r6, #20]
 800              		.loc 1 600 0
 801 0020 1B6D     		ldr	r3, [r3, #80]
 802 0022 0F01     		lsls	r7, r1, #4
 803 0024 03F18043 		add	r3, r3, #1073741824
 804 0028 03F5C043 		add	r3, r3, #24576
 805 002c DD19     		adds	r5, r3, r7
 806              	.LVL74:
 807              		.loc 1 603 0
 808 002e 82B1     		cbz	r2, .L92
 809              		.loc 1 605 0
 810 0030 328A     		ldrh	r2, [r6, #16]
 811              		.loc 1 604 0
 812 0032 4FF0000E 		mov	lr, #0
 813 0036 C5F804E0 		str	lr, [r5, #4]
 814              	.LVL75:
 815              	.LBB41:
 816              	.LBB42:
 817              		.loc 1 114 0
 818 003a D0F884E0 		ldr	lr, [r0, #132]
 819              	.LVL76:
 820              		.loc 1 115 0
 821 003e 0132     		adds	r2, r2, #1
 822 0040 22F00102 		bic	r2, r2, #1
 823 0044 7244     		add	r2, r2, lr
 824 0046 C0F88420 		str	r2, [r0, #132]
 825              	.LVL77:
 826              	.LBE42:
 827              	.LBE41:
 828              		.loc 1 617 0
 829 004a 44F02004 		orr	r4, r4, #32
 830              	.LVL78:
 831              		.loc 1 605 0
 832 004e 43F807E0 		str	lr, [r3, r7]
 833              	.LVL79:
 834              	.L92:
 835              		.loc 1 622 0
 836 0052 B369     		ldr	r3, [r6, #24]
 837 0054 CBB1     		cbz	r3, .L93
 838              	.LBB43:
 839              		.loc 1 626 0
 840 0056 728A     		ldrh	r2, [r6, #18]
 841 0058 3E2A     		cmp	r2, #62
 842              		.loc 1 627 0
 843 005a 02F1FF33 		add	r3, r2, #-1
 844              		.loc 1 626 0
 845 005e 32D9     		bls	.L94
 846              		.loc 1 627 0
 847 0060 43F01F03 		orr	r3, r3, #31
 848 0064 0133     		adds	r3, r3, #1
 849 0066 5B11     		asrs	r3, r3, #5
 850 0068 6FEAC363 		mvn	r3, r3, lsl #27
 851 006c 6FEA5343 		mvn	r3, r3, lsr #17
 852 0070 9BB2     		uxth	r3, r3
 853              	.LVL80:
 854              	.L95:
 855              		.loc 1 631 0
ARM GAS  /tmp/ccGLYu8q.s 			page 16


 856 0072 EB60     		str	r3, [r5, #12]
 857              	.LVL81:
 858              	.LBB44:
 859              	.LBB45:
 860              		.loc 1 114 0
 861 0074 D0F88430 		ldr	r3, [r0, #132]
 862              	.LVL82:
 863              		.loc 1 115 0
 864 0078 0132     		adds	r2, r2, #1
 865              	.LVL83:
 866 007a 22F00102 		bic	r2, r2, #1
 867 007e 1A44     		add	r2, r2, r3
 868 0080 C0F88420 		str	r2, [r0, #132]
 869              	.LBE45:
 870              	.LBE44:
 871              		.loc 1 644 0
 872 0084 44F40054 		orr	r4, r4, #8192
 873              	.LVL84:
 874              		.loc 1 632 0
 875 0088 AB60     		str	r3, [r5, #8]
 876              	.LVL85:
 877              	.L93:
 878              	.LBE43:
 879              		.loc 1 650 0
 880 008a 47F67002 		movw	r2, #30832
 881              		.loc 1 649 0
 882 008e 44EA0103 		orr	r3, r4, r1
 883 0092 23F47843 		bic	r3, r3, #63488
 884 0096 23F0F003 		bic	r3, r3, #240
 885 009a 8900     		lsls	r1, r1, #2
 886              	.LVL86:
 887 009c 43F40043 		orr	r3, r3, #32768
 888 00a0 01F18041 		add	r1, r1, #1073741824
 889 00a4 01F5B841 		add	r1, r1, #23552
 890 00a8 43F08003 		orr	r3, r3, #128
 891 00ac 0B60     		str	r3, [r1]
 892              		.loc 1 650 0
 893 00ae 0B68     		ldr	r3, [r1]
 894 00b0 2240     		ands	r2, r2, r4
 895 00b2 5340     		eors	r3, r3, r2
 896 00b4 43F40043 		orr	r3, r3, #32768
 897 00b8 43F08003 		orr	r3, r3, #128
 898 00bc 0B60     		str	r3, [r1]
 899 00be F0BD     		pop	{r4, r5, r6, r7, pc}
 900              	.LVL87:
 901              	.L89:
 902              		.loc 1 597 0
 903 00c0 4FF40074 		mov	r4, #512
 904 00c4 AAE7     		b	.L90
 905              	.LVL88:
 906              	.L94:
 907              	.LBB46:
 908              		.loc 1 630 0
 909 00c6 43F00103 		orr	r3, r3, #1
 910 00ca 0133     		adds	r3, r3, #1
 911 00cc 03EBD373 		add	r3, r3, r3, lsr #31
 912 00d0 5B02     		lsls	r3, r3, #9
ARM GAS  /tmp/ccGLYu8q.s 			page 17


 913 00d2 03F47C43 		and	r3, r3, #64512
 914              	.LVL89:
 915 00d6 CCE7     		b	.L95
 916              	.LVL90:
 917              	.L96:
 918              	.LBE46:
 919              		.loc 1 591 0
 920 00d8 0024     		movs	r4, #0
 921 00da 9FE7     		b	.L90
 922              	.L105:
 923              		.align	2
 924              	.L104:
 925 00dc 005C0040 		.word	1073765376
 926              		.cfi_endproc
 927              	.LFE218:
 928              		.size	usb_lld_init_endpoint, .-usb_lld_init_endpoint
 929              		.section	.text.usb_lld_reset,"ax",%progbits
 930              		.align	2
 931              		.p2align 4,,15
 932              		.global	usb_lld_reset
 933              		.thumb
 934              		.thumb_func
 935              		.type	usb_lld_reset, %function
 936              	usb_lld_reset:
 937              	.LFB216:
 938              		.loc 1 529 0
 939              		.cfi_startproc
 940              		@ args = 0, pretend = 0, frame = 0
 941              		@ frame_needed = 0, uses_anonymous_args = 0
 942              	.LVL91:
 943              		.loc 1 540 0
 944 0000 4168     		ldr	r1, [r0, #4]
 945              		.loc 1 529 0
 946 0002 F0B5     		push	{r4, r5, r6, r7, lr}
 947              		.cfi_def_cfa_offset 20
 948              		.cfi_offset 4, -20
 949              		.cfi_offset 5, -16
 950              		.cfi_offset 6, -12
 951              		.cfi_offset 7, -8
 952              		.cfi_offset 14, -4
 953              		.loc 1 540 0
 954 0004 C968     		ldr	r1, [r1, #12]
 955              		.loc 1 533 0
 956 0006 0D4B     		ldr	r3, .L110
 957              		.loc 1 540 0
 958 0008 0029     		cmp	r1, #0
 959              		.loc 1 548 0
 960 000a 0D4D     		ldr	r5, .L110+4
 961              		.loc 1 533 0
 962 000c 4FF00004 		mov	r4, #0
 963              		.loc 1 541 0
 964 0010 0CBF     		ite	eq
 965 0012 4FF41C47 		moveq	r7, #39936
 966 0016 4FF41E47 		movne	r7, #40448
 967              		.loc 1 535 0
 968 001a 4FF0800E 		mov	lr, #128
 969              	.LBB47:
ARM GAS  /tmp/ccGLYu8q.s 			page 18


 970              	.LBB48:
 971              		.loc 1 102 0
 972 001e 4026     		movs	r6, #64
 973              	.LBE48:
 974              	.LBE47:
 975              		.loc 1 533 0
 976 0020 1C65     		str	r4, [r3, #80]
 977              		.loc 1 549 0
 978 0022 2146     		mov	r1, r4
 979              		.loc 1 534 0
 980 0024 5C64     		str	r4, [r3, #68]
 981              		.loc 1 535 0
 982 0026 C3F84CE0 		str	lr, [r3, #76]
 983              	.LVL92:
 984              		.loc 1 542 0
 985 002a 1F64     		str	r7, [r3, #64]
 986              	.LVL93:
 987              	.LBB50:
 988              	.LBB49:
 989              		.loc 1 102 0
 990 002c C0F88460 		str	r6, [r0, #132]
 991              	.LBE49:
 992              	.LBE50:
 993              		.loc 1 548 0
 994 0030 C560     		str	r5, [r0, #12]
 995              		.loc 1 550 0
 996 0032 BDE8F040 		pop	{r4, r5, r6, r7, lr}
 997              		.cfi_restore 14
 998              		.cfi_restore 7
 999              		.cfi_restore 6
 1000              		.cfi_restore 5
 1001              		.cfi_restore 4
 1002              		.cfi_def_cfa_offset 0
 1003              	.LVL94:
 1004              		.loc 1 549 0
 1005 0036 FFF7FEBF 		b	usb_lld_init_endpoint
 1006              	.LVL95:
 1007              	.L111:
 1008 003a 00BF     		.align	2
 1009              	.L110:
 1010 003c 005C0040 		.word	1073765376
 1011 0040 00000000 		.word	.LANCHOR1
 1012              		.cfi_endproc
 1013              	.LFE216:
 1014              		.size	usb_lld_reset, .-usb_lld_reset
 1015              		.section	.text.usb_lld_disable_endpoints,"ax",%progbits
 1016              		.align	2
 1017              		.p2align 4,,15
 1018              		.global	usb_lld_disable_endpoints
 1019              		.thumb
 1020              		.thumb_func
 1021              		.type	usb_lld_disable_endpoints, %function
 1022              	usb_lld_disable_endpoints:
 1023              	.LFB219:
 1024              		.loc 1 660 0
 1025              		.cfi_startproc
 1026              		@ args = 0, pretend = 0, frame = 0
ARM GAS  /tmp/ccGLYu8q.s 			page 19


 1027              		@ frame_needed = 0, uses_anonymous_args = 0
 1028              		@ link register save eliminated.
 1029              	.LVL96:
 1030 0000 10B4     		push	{r4}
 1031              		.cfi_def_cfa_offset 4
 1032              		.cfi_offset 4, -4
 1033              		.loc 1 668 0
 1034 0002 48F28004 		movw	r4, #32896
 1035              	.LBB51:
 1036              	.LBB52:
 1037              		.loc 1 102 0
 1038 0006 4023     		movs	r3, #64
 1039 0008 C0F88430 		str	r3, [r0, #132]
 1040              	.LVL97:
 1041              	.LBE52:
 1042              	.LBE51:
 1043              		.loc 1 667 0
 1044 000c 0121     		movs	r1, #1
 1045              	.LVL98:
 1046              	.L113:
 1047 000e 8B00     		lsls	r3, r1, #2
 1048 0010 03F18043 		add	r3, r3, #1073741824
 1049 0014 03F5B843 		add	r3, r3, #23552
 1050              		.loc 1 668 0 discriminator 3
 1051 0018 1A68     		ldr	r2, [r3]
 1052              		.loc 1 667 0 discriminator 3
 1053 001a 0131     		adds	r1, r1, #1
 1054              	.LVL99:
 1055              		.loc 1 668 0 discriminator 3
 1056 001c 42F40042 		orr	r2, r2, #32768
 1057 0020 42F08002 		orr	r2, r2, #128
 1058              		.loc 1 667 0 discriminator 3
 1059 0024 0829     		cmp	r1, #8
 1060              		.loc 1 668 0 discriminator 3
 1061 0026 1A60     		str	r2, [r3]
 1062              		.loc 1 669 0 discriminator 3
 1063 0028 1C60     		str	r4, [r3]
 1064              		.loc 1 667 0 discriminator 3
 1065 002a F0D1     		bne	.L113
 1066              		.loc 1 671 0
 1067 002c 5DF8044B 		ldr	r4, [sp], #4
 1068              		.cfi_restore 4
 1069              		.cfi_def_cfa_offset 0
 1070 0030 7047     		bx	lr
 1071              		.cfi_endproc
 1072              	.LFE219:
 1073              		.size	usb_lld_disable_endpoints, .-usb_lld_disable_endpoints
 1074 0032 00BF     		.section	.text.usb_lld_get_status_out,"ax",%progbits
 1075              		.align	2
 1076              		.p2align 4,,15
 1077              		.global	usb_lld_get_status_out
 1078              		.thumb
 1079              		.thumb_func
 1080              		.type	usb_lld_get_status_out, %function
 1081              	usb_lld_get_status_out:
 1082              	.LFB220:
 1083              		.loc 1 685 0
ARM GAS  /tmp/ccGLYu8q.s 			page 20


 1084              		.cfi_startproc
 1085              		@ args = 0, pretend = 0, frame = 0
 1086              		@ frame_needed = 0, uses_anonymous_args = 0
 1087              		@ link register save eliminated.
 1088              	.LVL100:
 1089              		.loc 1 688 0
 1090 0000 054B     		ldr	r3, .L121
 1091 0002 53F82100 		ldr	r0, [r3, r1, lsl #2]
 1092              	.LVL101:
 1093 0006 10F44050 		ands	r0, r0, #12288
 1094 000a 04D0     		beq	.L118
 1095 000c B0F5805F 		cmp	r0, #4096
 1096              		.loc 1 694 0
 1097 0010 0CBF     		ite	eq
 1098 0012 0120     		moveq	r0, #1
 1099 0014 0220     		movne	r0, #2
 1100              	.L118:
 1101              		.loc 1 696 0
 1102 0016 7047     		bx	lr
 1103              	.L122:
 1104              		.align	2
 1105              	.L121:
 1106 0018 005C0040 		.word	1073765376
 1107              		.cfi_endproc
 1108              	.LFE220:
 1109              		.size	usb_lld_get_status_out, .-usb_lld_get_status_out
 1110              		.section	.text.usb_lld_get_status_in,"ax",%progbits
 1111              		.align	2
 1112              		.p2align 4,,15
 1113              		.global	usb_lld_get_status_in
 1114              		.thumb
 1115              		.thumb_func
 1116              		.type	usb_lld_get_status_in, %function
 1117              	usb_lld_get_status_in:
 1118              	.LFB221:
 1119              		.loc 1 710 0
 1120              		.cfi_startproc
 1121              		@ args = 0, pretend = 0, frame = 0
 1122              		@ frame_needed = 0, uses_anonymous_args = 0
 1123              		@ link register save eliminated.
 1124              	.LVL102:
 1125              		.loc 1 713 0
 1126 0000 054B     		ldr	r3, .L128
 1127 0002 53F82100 		ldr	r0, [r3, r1, lsl #2]
 1128              	.LVL103:
 1129 0006 10F03000 		ands	r0, r0, #48
 1130 000a 03D0     		beq	.L125
 1131 000c 1028     		cmp	r0, #16
 1132              		.loc 1 719 0
 1133 000e 0CBF     		ite	eq
 1134 0010 0120     		moveq	r0, #1
 1135 0012 0220     		movne	r0, #2
 1136              	.L125:
 1137              		.loc 1 721 0
 1138 0014 7047     		bx	lr
 1139              	.L129:
 1140 0016 00BF     		.align	2
ARM GAS  /tmp/ccGLYu8q.s 			page 21


 1141              	.L128:
 1142 0018 005C0040 		.word	1073765376
 1143              		.cfi_endproc
 1144              	.LFE221:
 1145              		.size	usb_lld_get_status_in, .-usb_lld_get_status_in
 1146              		.section	.text.usb_lld_read_setup,"ax",%progbits
 1147              		.align	2
 1148              		.p2align 4,,15
 1149              		.global	usb_lld_read_setup
 1150              		.thumb
 1151              		.thumb_func
 1152              		.type	usb_lld_read_setup, %function
 1153              	usb_lld_read_setup:
 1154              	.LFB222:
 1155              		.loc 1 737 0
 1156              		.cfi_startproc
 1157              		@ args = 0, pretend = 0, frame = 0
 1158              		@ frame_needed = 0, uses_anonymous_args = 0
 1159              		@ link register save eliminated.
 1160              	.LVL104:
 1161              		.loc 1 743 0
 1162 0000 0B4B     		ldr	r3, .L133
 1163 0002 02F10800 		add	r0, r2, #8
 1164              	.LVL105:
 1165 0006 1B6D     		ldr	r3, [r3, #80]
 1166 0008 03F18043 		add	r3, r3, #1073741824
 1167 000c 03F5C043 		add	r3, r3, #24576
 1168 0010 03EB0111 		add	r1, r3, r1, lsl #4
 1169              	.LVL106:
 1170              		.loc 1 744 0
 1171 0014 8B68     		ldr	r3, [r1, #8]
 1172 0016 03F10053 		add	r3, r3, #536870912
 1173 001a 03F54053 		add	r3, r3, #12288
 1174 001e 5B00     		lsls	r3, r3, #1
 1175              	.LVL107:
 1176              	.L131:
 1177              		.loc 1 746 0 discriminator 3
 1178 0020 53F8041B 		ldr	r1, [r3], #4
 1179              	.LVL108:
 1180 0024 22F8021B 		strh	r1, [r2], #2	@ movhi
 1181              	.LVL109:
 1182              		.loc 1 745 0 discriminator 3
 1183 0028 8242     		cmp	r2, r0
 1184 002a F9D1     		bne	.L131
 1185              		.loc 1 749 0
 1186 002c 7047     		bx	lr
 1187              	.L134:
 1188 002e 00BF     		.align	2
 1189              	.L133:
 1190 0030 005C0040 		.word	1073765376
 1191              		.cfi_endproc
 1192              	.LFE222:
 1193              		.size	usb_lld_read_setup, .-usb_lld_read_setup
 1194              		.section	.text.usb_lld_start_out,"ax",%progbits
 1195              		.align	2
 1196              		.p2align 4,,15
 1197              		.global	usb_lld_start_out
ARM GAS  /tmp/ccGLYu8q.s 			page 22


 1198              		.thumb
 1199              		.thumb_func
 1200              		.type	usb_lld_start_out, %function
 1201              	usb_lld_start_out:
 1202              	.LFB223:
 1203              		.loc 1 759 0
 1204              		.cfi_startproc
 1205              		@ args = 0, pretend = 0, frame = 0
 1206              		@ frame_needed = 0, uses_anonymous_args = 0
 1207              		@ link register save eliminated.
 1208              	.LVL110:
 1209              		.loc 1 760 0
 1210 0000 00EB8100 		add	r0, r0, r1, lsl #2
 1211              	.LVL111:
 1212 0004 C068     		ldr	r0, [r0, #12]
 1213 0006 8269     		ldr	r2, [r0, #24]
 1214              	.LVL112:
 1215              		.loc 1 763 0
 1216 0008 1368     		ldr	r3, [r2]
 1217 000a BBB1     		cbz	r3, .L138
 1218              		.loc 1 766 0
 1219 000c 408A     		ldrh	r0, [r0, #18]
 1220 000e 013B     		subs	r3, r3, #1
 1221 0010 0344     		add	r3, r3, r0
 1222 0012 B3FBF0F3 		udiv	r3, r3, r0
 1223 0016 9381     		strh	r3, [r2, #12]	@ movhi
 1224              	.L137:
 1225 0018 8900     		lsls	r1, r1, #2
 1226              	.LVL113:
 1227 001a 01F18041 		add	r1, r1, #1073741824
 1228 001e 01F5B841 		add	r1, r1, #23552
 1229              		.loc 1 769 0
 1230 0022 0B68     		ldr	r3, [r1]
 1231 0024 23F49043 		bic	r3, r3, #18432
 1232 0028 23F07003 		bic	r3, r3, #112
 1233 002c 83F44053 		eor	r3, r3, #12288
 1234 0030 43F40043 		orr	r3, r3, #32768
 1235 0034 43F08003 		orr	r3, r3, #128
 1236 0038 0B60     		str	r3, [r1]
 1237 003a 7047     		bx	lr
 1238              	.LVL114:
 1239              	.L138:
 1240              		.loc 1 764 0
 1241 003c 0123     		movs	r3, #1
 1242 003e 9381     		strh	r3, [r2, #12]	@ movhi
 1243 0040 EAE7     		b	.L137
 1244              		.cfi_endproc
 1245              	.LFE223:
 1246              		.size	usb_lld_start_out, .-usb_lld_start_out
 1247 0042 00BF     		.section	.text.usb_lld_start_in,"ax",%progbits
 1248              		.align	2
 1249              		.p2align 4,,15
 1250              		.global	usb_lld_start_in
 1251              		.thumb
 1252              		.thumb_func
 1253              		.type	usb_lld_start_in, %function
 1254              	usb_lld_start_in:
ARM GAS  /tmp/ccGLYu8q.s 			page 23


 1255              	.LFB224:
 1256              		.loc 1 780 0
 1257              		.cfi_startproc
 1258              		@ args = 0, pretend = 0, frame = 0
 1259              		@ frame_needed = 0, uses_anonymous_args = 0
 1260              	.LVL115:
 1261              		.loc 1 782 0
 1262 0000 00EB8100 		add	r0, r0, r1, lsl #2
 1263              	.LVL116:
 1264              		.loc 1 780 0
 1265 0004 38B5     		push	{r3, r4, r5, lr}
 1266              		.cfi_def_cfa_offset 16
 1267              		.cfi_offset 3, -16
 1268              		.cfi_offset 4, -12
 1269              		.cfi_offset 5, -8
 1270              		.cfi_offset 14, -4
 1271              		.loc 1 782 0
 1272 0006 C368     		ldr	r3, [r0, #12]
 1273              		.loc 1 780 0
 1274 0008 0C46     		mov	r4, r1
 1275              		.loc 1 782 0
 1276 000a 5D69     		ldr	r5, [r3, #20]
 1277              	.LVL117:
 1278              		.loc 1 786 0
 1279 000c 1A8A     		ldrh	r2, [r3, #16]
 1280              		.loc 1 785 0
 1281 000e 2B68     		ldr	r3, [r5]
 1282              	.LVL118:
 1283              		.loc 1 790 0
 1284 0010 0846     		mov	r0, r1
 1285 0012 9A42     		cmp	r2, r3
 1286 0014 28BF     		it	cs
 1287 0016 1A46     		movcs	r2, r3
 1288              	.LVL119:
 1289 0018 A968     		ldr	r1, [r5, #8]
 1290              	.LVL120:
 1291              		.loc 1 789 0
 1292 001a EA60     		str	r2, [r5, #12]
 1293              		.loc 1 790 0
 1294 001c FFF7FEFF 		bl	usb_packet_write_from_buffer
 1295              	.LVL121:
 1296 0020 A100     		lsls	r1, r4, #2
 1297 0022 01F18041 		add	r1, r1, #1073741824
 1298 0026 01F5B841 		add	r1, r1, #23552
 1299              		.loc 1 792 0
 1300 002a 0B68     		ldr	r3, [r1]
 1301 002c 23F4F043 		bic	r3, r3, #30720
 1302 0030 23F04003 		bic	r3, r3, #64
 1303 0034 83F03003 		eor	r3, r3, #48
 1304 0038 43F40043 		orr	r3, r3, #32768
 1305 003c 43F08003 		orr	r3, r3, #128
 1306 0040 0B60     		str	r3, [r1]
 1307 0042 38BD     		pop	{r3, r4, r5, pc}
 1308              		.cfi_endproc
 1309              	.LFE224:
 1310              		.size	usb_lld_start_in, .-usb_lld_start_in
 1311              		.section	.text.usb_lld_stall_out,"ax",%progbits
ARM GAS  /tmp/ccGLYu8q.s 			page 24


 1312              		.align	2
 1313              		.p2align 4,,15
 1314              		.global	usb_lld_stall_out
 1315              		.thumb
 1316              		.thumb_func
 1317              		.type	usb_lld_stall_out, %function
 1318              	usb_lld_stall_out:
 1319              	.LFB225:
 1320              		.loc 1 803 0
 1321              		.cfi_startproc
 1322              		@ args = 0, pretend = 0, frame = 0
 1323              		@ frame_needed = 0, uses_anonymous_args = 0
 1324              		@ link register save eliminated.
 1325              	.LVL122:
 1326 0000 8900     		lsls	r1, r1, #2
 1327              	.LVL123:
 1328 0002 01F18041 		add	r1, r1, #1073741824
 1329 0006 01F5B841 		add	r1, r1, #23552
 1330              		.loc 1 807 0
 1331 000a 0B68     		ldr	r3, [r1]
 1332 000c 23F49043 		bic	r3, r3, #18432
 1333 0010 23F07003 		bic	r3, r3, #112
 1334 0014 83F48053 		eor	r3, r3, #4096
 1335 0018 43F40043 		orr	r3, r3, #32768
 1336 001c 43F08003 		orr	r3, r3, #128
 1337 0020 0B60     		str	r3, [r1]
 1338 0022 7047     		bx	lr
 1339              		.cfi_endproc
 1340              	.LFE225:
 1341              		.size	usb_lld_stall_out, .-usb_lld_stall_out
 1342              		.section	.text.usb_lld_stall_in,"ax",%progbits
 1343              		.align	2
 1344              		.p2align 4,,15
 1345              		.global	usb_lld_stall_in
 1346              		.thumb
 1347              		.thumb_func
 1348              		.type	usb_lld_stall_in, %function
 1349              	usb_lld_stall_in:
 1350              	.LFB226:
 1351              		.loc 1 818 0
 1352              		.cfi_startproc
 1353              		@ args = 0, pretend = 0, frame = 0
 1354              		@ frame_needed = 0, uses_anonymous_args = 0
 1355              		@ link register save eliminated.
 1356              	.LVL124:
 1357 0000 8900     		lsls	r1, r1, #2
 1358              	.LVL125:
 1359 0002 01F18041 		add	r1, r1, #1073741824
 1360 0006 01F5B841 		add	r1, r1, #23552
 1361              		.loc 1 822 0
 1362 000a 0B68     		ldr	r3, [r1]
 1363 000c 23F4F043 		bic	r3, r3, #30720
 1364 0010 23F04003 		bic	r3, r3, #64
 1365 0014 83F01003 		eor	r3, r3, #16
 1366 0018 43F40043 		orr	r3, r3, #32768
 1367 001c 43F08003 		orr	r3, r3, #128
 1368 0020 0B60     		str	r3, [r1]
ARM GAS  /tmp/ccGLYu8q.s 			page 25


 1369 0022 7047     		bx	lr
 1370              		.cfi_endproc
 1371              	.LFE226:
 1372              		.size	usb_lld_stall_in, .-usb_lld_stall_in
 1373              		.section	.text.usb_lld_clear_out,"ax",%progbits
 1374              		.align	2
 1375              		.p2align 4,,15
 1376              		.global	usb_lld_clear_out
 1377              		.thumb
 1378              		.thumb_func
 1379              		.type	usb_lld_clear_out, %function
 1380              	usb_lld_clear_out:
 1381              	.LFB227:
 1382              		.loc 1 833 0
 1383              		.cfi_startproc
 1384              		@ args = 0, pretend = 0, frame = 0
 1385              		@ frame_needed = 0, uses_anonymous_args = 0
 1386              		@ link register save eliminated.
 1387              	.LVL126:
 1388 0000 8900     		lsls	r1, r1, #2
 1389              	.LVL127:
 1390 0002 01F18041 		add	r1, r1, #1073741824
 1391 0006 01F5B841 		add	r1, r1, #23552
 1392              		.loc 1 839 0
 1393 000a 0B68     		ldr	r3, [r1]
 1394 000c 03F44053 		and	r3, r3, #12288
 1395 0010 B3F5405F 		cmp	r3, #12288
 1396 0014 09D0     		beq	.L143
 1397              		.loc 1 840 0
 1398 0016 0B68     		ldr	r3, [r1]
 1399 0018 23F4F043 		bic	r3, r3, #30720
 1400 001c 23F04003 		bic	r3, r3, #64
 1401 0020 43F42043 		orr	r3, r3, #40960
 1402 0024 43F08003 		orr	r3, r3, #128
 1403 0028 0B60     		str	r3, [r1]
 1404              	.L143:
 1405 002a 7047     		bx	lr
 1406              		.cfi_endproc
 1407              	.LFE227:
 1408              		.size	usb_lld_clear_out, .-usb_lld_clear_out
 1409              		.section	.text.usb_lld_clear_in,"ax",%progbits
 1410              		.align	2
 1411              		.p2align 4,,15
 1412              		.global	usb_lld_clear_in
 1413              		.thumb
 1414              		.thumb_func
 1415              		.type	usb_lld_clear_in, %function
 1416              	usb_lld_clear_in:
 1417              	.LFB228:
 1418              		.loc 1 851 0
 1419              		.cfi_startproc
 1420              		@ args = 0, pretend = 0, frame = 0
 1421              		@ frame_needed = 0, uses_anonymous_args = 0
 1422              		@ link register save eliminated.
 1423              	.LVL128:
 1424 0000 8900     		lsls	r1, r1, #2
 1425              	.LVL129:
ARM GAS  /tmp/ccGLYu8q.s 			page 26


 1426 0002 01F18041 		add	r1, r1, #1073741824
 1427 0006 01F5B841 		add	r1, r1, #23552
 1428              		.loc 1 857 0
 1429 000a 0B68     		ldr	r3, [r1]
 1430 000c 03F03003 		and	r3, r3, #48
 1431 0010 302B     		cmp	r3, #48
 1432 0012 0BD0     		beq	.L148
 1433              		.loc 1 858 0
 1434 0014 0B68     		ldr	r3, [r1]
 1435 0016 23F4F043 		bic	r3, r3, #30720
 1436 001a 23F04003 		bic	r3, r3, #64
 1437 001e 83F02003 		eor	r3, r3, #32
 1438 0022 43F40043 		orr	r3, r3, #32768
 1439 0026 43F08003 		orr	r3, r3, #128
 1440 002a 0B60     		str	r3, [r1]
 1441              	.L148:
 1442 002c 7047     		bx	lr
 1443              		.cfi_endproc
 1444              	.LFE228:
 1445              		.size	usb_lld_clear_in, .-usb_lld_clear_in
 1446              		.global	USBD1
 1447 002e 00BF     		.section	.bss.USBD1,"aw",%nobits
 1448              		.align	2
 1449              		.set	.LANCHOR0,. + 0
 1450              		.type	USBD1, %object
 1451              		.size	USBD1, 136
 1452              	USBD1:
 1453 0000 00000000 		.space	136
 1453      00000000 
 1453      00000000 
 1453      00000000 
 1453      00000000 
 1454              		.section	.rodata.ep0config,"a",%progbits
 1455              		.align	2
 1456              		.set	.LANCHOR1,. + 0
 1457              		.type	ep0config, %object
 1458              		.size	ep0config, 36
 1459              	ep0config:
 1460 0000 00000000 		.word	0
 1461 0004 00000000 		.word	_usb_ep0setup
 1462 0008 00000000 		.word	_usb_ep0in
 1463 000c 00000000 		.word	_usb_ep0out
 1464 0010 4000     		.short	64
 1465 0012 4000     		.short	64
 1466 0014 00000000 		.word	ep0_state
 1467 0018 00000000 		.word	ep0_state
 1468 001c 0100     		.short	1
 1469 001e 0000     		.space	2
 1470 0020 00000000 		.word	ep0setup_buffer
 1471              		.section	.bss.ep0_state,"aw",%nobits
 1472              		.align	2
 1473              		.type	ep0_state, %object
 1474              		.size	ep0_state, 16
 1475              	ep0_state:
 1476 0000 00000000 		.space	16
 1476      00000000 
 1476      00000000 
ARM GAS  /tmp/ccGLYu8q.s 			page 27


 1476      00000000 
 1477              		.section	.bss.ep0setup_buffer,"aw",%nobits
 1478              		.align	2
 1479              		.type	ep0setup_buffer, %object
 1480              		.size	ep0setup_buffer, 8
 1481              	ep0setup_buffer:
 1482 0000 00000000 		.space	8
 1482      00000000 
 1483              		.text
 1484              	.Letext0:
 1485              		.file 2 "/opt/stm32/gcc/gcc-arm-none-eabi-4_9-2015q2/lib/gcc/arm-none-eabi/4.9.3/include/stddef.h"
 1486              		.file 3 "/opt/stm32/gcc/gcc-arm-none-eabi-4_9-2015q2/arm-none-eabi/include/machine/_default_types.
 1487              		.file 4 "/opt/stm32/gcc/gcc-arm-none-eabi-4_9-2015q2/arm-none-eabi/include/sys/_stdint.h"
 1488              		.file 5 "/home/maciek/ChibiOS_16.1.5/os/rt/ports/ARMCMx/compilers/GCC/chtypes.h"
 1489              		.file 6 "/home/maciek/ChibiOS_16.1.5/os/rt/include/chsystypes.h"
 1490              		.file 7 "/home/maciek/ChibiOS_16.1.5/os/rt/include/chschd.h"
 1491              		.file 8 "/home/maciek/ChibiOS_16.1.5/os/ext/CMSIS/ST/STM32F1xx/stm32f103xe.h"
 1492              		.file 9 "/home/maciek/ChibiOS_16.1.5/os/rt/ports/ARMCMx/chcore.h"
 1493              		.file 10 "/home/maciek/ChibiOS_16.1.5/os/rt/ports/ARMCMx/chcore_v7m.h"
 1494              		.file 11 "/home/maciek/ChibiOS_16.1.5/os/rt/include/chtm.h"
 1495              		.file 12 "/home/maciek/ChibiOS_16.1.5/os/rt/include/chsem.h"
 1496              		.file 13 "/home/maciek/ChibiOS_16.1.5/os/rt/include/chmtx.h"
 1497              		.file 14 "/home/maciek/ChibiOS_16.1.5/os/hal/include/usb.h"
 1498              		.file 15 "/home/maciek/ChibiOS_16.1.5/os/hal/ports/STM32/LLD/USBv1/usb_lld.h"
 1499              		.file 16 "/home/maciek/ChibiOS_16.1.5/os/hal/ports/STM32/LLD/USBv1/stm32_usb.h"
 1500              		.file 17 "/home/maciek/ChibiOS_16.1.5/os/ext/CMSIS/include/core_cm3.h"
 1501              		.file 18 "/home/maciek/ChibiOS_16.1.5/os/hal/ports/common/ARMCMx/nvic.h"