ARM GAS  /tmp/ccl0HEXN.s 			page 1


   1              		.syntax unified
   2              		.cpu cortex-m3
   3              		.fpu softvfp
   4              		.eabi_attribute 20, 1
   5              		.eabi_attribute 21, 1
   6              		.eabi_attribute 23, 3
   7              		.eabi_attribute 24, 1
   8              		.eabi_attribute 25, 1
   9              		.eabi_attribute 26, 1
  10              		.eabi_attribute 30, 2
  11              		.eabi_attribute 34, 1
  12              		.eabi_attribute 18, 4
  13              		.thumb
  14              		.file	"usbcfg.c"
  15              		.text
  16              	.Ltext0:
  17              		.cfi_sections	.debug_frame
  18              		.section	.text.get_descriptor,"ax",%progbits
  19              		.align	2
  20              		.p2align 4,,15
  21              		.thumb
  22              		.thumb_func
  23              		.type	get_descriptor, %function
  24              	get_descriptor:
  25              	.LFB207:
  26              		.file 1 "usbcfg.c"
  27              		.loc 1 200 0
  28              		.cfi_startproc
  29              		@ args = 0, pretend = 0, frame = 0
  30              		@ frame_needed = 0, uses_anonymous_args = 0
  31              		@ link register save eliminated.
  32              	.LVL0:
  33              		.loc 1 204 0
  34 0000 0229     		cmp	r1, #2
  35 0002 06D0     		beq	.L3
  36 0004 0329     		cmp	r1, #3
  37 0006 06D0     		beq	.L4
  38 0008 0129     		cmp	r1, #1
  39              		.loc 1 213 0
  40 000a 0648     		ldr	r0, .L9
  41              	.LVL1:
  42 000c 18BF     		it	ne
  43 000e 0020     		movne	r0, #0
  44 0010 7047     		bx	lr
  45              	.LVL2:
  46              	.L3:
  47              		.loc 1 208 0
  48 0012 0548     		ldr	r0, .L9+4
  49              	.LVL3:
  50 0014 7047     		bx	lr
  51              	.LVL4:
  52              	.L4:
  53              		.loc 1 210 0
  54 0016 032A     		cmp	r2, #3
  55              		.loc 1 211 0
  56 0018 9ABF     		itte	ls
  57 001a 044B     		ldrls	r3, .L9+8
ARM GAS  /tmp/ccl0HEXN.s 			page 2


  58              	.LVL5:
  59 001c 03EBC200 		addls	r0, r3, r2, lsl #3
  60              	.LVL6:
  61              		.loc 1 213 0
  62 0020 0020     		movhi	r0, #0
  63              		.loc 1 214 0
  64 0022 7047     		bx	lr
  65              	.L10:
  66              		.align	2
  67              	.L9:
  68 0024 00000000 		.word	.LANCHOR0
  69 0028 00000000 		.word	.LANCHOR1
  70 002c 00000000 		.word	.LANCHOR2
  71              		.cfi_endproc
  72              	.LFE207:
  73              		.size	get_descriptor, .-get_descriptor
  74              		.section	.text.usb_event,"ax",%progbits
  75              		.align	2
  76              		.p2align 4,,15
  77              		.thumb
  78              		.thumb_func
  79              		.type	usb_event, %function
  80              	usb_event:
  81              	.LFB208:
  82              		.loc 1 266 0
  83              		.cfi_startproc
  84              		@ args = 0, pretend = 0, frame = 0
  85              		@ frame_needed = 0, uses_anonymous_args = 0
  86              	.LVL7:
  87              		.loc 1 269 0
  88 0000 0229     		cmp	r1, #2
  89 0002 15D1     		bne	.L15
  90              		.loc 1 266 0
  91 0004 38B5     		push	{r3, r4, r5, lr}
  92              		.cfi_def_cfa_offset 16
  93              		.cfi_offset 3, -16
  94              		.cfi_offset 4, -12
  95              		.cfi_offset 5, -8
  96              		.cfi_offset 14, -4
  97 0006 0546     		mov	r5, r0
  98 0008 0C46     		mov	r4, r1
  99              	.LVL8:
 100              	.LBB58:
 101              	.LBB59:
 102              	.LBB60:
 103              	.LBB61:
 104              	.LBB62:
 105              	.LBB63:
 106              	.LBB64:
 107              		.file 2 "/home/maciek/ChibiOS_16.1.5/os/ext/CMSIS/include/core_cmFunc.h"
 108              		.loc 2 548 0
 109 000a 2023     		movs	r3, #32
 110              	@ 548 "/home/maciek/ChibiOS_16.1.5/os/ext/CMSIS/include/core_cmFunc.h" 1
 111 000c 83F31188 		MSR basepri, r3
 112              	@ 0 "" 2
 113              		.thumb
 114              	.LBE64:
ARM GAS  /tmp/ccl0HEXN.s 			page 3


 115              	.LBE63:
 116              	.LBE62:
 117              	.LBE61:
 118              	.LBE60:
 119              		.loc 1 280 0
 120 0010 0121     		movs	r1, #1
 121              	.LVL9:
 122 0012 084A     		ldr	r2, .L16
 123 0014 FFF7FEFF 		bl	usbInitEndpointI
 124              	.LVL10:
 125              		.loc 1 281 0
 126 0018 2846     		mov	r0, r5
 127 001a 2146     		mov	r1, r4
 128 001c 064A     		ldr	r2, .L16+4
 129 001e FFF7FEFF 		bl	usbInitEndpointI
 130              	.LVL11:
 131              		.loc 1 284 0
 132 0022 0648     		ldr	r0, .L16+8
 133 0024 FFF7FEFF 		bl	sduConfigureHookI
 134              	.LVL12:
 135              	.LBB65:
 136              	.LBB66:
 137              	.LBB67:
 138              	.LBB68:
 139              	.LBB69:
 140              		.loc 2 548 0
 141 0028 0023     		movs	r3, #0
 142              	@ 548 "/home/maciek/ChibiOS_16.1.5/os/ext/CMSIS/include/core_cmFunc.h" 1
 143 002a 83F31188 		MSR basepri, r3
 144              	@ 0 "" 2
 145              		.thumb
 146 002e 38BD     		pop	{r3, r4, r5, pc}
 147              	.LVL13:
 148              	.L15:
 149              		.cfi_def_cfa_offset 0
 150              		.cfi_restore 3
 151              		.cfi_restore 4
 152              		.cfi_restore 5
 153              		.cfi_restore 14
 154 0030 7047     		bx	lr
 155              	.L17:
 156 0032 00BF     		.align	2
 157              	.L16:
 158 0034 00000000 		.word	.LANCHOR3
 159 0038 00000000 		.word	.LANCHOR4
 160 003c 00000000 		.word	.LANCHOR5
 161              	.LBE69:
 162              	.LBE68:
 163              	.LBE67:
 164              	.LBE66:
 165              	.LBE65:
 166              	.LBE59:
 167              	.LBE58:
 168              		.cfi_endproc
 169              	.LFE208:
 170              		.size	usb_event, .-usb_event
 171              		.global	serusbcfg
ARM GAS  /tmp/ccl0HEXN.s 			page 4


 172              		.global	usbcfg
 173              		.global	SDU1
 174              		.section	.rodata.ep1config,"a",%progbits
 175              		.align	2
 176              		.set	.LANCHOR3,. + 0
 177              		.type	ep1config, %object
 178              		.size	ep1config, 36
 179              	ep1config:
 180 0000 02000000 		.word	2
 181 0004 00000000 		.word	0
 182 0008 00000000 		.word	sduDataTransmitted
 183 000c 00000000 		.word	sduDataReceived
 184 0010 4000     		.short	64
 185 0012 4000     		.short	64
 186 0014 00000000 		.word	ep1instate
 187 0018 00000000 		.word	ep1outstate
 188 001c 0100     		.short	1
 189 001e 0000     		.space	2
 190 0020 00000000 		.word	0
 191              		.section	.bss.ep2instate,"aw",%nobits
 192              		.align	2
 193              		.type	ep2instate, %object
 194              		.size	ep2instate, 16
 195              	ep2instate:
 196 0000 00000000 		.space	16
 196      00000000 
 196      00000000 
 196      00000000 
 197              		.section	.bss.SDU1,"aw",%nobits
 198              		.align	2
 199              		.set	.LANCHOR5,. + 0
 200              		.type	SDU1, %object
 201              		.size	SDU1, 1160
 202              	SDU1:
 203 0000 00000000 		.space	1160
 203      00000000 
 203      00000000 
 203      00000000 
 203      00000000 
 204              		.section	.bss.ep1instate,"aw",%nobits
 205              		.align	2
 206              		.type	ep1instate, %object
 207              		.size	ep1instate, 16
 208              	ep1instate:
 209 0000 00000000 		.space	16
 209      00000000 
 209      00000000 
 209      00000000 
 210              		.section	.rodata.vcom_configuration_descriptor,"a",%progbits
 211              		.align	2
 212              		.set	.LANCHOR1,. + 0
 213              		.type	vcom_configuration_descriptor, %object
 214              		.size	vcom_configuration_descriptor, 8
 215              	vcom_configuration_descriptor:
 216 0000 43000000 		.word	67
 217 0004 00000000 		.word	vcom_configuration_descriptor_data
 218              		.section	.rodata.ep2config,"a",%progbits
ARM GAS  /tmp/ccl0HEXN.s 			page 5


 219              		.align	2
 220              		.set	.LANCHOR4,. + 0
 221              		.type	ep2config, %object
 222              		.size	ep2config, 36
 223              	ep2config:
 224 0000 03000000 		.word	3
 225 0004 00000000 		.word	0
 226 0008 00000000 		.word	sduInterruptTransmitted
 227 000c 00000000 		.word	0
 228 0010 1000     		.short	16
 229 0012 0000     		.short	0
 230 0014 00000000 		.word	ep2instate
 231 0018 00000000 		.word	0
 232 001c 0100     		.short	1
 233 001e 0000     		.space	2
 234 0020 00000000 		.word	0
 235              		.section	.rodata.usbcfg,"a",%progbits
 236              		.align	2
 237              		.type	usbcfg, %object
 238              		.size	usbcfg, 16
 239              	usbcfg:
 240 0000 00000000 		.word	usb_event
 241 0004 00000000 		.word	get_descriptor
 242 0008 00000000 		.word	sduRequestsHook
 243 000c 00000000 		.word	0
 244              		.section	.rodata.vcom_configuration_descriptor_data,"a",%progbits
 245              		.align	2
 246              		.type	vcom_configuration_descriptor_data, %object
 247              		.size	vcom_configuration_descriptor_data, 67
 248              	vcom_configuration_descriptor_data:
 249 0000 09       		.byte	9
 250 0001 02       		.byte	2
 251 0002 43       		.byte	67
 252 0003 00       		.byte	0
 253 0004 02       		.byte	2
 254 0005 01       		.byte	1
 255 0006 00       		.byte	0
 256 0007 C0       		.byte	-64
 257 0008 32       		.byte	50
 258 0009 09       		.byte	9
 259 000a 04       		.byte	4
 260 000b 00       		.byte	0
 261 000c 00       		.byte	0
 262 000d 01       		.byte	1
 263 000e 02       		.byte	2
 264 000f 02       		.byte	2
 265 0010 01       		.byte	1
 266 0011 00       		.byte	0
 267 0012 05       		.byte	5
 268 0013 24       		.byte	36
 269 0014 00       		.byte	0
 270 0015 10       		.byte	16
 271 0016 01       		.byte	1
 272 0017 05       		.byte	5
 273 0018 24       		.byte	36
 274 0019 01       		.byte	1
 275 001a 00       		.byte	0
ARM GAS  /tmp/ccl0HEXN.s 			page 6


 276 001b 01       		.byte	1
 277 001c 04       		.byte	4
 278 001d 24       		.byte	36
 279 001e 02       		.byte	2
 280 001f 02       		.byte	2
 281 0020 05       		.byte	5
 282 0021 24       		.byte	36
 283 0022 06       		.byte	6
 284 0023 00       		.byte	0
 285 0024 01       		.byte	1
 286 0025 07       		.byte	7
 287 0026 05       		.byte	5
 288 0027 82       		.byte	-126
 289 0028 03       		.byte	3
 290 0029 08       		.byte	8
 291 002a 00       		.byte	0
 292 002b FF       		.byte	-1
 293 002c 09       		.byte	9
 294 002d 04       		.byte	4
 295 002e 01       		.byte	1
 296 002f 00       		.byte	0
 297 0030 02       		.byte	2
 298 0031 0A       		.byte	10
 299 0032 00       		.byte	0
 300 0033 00       		.byte	0
 301 0034 00       		.byte	0
 302 0035 07       		.byte	7
 303 0036 05       		.byte	5
 304 0037 01       		.byte	1
 305 0038 02       		.byte	2
 306 0039 40       		.byte	64
 307 003a 00       		.byte	0
 308 003b 00       		.byte	0
 309 003c 07       		.byte	7
 310 003d 05       		.byte	5
 311 003e 81       		.byte	-127
 312 003f 02       		.byte	2
 313 0040 40       		.byte	64
 314 0041 00       		.byte	0
 315 0042 00       		.byte	0
 316              		.section	.rodata.vcom_device_descriptor_data,"a",%progbits
 317              		.align	2
 318              		.type	vcom_device_descriptor_data, %object
 319              		.size	vcom_device_descriptor_data, 18
 320              	vcom_device_descriptor_data:
 321 0000 12       		.byte	18
 322 0001 01       		.byte	1
 323 0002 10       		.byte	16
 324 0003 01       		.byte	1
 325 0004 02       		.byte	2
 326 0005 00       		.byte	0
 327 0006 00       		.byte	0
 328 0007 40       		.byte	64
 329 0008 83       		.byte	-125
 330 0009 04       		.byte	4
 331 000a 40       		.byte	64
 332 000b 57       		.byte	87
ARM GAS  /tmp/ccl0HEXN.s 			page 7


 333 000c 00       		.byte	0
 334 000d 02       		.byte	2
 335 000e 01       		.byte	1
 336 000f 02       		.byte	2
 337 0010 03       		.byte	3
 338 0011 01       		.byte	1
 339              		.section	.bss.ep1outstate,"aw",%nobits
 340              		.align	2
 341              		.type	ep1outstate, %object
 342              		.size	ep1outstate, 16
 343              	ep1outstate:
 344 0000 00000000 		.space	16
 344      00000000 
 344      00000000 
 344      00000000 
 345              		.section	.rodata.vcom_string0,"a",%progbits
 346              		.align	2
 347              		.type	vcom_string0, %object
 348              		.size	vcom_string0, 4
 349              	vcom_string0:
 350 0000 04       		.byte	4
 351 0001 03       		.byte	3
 352 0002 09       		.byte	9
 353 0003 04       		.byte	4
 354              		.section	.rodata.vcom_string1,"a",%progbits
 355              		.align	2
 356              		.type	vcom_string1, %object
 357              		.size	vcom_string1, 38
 358              	vcom_string1:
 359 0000 26       		.byte	38
 360 0001 03       		.byte	3
 361 0002 53       		.byte	83
 362 0003 00       		.byte	0
 363 0004 54       		.byte	84
 364 0005 00       		.byte	0
 365 0006 4D       		.byte	77
 366 0007 00       		.byte	0
 367 0008 69       		.byte	105
 368 0009 00       		.byte	0
 369 000a 63       		.byte	99
 370 000b 00       		.byte	0
 371 000c 72       		.byte	114
 372 000d 00       		.byte	0
 373 000e 6F       		.byte	111
 374 000f 00       		.byte	0
 375 0010 65       		.byte	101
 376 0011 00       		.byte	0
 377 0012 6C       		.byte	108
 378 0013 00       		.byte	0
 379 0014 65       		.byte	101
 380 0015 00       		.byte	0
 381 0016 63       		.byte	99
 382 0017 00       		.byte	0
 383 0018 74       		.byte	116
 384 0019 00       		.byte	0
 385 001a 72       		.byte	114
 386 001b 00       		.byte	0
ARM GAS  /tmp/ccl0HEXN.s 			page 8


 387 001c 6F       		.byte	111
 388 001d 00       		.byte	0
 389 001e 6E       		.byte	110
 390 001f 00       		.byte	0
 391 0020 69       		.byte	105
 392 0021 00       		.byte	0
 393 0022 63       		.byte	99
 394 0023 00       		.byte	0
 395 0024 73       		.byte	115
 396 0025 00       		.byte	0
 397              		.section	.rodata.vcom_string2,"a",%progbits
 398              		.align	2
 399              		.type	vcom_string2, %object
 400              		.size	vcom_string2, 56
 401              	vcom_string2:
 402 0000 38       		.byte	56
 403 0001 03       		.byte	3
 404 0002 43       		.byte	67
 405 0003 00       		.byte	0
 406 0004 68       		.byte	104
 407 0005 00       		.byte	0
 408 0006 69       		.byte	105
 409 0007 00       		.byte	0
 410 0008 62       		.byte	98
 411 0009 00       		.byte	0
 412 000a 69       		.byte	105
 413 000b 00       		.byte	0
 414 000c 4F       		.byte	79
 415 000d 00       		.byte	0
 416 000e 53       		.byte	83
 417 000f 00       		.byte	0
 418 0010 2F       		.byte	47
 419 0011 00       		.byte	0
 420 0012 52       		.byte	82
 421 0013 00       		.byte	0
 422 0014 54       		.byte	84
 423 0015 00       		.byte	0
 424 0016 20       		.byte	32
 425 0017 00       		.byte	0
 426 0018 56       		.byte	86
 427 0019 00       		.byte	0
 428 001a 69       		.byte	105
 429 001b 00       		.byte	0
 430 001c 72       		.byte	114
 431 001d 00       		.byte	0
 432 001e 74       		.byte	116
 433 001f 00       		.byte	0
 434 0020 75       		.byte	117
 435 0021 00       		.byte	0
 436 0022 61       		.byte	97
 437 0023 00       		.byte	0
 438 0024 6C       		.byte	108
 439 0025 00       		.byte	0
 440 0026 20       		.byte	32
 441 0027 00       		.byte	0
 442 0028 43       		.byte	67
 443 0029 00       		.byte	0
ARM GAS  /tmp/ccl0HEXN.s 			page 9


 444 002a 4F       		.byte	79
 445 002b 00       		.byte	0
 446 002c 4D       		.byte	77
 447 002d 00       		.byte	0
 448 002e 20       		.byte	32
 449 002f 00       		.byte	0
 450 0030 50       		.byte	80
 451 0031 00       		.byte	0
 452 0032 6F       		.byte	111
 453 0033 00       		.byte	0
 454 0034 72       		.byte	114
 455 0035 00       		.byte	0
 456 0036 74       		.byte	116
 457 0037 00       		.byte	0
 458              		.section	.rodata.vcom_string3,"a",%progbits
 459              		.align	2
 460              		.type	vcom_string3, %object
 461              		.size	vcom_string3, 8
 462              	vcom_string3:
 463 0000 08       		.byte	8
 464 0001 03       		.byte	3
 465 0002 33       		.byte	51
 466 0003 00       		.byte	0
 467 0004 31       		.byte	49
 468 0005 00       		.byte	0
 469 0006 34       		.byte	52
 470 0007 00       		.byte	0
 471              		.section	.rodata.vcom_strings,"a",%progbits
 472              		.align	2
 473              		.set	.LANCHOR2,. + 0
 474              		.type	vcom_strings, %object
 475              		.size	vcom_strings, 32
 476              	vcom_strings:
 477 0000 04000000 		.word	4
 478 0004 00000000 		.word	vcom_string0
 479 0008 26000000 		.word	38
 480 000c 00000000 		.word	vcom_string1
 481 0010 38000000 		.word	56
 482 0014 00000000 		.word	vcom_string2
 483 0018 08000000 		.word	8
 484 001c 00000000 		.word	vcom_string3
 485              		.section	.rodata.serusbcfg,"a",%progbits
 486              		.align	2
 487              		.type	serusbcfg, %object
 488              		.size	serusbcfg, 8
 489              	serusbcfg:
 490 0000 00000000 		.word	USBD1
 491 0004 01       		.byte	1
 492 0005 01       		.byte	1
 493 0006 02       		.byte	2
 494 0007 00       		.space	1
 495              		.section	.rodata.vcom_device_descriptor,"a",%progbits
 496              		.align	2
 497              		.set	.LANCHOR0,. + 0
 498              		.type	vcom_device_descriptor, %object
 499              		.size	vcom_device_descriptor, 8
 500              	vcom_device_descriptor:
ARM GAS  /tmp/ccl0HEXN.s 			page 10


 501 0000 12000000 		.word	18
 502 0004 00000000 		.word	vcom_device_descriptor_data
 503              		.text
 504              	.Letext0:
 505              		.file 3 "/opt/stm32/gcc/gcc-arm-none-eabi-4_9-2015q2/lib/gcc/arm-none-eabi/4.9.3/include/stddef.h"
 506              		.file 4 "/opt/stm32/gcc/gcc-arm-none-eabi-4_9-2015q2/arm-none-eabi/include/machine/_default_types.
 507              		.file 5 "/opt/stm32/gcc/gcc-arm-none-eabi-4_9-2015q2/arm-none-eabi/include/sys/_stdint.h"
 508              		.file 6 "/home/maciek/ChibiOS_16.1.5/os/rt/ports/ARMCMx/compilers/GCC/chtypes.h"
 509              		.file 7 "/home/maciek/ChibiOS_16.1.5/os/rt/include/chsystypes.h"
 510              		.file 8 "/home/maciek/ChibiOS_16.1.5/os/rt/include/chschd.h"
 511              		.file 9 "/home/maciek/ChibiOS_16.1.5/os/rt/ports/ARMCMx/chcore.h"
 512              		.file 10 "/home/maciek/ChibiOS_16.1.5/os/rt/ports/ARMCMx/chcore_v7m.h"
 513              		.file 11 "/home/maciek/ChibiOS_16.1.5/os/rt/include/chtm.h"
 514              		.file 12 "/home/maciek/ChibiOS_16.1.5/os/rt/include/chsem.h"
 515              		.file 13 "/home/maciek/ChibiOS_16.1.5/os/rt/include/chmtx.h"
 516              		.file 14 "/home/maciek/ChibiOS_16.1.5/os/rt/include/chevents.h"
 517              		.file 15 "/home/maciek/ChibiOS_16.1.5/os/hal/include/hal_buffers.h"
 518              		.file 16 "/home/maciek/ChibiOS_16.1.5/os/hal/include/usb.h"
 519              		.file 17 "/home/maciek/ChibiOS_16.1.5/os/hal/ports/STM32/LLD/USBv1/usb_lld.h"
 520              		.file 18 "/home/maciek/ChibiOS_16.1.5/os/hal/include/serial_usb.h"
 521              		.file 19 "/home/maciek/ChibiOS_16.1.5/os/rt/include/chsys.h"
 522              		.file 20 "/home/maciek/ChibiOS_16.1.5/os/ext/CMSIS/include/core_cm3.h"